	.text
	.file	"/Users/rkn/Documents/xTIMEcomposer/workspace/module_adat_rx/src/adatReceiver-100.h"
                                        # Start of file scope inline assembly
	.inline_definition delay_seconds
	.inline_definition delay_milliseconds
	.inline_definition delay_microseconds
	.set usage.anon.0,0
	.set usage.anon.1,0
	.set usage.anon.2,0
	.call usage.anon.2,delay_ticks_longlong
	.call usage.anon.1,delay_ticks_longlong
	.call usage.anon.0,delay_ticks_longlong
	.set adatReceiver48000.locnoside, 0
	.set adatReceiver44100.locnoside, 0

                                        # End of file scope inline assembly
	.section	.cp.rodata.cst4,"aMc",@progbits,4
	.cc_top .LCPI0_0.data,.LCPI0_0
	.align	4
	.type	.LCPI0_0,@object
	.size	.LCPI0_0, 4
.LCPI0_0:
	.long	2155905152              # 0x80808080
	.cc_bottom .LCPI0_0.data
	.text
	.globl	adatReceiver48000
	.align	4
	.type	adatReceiver48000,@function
	.cc_top adatReceiver48000.function,adatReceiver48000
adatReceiver48000:                      # @adatReceiver48000
.Lfunc_begin0:
	.file	1 "/Users/rkn/Documents/xTIMEcomposer/workspace/module_adat_rx/src/adatReceiver-100.h"
	.loc	1 14 0                  # /Users/rkn/Documents/xTIMEcomposer/workspace/module_adat_rx/src/adatReceiver-100.h:14:0
	.cfi_startproc
	.issue_mode dual
# BB#0:                                 # %allocas
.Lxtalabel0:
	{
		nop
		dualentsp 42
	}
.Ltmp0:
	.cfi_def_cfa_offset 168
.Ltmp1:
	.cfi_offset 15, 0
	{
		nop
		stw r4, sp[34]
	}
	{
		nop
		stw r5, sp[35]
	}
.Ltmp2:
	.cfi_offset 4, -32
.Ltmp3:
	.cfi_offset 5, -28
	{
		nop
		stw r6, sp[36]
	}
	{
		nop
		stw r7, sp[37]
	}
.Ltmp4:
	.cfi_offset 6, -24
.Ltmp5:
	.cfi_offset 7, -20
	{
		nop
		stw r8, sp[38]
	}
	{
		nop
		stw r9, sp[39]
	}
.Ltmp6:
	.cfi_offset 8, -16
.Ltmp7:
	.cfi_offset 9, -12
.Ltmp8:
	.cfi_offset 10, -8
	#DEBUG_VALUE: adatReceiver48000:p <- R0
	#DEBUG_VALUE: adatReceiver48000:oChan <- R1
.Ltmp9:
	#DEBUG_VALUE: adatReceiver48000:oChan <- R4
	{
		mov r4, r1
		stw r10, sp[40]
	}
.Ltmp10:
	{
		mov r5, r0
		nop
	}
.Ltmp11:
	#DEBUG_VALUE: word <- 1
	#DEBUG_VALUE: mask <- -2139062144
	#DEBUG_VALUE: adatReceiver48000:p <- R5
	.loc	1 20 0 prologue_end     # /Users/rkn/Documents/xTIMEcomposer/workspace/module_adat_rx/src/adatReceiver-100.h:20:0
	ldaw r11, cp[adatReceiver44100.3.init]
	{
		ldaw r6, sp[2]
		nop
	}
	ldc r2, 128
	{
		mov r0, r6
		mov r1, r11
	}
	bl __memcpy_4
.Ltmp12:
	#DEBUG_VALUE: i <- 0
	{
		ldc r0, 0
		ldc r1, 32
	}
.Ltmp13:
.LBB0_1:                                # %LoopBody
                                        # =>This Inner Loop Header: Depth=1
	#DEBUG_VALUE: adatReceiver48000:p <- R5
	#DEBUG_VALUE: adatReceiver48000:oChan <- R4
	#DEBUG_VALUE: mask <- -2139062144
	#DEBUG_VALUE: word <- 1
	#DEBUG_VALUE: i <- 0
	{
		nop
		ldw r2, r6[r0]
	}
	.loc	1 22 0                  # /Users/rkn/Documents/xTIMEcomposer/workspace/module_adat_rx/src/adatReceiver-100.h:22:0
.Ltmp14:
	{
		shl r2, r2, 4
		nop
	}
	.loc	1 22 0                  # /Users/rkn/Documents/xTIMEcomposer/workspace/module_adat_rx/src/adatReceiver-100.h:22:0
	stw r2, r6[r0]
	.loc	1 22 0                  # /Users/rkn/Documents/xTIMEcomposer/workspace/module_adat_rx/src/adatReceiver-100.h:22:0
	{
		add r0, r0, 1
		nop
	}
.Ltmp15:
	#DEBUG_VALUE: i <- R0
.xtaloop 32
	# LOOPMARKER 0
	.loc	1 22 0                  # /Users/rkn/Documents/xTIMEcomposer/workspace/module_adat_rx/src/adatReceiver-100.h:22:0
	{
		eq r2, r0, r1
		nop
	}
	bf r2, .LBB0_1
.Ltmp16:
# BB#2:                                 # %LoopBody8.preheader
	#DEBUG_VALUE: adatReceiver48000:p <- R5
	#DEBUG_VALUE: adatReceiver48000:oChan <- R4
	#DEBUG_VALUE: mask <- -2139062144
	#DEBUG_VALUE: word <- 1
	.loc	1 24 0                  # /Users/rkn/Documents/xTIMEcomposer/workspace/module_adat_rx/src/adatReceiver-100.h:24:0
	{
		setc res[r5], 1
		mkmsk r0, 1
	}
	{
		mov r1, r0
		nop
	}
.Ltmp17:
.LBB0_3:                                # %LoopBody8
                                        # =>This Inner Loop Header: Depth=1
.Lxtalabel1:
	#DEBUG_VALUE: adatReceiver48000:p <- R5
	#DEBUG_VALUE: adatReceiver48000:oChan <- R4
	#DEBUG_VALUE: mask <- -2139062144
	#DEBUG_VALUE: word <- 1
.Lxta.endpoint_labels0:
	{
		in r1, res[r5]
		mov r11, r1
	}
	.loc	1 25 7                  # /Users/rkn/Documents/xTIMEcomposer/workspace/module_adat_rx/src/adatReceiver-100.h:25:7
	{
		eq r2, r1, r11
		nop
	}
	bf r2, .LBB0_3
.Ltmp18:
# BB#4:                                 # %lhsfalse
                                        #   in Loop: Header=BB0_3 Depth=1
.Lxtalabel2:
	#DEBUG_VALUE: adatReceiver48000:p <- R5
	#DEBUG_VALUE: adatReceiver48000:oChan <- R4
	#DEBUG_VALUE: mask <- -2139062144
	#DEBUG_VALUE: word <- 1
	.loc	1 25 7                  # /Users/rkn/Documents/xTIMEcomposer/workspace/module_adat_rx/src/adatReceiver-100.h:25:7
	{
		add r2, r11, 1
		nop
	}
	{
		lsu r2, r0, r2
		nop
	}
	bt r2, .LBB0_3
.Ltmp19:
# BB#5:
	#DEBUG_VALUE: adatReceiver48000:p <- R5
	#DEBUG_VALUE: adatReceiver48000:oChan <- R4
	ldw r0, cp[.LCPI0_0]
	{
		mkmsk r1, 4
		ldc r7, 16
	}
	{
		ldc r8, 2
		nop
	}
.Ltmp20:
.LBB0_6:                                # %LoopBody33
                                        # =>This Inner Loop Header: Depth=1
.Lxtalabel3:
	#DEBUG_VALUE: adatReceiver48000:p <- R5
	#DEBUG_VALUE: adatReceiver48000:oChan <- R4
	#DEBUG_VALUE: violation <- R11
	.loc	1 28 0                  # /Users/rkn/Documents/xTIMEcomposer/workspace/module_adat_rx/src/adatReceiver-100.h:28:0
	{
		setd res[r5], r11
		nop
	}
	.loc	1 28 0                  # /Users/rkn/Documents/xTIMEcomposer/workspace/module_adat_rx/src/adatReceiver-100.h:28:0
	{
		setc res[r5], 25
		nop
	}
	.loc	1 28 0                  # /Users/rkn/Documents/xTIMEcomposer/workspace/module_adat_rx/src/adatReceiver-100.h:28:0
.Ltmp21:
.Lxta.endpoint_labels1:
	{
		in r11, res[r5]
		nop
	}
.Ltmp22:
	#DEBUG_VALUE: _ <- R11
	.loc	1 29 0                  # /Users/rkn/Documents/xTIMEcomposer/workspace/module_adat_rx/src/adatReceiver-100.h:29:0
.Lxta.endpoint_labels2:
	{
		in r11, res[r5]
		nop
	}
.Ltmp23:
	#DEBUG_VALUE: word <- R11
	.loc	1 30 0                  # /Users/rkn/Documents/xTIMEcomposer/workspace/module_adat_rx/src/adatReceiver-100.h:30:0
	{
		shl r11, r11, 4
		nop
	}
.Ltmp24:
	.loc	1 30 0                  # /Users/rkn/Documents/xTIMEcomposer/workspace/module_adat_rx/src/adatReceiver-100.h:30:0
	{
		and r9, r11, r0
		nop
	}
.Ltmp25:
	#DEBUG_VALUE: fourBits <- R9
	.loc	1 31 0                  # /Users/rkn/Documents/xTIMEcomposer/workspace/module_adat_rx/src/adatReceiver-100.h:31:0
	crc32 r9, r1, r1
.Ltmp26:
	.loc	1 32 0                  # /Users/rkn/Documents/xTIMEcomposer/workspace/module_adat_rx/src/adatReceiver-100.h:32:0
	ldaw r11, cp[adatReceiver48000.0.init]
.Ltmp27:
	#DEBUG_VALUE: old <- R9
	#DEBUG_VALUE: compressed <- R9
	#DEBUG_VALUE: word <- R10
	.loc	1 32 0                  # /Users/rkn/Documents/xTIMEcomposer/workspace/module_adat_rx/src/adatReceiver-100.h:32:0
.Lxta.endpoint_labels3:
	{
		in r10, res[r5]
		ldw r9, r11[r9]
	}
.Ltmp28:
	.loc	1 35 0                  # /Users/rkn/Documents/xTIMEcomposer/workspace/module_adat_rx/src/adatReceiver-100.h:35:0
	{
		shl r10, r10, 4
		nop
	}
	.loc	1 35 0                  # /Users/rkn/Documents/xTIMEcomposer/workspace/module_adat_rx/src/adatReceiver-100.h:35:0
	{
		and r10, r10, r0
		nop
	}
.Ltmp29:
	#DEBUG_VALUE: fourBits <- R10
	.loc	1 36 0                  # /Users/rkn/Documents/xTIMEcomposer/workspace/module_adat_rx/src/adatReceiver-100.h:36:0
	crc32 r10, r1, r1
.Ltmp30:
	{
		nop
		ldw r10, r11[r10]
	}
.Ltmp31:
	#DEBUG_VALUE: compressed <- R10
	.loc	1 38 0                  # /Users/rkn/Documents/xTIMEcomposer/workspace/module_adat_rx/src/adatReceiver-100.h:38:0
	{
		shl r2, r10, 4
		nop
	}
	.loc	1 38 0                  # /Users/rkn/Documents/xTIMEcomposer/workspace/module_adat_rx/src/adatReceiver-100.h:38:0
	{
		or r2, r2, r9
		nop
	}
	.loc	1 38 0                  # /Users/rkn/Documents/xTIMEcomposer/workspace/module_adat_rx/src/adatReceiver-100.h:38:0
	{
		zext r2, 5
		nop
	}
.Ltmp32:
	#DEBUG_VALUE: nibble <- R2
	#DEBUG_VALUE: old <- R9
	.loc	1 38 0                  # /Users/rkn/Documents/xTIMEcomposer/workspace/module_adat_rx/src/adatReceiver-100.h:38:0
	{
		shr r9, r10, 1
		ldw r2, r6[r2]
	}
.Ltmp33:
	.loc	1 40 0                  # /Users/rkn/Documents/xTIMEcomposer/workspace/module_adat_rx/src/adatReceiver-100.h:40:0
	{
		shl r2, r2, 4
		mkmsk r3, 1
	}
	.loc	1 40 0                  # /Users/rkn/Documents/xTIMEcomposer/workspace/module_adat_rx/src/adatReceiver-100.h:40:0
	{
		or r2, r2, r3
		nop
	}
	.loc	1 40 0                  # /Users/rkn/Documents/xTIMEcomposer/workspace/module_adat_rx/src/adatReceiver-100.h:40:0
.Lxta.endpoint_labels4:
	{
		out res[r4], r2
		nop
	}
	.loc	1 41 0                  # /Users/rkn/Documents/xTIMEcomposer/workspace/module_adat_rx/src/adatReceiver-100.h:41:0
.Lxta.endpoint_labels5:
	{
		in r2, res[r5]
		nop
	}
.Ltmp34:
	#DEBUG_VALUE: word <- R2
	.loc	1 42 0                  # /Users/rkn/Documents/xTIMEcomposer/workspace/module_adat_rx/src/adatReceiver-100.h:42:0
	{
		shl r2, r2, 3
		nop
	}
.Ltmp35:
	.loc	1 42 0                  # /Users/rkn/Documents/xTIMEcomposer/workspace/module_adat_rx/src/adatReceiver-100.h:42:0
	{
		and r2, r2, r0
		nop
	}
.Ltmp36:
	#DEBUG_VALUE: fourBits <- R2
	.loc	1 43 0                  # /Users/rkn/Documents/xTIMEcomposer/workspace/module_adat_rx/src/adatReceiver-100.h:43:0
	crc32 r2, r1, r1
.Ltmp37:
	{
		nop
		ldw r2, r11[r2]
	}
.Ltmp38:
	#DEBUG_VALUE: compressed <- R2
	.loc	1 45 0                  # /Users/rkn/Documents/xTIMEcomposer/workspace/module_adat_rx/src/adatReceiver-100.h:45:0
	{
		shl r10, r2, 3
		nop
	}
	.loc	1 45 0                  # /Users/rkn/Documents/xTIMEcomposer/workspace/module_adat_rx/src/adatReceiver-100.h:45:0
	{
		or r9, r10, r9
		nop
	}
	.loc	1 45 0                  # /Users/rkn/Documents/xTIMEcomposer/workspace/module_adat_rx/src/adatReceiver-100.h:45:0
	{
		zext r9, 5
		nop
	}
.Ltmp39:
	#DEBUG_VALUE: nibble <- R9
	#DEBUG_VALUE: old <- R2
	.loc	1 45 0                  # /Users/rkn/Documents/xTIMEcomposer/workspace/module_adat_rx/src/adatReceiver-100.h:45:0
	{
		shr r2, r2, 2
		ldw r9, r6[r9]
	}
.Ltmp40:
	#DEBUG_VALUE: data <- R9
	#DEBUG_VALUE: word <- R10
	.loc	1 47 0                  # /Users/rkn/Documents/xTIMEcomposer/workspace/module_adat_rx/src/adatReceiver-100.h:47:0
.Lxta.endpoint_labels6:
	{
		in r10, res[r5]
		shl r9, r9, 4
	}
.Ltmp41:
	.loc	1 49 0                  # /Users/rkn/Documents/xTIMEcomposer/workspace/module_adat_rx/src/adatReceiver-100.h:49:0
	{
		shl r10, r10, 3
		nop
	}
	.loc	1 49 0                  # /Users/rkn/Documents/xTIMEcomposer/workspace/module_adat_rx/src/adatReceiver-100.h:49:0
	{
		and r10, r10, r0
		nop
	}
.Ltmp42:
	#DEBUG_VALUE: fourBits <- R10
	.loc	1 50 0                  # /Users/rkn/Documents/xTIMEcomposer/workspace/module_adat_rx/src/adatReceiver-100.h:50:0
	crc32 r10, r1, r1
.Ltmp43:
	{
		nop
		ldw r10, r11[r10]
	}
.Ltmp44:
	#DEBUG_VALUE: compressed <- R10
	.loc	1 52 0                  # /Users/rkn/Documents/xTIMEcomposer/workspace/module_adat_rx/src/adatReceiver-100.h:52:0
	{
		shl r3, r10, 2
		nop
	}
	.loc	1 52 0                  # /Users/rkn/Documents/xTIMEcomposer/workspace/module_adat_rx/src/adatReceiver-100.h:52:0
	{
		or r2, r3, r2
		nop
	}
	.loc	1 52 0                  # /Users/rkn/Documents/xTIMEcomposer/workspace/module_adat_rx/src/adatReceiver-100.h:52:0
	{
		zext r2, 5
		nop
	}
.Ltmp45:
	#DEBUG_VALUE: nibble <- R2
	#DEBUG_VALUE: old <- R3
	.loc	1 52 0                  # /Users/rkn/Documents/xTIMEcomposer/workspace/module_adat_rx/src/adatReceiver-100.h:52:0
	{
		shr r3, r10, 3
		ldw r2, r6[r2]
	}
.Ltmp46:
	.loc	1 54 0                  # /Users/rkn/Documents/xTIMEcomposer/workspace/module_adat_rx/src/adatReceiver-100.h:54:0
	{
		or r2, r2, r9
		nop
	}
.Ltmp47:
	#DEBUG_VALUE: data <- R2
	#DEBUG_VALUE: word <- R9
	.loc	1 54 0                  # /Users/rkn/Documents/xTIMEcomposer/workspace/module_adat_rx/src/adatReceiver-100.h:54:0
.Lxta.endpoint_labels7:
	{
		in r9, res[r5]
		shl r2, r2, 4
	}
.Ltmp48:
	.loc	1 56 0                  # /Users/rkn/Documents/xTIMEcomposer/workspace/module_adat_rx/src/adatReceiver-100.h:56:0
	{
		shl r9, r9, 2
		nop
	}
	.loc	1 56 0                  # /Users/rkn/Documents/xTIMEcomposer/workspace/module_adat_rx/src/adatReceiver-100.h:56:0
	{
		and r9, r9, r0
		nop
	}
.Ltmp49:
	#DEBUG_VALUE: fourBits <- R9
	.loc	1 57 0                  # /Users/rkn/Documents/xTIMEcomposer/workspace/module_adat_rx/src/adatReceiver-100.h:57:0
	crc32 r9, r1, r1
.Ltmp50:
	{
		nop
		ldw r9, r11[r9]
	}
.Ltmp51:
	#DEBUG_VALUE: compressed <- R9
	.loc	1 59 0                  # /Users/rkn/Documents/xTIMEcomposer/workspace/module_adat_rx/src/adatReceiver-100.h:59:0
	{
		shl r9, r9, 1
		nop
	}
.Ltmp52:
	.loc	1 59 0                  # /Users/rkn/Documents/xTIMEcomposer/workspace/module_adat_rx/src/adatReceiver-100.h:59:0
	{
		or r3, r9, r3
		nop
	}
	.loc	1 59 0                  # /Users/rkn/Documents/xTIMEcomposer/workspace/module_adat_rx/src/adatReceiver-100.h:59:0
	{
		zext r3, 5
		nop
	}
	{
		nop
		ldw r3, r6[r3]
	}
.Ltmp53:
	#DEBUG_VALUE: nibble <- R3
	.loc	1 61 0                  # /Users/rkn/Documents/xTIMEcomposer/workspace/module_adat_rx/src/adatReceiver-100.h:61:0
	{
		or r2, r3, r2
		nop
	}
.Ltmp54:
	#DEBUG_VALUE: data <- R2
	#DEBUG_VALUE: word <- R3
	.loc	1 61 0                  # /Users/rkn/Documents/xTIMEcomposer/workspace/module_adat_rx/src/adatReceiver-100.h:61:0
.Lxta.endpoint_labels8:
	{
		in r3, res[r5]
		shl r2, r2, 4
	}
.Ltmp55:
	.loc	1 63 0                  # /Users/rkn/Documents/xTIMEcomposer/workspace/module_adat_rx/src/adatReceiver-100.h:63:0
	{
		shl r3, r3, 1
		nop
	}
	.loc	1 63 0                  # /Users/rkn/Documents/xTIMEcomposer/workspace/module_adat_rx/src/adatReceiver-100.h:63:0
	{
		and r3, r3, r0
		nop
	}
.Ltmp56:
	#DEBUG_VALUE: fourBits <- R3
	.loc	1 64 0                  # /Users/rkn/Documents/xTIMEcomposer/workspace/module_adat_rx/src/adatReceiver-100.h:64:0
	crc32 r3, r1, r1
.Ltmp57:
	#DEBUG_VALUE: old <- R3
	#DEBUG_VALUE: compressed <- R3
	#DEBUG_VALUE: word <- R9
	.loc	1 65 0                  # /Users/rkn/Documents/xTIMEcomposer/workspace/module_adat_rx/src/adatReceiver-100.h:65:0
.Lxta.endpoint_labels9:
	{
		in r9, res[r5]
		ldw r3, r11[r3]
	}
.Ltmp58:
	.loc	1 68 0                  # /Users/rkn/Documents/xTIMEcomposer/workspace/module_adat_rx/src/adatReceiver-100.h:68:0
	{
		shl r9, r9, 1
		nop
	}
	.loc	1 68 0                  # /Users/rkn/Documents/xTIMEcomposer/workspace/module_adat_rx/src/adatReceiver-100.h:68:0
	{
		and r9, r9, r0
		nop
	}
.Ltmp59:
	#DEBUG_VALUE: fourBits <- R9
	.loc	1 69 0                  # /Users/rkn/Documents/xTIMEcomposer/workspace/module_adat_rx/src/adatReceiver-100.h:69:0
	crc32 r9, r1, r1
.Ltmp60:
	{
		nop
		ldw r9, r11[r9]
	}
.Ltmp61:
	#DEBUG_VALUE: compressed <- R9
	.loc	1 71 0                  # /Users/rkn/Documents/xTIMEcomposer/workspace/module_adat_rx/src/adatReceiver-100.h:71:0
	{
		shl r10, r9, 4
		nop
	}
	.loc	1 71 0                  # /Users/rkn/Documents/xTIMEcomposer/workspace/module_adat_rx/src/adatReceiver-100.h:71:0
	{
		or r3, r10, r3
		nop
	}
	.loc	1 71 0                  # /Users/rkn/Documents/xTIMEcomposer/workspace/module_adat_rx/src/adatReceiver-100.h:71:0
	{
		zext r3, 5
		nop
	}
.Ltmp62:
	#DEBUG_VALUE: nibble <- R3
	#DEBUG_VALUE: old <- R9
	.loc	1 71 0                  # /Users/rkn/Documents/xTIMEcomposer/workspace/module_adat_rx/src/adatReceiver-100.h:71:0
	{
		shr r9, r9, 1
		ldw r3, r6[r3]
	}
.Ltmp63:
	.loc	1 73 0                  # /Users/rkn/Documents/xTIMEcomposer/workspace/module_adat_rx/src/adatReceiver-100.h:73:0
	{
		or r2, r3, r2
		nop
	}
.Ltmp64:
	#DEBUG_VALUE: data <- R2
	#DEBUG_VALUE: word <- R3
	.loc	1 73 0                  # /Users/rkn/Documents/xTIMEcomposer/workspace/module_adat_rx/src/adatReceiver-100.h:73:0
.Lxta.endpoint_labels10:
	{
		in r3, res[r5]
		shl r2, r2, 4
	}
.Ltmp65:
	.loc	1 75 0                  # /Users/rkn/Documents/xTIMEcomposer/workspace/module_adat_rx/src/adatReceiver-100.h:75:0
	{
		and r3, r3, r0
		nop
	}
.Ltmp66:
	#DEBUG_VALUE: fourBits <- R3
	.loc	1 76 0                  # /Users/rkn/Documents/xTIMEcomposer/workspace/module_adat_rx/src/adatReceiver-100.h:76:0
	crc32 r3, r1, r1
.Ltmp67:
	{
		nop
		ldw r3, r11[r3]
	}
.Ltmp68:
	#DEBUG_VALUE: compressed <- R3
	.loc	1 78 0                  # /Users/rkn/Documents/xTIMEcomposer/workspace/module_adat_rx/src/adatReceiver-100.h:78:0
	{
		shl r10, r3, 3
		nop
	}
	.loc	1 78 0                  # /Users/rkn/Documents/xTIMEcomposer/workspace/module_adat_rx/src/adatReceiver-100.h:78:0
	{
		or r9, r10, r9
		nop
	}
	.loc	1 78 0                  # /Users/rkn/Documents/xTIMEcomposer/workspace/module_adat_rx/src/adatReceiver-100.h:78:0
	{
		zext r9, 5
		nop
	}
.Ltmp69:
	#DEBUG_VALUE: nibble <- R9
	#DEBUG_VALUE: old <- R3
	.loc	1 78 0                  # /Users/rkn/Documents/xTIMEcomposer/workspace/module_adat_rx/src/adatReceiver-100.h:78:0
	{
		shr r3, r3, 2
		ldw r9, r6[r9]
	}
.Ltmp70:
	.loc	1 80 0                  # /Users/rkn/Documents/xTIMEcomposer/workspace/module_adat_rx/src/adatReceiver-100.h:80:0
	{
		or r2, r9, r2
		nop
	}
.Ltmp71:
	#DEBUG_VALUE: data <- R2
	#DEBUG_VALUE: word <- R9
	.loc	1 80 0                  # /Users/rkn/Documents/xTIMEcomposer/workspace/module_adat_rx/src/adatReceiver-100.h:80:0
.Lxta.endpoint_labels11:
	{
		in r9, res[r5]
		shl r2, r2, 4
	}
.Ltmp72:
	.loc	1 82 0                  # /Users/rkn/Documents/xTIMEcomposer/workspace/module_adat_rx/src/adatReceiver-100.h:82:0
	{
		and r9, r9, r0
		nop
	}
.Ltmp73:
	#DEBUG_VALUE: fourBits <- R9
	.loc	1 83 0                  # /Users/rkn/Documents/xTIMEcomposer/workspace/module_adat_rx/src/adatReceiver-100.h:83:0
	crc32 r9, r1, r1
.Ltmp74:
	{
		nop
		ldw r9, r11[r9]
	}
.Ltmp75:
	#DEBUG_VALUE: compressed <- R9
	.loc	1 85 0                  # /Users/rkn/Documents/xTIMEcomposer/workspace/module_adat_rx/src/adatReceiver-100.h:85:0
	{
		shl r10, r9, 2
		nop
	}
	.loc	1 85 0                  # /Users/rkn/Documents/xTIMEcomposer/workspace/module_adat_rx/src/adatReceiver-100.h:85:0
	{
		or r3, r10, r3
		nop
	}
	.loc	1 85 0                  # /Users/rkn/Documents/xTIMEcomposer/workspace/module_adat_rx/src/adatReceiver-100.h:85:0
	{
		zext r3, 5
		nop
	}
.Ltmp76:
	#DEBUG_VALUE: nibble <- R3
	#DEBUG_VALUE: old <- R9
	.loc	1 85 0                  # /Users/rkn/Documents/xTIMEcomposer/workspace/module_adat_rx/src/adatReceiver-100.h:85:0
	{
		shr r9, r9, 3
		ldw r3, r6[r3]
	}
.Ltmp77:
	.loc	1 87 0                  # /Users/rkn/Documents/xTIMEcomposer/workspace/module_adat_rx/src/adatReceiver-100.h:87:0
	{
		or r2, r3, r2
		nop
	}
	.loc	1 87 0                  # /Users/rkn/Documents/xTIMEcomposer/workspace/module_adat_rx/src/adatReceiver-100.h:87:0
	{
		shl r2, r2, 4
		nop
	}
.Ltmp78:
	#DEBUG_VALUE: data <- R2
	.loc	1 88 0                  # /Users/rkn/Documents/xTIMEcomposer/workspace/module_adat_rx/src/adatReceiver-100.h:88:0
.Lxta.endpoint_labels12:
	{
		out res[r4], r2
		nop
	}
	.loc	1 89 0                  # /Users/rkn/Documents/xTIMEcomposer/workspace/module_adat_rx/src/adatReceiver-100.h:89:0
.Lxta.endpoint_labels13:
	{
		in r2, res[r5]
		nop
	}
.Ltmp79:
	#DEBUG_VALUE: word <- R2
	.loc	1 90 0                  # /Users/rkn/Documents/xTIMEcomposer/workspace/module_adat_rx/src/adatReceiver-100.h:90:0
	{
		shl r2, r2, 7
		nop
	}
.Ltmp80:
	.loc	1 90 0                  # /Users/rkn/Documents/xTIMEcomposer/workspace/module_adat_rx/src/adatReceiver-100.h:90:0
	{
		and r2, r2, r0
		nop
	}
.Ltmp81:
	#DEBUG_VALUE: fourBits <- R2
	.loc	1 91 0                  # /Users/rkn/Documents/xTIMEcomposer/workspace/module_adat_rx/src/adatReceiver-100.h:91:0
	crc32 r2, r1, r1
.Ltmp82:
	#DEBUG_VALUE: compressed <- R2
	.loc	1 92 0                  # /Users/rkn/Documents/xTIMEcomposer/workspace/module_adat_rx/src/adatReceiver-100.h:92:0
	{
		ldc r3, 30
		ldw r2, r11[r2]
	}
.Ltmp83:
	.loc	1 94 0                  # /Users/rkn/Documents/xTIMEcomposer/workspace/module_adat_rx/src/adatReceiver-100.h:94:0
	{
		and r2, r2, r3
		nop
	}
.Ltmp84:
	#DEBUG_VALUE: old <- R2
	#DEBUG_VALUE: word <- R3
	.loc	1 94 0                  # /Users/rkn/Documents/xTIMEcomposer/workspace/module_adat_rx/src/adatReceiver-100.h:94:0
.Lxta.endpoint_labels14:
	{
		in r3, res[r5]
		or r2, r2, r9
	}
.Ltmp85:
	.loc	1 96 0                  # /Users/rkn/Documents/xTIMEcomposer/workspace/module_adat_rx/src/adatReceiver-100.h:96:0
	{
		shl r3, r3, 7
		nop
	}
	.loc	1 96 0                  # /Users/rkn/Documents/xTIMEcomposer/workspace/module_adat_rx/src/adatReceiver-100.h:96:0
	{
		and r3, r3, r0
		nop
	}
.Ltmp86:
	#DEBUG_VALUE: fourBits <- R3
	.loc	1 97 0                  # /Users/rkn/Documents/xTIMEcomposer/workspace/module_adat_rx/src/adatReceiver-100.h:97:0
	crc32 r3, r1, r1
.Ltmp87:
	{
		nop
		ldw r3, r11[r3]
	}
.Ltmp88:
	#DEBUG_VALUE: compressed <- R3
	.loc	1 99 0                  # /Users/rkn/Documents/xTIMEcomposer/workspace/module_adat_rx/src/adatReceiver-100.h:99:0
	{
		shl r9, r3, 4
		nop
	}
	.loc	1 99 0                  # /Users/rkn/Documents/xTIMEcomposer/workspace/module_adat_rx/src/adatReceiver-100.h:99:0
	{
		or r2, r2, r9
		nop
	}
	.loc	1 99 0                  # /Users/rkn/Documents/xTIMEcomposer/workspace/module_adat_rx/src/adatReceiver-100.h:99:0
	{
		zext r2, 5
		nop
	}
.Ltmp89:
	#DEBUG_VALUE: nibble <- R2
	#DEBUG_VALUE: old <- R3
	.loc	1 99 0                  # /Users/rkn/Documents/xTIMEcomposer/workspace/module_adat_rx/src/adatReceiver-100.h:99:0
	{
		shr r3, r3, 1
		ldw r2, r6[r2]
	}
.Ltmp90:
	#DEBUG_VALUE: data <- R2
	#DEBUG_VALUE: word <- R9
	.loc	1 101 0                 # /Users/rkn/Documents/xTIMEcomposer/workspace/module_adat_rx/src/adatReceiver-100.h:101:0
.Lxta.endpoint_labels15:
	{
		in r9, res[r5]
		shl r2, r2, 4
	}
.Ltmp91:
	.loc	1 103 0                 # /Users/rkn/Documents/xTIMEcomposer/workspace/module_adat_rx/src/adatReceiver-100.h:103:0
	{
		shl r9, r9, 6
		nop
	}
	.loc	1 103 0                 # /Users/rkn/Documents/xTIMEcomposer/workspace/module_adat_rx/src/adatReceiver-100.h:103:0
	{
		and r9, r9, r0
		nop
	}
.Ltmp92:
	#DEBUG_VALUE: fourBits <- R9
	.loc	1 104 0                 # /Users/rkn/Documents/xTIMEcomposer/workspace/module_adat_rx/src/adatReceiver-100.h:104:0
	crc32 r9, r1, r1
.Ltmp93:
	{
		nop
		ldw r9, r11[r9]
	}
.Ltmp94:
	#DEBUG_VALUE: compressed <- R9
	.loc	1 106 0                 # /Users/rkn/Documents/xTIMEcomposer/workspace/module_adat_rx/src/adatReceiver-100.h:106:0
	{
		shl r10, r9, 3
		nop
	}
	.loc	1 106 0                 # /Users/rkn/Documents/xTIMEcomposer/workspace/module_adat_rx/src/adatReceiver-100.h:106:0
	{
		or r3, r10, r3
		nop
	}
	.loc	1 106 0                 # /Users/rkn/Documents/xTIMEcomposer/workspace/module_adat_rx/src/adatReceiver-100.h:106:0
	{
		zext r3, 5
		nop
	}
.Ltmp95:
	#DEBUG_VALUE: nibble <- R3
	#DEBUG_VALUE: old <- R9
	.loc	1 106 0                 # /Users/rkn/Documents/xTIMEcomposer/workspace/module_adat_rx/src/adatReceiver-100.h:106:0
	{
		shr r9, r9, 2
		ldw r3, r6[r3]
	}
.Ltmp96:
	.loc	1 108 0                 # /Users/rkn/Documents/xTIMEcomposer/workspace/module_adat_rx/src/adatReceiver-100.h:108:0
	{
		or r2, r3, r2
		nop
	}
.Ltmp97:
	#DEBUG_VALUE: data <- R2
	#DEBUG_VALUE: word <- R3
	.loc	1 108 0                 # /Users/rkn/Documents/xTIMEcomposer/workspace/module_adat_rx/src/adatReceiver-100.h:108:0
.Lxta.endpoint_labels16:
	{
		in r3, res[r5]
		shl r2, r2, 4
	}
.Ltmp98:
	.loc	1 110 0                 # /Users/rkn/Documents/xTIMEcomposer/workspace/module_adat_rx/src/adatReceiver-100.h:110:0
	{
		shl r3, r3, 6
		nop
	}
	.loc	1 110 0                 # /Users/rkn/Documents/xTIMEcomposer/workspace/module_adat_rx/src/adatReceiver-100.h:110:0
	{
		and r3, r3, r0
		nop
	}
.Ltmp99:
	#DEBUG_VALUE: fourBits <- R3
	.loc	1 111 0                 # /Users/rkn/Documents/xTIMEcomposer/workspace/module_adat_rx/src/adatReceiver-100.h:111:0
	crc32 r3, r1, r1
.Ltmp100:
	{
		nop
		ldw r3, r11[r3]
	}
.Ltmp101:
	#DEBUG_VALUE: compressed <- R3
	.loc	1 113 0                 # /Users/rkn/Documents/xTIMEcomposer/workspace/module_adat_rx/src/adatReceiver-100.h:113:0
	{
		shl r10, r3, 2
		nop
	}
	.loc	1 113 0                 # /Users/rkn/Documents/xTIMEcomposer/workspace/module_adat_rx/src/adatReceiver-100.h:113:0
	{
		or r9, r10, r9
		nop
	}
	.loc	1 113 0                 # /Users/rkn/Documents/xTIMEcomposer/workspace/module_adat_rx/src/adatReceiver-100.h:113:0
	{
		zext r9, 5
		nop
	}
.Ltmp102:
	#DEBUG_VALUE: nibble <- R9
	#DEBUG_VALUE: old <- R3
	.loc	1 113 0                 # /Users/rkn/Documents/xTIMEcomposer/workspace/module_adat_rx/src/adatReceiver-100.h:113:0
	{
		shr r3, r3, 3
		ldw r9, r6[r9]
	}
.Ltmp103:
	.loc	1 115 0                 # /Users/rkn/Documents/xTIMEcomposer/workspace/module_adat_rx/src/adatReceiver-100.h:115:0
	{
		or r2, r9, r2
		nop
	}
.Ltmp104:
	#DEBUG_VALUE: data <- R2
	#DEBUG_VALUE: word <- R9
	.loc	1 115 0                 # /Users/rkn/Documents/xTIMEcomposer/workspace/module_adat_rx/src/adatReceiver-100.h:115:0
.Lxta.endpoint_labels17:
	{
		in r9, res[r5]
		shl r2, r2, 4
	}
.Ltmp105:
	.loc	1 117 0                 # /Users/rkn/Documents/xTIMEcomposer/workspace/module_adat_rx/src/adatReceiver-100.h:117:0
	{
		shl r9, r9, 5
		nop
	}
	.loc	1 117 0                 # /Users/rkn/Documents/xTIMEcomposer/workspace/module_adat_rx/src/adatReceiver-100.h:117:0
	{
		and r9, r9, r0
		nop
	}
.Ltmp106:
	#DEBUG_VALUE: fourBits <- R9
	.loc	1 118 0                 # /Users/rkn/Documents/xTIMEcomposer/workspace/module_adat_rx/src/adatReceiver-100.h:118:0
	crc32 r9, r1, r1
.Ltmp107:
	{
		nop
		ldw r9, r11[r9]
	}
.Ltmp108:
	#DEBUG_VALUE: compressed <- R9
	.loc	1 120 0                 # /Users/rkn/Documents/xTIMEcomposer/workspace/module_adat_rx/src/adatReceiver-100.h:120:0
	{
		shl r9, r9, 1
		nop
	}
.Ltmp109:
	.loc	1 120 0                 # /Users/rkn/Documents/xTIMEcomposer/workspace/module_adat_rx/src/adatReceiver-100.h:120:0
	{
		or r3, r9, r3
		nop
	}
	.loc	1 120 0                 # /Users/rkn/Documents/xTIMEcomposer/workspace/module_adat_rx/src/adatReceiver-100.h:120:0
	{
		zext r3, 5
		nop
	}
	{
		nop
		ldw r3, r6[r3]
	}
.Ltmp110:
	#DEBUG_VALUE: nibble <- R3
	.loc	1 122 0                 # /Users/rkn/Documents/xTIMEcomposer/workspace/module_adat_rx/src/adatReceiver-100.h:122:0
	{
		or r2, r3, r2
		nop
	}
.Ltmp111:
	#DEBUG_VALUE: data <- R2
	#DEBUG_VALUE: word <- R3
	.loc	1 122 0                 # /Users/rkn/Documents/xTIMEcomposer/workspace/module_adat_rx/src/adatReceiver-100.h:122:0
.Lxta.endpoint_labels18:
	{
		in r3, res[r5]
		shl r2, r2, 4
	}
.Ltmp112:
	.loc	1 124 0                 # /Users/rkn/Documents/xTIMEcomposer/workspace/module_adat_rx/src/adatReceiver-100.h:124:0
	{
		shl r3, r3, 5
		nop
	}
	.loc	1 124 0                 # /Users/rkn/Documents/xTIMEcomposer/workspace/module_adat_rx/src/adatReceiver-100.h:124:0
	{
		and r3, r3, r0
		nop
	}
.Ltmp113:
	#DEBUG_VALUE: fourBits <- R3
	.loc	1 125 0                 # /Users/rkn/Documents/xTIMEcomposer/workspace/module_adat_rx/src/adatReceiver-100.h:125:0
	crc32 r3, r1, r1
.Ltmp114:
	#DEBUG_VALUE: old <- R3
	#DEBUG_VALUE: compressed <- R3
	#DEBUG_VALUE: word <- R9
	.loc	1 126 0                 # /Users/rkn/Documents/xTIMEcomposer/workspace/module_adat_rx/src/adatReceiver-100.h:126:0
.Lxta.endpoint_labels19:
	{
		in r9, res[r5]
		ldw r3, r11[r3]
	}
.Ltmp115:
	.loc	1 129 0                 # /Users/rkn/Documents/xTIMEcomposer/workspace/module_adat_rx/src/adatReceiver-100.h:129:0
	{
		shl r9, r9, 4
		nop
	}
	.loc	1 129 0                 # /Users/rkn/Documents/xTIMEcomposer/workspace/module_adat_rx/src/adatReceiver-100.h:129:0
	{
		and r9, r9, r0
		nop
	}
.Ltmp116:
	#DEBUG_VALUE: fourBits <- R9
	.loc	1 130 0                 # /Users/rkn/Documents/xTIMEcomposer/workspace/module_adat_rx/src/adatReceiver-100.h:130:0
	crc32 r9, r1, r1
.Ltmp117:
	{
		nop
		ldw r9, r11[r9]
	}
.Ltmp118:
	#DEBUG_VALUE: compressed <- R9
	.loc	1 132 0                 # /Users/rkn/Documents/xTIMEcomposer/workspace/module_adat_rx/src/adatReceiver-100.h:132:0
	{
		shl r10, r9, 4
		nop
	}
	.loc	1 132 0                 # /Users/rkn/Documents/xTIMEcomposer/workspace/module_adat_rx/src/adatReceiver-100.h:132:0
	{
		or r3, r10, r3
		nop
	}
	.loc	1 132 0                 # /Users/rkn/Documents/xTIMEcomposer/workspace/module_adat_rx/src/adatReceiver-100.h:132:0
	{
		zext r3, 5
		nop
	}
.Ltmp119:
	#DEBUG_VALUE: nibble <- R3
	#DEBUG_VALUE: old <- R9
	.loc	1 132 0                 # /Users/rkn/Documents/xTIMEcomposer/workspace/module_adat_rx/src/adatReceiver-100.h:132:0
	{
		shr r9, r9, 1
		ldw r3, r6[r3]
	}
.Ltmp120:
	.loc	1 134 0                 # /Users/rkn/Documents/xTIMEcomposer/workspace/module_adat_rx/src/adatReceiver-100.h:134:0
	{
		or r2, r3, r2
		nop
	}
.Ltmp121:
	#DEBUG_VALUE: data <- R2
	#DEBUG_VALUE: word <- R3
	.loc	1 134 0                 # /Users/rkn/Documents/xTIMEcomposer/workspace/module_adat_rx/src/adatReceiver-100.h:134:0
.Lxta.endpoint_labels20:
	{
		in r3, res[r5]
		shl r2, r2, 4
	}
.Ltmp122:
	.loc	1 136 0                 # /Users/rkn/Documents/xTIMEcomposer/workspace/module_adat_rx/src/adatReceiver-100.h:136:0
	{
		shl r3, r3, 4
		nop
	}
	.loc	1 136 0                 # /Users/rkn/Documents/xTIMEcomposer/workspace/module_adat_rx/src/adatReceiver-100.h:136:0
	{
		and r3, r3, r0
		nop
	}
.Ltmp123:
	#DEBUG_VALUE: fourBits <- R3
	.loc	1 137 0                 # /Users/rkn/Documents/xTIMEcomposer/workspace/module_adat_rx/src/adatReceiver-100.h:137:0
	crc32 r3, r1, r1
.Ltmp124:
	{
		nop
		ldw r3, r11[r3]
	}
.Ltmp125:
	#DEBUG_VALUE: compressed <- R3
	.loc	1 139 0                 # /Users/rkn/Documents/xTIMEcomposer/workspace/module_adat_rx/src/adatReceiver-100.h:139:0
	{
		shl r10, r3, 3
		nop
	}
	.loc	1 139 0                 # /Users/rkn/Documents/xTIMEcomposer/workspace/module_adat_rx/src/adatReceiver-100.h:139:0
	{
		or r9, r10, r9
		nop
	}
	.loc	1 139 0                 # /Users/rkn/Documents/xTIMEcomposer/workspace/module_adat_rx/src/adatReceiver-100.h:139:0
	{
		zext r9, 5
		nop
	}
.Ltmp126:
	#DEBUG_VALUE: nibble <- R9
	#DEBUG_VALUE: old <- R3
	.loc	1 139 0                 # /Users/rkn/Documents/xTIMEcomposer/workspace/module_adat_rx/src/adatReceiver-100.h:139:0
	{
		shr r3, r3, 2
		ldw r9, r6[r9]
	}
.Ltmp127:
	.loc	1 141 0                 # /Users/rkn/Documents/xTIMEcomposer/workspace/module_adat_rx/src/adatReceiver-100.h:141:0
	{
		or r2, r9, r2
		nop
	}
	.loc	1 141 0                 # /Users/rkn/Documents/xTIMEcomposer/workspace/module_adat_rx/src/adatReceiver-100.h:141:0
	{
		shl r2, r2, 4
		nop
	}
.Ltmp128:
	#DEBUG_VALUE: data <- R2
	.loc	1 142 0                 # /Users/rkn/Documents/xTIMEcomposer/workspace/module_adat_rx/src/adatReceiver-100.h:142:0
.Lxta.endpoint_labels21:
	{
		out res[r4], r2
		nop
	}
	.loc	1 143 0                 # /Users/rkn/Documents/xTIMEcomposer/workspace/module_adat_rx/src/adatReceiver-100.h:143:0
.Lxta.endpoint_labels22:
	{
		in r2, res[r5]
		nop
	}
.Ltmp129:
	#DEBUG_VALUE: word <- R2
	.loc	1 144 0                 # /Users/rkn/Documents/xTIMEcomposer/workspace/module_adat_rx/src/adatReceiver-100.h:144:0
	{
		shl r2, r2, 3
		nop
	}
.Ltmp130:
	.loc	1 144 0                 # /Users/rkn/Documents/xTIMEcomposer/workspace/module_adat_rx/src/adatReceiver-100.h:144:0
	{
		and r2, r2, r0
		nop
	}
.Ltmp131:
	#DEBUG_VALUE: fourBits <- R2
	.loc	1 145 0                 # /Users/rkn/Documents/xTIMEcomposer/workspace/module_adat_rx/src/adatReceiver-100.h:145:0
	crc32 r2, r1, r1
.Ltmp132:
	{
		nop
		ldw r2, r11[r2]
	}
.Ltmp133:
	#DEBUG_VALUE: compressed <- R2
	.loc	1 147 0                 # /Users/rkn/Documents/xTIMEcomposer/workspace/module_adat_rx/src/adatReceiver-100.h:147:0
	{
		shl r9, r2, 2
		nop
	}
	.loc	1 147 0                 # /Users/rkn/Documents/xTIMEcomposer/workspace/module_adat_rx/src/adatReceiver-100.h:147:0
	{
		or r3, r9, r3
		nop
	}
	.loc	1 147 0                 # /Users/rkn/Documents/xTIMEcomposer/workspace/module_adat_rx/src/adatReceiver-100.h:147:0
	{
		zext r3, 5
		nop
	}
.Ltmp134:
	#DEBUG_VALUE: nibble <- R3
	#DEBUG_VALUE: old <- R2
	.loc	1 147 0                 # /Users/rkn/Documents/xTIMEcomposer/workspace/module_adat_rx/src/adatReceiver-100.h:147:0
	{
		shr r2, r2, 3
		ldw r3, r6[r3]
	}
.Ltmp135:
	#DEBUG_VALUE: data <- R3
	#DEBUG_VALUE: word <- R9
	.loc	1 149 0                 # /Users/rkn/Documents/xTIMEcomposer/workspace/module_adat_rx/src/adatReceiver-100.h:149:0
.Lxta.endpoint_labels23:
	{
		in r9, res[r5]
		shl r3, r3, 4
	}
.Ltmp136:
	.loc	1 151 0                 # /Users/rkn/Documents/xTIMEcomposer/workspace/module_adat_rx/src/adatReceiver-100.h:151:0
	{
		shl r9, r9, 2
		nop
	}
	.loc	1 151 0                 # /Users/rkn/Documents/xTIMEcomposer/workspace/module_adat_rx/src/adatReceiver-100.h:151:0
	{
		and r9, r9, r0
		nop
	}
.Ltmp137:
	#DEBUG_VALUE: fourBits <- R9
	.loc	1 152 0                 # /Users/rkn/Documents/xTIMEcomposer/workspace/module_adat_rx/src/adatReceiver-100.h:152:0
	crc32 r9, r1, r1
.Ltmp138:
	{
		nop
		ldw r9, r11[r9]
	}
.Ltmp139:
	#DEBUG_VALUE: compressed <- R9
	.loc	1 154 0                 # /Users/rkn/Documents/xTIMEcomposer/workspace/module_adat_rx/src/adatReceiver-100.h:154:0
	{
		shl r9, r9, 1
		nop
	}
.Ltmp140:
	.loc	1 154 0                 # /Users/rkn/Documents/xTIMEcomposer/workspace/module_adat_rx/src/adatReceiver-100.h:154:0
	{
		or r2, r9, r2
		nop
	}
	.loc	1 154 0                 # /Users/rkn/Documents/xTIMEcomposer/workspace/module_adat_rx/src/adatReceiver-100.h:154:0
	{
		zext r2, 5
		nop
	}
	{
		nop
		ldw r2, r6[r2]
	}
.Ltmp141:
	#DEBUG_VALUE: nibble <- R2
	.loc	1 156 0                 # /Users/rkn/Documents/xTIMEcomposer/workspace/module_adat_rx/src/adatReceiver-100.h:156:0
	{
		or r2, r2, r3
		nop
	}
.Ltmp142:
	#DEBUG_VALUE: data <- R2
	#DEBUG_VALUE: word <- R3
	.loc	1 156 0                 # /Users/rkn/Documents/xTIMEcomposer/workspace/module_adat_rx/src/adatReceiver-100.h:156:0
.Lxta.endpoint_labels24:
	{
		in r3, res[r5]
		shl r2, r2, 4
	}
.Ltmp143:
	.loc	1 158 0                 # /Users/rkn/Documents/xTIMEcomposer/workspace/module_adat_rx/src/adatReceiver-100.h:158:0
	{
		shl r3, r3, 2
		nop
	}
	.loc	1 158 0                 # /Users/rkn/Documents/xTIMEcomposer/workspace/module_adat_rx/src/adatReceiver-100.h:158:0
	{
		and r3, r3, r0
		nop
	}
.Ltmp144:
	#DEBUG_VALUE: fourBits <- R3
	.loc	1 159 0                 # /Users/rkn/Documents/xTIMEcomposer/workspace/module_adat_rx/src/adatReceiver-100.h:159:0
	crc32 r3, r1, r1
.Ltmp145:
	#DEBUG_VALUE: old <- R3
	#DEBUG_VALUE: compressed <- R3
	#DEBUG_VALUE: word <- R9
	.loc	1 160 0                 # /Users/rkn/Documents/xTIMEcomposer/workspace/module_adat_rx/src/adatReceiver-100.h:160:0
.Lxta.endpoint_labels25:
	{
		in r9, res[r5]
		ldw r3, r11[r3]
	}
.Ltmp146:
	.loc	1 163 0                 # /Users/rkn/Documents/xTIMEcomposer/workspace/module_adat_rx/src/adatReceiver-100.h:163:0
	{
		shl r9, r9, 1
		nop
	}
	.loc	1 163 0                 # /Users/rkn/Documents/xTIMEcomposer/workspace/module_adat_rx/src/adatReceiver-100.h:163:0
	{
		and r9, r9, r0
		nop
	}
.Ltmp147:
	#DEBUG_VALUE: fourBits <- R9
	.loc	1 164 0                 # /Users/rkn/Documents/xTIMEcomposer/workspace/module_adat_rx/src/adatReceiver-100.h:164:0
	crc32 r9, r1, r1
.Ltmp148:
	{
		nop
		ldw r9, r11[r9]
	}
.Ltmp149:
	#DEBUG_VALUE: compressed <- R9
	.loc	1 166 0                 # /Users/rkn/Documents/xTIMEcomposer/workspace/module_adat_rx/src/adatReceiver-100.h:166:0
	{
		shl r10, r9, 4
		nop
	}
	.loc	1 166 0                 # /Users/rkn/Documents/xTIMEcomposer/workspace/module_adat_rx/src/adatReceiver-100.h:166:0
	{
		or r3, r10, r3
		nop
	}
	.loc	1 166 0                 # /Users/rkn/Documents/xTIMEcomposer/workspace/module_adat_rx/src/adatReceiver-100.h:166:0
	{
		zext r3, 5
		nop
	}
.Ltmp150:
	#DEBUG_VALUE: nibble <- R3
	#DEBUG_VALUE: old <- R9
	.loc	1 166 0                 # /Users/rkn/Documents/xTIMEcomposer/workspace/module_adat_rx/src/adatReceiver-100.h:166:0
	{
		shr r9, r9, 1
		ldw r3, r6[r3]
	}
.Ltmp151:
	.loc	1 168 0                 # /Users/rkn/Documents/xTIMEcomposer/workspace/module_adat_rx/src/adatReceiver-100.h:168:0
	{
		or r2, r3, r2
		nop
	}
.Ltmp152:
	#DEBUG_VALUE: data <- R2
	#DEBUG_VALUE: word <- R3
	.loc	1 168 0                 # /Users/rkn/Documents/xTIMEcomposer/workspace/module_adat_rx/src/adatReceiver-100.h:168:0
.Lxta.endpoint_labels26:
	{
		in r3, res[r5]
		shl r2, r2, 4
	}
.Ltmp153:
	.loc	1 170 0                 # /Users/rkn/Documents/xTIMEcomposer/workspace/module_adat_rx/src/adatReceiver-100.h:170:0
	{
		shl r3, r3, 1
		nop
	}
	.loc	1 170 0                 # /Users/rkn/Documents/xTIMEcomposer/workspace/module_adat_rx/src/adatReceiver-100.h:170:0
	{
		and r3, r3, r0
		nop
	}
.Ltmp154:
	#DEBUG_VALUE: fourBits <- R3
	.loc	1 171 0                 # /Users/rkn/Documents/xTIMEcomposer/workspace/module_adat_rx/src/adatReceiver-100.h:171:0
	crc32 r3, r1, r1
.Ltmp155:
	{
		nop
		ldw r3, r11[r3]
	}
.Ltmp156:
	#DEBUG_VALUE: compressed <- R3
	.loc	1 173 0                 # /Users/rkn/Documents/xTIMEcomposer/workspace/module_adat_rx/src/adatReceiver-100.h:173:0
	{
		shl r10, r3, 3
		nop
	}
	.loc	1 173 0                 # /Users/rkn/Documents/xTIMEcomposer/workspace/module_adat_rx/src/adatReceiver-100.h:173:0
	{
		or r9, r10, r9
		nop
	}
	.loc	1 173 0                 # /Users/rkn/Documents/xTIMEcomposer/workspace/module_adat_rx/src/adatReceiver-100.h:173:0
	{
		zext r9, 5
		nop
	}
.Ltmp157:
	#DEBUG_VALUE: nibble <- R9
	#DEBUG_VALUE: old <- R3
	.loc	1 173 0                 # /Users/rkn/Documents/xTIMEcomposer/workspace/module_adat_rx/src/adatReceiver-100.h:173:0
	{
		shr r3, r3, 2
		ldw r9, r6[r9]
	}
.Ltmp158:
	.loc	1 175 0                 # /Users/rkn/Documents/xTIMEcomposer/workspace/module_adat_rx/src/adatReceiver-100.h:175:0
	{
		or r2, r9, r2
		nop
	}
.Ltmp159:
	#DEBUG_VALUE: data <- R2
	#DEBUG_VALUE: word <- R9
	.loc	1 175 0                 # /Users/rkn/Documents/xTIMEcomposer/workspace/module_adat_rx/src/adatReceiver-100.h:175:0
.Lxta.endpoint_labels27:
	{
		in r9, res[r5]
		shl r2, r2, 4
	}
.Ltmp160:
	.loc	1 177 0                 # /Users/rkn/Documents/xTIMEcomposer/workspace/module_adat_rx/src/adatReceiver-100.h:177:0
	{
		and r9, r9, r0
		nop
	}
.Ltmp161:
	#DEBUG_VALUE: fourBits <- R9
	.loc	1 178 0                 # /Users/rkn/Documents/xTIMEcomposer/workspace/module_adat_rx/src/adatReceiver-100.h:178:0
	crc32 r9, r1, r1
.Ltmp162:
	{
		nop
		ldw r9, r11[r9]
	}
.Ltmp163:
	#DEBUG_VALUE: compressed <- R9
	.loc	1 180 0                 # /Users/rkn/Documents/xTIMEcomposer/workspace/module_adat_rx/src/adatReceiver-100.h:180:0
	{
		shl r10, r9, 2
		nop
	}
	.loc	1 180 0                 # /Users/rkn/Documents/xTIMEcomposer/workspace/module_adat_rx/src/adatReceiver-100.h:180:0
	{
		or r3, r10, r3
		nop
	}
	.loc	1 180 0                 # /Users/rkn/Documents/xTIMEcomposer/workspace/module_adat_rx/src/adatReceiver-100.h:180:0
	{
		zext r3, 5
		nop
	}
.Ltmp164:
	#DEBUG_VALUE: nibble <- R3
	#DEBUG_VALUE: old <- R9
	.loc	1 180 0                 # /Users/rkn/Documents/xTIMEcomposer/workspace/module_adat_rx/src/adatReceiver-100.h:180:0
	{
		shr r9, r9, 3
		ldw r3, r6[r3]
	}
.Ltmp165:
	.loc	1 182 0                 # /Users/rkn/Documents/xTIMEcomposer/workspace/module_adat_rx/src/adatReceiver-100.h:182:0
	{
		or r2, r3, r2
		nop
	}
.Ltmp166:
	#DEBUG_VALUE: data <- R2
	#DEBUG_VALUE: word <- R3
	.loc	1 182 0                 # /Users/rkn/Documents/xTIMEcomposer/workspace/module_adat_rx/src/adatReceiver-100.h:182:0
.Lxta.endpoint_labels28:
	{
		in r3, res[r5]
		shl r2, r2, 4
	}
.Ltmp167:
	.loc	1 184 0                 # /Users/rkn/Documents/xTIMEcomposer/workspace/module_adat_rx/src/adatReceiver-100.h:184:0
	{
		and r3, r3, r0
		nop
	}
.Ltmp168:
	#DEBUG_VALUE: fourBits <- R3
	.loc	1 185 0                 # /Users/rkn/Documents/xTIMEcomposer/workspace/module_adat_rx/src/adatReceiver-100.h:185:0
	crc32 r3, r1, r1
.Ltmp169:
	{
		nop
		ldw r3, r11[r3]
	}
.Ltmp170:
	#DEBUG_VALUE: compressed <- R3
	.loc	1 187 0                 # /Users/rkn/Documents/xTIMEcomposer/workspace/module_adat_rx/src/adatReceiver-100.h:187:0
	{
		shl r3, r3, 1
		nop
	}
.Ltmp171:
	.loc	1 187 0                 # /Users/rkn/Documents/xTIMEcomposer/workspace/module_adat_rx/src/adatReceiver-100.h:187:0
	{
		or r3, r3, r9
		nop
	}
	.loc	1 187 0                 # /Users/rkn/Documents/xTIMEcomposer/workspace/module_adat_rx/src/adatReceiver-100.h:187:0
	{
		zext r3, 5
		nop
	}
	{
		nop
		ldw r3, r6[r3]
	}
.Ltmp172:
	#DEBUG_VALUE: nibble <- R3
	.loc	1 189 0                 # /Users/rkn/Documents/xTIMEcomposer/workspace/module_adat_rx/src/adatReceiver-100.h:189:0
	{
		or r2, r3, r2
		nop
	}
	.loc	1 189 0                 # /Users/rkn/Documents/xTIMEcomposer/workspace/module_adat_rx/src/adatReceiver-100.h:189:0
	{
		shl r2, r2, 4
		nop
	}
.Ltmp173:
	#DEBUG_VALUE: data <- R2
	.loc	1 190 0                 # /Users/rkn/Documents/xTIMEcomposer/workspace/module_adat_rx/src/adatReceiver-100.h:190:0
.Lxta.endpoint_labels29:
	{
		out res[r4], r2
		nop
	}
	.loc	1 191 0                 # /Users/rkn/Documents/xTIMEcomposer/workspace/module_adat_rx/src/adatReceiver-100.h:191:0
.Lxta.endpoint_labels30:
	{
		in r2, res[r5]
		nop
	}
.Ltmp174:
	#DEBUG_VALUE: word <- R2
	.loc	1 192 0                 # /Users/rkn/Documents/xTIMEcomposer/workspace/module_adat_rx/src/adatReceiver-100.h:192:0
	{
		shl r2, r2, 7
		nop
	}
.Ltmp175:
	.loc	1 192 0                 # /Users/rkn/Documents/xTIMEcomposer/workspace/module_adat_rx/src/adatReceiver-100.h:192:0
	{
		and r2, r2, r0
		nop
	}
.Ltmp176:
	#DEBUG_VALUE: fourBits <- R2
	.loc	1 193 0                 # /Users/rkn/Documents/xTIMEcomposer/workspace/module_adat_rx/src/adatReceiver-100.h:193:0
	crc32 r2, r1, r1
.Ltmp177:
	{
		nop
		ldw r2, r11[r2]
	}
.Ltmp178:
	#DEBUG_VALUE: compressed <- R2
	#DEBUG_VALUE: old <- R2
	#DEBUG_VALUE: word <- R3
	.loc	1 195 0                 # /Users/rkn/Documents/xTIMEcomposer/workspace/module_adat_rx/src/adatReceiver-100.h:195:0
.Lxta.endpoint_labels31:
	{
		in r3, res[r5]
		shr r2, r2, 1
	}
.Ltmp179:
	.loc	1 198 0                 # /Users/rkn/Documents/xTIMEcomposer/workspace/module_adat_rx/src/adatReceiver-100.h:198:0
	{
		shl r3, r3, 7
		nop
	}
	.loc	1 198 0                 # /Users/rkn/Documents/xTIMEcomposer/workspace/module_adat_rx/src/adatReceiver-100.h:198:0
	{
		and r3, r3, r0
		nop
	}
.Ltmp180:
	#DEBUG_VALUE: fourBits <- R3
	.loc	1 199 0                 # /Users/rkn/Documents/xTIMEcomposer/workspace/module_adat_rx/src/adatReceiver-100.h:199:0
	crc32 r3, r1, r1
.Ltmp181:
	{
		nop
		ldw r3, r11[r3]
	}
.Ltmp182:
	#DEBUG_VALUE: compressed <- R3
	.loc	1 201 0                 # /Users/rkn/Documents/xTIMEcomposer/workspace/module_adat_rx/src/adatReceiver-100.h:201:0
	{
		shl r9, r3, 3
		nop
	}
	.loc	1 201 0                 # /Users/rkn/Documents/xTIMEcomposer/workspace/module_adat_rx/src/adatReceiver-100.h:201:0
	{
		or r2, r9, r2
		nop
	}
	.loc	1 201 0                 # /Users/rkn/Documents/xTIMEcomposer/workspace/module_adat_rx/src/adatReceiver-100.h:201:0
	{
		zext r2, 5
		nop
	}
.Ltmp183:
	#DEBUG_VALUE: nibble <- R2
	#DEBUG_VALUE: old <- R3
	.loc	1 201 0                 # /Users/rkn/Documents/xTIMEcomposer/workspace/module_adat_rx/src/adatReceiver-100.h:201:0
	{
		shr r3, r3, 2
		ldw r2, r6[r2]
	}
.Ltmp184:
	#DEBUG_VALUE: data <- R2
	#DEBUG_VALUE: word <- R9
	.loc	1 203 0                 # /Users/rkn/Documents/xTIMEcomposer/workspace/module_adat_rx/src/adatReceiver-100.h:203:0
.Lxta.endpoint_labels32:
	{
		in r9, res[r5]
		shl r2, r2, 4
	}
.Ltmp185:
	.loc	1 205 0                 # /Users/rkn/Documents/xTIMEcomposer/workspace/module_adat_rx/src/adatReceiver-100.h:205:0
	{
		shl r9, r9, 6
		nop
	}
	.loc	1 205 0                 # /Users/rkn/Documents/xTIMEcomposer/workspace/module_adat_rx/src/adatReceiver-100.h:205:0
	{
		and r9, r9, r0
		nop
	}
.Ltmp186:
	#DEBUG_VALUE: fourBits <- R9
	.loc	1 206 0                 # /Users/rkn/Documents/xTIMEcomposer/workspace/module_adat_rx/src/adatReceiver-100.h:206:0
	crc32 r9, r1, r1
.Ltmp187:
	{
		nop
		ldw r9, r11[r9]
	}
.Ltmp188:
	#DEBUG_VALUE: compressed <- R9
	.loc	1 208 0                 # /Users/rkn/Documents/xTIMEcomposer/workspace/module_adat_rx/src/adatReceiver-100.h:208:0
	{
		shl r10, r9, 2
		nop
	}
	.loc	1 208 0                 # /Users/rkn/Documents/xTIMEcomposer/workspace/module_adat_rx/src/adatReceiver-100.h:208:0
	{
		or r3, r10, r3
		nop
	}
	.loc	1 208 0                 # /Users/rkn/Documents/xTIMEcomposer/workspace/module_adat_rx/src/adatReceiver-100.h:208:0
	{
		zext r3, 5
		nop
	}
.Ltmp189:
	#DEBUG_VALUE: nibble <- R3
	#DEBUG_VALUE: old <- R9
	.loc	1 208 0                 # /Users/rkn/Documents/xTIMEcomposer/workspace/module_adat_rx/src/adatReceiver-100.h:208:0
	{
		shr r9, r9, 3
		ldw r3, r6[r3]
	}
.Ltmp190:
	.loc	1 210 0                 # /Users/rkn/Documents/xTIMEcomposer/workspace/module_adat_rx/src/adatReceiver-100.h:210:0
	{
		or r2, r3, r2
		nop
	}
.Ltmp191:
	#DEBUG_VALUE: data <- R2
	#DEBUG_VALUE: word <- R3
	.loc	1 210 0                 # /Users/rkn/Documents/xTIMEcomposer/workspace/module_adat_rx/src/adatReceiver-100.h:210:0
.Lxta.endpoint_labels33:
	{
		in r3, res[r5]
		shl r2, r2, 4
	}
.Ltmp192:
	.loc	1 212 0                 # /Users/rkn/Documents/xTIMEcomposer/workspace/module_adat_rx/src/adatReceiver-100.h:212:0
	{
		shl r3, r3, 6
		nop
	}
	.loc	1 212 0                 # /Users/rkn/Documents/xTIMEcomposer/workspace/module_adat_rx/src/adatReceiver-100.h:212:0
	{
		and r3, r3, r0
		nop
	}
.Ltmp193:
	#DEBUG_VALUE: fourBits <- R3
	.loc	1 213 0                 # /Users/rkn/Documents/xTIMEcomposer/workspace/module_adat_rx/src/adatReceiver-100.h:213:0
	crc32 r3, r1, r1
.Ltmp194:
	{
		nop
		ldw r3, r11[r3]
	}
.Ltmp195:
	#DEBUG_VALUE: compressed <- R3
	.loc	1 215 0                 # /Users/rkn/Documents/xTIMEcomposer/workspace/module_adat_rx/src/adatReceiver-100.h:215:0
	{
		shl r3, r3, 1
		nop
	}
.Ltmp196:
	.loc	1 215 0                 # /Users/rkn/Documents/xTIMEcomposer/workspace/module_adat_rx/src/adatReceiver-100.h:215:0
	{
		or r3, r3, r9
		nop
	}
	.loc	1 215 0                 # /Users/rkn/Documents/xTIMEcomposer/workspace/module_adat_rx/src/adatReceiver-100.h:215:0
	{
		zext r3, 5
		nop
	}
	{
		nop
		ldw r3, r6[r3]
	}
.Ltmp197:
	#DEBUG_VALUE: nibble <- R3
	.loc	1 217 0                 # /Users/rkn/Documents/xTIMEcomposer/workspace/module_adat_rx/src/adatReceiver-100.h:217:0
	{
		or r2, r3, r2
		nop
	}
.Ltmp198:
	#DEBUG_VALUE: data <- R2
	#DEBUG_VALUE: word <- R3
	.loc	1 217 0                 # /Users/rkn/Documents/xTIMEcomposer/workspace/module_adat_rx/src/adatReceiver-100.h:217:0
.Lxta.endpoint_labels34:
	{
		in r3, res[r5]
		shl r2, r2, 4
	}
.Ltmp199:
	.loc	1 219 0                 # /Users/rkn/Documents/xTIMEcomposer/workspace/module_adat_rx/src/adatReceiver-100.h:219:0
	{
		shl r3, r3, 5
		nop
	}
	.loc	1 219 0                 # /Users/rkn/Documents/xTIMEcomposer/workspace/module_adat_rx/src/adatReceiver-100.h:219:0
	{
		and r3, r3, r0
		nop
	}
.Ltmp200:
	#DEBUG_VALUE: fourBits <- R3
	.loc	1 220 0                 # /Users/rkn/Documents/xTIMEcomposer/workspace/module_adat_rx/src/adatReceiver-100.h:220:0
	crc32 r3, r1, r1
.Ltmp201:
	#DEBUG_VALUE: old <- R3
	#DEBUG_VALUE: compressed <- R3
	#DEBUG_VALUE: word <- R9
	.loc	1 221 0                 # /Users/rkn/Documents/xTIMEcomposer/workspace/module_adat_rx/src/adatReceiver-100.h:221:0
.Lxta.endpoint_labels35:
	{
		in r9, res[r5]
		ldw r3, r11[r3]
	}
.Ltmp202:
	.loc	1 224 0                 # /Users/rkn/Documents/xTIMEcomposer/workspace/module_adat_rx/src/adatReceiver-100.h:224:0
	{
		shl r9, r9, 4
		nop
	}
	.loc	1 224 0                 # /Users/rkn/Documents/xTIMEcomposer/workspace/module_adat_rx/src/adatReceiver-100.h:224:0
	{
		and r9, r9, r0
		nop
	}
.Ltmp203:
	#DEBUG_VALUE: fourBits <- R9
	.loc	1 225 0                 # /Users/rkn/Documents/xTIMEcomposer/workspace/module_adat_rx/src/adatReceiver-100.h:225:0
	crc32 r9, r1, r1
.Ltmp204:
	{
		nop
		ldw r9, r11[r9]
	}
.Ltmp205:
	#DEBUG_VALUE: compressed <- R9
	.loc	1 227 0                 # /Users/rkn/Documents/xTIMEcomposer/workspace/module_adat_rx/src/adatReceiver-100.h:227:0
	{
		shl r10, r9, 4
		nop
	}
	.loc	1 227 0                 # /Users/rkn/Documents/xTIMEcomposer/workspace/module_adat_rx/src/adatReceiver-100.h:227:0
	{
		or r3, r10, r3
		nop
	}
	.loc	1 227 0                 # /Users/rkn/Documents/xTIMEcomposer/workspace/module_adat_rx/src/adatReceiver-100.h:227:0
	{
		zext r3, 5
		nop
	}
.Ltmp206:
	#DEBUG_VALUE: nibble <- R3
	#DEBUG_VALUE: old <- R9
	.loc	1 227 0                 # /Users/rkn/Documents/xTIMEcomposer/workspace/module_adat_rx/src/adatReceiver-100.h:227:0
	{
		shr r9, r9, 1
		ldw r3, r6[r3]
	}
.Ltmp207:
	.loc	1 229 0                 # /Users/rkn/Documents/xTIMEcomposer/workspace/module_adat_rx/src/adatReceiver-100.h:229:0
	{
		or r2, r3, r2
		nop
	}
.Ltmp208:
	#DEBUG_VALUE: data <- R2
	#DEBUG_VALUE: word <- R3
	.loc	1 229 0                 # /Users/rkn/Documents/xTIMEcomposer/workspace/module_adat_rx/src/adatReceiver-100.h:229:0
.Lxta.endpoint_labels36:
	{
		in r3, res[r5]
		shl r2, r2, 4
	}
.Ltmp209:
	.loc	1 231 0                 # /Users/rkn/Documents/xTIMEcomposer/workspace/module_adat_rx/src/adatReceiver-100.h:231:0
	{
		shl r3, r3, 4
		nop
	}
	.loc	1 231 0                 # /Users/rkn/Documents/xTIMEcomposer/workspace/module_adat_rx/src/adatReceiver-100.h:231:0
	{
		and r3, r3, r0
		nop
	}
.Ltmp210:
	#DEBUG_VALUE: fourBits <- R3
	.loc	1 232 0                 # /Users/rkn/Documents/xTIMEcomposer/workspace/module_adat_rx/src/adatReceiver-100.h:232:0
	crc32 r3, r1, r1
.Ltmp211:
	{
		nop
		ldw r3, r11[r3]
	}
.Ltmp212:
	#DEBUG_VALUE: compressed <- R3
	.loc	1 234 0                 # /Users/rkn/Documents/xTIMEcomposer/workspace/module_adat_rx/src/adatReceiver-100.h:234:0
	{
		shl r10, r3, 3
		nop
	}
	.loc	1 234 0                 # /Users/rkn/Documents/xTIMEcomposer/workspace/module_adat_rx/src/adatReceiver-100.h:234:0
	{
		or r9, r10, r9
		nop
	}
	.loc	1 234 0                 # /Users/rkn/Documents/xTIMEcomposer/workspace/module_adat_rx/src/adatReceiver-100.h:234:0
	{
		zext r9, 5
		nop
	}
.Ltmp213:
	#DEBUG_VALUE: nibble <- R9
	#DEBUG_VALUE: old <- R3
	.loc	1 234 0                 # /Users/rkn/Documents/xTIMEcomposer/workspace/module_adat_rx/src/adatReceiver-100.h:234:0
	{
		shr r3, r3, 2
		ldw r9, r6[r9]
	}
.Ltmp214:
	.loc	1 236 0                 # /Users/rkn/Documents/xTIMEcomposer/workspace/module_adat_rx/src/adatReceiver-100.h:236:0
	{
		or r2, r9, r2
		nop
	}
.Ltmp215:
	#DEBUG_VALUE: data <- R2
	#DEBUG_VALUE: word <- R9
	.loc	1 236 0                 # /Users/rkn/Documents/xTIMEcomposer/workspace/module_adat_rx/src/adatReceiver-100.h:236:0
.Lxta.endpoint_labels37:
	{
		in r9, res[r5]
		shl r2, r2, 4
	}
.Ltmp216:
	.loc	1 238 0                 # /Users/rkn/Documents/xTIMEcomposer/workspace/module_adat_rx/src/adatReceiver-100.h:238:0
	{
		shl r9, r9, 3
		nop
	}
	.loc	1 238 0                 # /Users/rkn/Documents/xTIMEcomposer/workspace/module_adat_rx/src/adatReceiver-100.h:238:0
	{
		and r9, r9, r0
		nop
	}
.Ltmp217:
	#DEBUG_VALUE: fourBits <- R9
	.loc	1 239 0                 # /Users/rkn/Documents/xTIMEcomposer/workspace/module_adat_rx/src/adatReceiver-100.h:239:0
	crc32 r9, r1, r1
.Ltmp218:
	{
		nop
		ldw r9, r11[r9]
	}
.Ltmp219:
	#DEBUG_VALUE: compressed <- R9
	.loc	1 241 0                 # /Users/rkn/Documents/xTIMEcomposer/workspace/module_adat_rx/src/adatReceiver-100.h:241:0
	{
		shl r10, r9, 2
		nop
	}
	.loc	1 241 0                 # /Users/rkn/Documents/xTIMEcomposer/workspace/module_adat_rx/src/adatReceiver-100.h:241:0
	{
		or r3, r10, r3
		nop
	}
	.loc	1 241 0                 # /Users/rkn/Documents/xTIMEcomposer/workspace/module_adat_rx/src/adatReceiver-100.h:241:0
	{
		zext r3, 5
		nop
	}
.Ltmp220:
	#DEBUG_VALUE: nibble <- R3
	#DEBUG_VALUE: old <- R9
	.loc	1 241 0                 # /Users/rkn/Documents/xTIMEcomposer/workspace/module_adat_rx/src/adatReceiver-100.h:241:0
	{
		shr r9, r9, 3
		ldw r3, r6[r3]
	}
.Ltmp221:
	.loc	1 243 0                 # /Users/rkn/Documents/xTIMEcomposer/workspace/module_adat_rx/src/adatReceiver-100.h:243:0
	{
		or r2, r3, r2
		nop
	}
	.loc	1 243 0                 # /Users/rkn/Documents/xTIMEcomposer/workspace/module_adat_rx/src/adatReceiver-100.h:243:0
	{
		shl r2, r2, 4
		nop
	}
.Ltmp222:
	#DEBUG_VALUE: data <- R2
	.loc	1 244 0                 # /Users/rkn/Documents/xTIMEcomposer/workspace/module_adat_rx/src/adatReceiver-100.h:244:0
.Lxta.endpoint_labels38:
	{
		out res[r4], r2
		nop
	}
	.loc	1 245 0                 # /Users/rkn/Documents/xTIMEcomposer/workspace/module_adat_rx/src/adatReceiver-100.h:245:0
.Lxta.endpoint_labels39:
	{
		in r2, res[r5]
		nop
	}
.Ltmp223:
	#DEBUG_VALUE: word <- R2
	.loc	1 246 0                 # /Users/rkn/Documents/xTIMEcomposer/workspace/module_adat_rx/src/adatReceiver-100.h:246:0
	{
		shl r2, r2, 3
		nop
	}
.Ltmp224:
	.loc	1 246 0                 # /Users/rkn/Documents/xTIMEcomposer/workspace/module_adat_rx/src/adatReceiver-100.h:246:0
	{
		and r2, r2, r0
		nop
	}
.Ltmp225:
	#DEBUG_VALUE: fourBits <- R2
	.loc	1 247 0                 # /Users/rkn/Documents/xTIMEcomposer/workspace/module_adat_rx/src/adatReceiver-100.h:247:0
	crc32 r2, r1, r1
.Ltmp226:
	{
		nop
		ldw r2, r11[r2]
	}
.Ltmp227:
	#DEBUG_VALUE: compressed <- R2
	.loc	1 249 0                 # /Users/rkn/Documents/xTIMEcomposer/workspace/module_adat_rx/src/adatReceiver-100.h:249:0
	{
		shl r2, r2, 1
		nop
	}
.Ltmp228:
	.loc	1 249 0                 # /Users/rkn/Documents/xTIMEcomposer/workspace/module_adat_rx/src/adatReceiver-100.h:249:0
	{
		or r2, r2, r9
		nop
	}
	.loc	1 249 0                 # /Users/rkn/Documents/xTIMEcomposer/workspace/module_adat_rx/src/adatReceiver-100.h:249:0
	{
		zext r2, 5
		nop
	}
	{
		nop
		ldw r2, r6[r2]
	}
.Ltmp229:
	#DEBUG_VALUE: nibble <- R2
	#DEBUG_VALUE: data <- R2
	#DEBUG_VALUE: word <- R3
	.loc	1 251 0                 # /Users/rkn/Documents/xTIMEcomposer/workspace/module_adat_rx/src/adatReceiver-100.h:251:0
.Lxta.endpoint_labels40:
	{
		in r3, res[r5]
		shl r2, r2, 4
	}
.Ltmp230:
	.loc	1 253 0                 # /Users/rkn/Documents/xTIMEcomposer/workspace/module_adat_rx/src/adatReceiver-100.h:253:0
	{
		shl r3, r3, 2
		nop
	}
	.loc	1 253 0                 # /Users/rkn/Documents/xTIMEcomposer/workspace/module_adat_rx/src/adatReceiver-100.h:253:0
	{
		and r3, r3, r0
		nop
	}
.Ltmp231:
	#DEBUG_VALUE: fourBits <- R3
	.loc	1 254 0                 # /Users/rkn/Documents/xTIMEcomposer/workspace/module_adat_rx/src/adatReceiver-100.h:254:0
	crc32 r3, r1, r1
.Ltmp232:
	#DEBUG_VALUE: old <- R3
	#DEBUG_VALUE: compressed <- R3
	#DEBUG_VALUE: word <- R9
	.loc	1 255 0                 # /Users/rkn/Documents/xTIMEcomposer/workspace/module_adat_rx/src/adatReceiver-100.h:255:0
.Lxta.endpoint_labels41:
	{
		in r9, res[r5]
		ldw r3, r11[r3]
	}
.Ltmp233:
	.loc	1 258 0                 # /Users/rkn/Documents/xTIMEcomposer/workspace/module_adat_rx/src/adatReceiver-100.h:258:0
	{
		shl r9, r9, 2
		nop
	}
	.loc	1 258 0                 # /Users/rkn/Documents/xTIMEcomposer/workspace/module_adat_rx/src/adatReceiver-100.h:258:0
	{
		and r9, r9, r0
		nop
	}
.Ltmp234:
	#DEBUG_VALUE: fourBits <- R9
	.loc	1 259 0                 # /Users/rkn/Documents/xTIMEcomposer/workspace/module_adat_rx/src/adatReceiver-100.h:259:0
	crc32 r9, r1, r1
.Ltmp235:
	{
		nop
		ldw r9, r11[r9]
	}
.Ltmp236:
	#DEBUG_VALUE: compressed <- R9
	.loc	1 261 0                 # /Users/rkn/Documents/xTIMEcomposer/workspace/module_adat_rx/src/adatReceiver-100.h:261:0
	{
		shl r10, r9, 4
		nop
	}
	.loc	1 261 0                 # /Users/rkn/Documents/xTIMEcomposer/workspace/module_adat_rx/src/adatReceiver-100.h:261:0
	{
		or r3, r10, r3
		nop
	}
	.loc	1 261 0                 # /Users/rkn/Documents/xTIMEcomposer/workspace/module_adat_rx/src/adatReceiver-100.h:261:0
	{
		zext r3, 5
		nop
	}
.Ltmp237:
	#DEBUG_VALUE: nibble <- R3
	#DEBUG_VALUE: old <- R9
	.loc	1 261 0                 # /Users/rkn/Documents/xTIMEcomposer/workspace/module_adat_rx/src/adatReceiver-100.h:261:0
	{
		shr r9, r9, 1
		ldw r3, r6[r3]
	}
.Ltmp238:
	.loc	1 263 0                 # /Users/rkn/Documents/xTIMEcomposer/workspace/module_adat_rx/src/adatReceiver-100.h:263:0
	{
		or r2, r3, r2
		nop
	}
.Ltmp239:
	#DEBUG_VALUE: data <- R2
	#DEBUG_VALUE: word <- R3
	.loc	1 263 0                 # /Users/rkn/Documents/xTIMEcomposer/workspace/module_adat_rx/src/adatReceiver-100.h:263:0
.Lxta.endpoint_labels42:
	{
		in r3, res[r5]
		shl r2, r2, 4
	}
.Ltmp240:
	.loc	1 265 0                 # /Users/rkn/Documents/xTIMEcomposer/workspace/module_adat_rx/src/adatReceiver-100.h:265:0
	{
		shl r3, r3, 1
		nop
	}
	.loc	1 265 0                 # /Users/rkn/Documents/xTIMEcomposer/workspace/module_adat_rx/src/adatReceiver-100.h:265:0
	{
		and r3, r3, r0
		nop
	}
.Ltmp241:
	#DEBUG_VALUE: fourBits <- R3
	.loc	1 266 0                 # /Users/rkn/Documents/xTIMEcomposer/workspace/module_adat_rx/src/adatReceiver-100.h:266:0
	crc32 r3, r1, r1
.Ltmp242:
	{
		nop
		ldw r3, r11[r3]
	}
.Ltmp243:
	#DEBUG_VALUE: compressed <- R3
	.loc	1 268 0                 # /Users/rkn/Documents/xTIMEcomposer/workspace/module_adat_rx/src/adatReceiver-100.h:268:0
	{
		shl r10, r3, 3
		nop
	}
	.loc	1 268 0                 # /Users/rkn/Documents/xTIMEcomposer/workspace/module_adat_rx/src/adatReceiver-100.h:268:0
	{
		or r9, r10, r9
		nop
	}
	.loc	1 268 0                 # /Users/rkn/Documents/xTIMEcomposer/workspace/module_adat_rx/src/adatReceiver-100.h:268:0
	{
		zext r9, 5
		nop
	}
.Ltmp244:
	#DEBUG_VALUE: nibble <- R9
	#DEBUG_VALUE: old <- R3
	.loc	1 268 0                 # /Users/rkn/Documents/xTIMEcomposer/workspace/module_adat_rx/src/adatReceiver-100.h:268:0
	{
		shr r3, r3, 2
		ldw r9, r6[r9]
	}
.Ltmp245:
	.loc	1 270 0                 # /Users/rkn/Documents/xTIMEcomposer/workspace/module_adat_rx/src/adatReceiver-100.h:270:0
	{
		or r2, r9, r2
		nop
	}
.Ltmp246:
	#DEBUG_VALUE: data <- R2
	#DEBUG_VALUE: word <- R9
	.loc	1 270 0                 # /Users/rkn/Documents/xTIMEcomposer/workspace/module_adat_rx/src/adatReceiver-100.h:270:0
.Lxta.endpoint_labels43:
	{
		in r9, res[r5]
		shl r2, r2, 4
	}
.Ltmp247:
	.loc	1 272 0                 # /Users/rkn/Documents/xTIMEcomposer/workspace/module_adat_rx/src/adatReceiver-100.h:272:0
	{
		shl r9, r9, 1
		nop
	}
	.loc	1 272 0                 # /Users/rkn/Documents/xTIMEcomposer/workspace/module_adat_rx/src/adatReceiver-100.h:272:0
	{
		and r9, r9, r0
		nop
	}
.Ltmp248:
	#DEBUG_VALUE: fourBits <- R9
	.loc	1 273 0                 # /Users/rkn/Documents/xTIMEcomposer/workspace/module_adat_rx/src/adatReceiver-100.h:273:0
	crc32 r9, r1, r1
.Ltmp249:
	{
		nop
		ldw r9, r11[r9]
	}
.Ltmp250:
	#DEBUG_VALUE: compressed <- R9
	.loc	1 275 0                 # /Users/rkn/Documents/xTIMEcomposer/workspace/module_adat_rx/src/adatReceiver-100.h:275:0
	{
		shl r10, r9, 2
		nop
	}
	.loc	1 275 0                 # /Users/rkn/Documents/xTIMEcomposer/workspace/module_adat_rx/src/adatReceiver-100.h:275:0
	{
		or r3, r10, r3
		nop
	}
	.loc	1 275 0                 # /Users/rkn/Documents/xTIMEcomposer/workspace/module_adat_rx/src/adatReceiver-100.h:275:0
	{
		zext r3, 5
		nop
	}
.Ltmp251:
	#DEBUG_VALUE: nibble <- R3
	#DEBUG_VALUE: old <- R9
	.loc	1 275 0                 # /Users/rkn/Documents/xTIMEcomposer/workspace/module_adat_rx/src/adatReceiver-100.h:275:0
	{
		shr r9, r9, 3
		ldw r3, r6[r3]
	}
.Ltmp252:
	.loc	1 277 0                 # /Users/rkn/Documents/xTIMEcomposer/workspace/module_adat_rx/src/adatReceiver-100.h:277:0
	{
		or r2, r3, r2
		nop
	}
.Ltmp253:
	#DEBUG_VALUE: data <- R2
	#DEBUG_VALUE: word <- R3
	.loc	1 277 0                 # /Users/rkn/Documents/xTIMEcomposer/workspace/module_adat_rx/src/adatReceiver-100.h:277:0
.Lxta.endpoint_labels44:
	{
		in r3, res[r5]
		shl r2, r2, 4
	}
.Ltmp254:
	.loc	1 279 0                 # /Users/rkn/Documents/xTIMEcomposer/workspace/module_adat_rx/src/adatReceiver-100.h:279:0
	{
		and r3, r3, r0
		nop
	}
.Ltmp255:
	#DEBUG_VALUE: fourBits <- R3
	.loc	1 280 0                 # /Users/rkn/Documents/xTIMEcomposer/workspace/module_adat_rx/src/adatReceiver-100.h:280:0
	crc32 r3, r1, r1
.Ltmp256:
	{
		nop
		ldw r3, r11[r3]
	}
.Ltmp257:
	#DEBUG_VALUE: compressed <- R3
	.loc	1 282 0                 # /Users/rkn/Documents/xTIMEcomposer/workspace/module_adat_rx/src/adatReceiver-100.h:282:0
	{
		shl r3, r3, 1
		nop
	}
.Ltmp258:
	.loc	1 282 0                 # /Users/rkn/Documents/xTIMEcomposer/workspace/module_adat_rx/src/adatReceiver-100.h:282:0
	{
		or r3, r3, r9
		nop
	}
	.loc	1 282 0                 # /Users/rkn/Documents/xTIMEcomposer/workspace/module_adat_rx/src/adatReceiver-100.h:282:0
	{
		zext r3, 5
		nop
	}
	{
		nop
		ldw r3, r6[r3]
	}
.Ltmp259:
	#DEBUG_VALUE: nibble <- R3
	.loc	1 284 0                 # /Users/rkn/Documents/xTIMEcomposer/workspace/module_adat_rx/src/adatReceiver-100.h:284:0
	{
		or r2, r3, r2
		nop
	}
.Ltmp260:
	#DEBUG_VALUE: data <- R2
	#DEBUG_VALUE: word <- R3
	.loc	1 284 0                 # /Users/rkn/Documents/xTIMEcomposer/workspace/module_adat_rx/src/adatReceiver-100.h:284:0
.Lxta.endpoint_labels45:
	{
		in r3, res[r5]
		shl r2, r2, 4
	}
.Ltmp261:
	.loc	1 286 0                 # /Users/rkn/Documents/xTIMEcomposer/workspace/module_adat_rx/src/adatReceiver-100.h:286:0
	{
		and r3, r3, r0
		nop
	}
.Ltmp262:
	#DEBUG_VALUE: fourBits <- R3
	.loc	1 287 0                 # /Users/rkn/Documents/xTIMEcomposer/workspace/module_adat_rx/src/adatReceiver-100.h:287:0
	crc32 r3, r1, r1
.Ltmp263:
	#DEBUG_VALUE: old <- R3
	#DEBUG_VALUE: compressed <- R3
	#DEBUG_VALUE: word <- R9
	.loc	1 288 0                 # /Users/rkn/Documents/xTIMEcomposer/workspace/module_adat_rx/src/adatReceiver-100.h:288:0
.Lxta.endpoint_labels46:
	{
		in r9, res[r5]
		ldw r3, r11[r3]
	}
.Ltmp264:
	.loc	1 291 0                 # /Users/rkn/Documents/xTIMEcomposer/workspace/module_adat_rx/src/adatReceiver-100.h:291:0
	{
		shl r9, r9, 7
		nop
	}
	.loc	1 291 0                 # /Users/rkn/Documents/xTIMEcomposer/workspace/module_adat_rx/src/adatReceiver-100.h:291:0
	{
		and r9, r9, r0
		nop
	}
.Ltmp265:
	#DEBUG_VALUE: fourBits <- R9
	.loc	1 292 0                 # /Users/rkn/Documents/xTIMEcomposer/workspace/module_adat_rx/src/adatReceiver-100.h:292:0
	crc32 r9, r1, r1
.Ltmp266:
	{
		nop
		ldw r9, r11[r9]
	}
.Ltmp267:
	#DEBUG_VALUE: compressed <- R9
	.loc	1 295 0                 # /Users/rkn/Documents/xTIMEcomposer/workspace/module_adat_rx/src/adatReceiver-100.h:295:0
	{
		shl r10, r9, 3
		nop
	}
	.loc	1 294 0                 # /Users/rkn/Documents/xTIMEcomposer/workspace/module_adat_rx/src/adatReceiver-100.h:294:0
	{
		and r10, r10, r7
		nop
	}
	.loc	1 295 0                 # /Users/rkn/Documents/xTIMEcomposer/workspace/module_adat_rx/src/adatReceiver-100.h:295:0
	{
		or r3, r10, r3
		nop
	}
	.loc	1 295 0                 # /Users/rkn/Documents/xTIMEcomposer/workspace/module_adat_rx/src/adatReceiver-100.h:295:0
	{
		zext r3, 5
		nop
	}
.Ltmp268:
	#DEBUG_VALUE: nibble <- R3
	#DEBUG_VALUE: old <- R9
	.loc	1 295 0                 # /Users/rkn/Documents/xTIMEcomposer/workspace/module_adat_rx/src/adatReceiver-100.h:295:0
	{
		shr r9, r9, 2
		ldw r3, r6[r3]
	}
.Ltmp269:
	.loc	1 297 0                 # /Users/rkn/Documents/xTIMEcomposer/workspace/module_adat_rx/src/adatReceiver-100.h:297:0
	{
		or r2, r3, r2
		nop
	}
	.loc	1 297 0                 # /Users/rkn/Documents/xTIMEcomposer/workspace/module_adat_rx/src/adatReceiver-100.h:297:0
	{
		shl r2, r2, 4
		nop
	}
.Ltmp270:
	#DEBUG_VALUE: data <- R2
	.loc	1 298 0                 # /Users/rkn/Documents/xTIMEcomposer/workspace/module_adat_rx/src/adatReceiver-100.h:298:0
.Lxta.endpoint_labels47:
	{
		out res[r4], r2
		nop
	}
	.loc	1 299 0                 # /Users/rkn/Documents/xTIMEcomposer/workspace/module_adat_rx/src/adatReceiver-100.h:299:0
.Lxta.endpoint_labels48:
	{
		in r2, res[r5]
		nop
	}
.Ltmp271:
	#DEBUG_VALUE: word <- R2
	.loc	1 300 0                 # /Users/rkn/Documents/xTIMEcomposer/workspace/module_adat_rx/src/adatReceiver-100.h:300:0
	{
		shl r2, r2, 7
		nop
	}
.Ltmp272:
	.loc	1 300 0                 # /Users/rkn/Documents/xTIMEcomposer/workspace/module_adat_rx/src/adatReceiver-100.h:300:0
	{
		and r2, r2, r0
		nop
	}
.Ltmp273:
	#DEBUG_VALUE: fourBits <- R2
	.loc	1 301 0                 # /Users/rkn/Documents/xTIMEcomposer/workspace/module_adat_rx/src/adatReceiver-100.h:301:0
	crc32 r2, r1, r1
.Ltmp274:
	{
		nop
		ldw r2, r11[r2]
	}
.Ltmp275:
	#DEBUG_VALUE: compressed <- R2
	.loc	1 303 0                 # /Users/rkn/Documents/xTIMEcomposer/workspace/module_adat_rx/src/adatReceiver-100.h:303:0
	{
		shl r3, r2, 2
		nop
	}
	.loc	1 303 0                 # /Users/rkn/Documents/xTIMEcomposer/workspace/module_adat_rx/src/adatReceiver-100.h:303:0
	{
		or r3, r3, r9
		nop
	}
	.loc	1 303 0                 # /Users/rkn/Documents/xTIMEcomposer/workspace/module_adat_rx/src/adatReceiver-100.h:303:0
	{
		zext r3, 5
		nop
	}
.Ltmp276:
	#DEBUG_VALUE: nibble <- R3
	#DEBUG_VALUE: old <- R2
	.loc	1 303 0                 # /Users/rkn/Documents/xTIMEcomposer/workspace/module_adat_rx/src/adatReceiver-100.h:303:0
	{
		shr r2, r2, 3
		ldw r3, r6[r3]
	}
.Ltmp277:
	#DEBUG_VALUE: data <- R3
	#DEBUG_VALUE: word <- R9
	.loc	1 305 0                 # /Users/rkn/Documents/xTIMEcomposer/workspace/module_adat_rx/src/adatReceiver-100.h:305:0
.Lxta.endpoint_labels49:
	{
		in r9, res[r5]
		shl r3, r3, 4
	}
.Ltmp278:
	.loc	1 307 0                 # /Users/rkn/Documents/xTIMEcomposer/workspace/module_adat_rx/src/adatReceiver-100.h:307:0
	{
		shl r9, r9, 6
		nop
	}
	.loc	1 307 0                 # /Users/rkn/Documents/xTIMEcomposer/workspace/module_adat_rx/src/adatReceiver-100.h:307:0
	{
		and r9, r9, r0
		nop
	}
.Ltmp279:
	#DEBUG_VALUE: fourBits <- R9
	.loc	1 308 0                 # /Users/rkn/Documents/xTIMEcomposer/workspace/module_adat_rx/src/adatReceiver-100.h:308:0
	crc32 r9, r1, r1
.Ltmp280:
	{
		nop
		ldw r9, r11[r9]
	}
.Ltmp281:
	#DEBUG_VALUE: compressed <- R9
	.loc	1 310 0                 # /Users/rkn/Documents/xTIMEcomposer/workspace/module_adat_rx/src/adatReceiver-100.h:310:0
	{
		shl r9, r9, 1
		nop
	}
.Ltmp282:
	.loc	1 310 0                 # /Users/rkn/Documents/xTIMEcomposer/workspace/module_adat_rx/src/adatReceiver-100.h:310:0
	{
		or r2, r9, r2
		nop
	}
	.loc	1 310 0                 # /Users/rkn/Documents/xTIMEcomposer/workspace/module_adat_rx/src/adatReceiver-100.h:310:0
	{
		zext r2, 5
		nop
	}
	{
		nop
		ldw r2, r6[r2]
	}
.Ltmp283:
	#DEBUG_VALUE: nibble <- R2
	.loc	1 312 0                 # /Users/rkn/Documents/xTIMEcomposer/workspace/module_adat_rx/src/adatReceiver-100.h:312:0
	{
		or r2, r2, r3
		nop
	}
.Ltmp284:
	#DEBUG_VALUE: data <- R2
	#DEBUG_VALUE: word <- R3
	.loc	1 312 0                 # /Users/rkn/Documents/xTIMEcomposer/workspace/module_adat_rx/src/adatReceiver-100.h:312:0
.Lxta.endpoint_labels50:
	{
		in r3, res[r5]
		shl r2, r2, 4
	}
.Ltmp285:
	.loc	1 314 0                 # /Users/rkn/Documents/xTIMEcomposer/workspace/module_adat_rx/src/adatReceiver-100.h:314:0
	{
		shl r3, r3, 5
		nop
	}
	.loc	1 314 0                 # /Users/rkn/Documents/xTIMEcomposer/workspace/module_adat_rx/src/adatReceiver-100.h:314:0
	{
		and r3, r3, r0
		nop
	}
.Ltmp286:
	#DEBUG_VALUE: fourBits <- R3
	.loc	1 315 0                 # /Users/rkn/Documents/xTIMEcomposer/workspace/module_adat_rx/src/adatReceiver-100.h:315:0
	crc32 r3, r1, r1
.Ltmp287:
	#DEBUG_VALUE: old <- R3
	#DEBUG_VALUE: compressed <- R3
	#DEBUG_VALUE: word <- R9
	.loc	1 316 0                 # /Users/rkn/Documents/xTIMEcomposer/workspace/module_adat_rx/src/adatReceiver-100.h:316:0
.Lxta.endpoint_labels51:
	{
		in r9, res[r5]
		ldw r3, r11[r3]
	}
.Ltmp288:
	.loc	1 319 0                 # /Users/rkn/Documents/xTIMEcomposer/workspace/module_adat_rx/src/adatReceiver-100.h:319:0
	{
		shl r9, r9, 5
		nop
	}
	.loc	1 319 0                 # /Users/rkn/Documents/xTIMEcomposer/workspace/module_adat_rx/src/adatReceiver-100.h:319:0
	{
		and r9, r9, r0
		nop
	}
.Ltmp289:
	#DEBUG_VALUE: fourBits <- R9
	.loc	1 320 0                 # /Users/rkn/Documents/xTIMEcomposer/workspace/module_adat_rx/src/adatReceiver-100.h:320:0
	crc32 r9, r1, r1
.Ltmp290:
	{
		nop
		ldw r9, r11[r9]
	}
.Ltmp291:
	#DEBUG_VALUE: compressed <- R9
	.loc	1 322 0                 # /Users/rkn/Documents/xTIMEcomposer/workspace/module_adat_rx/src/adatReceiver-100.h:322:0
	{
		shl r10, r9, 4
		nop
	}
	.loc	1 322 0                 # /Users/rkn/Documents/xTIMEcomposer/workspace/module_adat_rx/src/adatReceiver-100.h:322:0
	{
		or r3, r10, r3
		nop
	}
	.loc	1 322 0                 # /Users/rkn/Documents/xTIMEcomposer/workspace/module_adat_rx/src/adatReceiver-100.h:322:0
	{
		zext r3, 5
		nop
	}
.Ltmp292:
	#DEBUG_VALUE: nibble <- R3
	#DEBUG_VALUE: old <- R9
	.loc	1 322 0                 # /Users/rkn/Documents/xTIMEcomposer/workspace/module_adat_rx/src/adatReceiver-100.h:322:0
	{
		shr r9, r9, 1
		ldw r3, r6[r3]
	}
.Ltmp293:
	.loc	1 324 0                 # /Users/rkn/Documents/xTIMEcomposer/workspace/module_adat_rx/src/adatReceiver-100.h:324:0
	{
		or r2, r3, r2
		nop
	}
.Ltmp294:
	#DEBUG_VALUE: data <- R2
	#DEBUG_VALUE: word <- R3
	.loc	1 324 0                 # /Users/rkn/Documents/xTIMEcomposer/workspace/module_adat_rx/src/adatReceiver-100.h:324:0
.Lxta.endpoint_labels52:
	{
		in r3, res[r5]
		shl r2, r2, 4
	}
.Ltmp295:
	.loc	1 326 0                 # /Users/rkn/Documents/xTIMEcomposer/workspace/module_adat_rx/src/adatReceiver-100.h:326:0
	{
		shl r3, r3, 4
		nop
	}
	.loc	1 326 0                 # /Users/rkn/Documents/xTIMEcomposer/workspace/module_adat_rx/src/adatReceiver-100.h:326:0
	{
		and r3, r3, r0
		nop
	}
.Ltmp296:
	#DEBUG_VALUE: fourBits <- R3
	.loc	1 327 0                 # /Users/rkn/Documents/xTIMEcomposer/workspace/module_adat_rx/src/adatReceiver-100.h:327:0
	crc32 r3, r1, r1
.Ltmp297:
	{
		nop
		ldw r3, r11[r3]
	}
.Ltmp298:
	#DEBUG_VALUE: compressed <- R3
	.loc	1 329 0                 # /Users/rkn/Documents/xTIMEcomposer/workspace/module_adat_rx/src/adatReceiver-100.h:329:0
	{
		shl r10, r3, 3
		nop
	}
	.loc	1 329 0                 # /Users/rkn/Documents/xTIMEcomposer/workspace/module_adat_rx/src/adatReceiver-100.h:329:0
	{
		or r9, r10, r9
		nop
	}
	.loc	1 329 0                 # /Users/rkn/Documents/xTIMEcomposer/workspace/module_adat_rx/src/adatReceiver-100.h:329:0
	{
		zext r9, 5
		nop
	}
.Ltmp299:
	#DEBUG_VALUE: nibble <- R9
	#DEBUG_VALUE: old <- R3
	.loc	1 329 0                 # /Users/rkn/Documents/xTIMEcomposer/workspace/module_adat_rx/src/adatReceiver-100.h:329:0
	{
		shr r3, r3, 2
		ldw r9, r6[r9]
	}
.Ltmp300:
	.loc	1 331 0                 # /Users/rkn/Documents/xTIMEcomposer/workspace/module_adat_rx/src/adatReceiver-100.h:331:0
	{
		or r2, r9, r2
		nop
	}
.Ltmp301:
	#DEBUG_VALUE: data <- R2
	#DEBUG_VALUE: word <- R9
	.loc	1 331 0                 # /Users/rkn/Documents/xTIMEcomposer/workspace/module_adat_rx/src/adatReceiver-100.h:331:0
.Lxta.endpoint_labels53:
	{
		in r9, res[r5]
		shl r2, r2, 4
	}
.Ltmp302:
	.loc	1 333 0                 # /Users/rkn/Documents/xTIMEcomposer/workspace/module_adat_rx/src/adatReceiver-100.h:333:0
	{
		shl r9, r9, 4
		nop
	}
	.loc	1 333 0                 # /Users/rkn/Documents/xTIMEcomposer/workspace/module_adat_rx/src/adatReceiver-100.h:333:0
	{
		and r9, r9, r0
		nop
	}
.Ltmp303:
	#DEBUG_VALUE: fourBits <- R9
	.loc	1 334 0                 # /Users/rkn/Documents/xTIMEcomposer/workspace/module_adat_rx/src/adatReceiver-100.h:334:0
	crc32 r9, r1, r1
.Ltmp304:
	{
		nop
		ldw r9, r11[r9]
	}
.Ltmp305:
	#DEBUG_VALUE: compressed <- R9
	.loc	1 336 0                 # /Users/rkn/Documents/xTIMEcomposer/workspace/module_adat_rx/src/adatReceiver-100.h:336:0
	{
		shl r10, r9, 2
		nop
	}
	.loc	1 336 0                 # /Users/rkn/Documents/xTIMEcomposer/workspace/module_adat_rx/src/adatReceiver-100.h:336:0
	{
		or r3, r10, r3
		nop
	}
	.loc	1 336 0                 # /Users/rkn/Documents/xTIMEcomposer/workspace/module_adat_rx/src/adatReceiver-100.h:336:0
	{
		zext r3, 5
		nop
	}
.Ltmp306:
	#DEBUG_VALUE: nibble <- R3
	#DEBUG_VALUE: old <- R9
	.loc	1 336 0                 # /Users/rkn/Documents/xTIMEcomposer/workspace/module_adat_rx/src/adatReceiver-100.h:336:0
	{
		shr r9, r9, 3
		ldw r3, r6[r3]
	}
.Ltmp307:
	.loc	1 338 0                 # /Users/rkn/Documents/xTIMEcomposer/workspace/module_adat_rx/src/adatReceiver-100.h:338:0
	{
		or r2, r3, r2
		nop
	}
.Ltmp308:
	#DEBUG_VALUE: data <- R2
	#DEBUG_VALUE: word <- R3
	.loc	1 338 0                 # /Users/rkn/Documents/xTIMEcomposer/workspace/module_adat_rx/src/adatReceiver-100.h:338:0
.Lxta.endpoint_labels54:
	{
		in r3, res[r5]
		shl r2, r2, 4
	}
.Ltmp309:
	.loc	1 340 0                 # /Users/rkn/Documents/xTIMEcomposer/workspace/module_adat_rx/src/adatReceiver-100.h:340:0
	{
		shl r3, r3, 3
		nop
	}
	.loc	1 340 0                 # /Users/rkn/Documents/xTIMEcomposer/workspace/module_adat_rx/src/adatReceiver-100.h:340:0
	{
		and r3, r3, r0
		nop
	}
.Ltmp310:
	#DEBUG_VALUE: fourBits <- R3
	.loc	1 341 0                 # /Users/rkn/Documents/xTIMEcomposer/workspace/module_adat_rx/src/adatReceiver-100.h:341:0
	crc32 r3, r1, r1
.Ltmp311:
	{
		nop
		ldw r3, r11[r3]
	}
.Ltmp312:
	#DEBUG_VALUE: compressed <- R3
	.loc	1 343 0                 # /Users/rkn/Documents/xTIMEcomposer/workspace/module_adat_rx/src/adatReceiver-100.h:343:0
	{
		shl r3, r3, 1
		nop
	}
.Ltmp313:
	.loc	1 343 0                 # /Users/rkn/Documents/xTIMEcomposer/workspace/module_adat_rx/src/adatReceiver-100.h:343:0
	{
		or r3, r3, r9
		nop
	}
	.loc	1 343 0                 # /Users/rkn/Documents/xTIMEcomposer/workspace/module_adat_rx/src/adatReceiver-100.h:343:0
	{
		zext r3, 5
		nop
	}
	{
		nop
		ldw r3, r6[r3]
	}
.Ltmp314:
	#DEBUG_VALUE: nibble <- R3
	.loc	1 345 0                 # /Users/rkn/Documents/xTIMEcomposer/workspace/module_adat_rx/src/adatReceiver-100.h:345:0
	{
		or r2, r3, r2
		nop
	}
	.loc	1 345 0                 # /Users/rkn/Documents/xTIMEcomposer/workspace/module_adat_rx/src/adatReceiver-100.h:345:0
	{
		shl r2, r2, 4
		nop
	}
.Ltmp315:
	#DEBUG_VALUE: data <- R2
	.loc	1 346 0                 # /Users/rkn/Documents/xTIMEcomposer/workspace/module_adat_rx/src/adatReceiver-100.h:346:0
.Lxta.endpoint_labels55:
	{
		out res[r4], r2
		nop
	}
	.loc	1 347 0                 # /Users/rkn/Documents/xTIMEcomposer/workspace/module_adat_rx/src/adatReceiver-100.h:347:0
.Lxta.endpoint_labels56:
	{
		in r2, res[r5]
		nop
	}
.Ltmp316:
	#DEBUG_VALUE: word <- R2
	.loc	1 348 0                 # /Users/rkn/Documents/xTIMEcomposer/workspace/module_adat_rx/src/adatReceiver-100.h:348:0
	{
		shl r2, r2, 3
		nop
	}
.Ltmp317:
	.loc	1 348 0                 # /Users/rkn/Documents/xTIMEcomposer/workspace/module_adat_rx/src/adatReceiver-100.h:348:0
	{
		and r2, r2, r0
		nop
	}
.Ltmp318:
	#DEBUG_VALUE: fourBits <- R2
	.loc	1 349 0                 # /Users/rkn/Documents/xTIMEcomposer/workspace/module_adat_rx/src/adatReceiver-100.h:349:0
	crc32 r2, r1, r1
.Ltmp319:
	#DEBUG_VALUE: old <- R2
	#DEBUG_VALUE: compressed <- R2
	#DEBUG_VALUE: word <- R3
	.loc	1 350 0                 # /Users/rkn/Documents/xTIMEcomposer/workspace/module_adat_rx/src/adatReceiver-100.h:350:0
.Lxta.endpoint_labels57:
	{
		in r3, res[r5]
		ldw r2, r11[r2]
	}
.Ltmp320:
	.loc	1 353 0                 # /Users/rkn/Documents/xTIMEcomposer/workspace/module_adat_rx/src/adatReceiver-100.h:353:0
	{
		shl r3, r3, 2
		nop
	}
	.loc	1 353 0                 # /Users/rkn/Documents/xTIMEcomposer/workspace/module_adat_rx/src/adatReceiver-100.h:353:0
	{
		and r3, r3, r0
		nop
	}
.Ltmp321:
	#DEBUG_VALUE: fourBits <- R3
	.loc	1 354 0                 # /Users/rkn/Documents/xTIMEcomposer/workspace/module_adat_rx/src/adatReceiver-100.h:354:0
	crc32 r3, r1, r1
.Ltmp322:
	{
		nop
		ldw r3, r11[r3]
	}
.Ltmp323:
	#DEBUG_VALUE: compressed <- R3
	.loc	1 356 0                 # /Users/rkn/Documents/xTIMEcomposer/workspace/module_adat_rx/src/adatReceiver-100.h:356:0
	{
		shl r9, r3, 4
		nop
	}
	.loc	1 356 0                 # /Users/rkn/Documents/xTIMEcomposer/workspace/module_adat_rx/src/adatReceiver-100.h:356:0
	{
		or r2, r9, r2
		nop
	}
	.loc	1 356 0                 # /Users/rkn/Documents/xTIMEcomposer/workspace/module_adat_rx/src/adatReceiver-100.h:356:0
	{
		zext r2, 5
		nop
	}
.Ltmp324:
	#DEBUG_VALUE: nibble <- R2
	#DEBUG_VALUE: old <- R3
	.loc	1 356 0                 # /Users/rkn/Documents/xTIMEcomposer/workspace/module_adat_rx/src/adatReceiver-100.h:356:0
	{
		shr r3, r3, 1
		ldw r2, r6[r2]
	}
.Ltmp325:
	#DEBUG_VALUE: data <- R2
	#DEBUG_VALUE: word <- R9
	.loc	1 358 0                 # /Users/rkn/Documents/xTIMEcomposer/workspace/module_adat_rx/src/adatReceiver-100.h:358:0
.Lxta.endpoint_labels58:
	{
		in r9, res[r5]
		shl r2, r2, 4
	}
.Ltmp326:
	.loc	1 360 0                 # /Users/rkn/Documents/xTIMEcomposer/workspace/module_adat_rx/src/adatReceiver-100.h:360:0
	{
		shl r9, r9, 2
		nop
	}
	.loc	1 360 0                 # /Users/rkn/Documents/xTIMEcomposer/workspace/module_adat_rx/src/adatReceiver-100.h:360:0
	{
		and r9, r9, r0
		nop
	}
.Ltmp327:
	#DEBUG_VALUE: fourBits <- R9
	.loc	1 361 0                 # /Users/rkn/Documents/xTIMEcomposer/workspace/module_adat_rx/src/adatReceiver-100.h:361:0
	crc32 r9, r1, r1
.Ltmp328:
	{
		nop
		ldw r9, r11[r9]
	}
.Ltmp329:
	#DEBUG_VALUE: compressed <- R9
	.loc	1 363 0                 # /Users/rkn/Documents/xTIMEcomposer/workspace/module_adat_rx/src/adatReceiver-100.h:363:0
	{
		shl r10, r9, 3
		nop
	}
	.loc	1 363 0                 # /Users/rkn/Documents/xTIMEcomposer/workspace/module_adat_rx/src/adatReceiver-100.h:363:0
	{
		or r3, r10, r3
		nop
	}
	.loc	1 363 0                 # /Users/rkn/Documents/xTIMEcomposer/workspace/module_adat_rx/src/adatReceiver-100.h:363:0
	{
		zext r3, 5
		nop
	}
.Ltmp330:
	#DEBUG_VALUE: nibble <- R3
	#DEBUG_VALUE: old <- R9
	.loc	1 363 0                 # /Users/rkn/Documents/xTIMEcomposer/workspace/module_adat_rx/src/adatReceiver-100.h:363:0
	{
		shr r9, r9, 2
		ldw r3, r6[r3]
	}
.Ltmp331:
	.loc	1 365 0                 # /Users/rkn/Documents/xTIMEcomposer/workspace/module_adat_rx/src/adatReceiver-100.h:365:0
	{
		or r2, r3, r2
		nop
	}
.Ltmp332:
	#DEBUG_VALUE: data <- R2
	#DEBUG_VALUE: word <- R3
	.loc	1 365 0                 # /Users/rkn/Documents/xTIMEcomposer/workspace/module_adat_rx/src/adatReceiver-100.h:365:0
.Lxta.endpoint_labels59:
	{
		in r3, res[r5]
		shl r2, r2, 4
	}
.Ltmp333:
	.loc	1 367 0                 # /Users/rkn/Documents/xTIMEcomposer/workspace/module_adat_rx/src/adatReceiver-100.h:367:0
	{
		shl r3, r3, 1
		nop
	}
	.loc	1 367 0                 # /Users/rkn/Documents/xTIMEcomposer/workspace/module_adat_rx/src/adatReceiver-100.h:367:0
	{
		and r3, r3, r0
		nop
	}
.Ltmp334:
	#DEBUG_VALUE: fourBits <- R3
	.loc	1 368 0                 # /Users/rkn/Documents/xTIMEcomposer/workspace/module_adat_rx/src/adatReceiver-100.h:368:0
	crc32 r3, r1, r1
.Ltmp335:
	{
		nop
		ldw r3, r11[r3]
	}
.Ltmp336:
	#DEBUG_VALUE: compressed <- R3
	.loc	1 370 0                 # /Users/rkn/Documents/xTIMEcomposer/workspace/module_adat_rx/src/adatReceiver-100.h:370:0
	{
		shl r10, r3, 2
		nop
	}
	.loc	1 370 0                 # /Users/rkn/Documents/xTIMEcomposer/workspace/module_adat_rx/src/adatReceiver-100.h:370:0
	{
		or r9, r10, r9
		nop
	}
	.loc	1 370 0                 # /Users/rkn/Documents/xTIMEcomposer/workspace/module_adat_rx/src/adatReceiver-100.h:370:0
	{
		zext r9, 5
		nop
	}
.Ltmp337:
	#DEBUG_VALUE: nibble <- R9
	#DEBUG_VALUE: old <- R3
	.loc	1 370 0                 # /Users/rkn/Documents/xTIMEcomposer/workspace/module_adat_rx/src/adatReceiver-100.h:370:0
	{
		shr r3, r3, 3
		ldw r9, r6[r9]
	}
.Ltmp338:
	.loc	1 372 0                 # /Users/rkn/Documents/xTIMEcomposer/workspace/module_adat_rx/src/adatReceiver-100.h:372:0
	{
		or r2, r9, r2
		nop
	}
.Ltmp339:
	#DEBUG_VALUE: data <- R2
	#DEBUG_VALUE: word <- R9
	.loc	1 372 0                 # /Users/rkn/Documents/xTIMEcomposer/workspace/module_adat_rx/src/adatReceiver-100.h:372:0
.Lxta.endpoint_labels60:
	{
		in r9, res[r5]
		shl r2, r2, 4
	}
.Ltmp340:
	.loc	1 374 0                 # /Users/rkn/Documents/xTIMEcomposer/workspace/module_adat_rx/src/adatReceiver-100.h:374:0
	{
		and r9, r9, r0
		nop
	}
.Ltmp341:
	#DEBUG_VALUE: fourBits <- R9
	.loc	1 375 0                 # /Users/rkn/Documents/xTIMEcomposer/workspace/module_adat_rx/src/adatReceiver-100.h:375:0
	crc32 r9, r1, r1
.Ltmp342:
	{
		nop
		ldw r9, r11[r9]
	}
.Ltmp343:
	#DEBUG_VALUE: compressed <- R9
	.loc	1 377 0                 # /Users/rkn/Documents/xTIMEcomposer/workspace/module_adat_rx/src/adatReceiver-100.h:377:0
	{
		shl r9, r9, 1
		nop
	}
.Ltmp344:
	.loc	1 377 0                 # /Users/rkn/Documents/xTIMEcomposer/workspace/module_adat_rx/src/adatReceiver-100.h:377:0
	{
		or r3, r9, r3
		nop
	}
	.loc	1 377 0                 # /Users/rkn/Documents/xTIMEcomposer/workspace/module_adat_rx/src/adatReceiver-100.h:377:0
	{
		zext r3, 5
		nop
	}
	{
		nop
		ldw r3, r6[r3]
	}
.Ltmp345:
	#DEBUG_VALUE: nibble <- R3
	.loc	1 379 0                 # /Users/rkn/Documents/xTIMEcomposer/workspace/module_adat_rx/src/adatReceiver-100.h:379:0
	{
		or r2, r3, r2
		nop
	}
.Ltmp346:
	#DEBUG_VALUE: data <- R2
	#DEBUG_VALUE: word <- R3
	.loc	1 379 0                 # /Users/rkn/Documents/xTIMEcomposer/workspace/module_adat_rx/src/adatReceiver-100.h:379:0
.Lxta.endpoint_labels61:
	{
		in r3, res[r5]
		shl r2, r2, 4
	}
.Ltmp347:
	.loc	1 381 0                 # /Users/rkn/Documents/xTIMEcomposer/workspace/module_adat_rx/src/adatReceiver-100.h:381:0
	{
		and r3, r3, r0
		nop
	}
.Ltmp348:
	#DEBUG_VALUE: fourBits <- R3
	.loc	1 382 0                 # /Users/rkn/Documents/xTIMEcomposer/workspace/module_adat_rx/src/adatReceiver-100.h:382:0
	crc32 r3, r1, r1
.Ltmp349:
	#DEBUG_VALUE: old <- R3
	#DEBUG_VALUE: compressed <- R3
	#DEBUG_VALUE: word <- R9
	.loc	1 383 0                 # /Users/rkn/Documents/xTIMEcomposer/workspace/module_adat_rx/src/adatReceiver-100.h:383:0
.Lxta.endpoint_labels62:
	{
		in r9, res[r5]
		ldw r3, r11[r3]
	}
.Ltmp350:
	.loc	1 386 0                 # /Users/rkn/Documents/xTIMEcomposer/workspace/module_adat_rx/src/adatReceiver-100.h:386:0
	{
		shl r9, r9, 7
		nop
	}
	.loc	1 386 0                 # /Users/rkn/Documents/xTIMEcomposer/workspace/module_adat_rx/src/adatReceiver-100.h:386:0
	{
		and r9, r9, r0
		nop
	}
.Ltmp351:
	#DEBUG_VALUE: fourBits <- R9
	.loc	1 387 0                 # /Users/rkn/Documents/xTIMEcomposer/workspace/module_adat_rx/src/adatReceiver-100.h:387:0
	crc32 r9, r1, r1
.Ltmp352:
	{
		nop
		ldw r9, r11[r9]
	}
.Ltmp353:
	#DEBUG_VALUE: compressed <- R9
	.loc	1 390 0                 # /Users/rkn/Documents/xTIMEcomposer/workspace/module_adat_rx/src/adatReceiver-100.h:390:0
	{
		shl r10, r9, 3
		nop
	}
	.loc	1 389 0                 # /Users/rkn/Documents/xTIMEcomposer/workspace/module_adat_rx/src/adatReceiver-100.h:389:0
	{
		and r10, r10, r7
		nop
	}
	.loc	1 390 0                 # /Users/rkn/Documents/xTIMEcomposer/workspace/module_adat_rx/src/adatReceiver-100.h:390:0
	{
		or r3, r10, r3
		nop
	}
	.loc	1 390 0                 # /Users/rkn/Documents/xTIMEcomposer/workspace/module_adat_rx/src/adatReceiver-100.h:390:0
	{
		zext r3, 5
		nop
	}
.Ltmp354:
	#DEBUG_VALUE: nibble <- R3
	#DEBUG_VALUE: old <- R9
	.loc	1 390 0                 # /Users/rkn/Documents/xTIMEcomposer/workspace/module_adat_rx/src/adatReceiver-100.h:390:0
	{
		shr r9, r9, 2
		ldw r3, r6[r3]
	}
.Ltmp355:
	.loc	1 392 0                 # /Users/rkn/Documents/xTIMEcomposer/workspace/module_adat_rx/src/adatReceiver-100.h:392:0
	{
		or r2, r3, r2
		nop
	}
.Ltmp356:
	#DEBUG_VALUE: data <- R2
	#DEBUG_VALUE: word <- R3
	.loc	1 392 0                 # /Users/rkn/Documents/xTIMEcomposer/workspace/module_adat_rx/src/adatReceiver-100.h:392:0
.Lxta.endpoint_labels63:
	{
		in r3, res[r5]
		shl r2, r2, 4
	}
.Ltmp357:
	.loc	1 394 0                 # /Users/rkn/Documents/xTIMEcomposer/workspace/module_adat_rx/src/adatReceiver-100.h:394:0
	{
		shl r3, r3, 7
		nop
	}
	.loc	1 394 0                 # /Users/rkn/Documents/xTIMEcomposer/workspace/module_adat_rx/src/adatReceiver-100.h:394:0
	{
		and r3, r3, r0
		nop
	}
.Ltmp358:
	#DEBUG_VALUE: fourBits <- R3
	.loc	1 395 0                 # /Users/rkn/Documents/xTIMEcomposer/workspace/module_adat_rx/src/adatReceiver-100.h:395:0
	crc32 r3, r1, r1
.Ltmp359:
	{
		nop
		ldw r3, r11[r3]
	}
.Ltmp360:
	#DEBUG_VALUE: compressed <- R3
	.loc	1 397 0                 # /Users/rkn/Documents/xTIMEcomposer/workspace/module_adat_rx/src/adatReceiver-100.h:397:0
	{
		shl r10, r3, 2
		nop
	}
	.loc	1 397 0                 # /Users/rkn/Documents/xTIMEcomposer/workspace/module_adat_rx/src/adatReceiver-100.h:397:0
	{
		or r9, r10, r9
		nop
	}
	.loc	1 397 0                 # /Users/rkn/Documents/xTIMEcomposer/workspace/module_adat_rx/src/adatReceiver-100.h:397:0
	{
		zext r9, 5
		nop
	}
.Ltmp361:
	#DEBUG_VALUE: nibble <- R9
	#DEBUG_VALUE: old <- R3
	.loc	1 397 0                 # /Users/rkn/Documents/xTIMEcomposer/workspace/module_adat_rx/src/adatReceiver-100.h:397:0
	{
		shr r3, r3, 3
		ldw r9, r6[r9]
	}
.Ltmp362:
	.loc	1 399 0                 # /Users/rkn/Documents/xTIMEcomposer/workspace/module_adat_rx/src/adatReceiver-100.h:399:0
	{
		or r2, r9, r2
		nop
	}
	.loc	1 399 0                 # /Users/rkn/Documents/xTIMEcomposer/workspace/module_adat_rx/src/adatReceiver-100.h:399:0
	{
		shl r2, r2, 4
		nop
	}
.Ltmp363:
	#DEBUG_VALUE: data <- R2
	.loc	1 400 0                 # /Users/rkn/Documents/xTIMEcomposer/workspace/module_adat_rx/src/adatReceiver-100.h:400:0
.Lxta.endpoint_labels64:
	{
		out res[r4], r2
		nop
	}
	.loc	1 401 0                 # /Users/rkn/Documents/xTIMEcomposer/workspace/module_adat_rx/src/adatReceiver-100.h:401:0
.Lxta.endpoint_labels65:
	{
		in r2, res[r5]
		nop
	}
.Ltmp364:
	#DEBUG_VALUE: word <- R2
	.loc	1 402 0                 # /Users/rkn/Documents/xTIMEcomposer/workspace/module_adat_rx/src/adatReceiver-100.h:402:0
	{
		shl r2, r2, 6
		nop
	}
.Ltmp365:
	.loc	1 402 0                 # /Users/rkn/Documents/xTIMEcomposer/workspace/module_adat_rx/src/adatReceiver-100.h:402:0
	{
		and r2, r2, r0
		nop
	}
.Ltmp366:
	#DEBUG_VALUE: fourBits <- R2
	.loc	1 403 0                 # /Users/rkn/Documents/xTIMEcomposer/workspace/module_adat_rx/src/adatReceiver-100.h:403:0
	crc32 r2, r1, r1
.Ltmp367:
	{
		nop
		ldw r2, r11[r2]
	}
.Ltmp368:
	#DEBUG_VALUE: compressed <- R2
	.loc	1 405 0                 # /Users/rkn/Documents/xTIMEcomposer/workspace/module_adat_rx/src/adatReceiver-100.h:405:0
	{
		shl r2, r2, 1
		nop
	}
.Ltmp369:
	.loc	1 405 0                 # /Users/rkn/Documents/xTIMEcomposer/workspace/module_adat_rx/src/adatReceiver-100.h:405:0
	{
		or r2, r2, r3
		nop
	}
	.loc	1 405 0                 # /Users/rkn/Documents/xTIMEcomposer/workspace/module_adat_rx/src/adatReceiver-100.h:405:0
	{
		zext r2, 5
		nop
	}
	{
		nop
		ldw r2, r6[r2]
	}
.Ltmp370:
	#DEBUG_VALUE: nibble <- R2
	#DEBUG_VALUE: data <- R2
	#DEBUG_VALUE: word <- R3
	.loc	1 407 0                 # /Users/rkn/Documents/xTIMEcomposer/workspace/module_adat_rx/src/adatReceiver-100.h:407:0
.Lxta.endpoint_labels66:
	{
		in r3, res[r5]
		shl r2, r2, 4
	}
.Ltmp371:
	.loc	1 409 0                 # /Users/rkn/Documents/xTIMEcomposer/workspace/module_adat_rx/src/adatReceiver-100.h:409:0
	{
		shl r3, r3, 6
		nop
	}
	.loc	1 409 0                 # /Users/rkn/Documents/xTIMEcomposer/workspace/module_adat_rx/src/adatReceiver-100.h:409:0
	{
		and r3, r3, r0
		nop
	}
.Ltmp372:
	#DEBUG_VALUE: fourBits <- R3
	.loc	1 410 0                 # /Users/rkn/Documents/xTIMEcomposer/workspace/module_adat_rx/src/adatReceiver-100.h:410:0
	crc32 r3, r1, r1
.Ltmp373:
	#DEBUG_VALUE: old <- R3
	#DEBUG_VALUE: compressed <- R3
	#DEBUG_VALUE: word <- R9
	.loc	1 411 0                 # /Users/rkn/Documents/xTIMEcomposer/workspace/module_adat_rx/src/adatReceiver-100.h:411:0
.Lxta.endpoint_labels67:
	{
		in r9, res[r5]
		ldw r3, r11[r3]
	}
.Ltmp374:
	.loc	1 414 0                 # /Users/rkn/Documents/xTIMEcomposer/workspace/module_adat_rx/src/adatReceiver-100.h:414:0
	{
		shl r9, r9, 5
		nop
	}
	.loc	1 414 0                 # /Users/rkn/Documents/xTIMEcomposer/workspace/module_adat_rx/src/adatReceiver-100.h:414:0
	{
		and r9, r9, r0
		nop
	}
.Ltmp375:
	#DEBUG_VALUE: fourBits <- R9
	.loc	1 415 0                 # /Users/rkn/Documents/xTIMEcomposer/workspace/module_adat_rx/src/adatReceiver-100.h:415:0
	crc32 r9, r1, r1
.Ltmp376:
	{
		nop
		ldw r9, r11[r9]
	}
.Ltmp377:
	#DEBUG_VALUE: compressed <- R9
	.loc	1 417 0                 # /Users/rkn/Documents/xTIMEcomposer/workspace/module_adat_rx/src/adatReceiver-100.h:417:0
	{
		shl r10, r9, 4
		nop
	}
	.loc	1 417 0                 # /Users/rkn/Documents/xTIMEcomposer/workspace/module_adat_rx/src/adatReceiver-100.h:417:0
	{
		or r3, r10, r3
		nop
	}
	.loc	1 417 0                 # /Users/rkn/Documents/xTIMEcomposer/workspace/module_adat_rx/src/adatReceiver-100.h:417:0
	{
		zext r3, 5
		nop
	}
.Ltmp378:
	#DEBUG_VALUE: nibble <- R3
	#DEBUG_VALUE: old <- R9
	.loc	1 417 0                 # /Users/rkn/Documents/xTIMEcomposer/workspace/module_adat_rx/src/adatReceiver-100.h:417:0
	{
		shr r9, r9, 1
		ldw r3, r6[r3]
	}
.Ltmp379:
	.loc	1 419 0                 # /Users/rkn/Documents/xTIMEcomposer/workspace/module_adat_rx/src/adatReceiver-100.h:419:0
	{
		or r2, r3, r2
		nop
	}
.Ltmp380:
	#DEBUG_VALUE: data <- R2
	#DEBUG_VALUE: word <- R3
	.loc	1 419 0                 # /Users/rkn/Documents/xTIMEcomposer/workspace/module_adat_rx/src/adatReceiver-100.h:419:0
.Lxta.endpoint_labels68:
	{
		in r3, res[r5]
		shl r2, r2, 4
	}
.Ltmp381:
	.loc	1 421 0                 # /Users/rkn/Documents/xTIMEcomposer/workspace/module_adat_rx/src/adatReceiver-100.h:421:0
	{
		shl r3, r3, 5
		nop
	}
	.loc	1 421 0                 # /Users/rkn/Documents/xTIMEcomposer/workspace/module_adat_rx/src/adatReceiver-100.h:421:0
	{
		and r3, r3, r0
		nop
	}
.Ltmp382:
	#DEBUG_VALUE: fourBits <- R3
	.loc	1 422 0                 # /Users/rkn/Documents/xTIMEcomposer/workspace/module_adat_rx/src/adatReceiver-100.h:422:0
	crc32 r3, r1, r1
.Ltmp383:
	{
		nop
		ldw r3, r11[r3]
	}
.Ltmp384:
	#DEBUG_VALUE: compressed <- R3
	.loc	1 424 0                 # /Users/rkn/Documents/xTIMEcomposer/workspace/module_adat_rx/src/adatReceiver-100.h:424:0
	{
		shl r10, r3, 3
		nop
	}
	.loc	1 424 0                 # /Users/rkn/Documents/xTIMEcomposer/workspace/module_adat_rx/src/adatReceiver-100.h:424:0
	{
		or r9, r10, r9
		nop
	}
	.loc	1 424 0                 # /Users/rkn/Documents/xTIMEcomposer/workspace/module_adat_rx/src/adatReceiver-100.h:424:0
	{
		zext r9, 5
		nop
	}
.Ltmp385:
	#DEBUG_VALUE: nibble <- R9
	#DEBUG_VALUE: old <- R3
	.loc	1 424 0                 # /Users/rkn/Documents/xTIMEcomposer/workspace/module_adat_rx/src/adatReceiver-100.h:424:0
	{
		shr r3, r3, 2
		ldw r9, r6[r9]
	}
.Ltmp386:
	.loc	1 426 0                 # /Users/rkn/Documents/xTIMEcomposer/workspace/module_adat_rx/src/adatReceiver-100.h:426:0
	{
		or r2, r9, r2
		nop
	}
.Ltmp387:
	#DEBUG_VALUE: data <- R2
	#DEBUG_VALUE: word <- R9
	.loc	1 426 0                 # /Users/rkn/Documents/xTIMEcomposer/workspace/module_adat_rx/src/adatReceiver-100.h:426:0
.Lxta.endpoint_labels69:
	{
		in r9, res[r5]
		shl r2, r2, 4
	}
.Ltmp388:
	.loc	1 428 0                 # /Users/rkn/Documents/xTIMEcomposer/workspace/module_adat_rx/src/adatReceiver-100.h:428:0
	{
		shl r9, r9, 4
		nop
	}
	.loc	1 428 0                 # /Users/rkn/Documents/xTIMEcomposer/workspace/module_adat_rx/src/adatReceiver-100.h:428:0
	{
		and r9, r9, r0
		nop
	}
.Ltmp389:
	#DEBUG_VALUE: fourBits <- R9
	.loc	1 429 0                 # /Users/rkn/Documents/xTIMEcomposer/workspace/module_adat_rx/src/adatReceiver-100.h:429:0
	crc32 r9, r1, r1
.Ltmp390:
	{
		nop
		ldw r9, r11[r9]
	}
.Ltmp391:
	#DEBUG_VALUE: compressed <- R9
	.loc	1 431 0                 # /Users/rkn/Documents/xTIMEcomposer/workspace/module_adat_rx/src/adatReceiver-100.h:431:0
	{
		shl r10, r9, 2
		nop
	}
	.loc	1 431 0                 # /Users/rkn/Documents/xTIMEcomposer/workspace/module_adat_rx/src/adatReceiver-100.h:431:0
	{
		or r3, r10, r3
		nop
	}
	.loc	1 431 0                 # /Users/rkn/Documents/xTIMEcomposer/workspace/module_adat_rx/src/adatReceiver-100.h:431:0
	{
		zext r3, 5
		nop
	}
.Ltmp392:
	#DEBUG_VALUE: nibble <- R3
	#DEBUG_VALUE: old <- R9
	.loc	1 431 0                 # /Users/rkn/Documents/xTIMEcomposer/workspace/module_adat_rx/src/adatReceiver-100.h:431:0
	{
		shr r9, r9, 3
		ldw r3, r6[r3]
	}
.Ltmp393:
	.loc	1 433 0                 # /Users/rkn/Documents/xTIMEcomposer/workspace/module_adat_rx/src/adatReceiver-100.h:433:0
	{
		or r2, r3, r2
		nop
	}
.Ltmp394:
	#DEBUG_VALUE: data <- R2
	#DEBUG_VALUE: word <- R3
	.loc	1 433 0                 # /Users/rkn/Documents/xTIMEcomposer/workspace/module_adat_rx/src/adatReceiver-100.h:433:0
.Lxta.endpoint_labels70:
	{
		in r3, res[r5]
		shl r2, r2, 4
	}
.Ltmp395:
	.loc	1 435 0                 # /Users/rkn/Documents/xTIMEcomposer/workspace/module_adat_rx/src/adatReceiver-100.h:435:0
	{
		shl r3, r3, 4
		nop
	}
	.loc	1 435 0                 # /Users/rkn/Documents/xTIMEcomposer/workspace/module_adat_rx/src/adatReceiver-100.h:435:0
	{
		and r3, r3, r0
		nop
	}
.Ltmp396:
	#DEBUG_VALUE: fourBits <- R3
	.loc	1 436 0                 # /Users/rkn/Documents/xTIMEcomposer/workspace/module_adat_rx/src/adatReceiver-100.h:436:0
	crc32 r3, r1, r1
.Ltmp397:
	{
		nop
		ldw r3, r11[r3]
	}
.Ltmp398:
	#DEBUG_VALUE: compressed <- R3
	.loc	1 438 0                 # /Users/rkn/Documents/xTIMEcomposer/workspace/module_adat_rx/src/adatReceiver-100.h:438:0
	{
		shl r3, r3, 1
		nop
	}
.Ltmp399:
	.loc	1 438 0                 # /Users/rkn/Documents/xTIMEcomposer/workspace/module_adat_rx/src/adatReceiver-100.h:438:0
	{
		or r3, r3, r9
		nop
	}
	.loc	1 438 0                 # /Users/rkn/Documents/xTIMEcomposer/workspace/module_adat_rx/src/adatReceiver-100.h:438:0
	{
		zext r3, 5
		nop
	}
	{
		nop
		ldw r3, r6[r3]
	}
.Ltmp400:
	#DEBUG_VALUE: nibble <- R3
	.loc	1 440 0                 # /Users/rkn/Documents/xTIMEcomposer/workspace/module_adat_rx/src/adatReceiver-100.h:440:0
	{
		or r2, r3, r2
		nop
	}
.Ltmp401:
	#DEBUG_VALUE: data <- R2
	#DEBUG_VALUE: word <- R3
	.loc	1 440 0                 # /Users/rkn/Documents/xTIMEcomposer/workspace/module_adat_rx/src/adatReceiver-100.h:440:0
.Lxta.endpoint_labels71:
	{
		in r3, res[r5]
		shl r2, r2, 4
	}
.Ltmp402:
	.loc	1 442 0                 # /Users/rkn/Documents/xTIMEcomposer/workspace/module_adat_rx/src/adatReceiver-100.h:442:0
	{
		shl r3, r3, 3
		nop
	}
	.loc	1 442 0                 # /Users/rkn/Documents/xTIMEcomposer/workspace/module_adat_rx/src/adatReceiver-100.h:442:0
	{
		and r3, r3, r0
		nop
	}
.Ltmp403:
	#DEBUG_VALUE: fourBits <- R3
	.loc	1 443 0                 # /Users/rkn/Documents/xTIMEcomposer/workspace/module_adat_rx/src/adatReceiver-100.h:443:0
	crc32 r3, r1, r1
.Ltmp404:
	#DEBUG_VALUE: old <- R3
	#DEBUG_VALUE: compressed <- R3
	#DEBUG_VALUE: word <- R9
	.loc	1 444 0                 # /Users/rkn/Documents/xTIMEcomposer/workspace/module_adat_rx/src/adatReceiver-100.h:444:0
.Lxta.endpoint_labels72:
	{
		in r9, res[r5]
		ldw r3, r11[r3]
	}
.Ltmp405:
	.loc	1 447 0                 # /Users/rkn/Documents/xTIMEcomposer/workspace/module_adat_rx/src/adatReceiver-100.h:447:0
	{
		shl r9, r9, 3
		nop
	}
	.loc	1 447 0                 # /Users/rkn/Documents/xTIMEcomposer/workspace/module_adat_rx/src/adatReceiver-100.h:447:0
	{
		and r9, r9, r0
		nop
	}
.Ltmp406:
	#DEBUG_VALUE: fourBits <- R9
	.loc	1 448 0                 # /Users/rkn/Documents/xTIMEcomposer/workspace/module_adat_rx/src/adatReceiver-100.h:448:0
	crc32 r9, r1, r1
.Ltmp407:
	{
		nop
		ldw r11, r11[r9]
	}
.Ltmp408:
	#DEBUG_VALUE: compressed <- R11
	.loc	1 450 0                 # /Users/rkn/Documents/xTIMEcomposer/workspace/module_adat_rx/src/adatReceiver-100.h:450:0
	{
		shl r11, r11, 4
		nop
	}
.Ltmp409:
	.loc	1 450 0                 # /Users/rkn/Documents/xTIMEcomposer/workspace/module_adat_rx/src/adatReceiver-100.h:450:0
	{
		or r3, r11, r3
		nop
	}
	.loc	1 450 0                 # /Users/rkn/Documents/xTIMEcomposer/workspace/module_adat_rx/src/adatReceiver-100.h:450:0
	{
		zext r3, 5
		nop
	}
	{
		nop
		ldw r3, r6[r3]
	}
.Ltmp410:
	#DEBUG_VALUE: nibble <- R3
	.loc	1 452 0                 # /Users/rkn/Documents/xTIMEcomposer/workspace/module_adat_rx/src/adatReceiver-100.h:452:0
	{
		or r2, r3, r2
		nop
	}
	.loc	1 452 0                 # /Users/rkn/Documents/xTIMEcomposer/workspace/module_adat_rx/src/adatReceiver-100.h:452:0
	{
		shl r2, r2, 4
		nop
	}
.Ltmp411:
	#DEBUG_VALUE: data <- R2
	.loc	1 453 0                 # /Users/rkn/Documents/xTIMEcomposer/workspace/module_adat_rx/src/adatReceiver-100.h:453:0
.Lxta.endpoint_labels73:
	{
		out res[r4], r2
		nop
	}
	.loc	1 454 0                 # /Users/rkn/Documents/xTIMEcomposer/workspace/module_adat_rx/src/adatReceiver-100.h:454:0
.Lxta.endpoint_labels74:
	{
		in r11, res[r5]
		nop
	}
.Ltmp412:
	#DEBUG_VALUE: word <- R11
	.loc	1 455 9                 # /Users/rkn/Documents/xTIMEcomposer/workspace/module_adat_rx/src/adatReceiver-100.h:455:9
	{
		add r2, r11, 1
		nop
	}
.Ltmp413:
	{
		lsu r2, r2, r8
		nop
	}
	bt r2, .LBB0_6
.Ltmp414:
# BB#7:                                 # %return
.Lxtalabel4:
	{
		nop
		ldw r10, sp[40]
	}
	{
		nop
		ldw r8, sp[38]
	}
	{
		nop
		ldw r9, sp[39]
	}
	{
		nop
		ldw r6, sp[36]
	}
	{
		nop
		ldw r7, sp[37]
	}
	{
		nop
		ldw r4, sp[34]
	}
	{
		nop
		ldw r5, sp[35]
	}
	{
		nop
		retsp 42
	}
	# RETURN_REG_HOLDER
	.cc_bottom adatReceiver48000.function
	.set	adatReceiver48000.nstackwords,(__memcpy_4.nstackwords + 42)
	.globl	adatReceiver48000.nstackwords
	.set	adatReceiver48000.maxcores,1
	.globl	adatReceiver48000.maxcores
	.set	adatReceiver48000.maxtimers,0
	.globl	adatReceiver48000.maxtimers
	.set	adatReceiver48000.maxchanends,0
	.globl	adatReceiver48000.maxchanends
.Ltmp415:
	.size	adatReceiver48000, .Ltmp415-adatReceiver48000
.Lfunc_end0:
	.cfi_endproc

	.section	.cp.rodata.cst4,"aMc",@progbits,4
	.cc_top .LCPI1_0.data,.LCPI1_0
	.align	4
	.type	.LCPI1_0,@object
	.size	.LCPI1_0, 4
.LCPI1_0:
	.long	2151686160              # 0x80402010
	.cc_bottom .LCPI1_0.data
	.cc_top .LCPI1_1.data,.LCPI1_1
	.align	4
	.type	.LCPI1_1,@object
	.size	.LCPI1_1, 4
.LCPI1_1:
	.long	2151686144              # 0x80402000
	.cc_bottom .LCPI1_1.data
	.text
	.globl	adatReceiver44100
	.align	4
	.type	adatReceiver44100,@function
	.cc_top adatReceiver44100.function,adatReceiver44100
adatReceiver44100:                      # @adatReceiver44100
.Lfunc_begin1:
	.loc	1 467 0                 # /Users/rkn/Documents/xTIMEcomposer/workspace/module_adat_rx/src/adatReceiver-100.h:467:0
	.cfi_startproc
	.issue_mode dual
# BB#0:                                 # %allocas
.Lxtalabel5:
	{
		nop
		dualentsp 46
	}
.Ltmp416:
	.cfi_def_cfa_offset 184
.Ltmp417:
	.cfi_offset 15, 0
	{
		nop
		stw r4, sp[38]
	}
	{
		nop
		stw r5, sp[39]
	}
.Ltmp418:
	.cfi_offset 4, -32
.Ltmp419:
	.cfi_offset 5, -28
	{
		nop
		stw r6, sp[40]
	}
	{
		nop
		stw r7, sp[41]
	}
.Ltmp420:
	.cfi_offset 6, -24
.Ltmp421:
	.cfi_offset 7, -20
	{
		nop
		stw r8, sp[42]
	}
	{
		nop
		stw r9, sp[43]
	}
.Ltmp422:
	.cfi_offset 8, -16
.Ltmp423:
	.cfi_offset 9, -12
.Ltmp424:
	.cfi_offset 10, -8
	#DEBUG_VALUE: adatReceiver44100:p <- R0
	#DEBUG_VALUE: adatReceiver44100:oChan <- R1
.Ltmp425:
	#DEBUG_VALUE: adatReceiver44100:oChan <- R4
	{
		mov r4, r1
		stw r10, sp[44]
	}
.Ltmp426:
	{
		mov r5, r0
		nop
	}
.Ltmp427:
	#DEBUG_VALUE: word <- 1
	#DEBUG_VALUE: mask <- -2143281136
	#DEBUG_VALUE: adatReceiver44100:p <- R5
	.loc	1 473 0 prologue_end    # /Users/rkn/Documents/xTIMEcomposer/workspace/module_adat_rx/src/adatReceiver-100.h:473:0
	ldaw r11, cp[adatReceiver44100.3.init]
	{
		ldaw r6, sp[6]
		nop
	}
	ldc r2, 128
	{
		mov r0, r6
		mov r1, r11
	}
	bl __memcpy_4
.Ltmp428:
	#DEBUG_VALUE: i <- 0
	{
		ldc r0, 0
		ldc r1, 32
	}
.Ltmp429:
.LBB1_1:                                # %LoopBody
                                        # =>This Inner Loop Header: Depth=1
	#DEBUG_VALUE: adatReceiver44100:p <- R5
	#DEBUG_VALUE: adatReceiver44100:oChan <- R4
	#DEBUG_VALUE: mask <- -2143281136
	#DEBUG_VALUE: word <- 1
	#DEBUG_VALUE: i <- 0
	{
		nop
		ldw r2, r6[r0]
	}
	.loc	1 475 0                 # /Users/rkn/Documents/xTIMEcomposer/workspace/module_adat_rx/src/adatReceiver-100.h:475:0
.Ltmp430:
	{
		shl r2, r2, 4
		nop
	}
	.loc	1 475 0                 # /Users/rkn/Documents/xTIMEcomposer/workspace/module_adat_rx/src/adatReceiver-100.h:475:0
	stw r2, r6[r0]
	.loc	1 475 0                 # /Users/rkn/Documents/xTIMEcomposer/workspace/module_adat_rx/src/adatReceiver-100.h:475:0
	{
		add r0, r0, 1
		nop
	}
.Ltmp431:
	#DEBUG_VALUE: i <- R0
.xtaloop 32
	# LOOPMARKER 0
	.loc	1 475 0                 # /Users/rkn/Documents/xTIMEcomposer/workspace/module_adat_rx/src/adatReceiver-100.h:475:0
	{
		eq r2, r0, r1
		nop
	}
	bf r2, .LBB1_1
.Ltmp432:
# BB#2:                                 # %LoopBody8.preheader
	#DEBUG_VALUE: adatReceiver44100:p <- R5
	#DEBUG_VALUE: adatReceiver44100:oChan <- R4
	#DEBUG_VALUE: mask <- -2143281136
	#DEBUG_VALUE: word <- 1
	#DEBUG_VALUE: adatReceiver44100:oChan <- R7
	{
		mov r8, r6
		mov r7, r4
	}
.Ltmp433:
	.loc	1 477 0                 # /Users/rkn/Documents/xTIMEcomposer/workspace/module_adat_rx/src/adatReceiver-100.h:477:0
	{
		setc res[r5], 1
		mkmsk r0, 1
	}
	{
		mov r1, r0
		nop
	}
.Ltmp434:
.LBB1_3:                                # %LoopBody8
                                        # =>This Inner Loop Header: Depth=1
.Lxtalabel6:
	#DEBUG_VALUE: adatReceiver44100:p <- R5
	#DEBUG_VALUE: adatReceiver44100:oChan <- R7
	#DEBUG_VALUE: mask <- -2143281136
	#DEBUG_VALUE: word <- 1
.Lxta.endpoint_labels75:
	{
		in r1, res[r5]
		mov r11, r1
	}
	.loc	1 478 7                 # /Users/rkn/Documents/xTIMEcomposer/workspace/module_adat_rx/src/adatReceiver-100.h:478:7
	{
		eq r2, r1, r11
		nop
	}
	bf r2, .LBB1_3
.Ltmp435:
# BB#4:                                 # %lhsfalse
                                        #   in Loop: Header=BB1_3 Depth=1
.Lxtalabel7:
	#DEBUG_VALUE: adatReceiver44100:p <- R5
	#DEBUG_VALUE: adatReceiver44100:oChan <- R7
	#DEBUG_VALUE: mask <- -2143281136
	#DEBUG_VALUE: word <- 1
	.loc	1 478 7                 # /Users/rkn/Documents/xTIMEcomposer/workspace/module_adat_rx/src/adatReceiver-100.h:478:7
	{
		add r2, r11, 1
		nop
	}
	{
		lsu r2, r0, r2
		nop
	}
	bt r2, .LBB1_3
.Ltmp436:
# BB#5:
	#DEBUG_VALUE: adatReceiver44100:p <- R5
	#DEBUG_VALUE: adatReceiver44100:oChan <- R7
	ldw r6, cp[.LCPI1_0]
	{
		mkmsk r0, 4
		nop
	}
	ldw r2, cp[.LCPI1_1]
.Ltmp437:
	#DEBUG_VALUE: adatReceiver44100:oChan <- R3
	{
		ldc r4, 16
		mov r3, r7
	}
.Ltmp438:
	{
		mov r1, r8
		stw r3, sp[5]
	}
.Ltmp439:
.LBB1_6:                                # %LoopBody33
                                        # =>This Inner Loop Header: Depth=1
.Lxtalabel8:
	#DEBUG_VALUE: adatReceiver44100:p <- R5
	#DEBUG_VALUE: adatReceiver44100:oChan <- R3
	#DEBUG_VALUE: violation <- R11
	.loc	1 481 0                 # /Users/rkn/Documents/xTIMEcomposer/workspace/module_adat_rx/src/adatReceiver-100.h:481:0
	{
		setd res[r5], r11
		nop
	}
	.loc	1 481 0                 # /Users/rkn/Documents/xTIMEcomposer/workspace/module_adat_rx/src/adatReceiver-100.h:481:0
	{
		setc res[r5], 25
		nop
	}
	.loc	1 481 0                 # /Users/rkn/Documents/xTIMEcomposer/workspace/module_adat_rx/src/adatReceiver-100.h:481:0
.Ltmp440:
.Lxta.endpoint_labels76:
	{
		in r11, res[r5]
		nop
	}
.Ltmp441:
	#DEBUG_VALUE: _ <- R11
	.loc	1 482 0                 # /Users/rkn/Documents/xTIMEcomposer/workspace/module_adat_rx/src/adatReceiver-100.h:482:0
.Lxta.endpoint_labels77:
	{
		in r11, res[r5]
		nop
	}
.Ltmp442:
	#DEBUG_VALUE: word <- R11
	.loc	1 483 0                 # /Users/rkn/Documents/xTIMEcomposer/workspace/module_adat_rx/src/adatReceiver-100.h:483:0
	{
		shl r11, r11, 2
		nop
	}
.Ltmp443:
	.loc	1 483 0                 # /Users/rkn/Documents/xTIMEcomposer/workspace/module_adat_rx/src/adatReceiver-100.h:483:0
	{
		and r7, r11, r6
		nop
	}
.Ltmp444:
	#DEBUG_VALUE: fourBits <- R7
	.loc	1 484 0                 # /Users/rkn/Documents/xTIMEcomposer/workspace/module_adat_rx/src/adatReceiver-100.h:484:0
	crc32 r7, r0, r0
.Ltmp445:
	.loc	1 485 0                 # /Users/rkn/Documents/xTIMEcomposer/workspace/module_adat_rx/src/adatReceiver-100.h:485:0
	ldaw r11, cp[adatReceiver44100.2.init]
.Ltmp446:
	#DEBUG_VALUE: old <- R7
	#DEBUG_VALUE: compressed <- R7
	#DEBUG_VALUE: word <- R9
	.loc	1 485 0                 # /Users/rkn/Documents/xTIMEcomposer/workspace/module_adat_rx/src/adatReceiver-100.h:485:0
.Lxta.endpoint_labels78:
	{
		in r9, res[r5]
		ldw r7, r11[r7]
	}
.Ltmp447:
	.loc	1 488 0                 # /Users/rkn/Documents/xTIMEcomposer/workspace/module_adat_rx/src/adatReceiver-100.h:488:0
	{
		shl r9, r9, 6
		nop
	}
	.loc	1 488 0                 # /Users/rkn/Documents/xTIMEcomposer/workspace/module_adat_rx/src/adatReceiver-100.h:488:0
	{
		and r9, r9, r2
		nop
	}
.Ltmp448:
	#DEBUG_VALUE: fourBits <- R9
	.loc	1 489 0                 # /Users/rkn/Documents/xTIMEcomposer/workspace/module_adat_rx/src/adatReceiver-100.h:489:0
	crc32 r9, r0, r0
.Ltmp449:
	{
		nop
		ldw r9, r11[r9]
	}
.Ltmp450:
	#DEBUG_VALUE: compressed <- R9
	.loc	1 492 0                 # /Users/rkn/Documents/xTIMEcomposer/workspace/module_adat_rx/src/adatReceiver-100.h:492:0
	{
		shl r10, r9, 3
		nop
	}
	.loc	1 491 0                 # /Users/rkn/Documents/xTIMEcomposer/workspace/module_adat_rx/src/adatReceiver-100.h:491:0
	{
		and r10, r10, r4
		nop
	}
	.loc	1 492 0                 # /Users/rkn/Documents/xTIMEcomposer/workspace/module_adat_rx/src/adatReceiver-100.h:492:0
	{
		or r7, r10, r7
		nop
	}
	.loc	1 492 0                 # /Users/rkn/Documents/xTIMEcomposer/workspace/module_adat_rx/src/adatReceiver-100.h:492:0
	{
		zext r7, 5
		nop
	}
.Ltmp451:
	#DEBUG_VALUE: nibble <- R7
	#DEBUG_VALUE: old <- R9
	.loc	1 492 0                 # /Users/rkn/Documents/xTIMEcomposer/workspace/module_adat_rx/src/adatReceiver-100.h:492:0
	{
		shr r9, r9, 2
		ldw r7, r1[r7]
	}
.Ltmp452:
	.loc	1 494 0                 # /Users/rkn/Documents/xTIMEcomposer/workspace/module_adat_rx/src/adatReceiver-100.h:494:0
	{
		shl r7, r7, 4
		mkmsk r8, 1
	}
	.loc	1 494 0                 # /Users/rkn/Documents/xTIMEcomposer/workspace/module_adat_rx/src/adatReceiver-100.h:494:0
	{
		or r7, r7, r8
		nop
	}
	.loc	1 494 0                 # /Users/rkn/Documents/xTIMEcomposer/workspace/module_adat_rx/src/adatReceiver-100.h:494:0
.Lxta.endpoint_labels79:
	{
		out res[r3], r7
		nop
	}
.Ltmp453:
	#DEBUG_VALUE: adatReceiver44100:oChan <- [SP+20]
	.loc	1 495 0                 # /Users/rkn/Documents/xTIMEcomposer/workspace/module_adat_rx/src/adatReceiver-100.h:495:0
.Lxta.endpoint_labels80:
	{
		in r7, res[r5]
		nop
	}
.Ltmp454:
	#DEBUG_VALUE: word <- R7
	.loc	1 496 0                 # /Users/rkn/Documents/xTIMEcomposer/workspace/module_adat_rx/src/adatReceiver-100.h:496:0
	{
		shl r7, r7, 4
		nop
	}
.Ltmp455:
	.loc	1 496 0                 # /Users/rkn/Documents/xTIMEcomposer/workspace/module_adat_rx/src/adatReceiver-100.h:496:0
	{
		and r7, r7, r6
		nop
	}
.Ltmp456:
	#DEBUG_VALUE: fourBits <- R7
	.loc	1 497 0                 # /Users/rkn/Documents/xTIMEcomposer/workspace/module_adat_rx/src/adatReceiver-100.h:497:0
	crc32 r7, r0, r0
.Ltmp457:
	{
		nop
		ldw r7, r11[r7]
	}
.Ltmp458:
	#DEBUG_VALUE: compressed <- R7
	.loc	1 499 0                 # /Users/rkn/Documents/xTIMEcomposer/workspace/module_adat_rx/src/adatReceiver-100.h:499:0
	{
		shl r10, r7, 2
		nop
	}
	.loc	1 499 0                 # /Users/rkn/Documents/xTIMEcomposer/workspace/module_adat_rx/src/adatReceiver-100.h:499:0
	{
		or r9, r10, r9
		nop
	}
	.loc	1 499 0                 # /Users/rkn/Documents/xTIMEcomposer/workspace/module_adat_rx/src/adatReceiver-100.h:499:0
	{
		zext r9, 5
		nop
	}
.Ltmp459:
	#DEBUG_VALUE: nibble <- R9
	#DEBUG_VALUE: old <- R7
	.loc	1 499 0                 # /Users/rkn/Documents/xTIMEcomposer/workspace/module_adat_rx/src/adatReceiver-100.h:499:0
	{
		shr r7, r7, 3
		ldw r9, r1[r9]
	}
.Ltmp460:
	#DEBUG_VALUE: data <- R9
	#DEBUG_VALUE: word <- R10
	.loc	1 501 0                 # /Users/rkn/Documents/xTIMEcomposer/workspace/module_adat_rx/src/adatReceiver-100.h:501:0
.Lxta.endpoint_labels81:
	{
		in r10, res[r5]
		shl r9, r9, 4
	}
.Ltmp461:
	.loc	1 503 0                 # /Users/rkn/Documents/xTIMEcomposer/workspace/module_adat_rx/src/adatReceiver-100.h:503:0
	{
		and r10, r10, r6
		nop
	}
.Ltmp462:
	#DEBUG_VALUE: fourBits <- R10
	.loc	1 504 0                 # /Users/rkn/Documents/xTIMEcomposer/workspace/module_adat_rx/src/adatReceiver-100.h:504:0
	crc32 r10, r0, r0
.Ltmp463:
	{
		nop
		ldw r10, r11[r10]
	}
.Ltmp464:
	#DEBUG_VALUE: compressed <- R10
	.loc	1 506 0                 # /Users/rkn/Documents/xTIMEcomposer/workspace/module_adat_rx/src/adatReceiver-100.h:506:0
	{
		shl r10, r10, 1
		nop
	}
.Ltmp465:
	.loc	1 506 0                 # /Users/rkn/Documents/xTIMEcomposer/workspace/module_adat_rx/src/adatReceiver-100.h:506:0
	{
		or r7, r10, r7
		nop
	}
	.loc	1 506 0                 # /Users/rkn/Documents/xTIMEcomposer/workspace/module_adat_rx/src/adatReceiver-100.h:506:0
	{
		zext r7, 5
		nop
	}
	{
		nop
		ldw r7, r1[r7]
	}
.Ltmp466:
	#DEBUG_VALUE: nibble <- R7
	.loc	1 508 0                 # /Users/rkn/Documents/xTIMEcomposer/workspace/module_adat_rx/src/adatReceiver-100.h:508:0
	{
		or r7, r7, r9
		nop
	}
.Ltmp467:
	#DEBUG_VALUE: data <- R7
	#DEBUG_VALUE: word <- R9
	.loc	1 508 0                 # /Users/rkn/Documents/xTIMEcomposer/workspace/module_adat_rx/src/adatReceiver-100.h:508:0
.Lxta.endpoint_labels82:
	{
		in r9, res[r5]
		shl r7, r7, 4
	}
.Ltmp468:
	.loc	1 510 0                 # /Users/rkn/Documents/xTIMEcomposer/workspace/module_adat_rx/src/adatReceiver-100.h:510:0
	{
		shl r9, r9, 5
		nop
	}
	.loc	1 510 0                 # /Users/rkn/Documents/xTIMEcomposer/workspace/module_adat_rx/src/adatReceiver-100.h:510:0
	{
		and r9, r9, r2
		nop
	}
.Ltmp469:
	#DEBUG_VALUE: fourBits <- R9
	.loc	1 511 0                 # /Users/rkn/Documents/xTIMEcomposer/workspace/module_adat_rx/src/adatReceiver-100.h:511:0
	crc32 r9, r0, r0
.Ltmp470:
	{
		nop
		ldw r9, r11[r9]
	}
.Ltmp471:
	#DEBUG_VALUE: compressed <- R9
	#DEBUG_VALUE: old <- R9
	#DEBUG_VALUE: word <- R10
	.loc	1 513 0                 # /Users/rkn/Documents/xTIMEcomposer/workspace/module_adat_rx/src/adatReceiver-100.h:513:0
.Lxta.endpoint_labels83:
	{
		in r10, res[r5]
		shr r9, r9, 1
	}
.Ltmp472:
	.loc	1 516 0                 # /Users/rkn/Documents/xTIMEcomposer/workspace/module_adat_rx/src/adatReceiver-100.h:516:0
	{
		shl r10, r10, 2
		nop
	}
	.loc	1 516 0                 # /Users/rkn/Documents/xTIMEcomposer/workspace/module_adat_rx/src/adatReceiver-100.h:516:0
	{
		and r10, r10, r6
		nop
	}
.Ltmp473:
	#DEBUG_VALUE: fourBits <- R10
	.loc	1 517 0                 # /Users/rkn/Documents/xTIMEcomposer/workspace/module_adat_rx/src/adatReceiver-100.h:517:0
	crc32 r10, r0, r0
.Ltmp474:
	{
		nop
		ldw r10, r11[r10]
	}
.Ltmp475:
	#DEBUG_VALUE: compressed <- R10
	.loc	1 519 0                 # /Users/rkn/Documents/xTIMEcomposer/workspace/module_adat_rx/src/adatReceiver-100.h:519:0
	{
		shl r8, r10, 3
		nop
	}
	.loc	1 519 0                 # /Users/rkn/Documents/xTIMEcomposer/workspace/module_adat_rx/src/adatReceiver-100.h:519:0
	{
		or r8, r8, r9
		nop
	}
	.loc	1 519 0                 # /Users/rkn/Documents/xTIMEcomposer/workspace/module_adat_rx/src/adatReceiver-100.h:519:0
	{
		zext r8, 5
		nop
	}
.Ltmp476:
	#DEBUG_VALUE: nibble <- R8
	#DEBUG_VALUE: old <- R9
	.loc	1 519 0                 # /Users/rkn/Documents/xTIMEcomposer/workspace/module_adat_rx/src/adatReceiver-100.h:519:0
	{
		shr r9, r10, 2
		ldw r8, r1[r8]
	}
.Ltmp477:
	.loc	1 521 0                 # /Users/rkn/Documents/xTIMEcomposer/workspace/module_adat_rx/src/adatReceiver-100.h:521:0
	{
		or r7, r8, r7
		nop
	}
.Ltmp478:
	#DEBUG_VALUE: data <- R7
	#DEBUG_VALUE: word <- R8
	.loc	1 521 0                 # /Users/rkn/Documents/xTIMEcomposer/workspace/module_adat_rx/src/adatReceiver-100.h:521:0
.Lxta.endpoint_labels84:
	{
		in r8, res[r5]
		shl r7, r7, 4
	}
.Ltmp479:
	.loc	1 523 0                 # /Users/rkn/Documents/xTIMEcomposer/workspace/module_adat_rx/src/adatReceiver-100.h:523:0
	{
		shl r8, r8, 7
		nop
	}
	.loc	1 523 0                 # /Users/rkn/Documents/xTIMEcomposer/workspace/module_adat_rx/src/adatReceiver-100.h:523:0
	{
		and r8, r8, r2
		nop
	}
.Ltmp480:
	#DEBUG_VALUE: fourBits <- R8
	.loc	1 524 0                 # /Users/rkn/Documents/xTIMEcomposer/workspace/module_adat_rx/src/adatReceiver-100.h:524:0
	crc32 r8, r0, r0
.Ltmp481:
	{
		nop
		ldw r8, r11[r8]
	}
.Ltmp482:
	#DEBUG_VALUE: compressed <- R8
	.loc	1 527 0                 # /Users/rkn/Documents/xTIMEcomposer/workspace/module_adat_rx/src/adatReceiver-100.h:527:0
	{
		shl r8, r8, 1
		ldc r4, 28
	}
.Ltmp483:
	.loc	1 526 0                 # /Users/rkn/Documents/xTIMEcomposer/workspace/module_adat_rx/src/adatReceiver-100.h:526:0
	{
		and r8, r8, r4
		nop
	}
	.loc	1 527 0                 # /Users/rkn/Documents/xTIMEcomposer/workspace/module_adat_rx/src/adatReceiver-100.h:527:0
	{
		or r8, r8, r9
		nop
	}
	.loc	1 527 0                 # /Users/rkn/Documents/xTIMEcomposer/workspace/module_adat_rx/src/adatReceiver-100.h:527:0
	{
		zext r8, 5
		nop
	}
	{
		nop
		ldw r8, r1[r8]
	}
.Ltmp484:
	#DEBUG_VALUE: nibble <- R8
	.loc	1 529 0                 # /Users/rkn/Documents/xTIMEcomposer/workspace/module_adat_rx/src/adatReceiver-100.h:529:0
	{
		or r7, r8, r7
		nop
	}
.Ltmp485:
	#DEBUG_VALUE: data <- R7
	#DEBUG_VALUE: word <- R8
	.loc	1 529 0                 # /Users/rkn/Documents/xTIMEcomposer/workspace/module_adat_rx/src/adatReceiver-100.h:529:0
.Lxta.endpoint_labels85:
	{
		in r8, res[r5]
		shl r7, r7, 4
	}
.Ltmp486:
	.loc	1 531 0                 # /Users/rkn/Documents/xTIMEcomposer/workspace/module_adat_rx/src/adatReceiver-100.h:531:0
	{
		shl r8, r8, 4
		nop
	}
	.loc	1 531 0                 # /Users/rkn/Documents/xTIMEcomposer/workspace/module_adat_rx/src/adatReceiver-100.h:531:0
	{
		and r8, r8, r6
		nop
	}
.Ltmp487:
	#DEBUG_VALUE: fourBits <- R8
	.loc	1 532 0                 # /Users/rkn/Documents/xTIMEcomposer/workspace/module_adat_rx/src/adatReceiver-100.h:532:0
	crc32 r8, r0, r0
.Ltmp488:
	#DEBUG_VALUE: old <- R8
	#DEBUG_VALUE: compressed <- R8
	#DEBUG_VALUE: word <- R9
	.loc	1 533 0                 # /Users/rkn/Documents/xTIMEcomposer/workspace/module_adat_rx/src/adatReceiver-100.h:533:0
.Lxta.endpoint_labels86:
	{
		in r9, res[r5]
		ldw r8, r11[r8]
	}
.Ltmp489:
	.loc	1 536 0                 # /Users/rkn/Documents/xTIMEcomposer/workspace/module_adat_rx/src/adatReceiver-100.h:536:0
	{
		shl r9, r9, 1
		nop
	}
	.loc	1 536 0                 # /Users/rkn/Documents/xTIMEcomposer/workspace/module_adat_rx/src/adatReceiver-100.h:536:0
	{
		and r9, r9, r6
		nop
	}
.Ltmp490:
	#DEBUG_VALUE: fourBits <- R9
	.loc	1 537 0                 # /Users/rkn/Documents/xTIMEcomposer/workspace/module_adat_rx/src/adatReceiver-100.h:537:0
	crc32 r9, r0, r0
.Ltmp491:
	{
		nop
		ldw r9, r11[r9]
	}
.Ltmp492:
	#DEBUG_VALUE: compressed <- R9
	.loc	1 539 0                 # /Users/rkn/Documents/xTIMEcomposer/workspace/module_adat_rx/src/adatReceiver-100.h:539:0
	{
		shl r10, r9, 4
		nop
	}
	.loc	1 539 0                 # /Users/rkn/Documents/xTIMEcomposer/workspace/module_adat_rx/src/adatReceiver-100.h:539:0
	{
		or r8, r10, r8
		nop
	}
	.loc	1 539 0                 # /Users/rkn/Documents/xTIMEcomposer/workspace/module_adat_rx/src/adatReceiver-100.h:539:0
	{
		zext r8, 5
		nop
	}
.Ltmp493:
	#DEBUG_VALUE: nibble <- R8
	#DEBUG_VALUE: old <- R9
	.loc	1 539 0                 # /Users/rkn/Documents/xTIMEcomposer/workspace/module_adat_rx/src/adatReceiver-100.h:539:0
	{
		shr r9, r9, 1
		ldw r8, r1[r8]
	}
.Ltmp494:
	.loc	1 541 0                 # /Users/rkn/Documents/xTIMEcomposer/workspace/module_adat_rx/src/adatReceiver-100.h:541:0
	{
		or r7, r8, r7
		nop
	}
.Ltmp495:
	#DEBUG_VALUE: data <- R7
	#DEBUG_VALUE: word <- R8
	.loc	1 541 0                 # /Users/rkn/Documents/xTIMEcomposer/workspace/module_adat_rx/src/adatReceiver-100.h:541:0
.Lxta.endpoint_labels87:
	{
		in r8, res[r5]
		shl r7, r7, 4
	}
.Ltmp496:
	.loc	1 543 0                 # /Users/rkn/Documents/xTIMEcomposer/workspace/module_adat_rx/src/adatReceiver-100.h:543:0
	{
		shl r8, r8, 5
		nop
	}
	.loc	1 543 0                 # /Users/rkn/Documents/xTIMEcomposer/workspace/module_adat_rx/src/adatReceiver-100.h:543:0
	{
		and r8, r8, r2
		nop
	}
.Ltmp497:
	#DEBUG_VALUE: fourBits <- R8
	.loc	1 544 0                 # /Users/rkn/Documents/xTIMEcomposer/workspace/module_adat_rx/src/adatReceiver-100.h:544:0
	crc32 r8, r0, r0
.Ltmp498:
	{
		nop
		ldw r8, r11[r8]
	}
.Ltmp499:
	#DEBUG_VALUE: compressed <- R8
	.loc	1 547 0                 # /Users/rkn/Documents/xTIMEcomposer/workspace/module_adat_rx/src/adatReceiver-100.h:547:0
	{
		shl r10, r8, 2
		ldc r3, 24
	}
	.loc	1 546 0                 # /Users/rkn/Documents/xTIMEcomposer/workspace/module_adat_rx/src/adatReceiver-100.h:546:0
	{
		and r10, r10, r3
		nop
	}
	.loc	1 547 0                 # /Users/rkn/Documents/xTIMEcomposer/workspace/module_adat_rx/src/adatReceiver-100.h:547:0
	{
		or r9, r10, r9
		nop
	}
	.loc	1 547 0                 # /Users/rkn/Documents/xTIMEcomposer/workspace/module_adat_rx/src/adatReceiver-100.h:547:0
	{
		zext r9, 5
		nop
	}
.Ltmp500:
	#DEBUG_VALUE: nibble <- R9
	#DEBUG_VALUE: old <- R8
	.loc	1 547 0                 # /Users/rkn/Documents/xTIMEcomposer/workspace/module_adat_rx/src/adatReceiver-100.h:547:0
	{
		shr r8, r8, 3
		ldw r9, r1[r9]
	}
.Ltmp501:
	.loc	1 549 0                 # /Users/rkn/Documents/xTIMEcomposer/workspace/module_adat_rx/src/adatReceiver-100.h:549:0
	{
		or r7, r9, r7
		nop
	}
.Ltmp502:
	#DEBUG_VALUE: data <- R7
	#DEBUG_VALUE: adatReceiver44100:oChan <- R4
	.loc	1 549 0                 # /Users/rkn/Documents/xTIMEcomposer/workspace/module_adat_rx/src/adatReceiver-100.h:549:0
	{
		shl r7, r7, 4
		ldw r4, sp[5]
	}
.Ltmp503:
	.loc	1 550 0                 # /Users/rkn/Documents/xTIMEcomposer/workspace/module_adat_rx/src/adatReceiver-100.h:550:0
.Lxta.endpoint_labels88:
	{
		out res[r4], r7
		nop
	}
	.loc	1 551 0                 # /Users/rkn/Documents/xTIMEcomposer/workspace/module_adat_rx/src/adatReceiver-100.h:551:0
.Lxta.endpoint_labels89:
	{
		in r7, res[r5]
		nop
	}
.Ltmp504:
	#DEBUG_VALUE: word <- R7
	.loc	1 552 0                 # /Users/rkn/Documents/xTIMEcomposer/workspace/module_adat_rx/src/adatReceiver-100.h:552:0
	{
		shl r7, r7, 3
		nop
	}
.Ltmp505:
	.loc	1 552 0                 # /Users/rkn/Documents/xTIMEcomposer/workspace/module_adat_rx/src/adatReceiver-100.h:552:0
	{
		and r7, r7, r6
		nop
	}
.Ltmp506:
	#DEBUG_VALUE: fourBits <- R7
	.loc	1 553 0                 # /Users/rkn/Documents/xTIMEcomposer/workspace/module_adat_rx/src/adatReceiver-100.h:553:0
	crc32 r7, r0, r0
.Ltmp507:
	{
		nop
		ldw r7, r11[r7]
	}
.Ltmp508:
	#DEBUG_VALUE: compressed <- R7
	.loc	1 555 0                 # /Users/rkn/Documents/xTIMEcomposer/workspace/module_adat_rx/src/adatReceiver-100.h:555:0
	{
		shl r7, r7, 1
		nop
	}
.Ltmp509:
	.loc	1 555 0                 # /Users/rkn/Documents/xTIMEcomposer/workspace/module_adat_rx/src/adatReceiver-100.h:555:0
	{
		or r7, r7, r8
		nop
	}
	.loc	1 555 0                 # /Users/rkn/Documents/xTIMEcomposer/workspace/module_adat_rx/src/adatReceiver-100.h:555:0
	{
		zext r7, 5
		nop
	}
	{
		nop
		ldw r7, r1[r7]
	}
.Ltmp510:
	#DEBUG_VALUE: nibble <- R7
	#DEBUG_VALUE: data <- R7
	#DEBUG_VALUE: word <- R8
	.loc	1 557 0                 # /Users/rkn/Documents/xTIMEcomposer/workspace/module_adat_rx/src/adatReceiver-100.h:557:0
.Lxta.endpoint_labels90:
	{
		in r8, res[r5]
		shl r7, r7, 4
	}
.Ltmp511:
	.loc	1 559 0                 # /Users/rkn/Documents/xTIMEcomposer/workspace/module_adat_rx/src/adatReceiver-100.h:559:0
	{
		shl r8, r8, 7
		nop
	}
	.loc	1 559 0                 # /Users/rkn/Documents/xTIMEcomposer/workspace/module_adat_rx/src/adatReceiver-100.h:559:0
	{
		and r8, r8, r2
		nop
	}
.Ltmp512:
	#DEBUG_VALUE: fourBits <- R8
	.loc	1 560 0                 # /Users/rkn/Documents/xTIMEcomposer/workspace/module_adat_rx/src/adatReceiver-100.h:560:0
	crc32 r8, r0, r0
.Ltmp513:
	{
		nop
		ldw r8, r11[r8]
	}
.Ltmp514:
	#DEBUG_VALUE: compressed <- R8
	#DEBUG_VALUE: old <- R8
	#DEBUG_VALUE: word <- R9
	.loc	1 562 0                 # /Users/rkn/Documents/xTIMEcomposer/workspace/module_adat_rx/src/adatReceiver-100.h:562:0
.Lxta.endpoint_labels91:
	{
		in r9, res[r5]
		shr r8, r8, 1
	}
.Ltmp515:
	.loc	1 565 0                 # /Users/rkn/Documents/xTIMEcomposer/workspace/module_adat_rx/src/adatReceiver-100.h:565:0
	{
		shl r9, r9, 4
		nop
	}
	.loc	1 565 0                 # /Users/rkn/Documents/xTIMEcomposer/workspace/module_adat_rx/src/adatReceiver-100.h:565:0
	{
		and r9, r9, r6
		nop
	}
.Ltmp516:
	#DEBUG_VALUE: fourBits <- R9
	.loc	1 566 0                 # /Users/rkn/Documents/xTIMEcomposer/workspace/module_adat_rx/src/adatReceiver-100.h:566:0
	crc32 r9, r0, r0
.Ltmp517:
	{
		nop
		ldw r9, r11[r9]
	}
.Ltmp518:
	#DEBUG_VALUE: compressed <- R9
	.loc	1 568 0                 # /Users/rkn/Documents/xTIMEcomposer/workspace/module_adat_rx/src/adatReceiver-100.h:568:0
	{
		shl r10, r9, 3
		nop
	}
	.loc	1 568 0                 # /Users/rkn/Documents/xTIMEcomposer/workspace/module_adat_rx/src/adatReceiver-100.h:568:0
	{
		or r8, r10, r8
		nop
	}
	.loc	1 568 0                 # /Users/rkn/Documents/xTIMEcomposer/workspace/module_adat_rx/src/adatReceiver-100.h:568:0
	{
		zext r8, 5
		nop
	}
.Ltmp519:
	#DEBUG_VALUE: nibble <- R8
	#DEBUG_VALUE: old <- R9
	.loc	1 568 0                 # /Users/rkn/Documents/xTIMEcomposer/workspace/module_adat_rx/src/adatReceiver-100.h:568:0
	{
		shr r9, r9, 2
		ldw r8, r1[r8]
	}
.Ltmp520:
	.loc	1 570 0                 # /Users/rkn/Documents/xTIMEcomposer/workspace/module_adat_rx/src/adatReceiver-100.h:570:0
	{
		or r7, r8, r7
		nop
	}
.Ltmp521:
	#DEBUG_VALUE: data <- R7
	#DEBUG_VALUE: word <- R8
	.loc	1 570 0                 # /Users/rkn/Documents/xTIMEcomposer/workspace/module_adat_rx/src/adatReceiver-100.h:570:0
.Lxta.endpoint_labels92:
	{
		in r8, res[r5]
		shl r7, r7, 4
	}
.Ltmp522:
	.loc	1 572 0                 # /Users/rkn/Documents/xTIMEcomposer/workspace/module_adat_rx/src/adatReceiver-100.h:572:0
	{
		shl r8, r8, 1
		nop
	}
	.loc	1 572 0                 # /Users/rkn/Documents/xTIMEcomposer/workspace/module_adat_rx/src/adatReceiver-100.h:572:0
	{
		and r8, r8, r6
		nop
	}
.Ltmp523:
	#DEBUG_VALUE: fourBits <- R8
	.loc	1 573 0                 # /Users/rkn/Documents/xTIMEcomposer/workspace/module_adat_rx/src/adatReceiver-100.h:573:0
	crc32 r8, r0, r0
.Ltmp524:
	{
		nop
		ldw r8, r11[r8]
	}
.Ltmp525:
	#DEBUG_VALUE: compressed <- R8
	.loc	1 575 0                 # /Users/rkn/Documents/xTIMEcomposer/workspace/module_adat_rx/src/adatReceiver-100.h:575:0
	{
		shl r10, r8, 2
		nop
	}
	.loc	1 575 0                 # /Users/rkn/Documents/xTIMEcomposer/workspace/module_adat_rx/src/adatReceiver-100.h:575:0
	{
		or r9, r10, r9
		nop
	}
	.loc	1 575 0                 # /Users/rkn/Documents/xTIMEcomposer/workspace/module_adat_rx/src/adatReceiver-100.h:575:0
	{
		zext r9, 5
		nop
	}
.Ltmp526:
	#DEBUG_VALUE: nibble <- R9
	#DEBUG_VALUE: old <- R8
	.loc	1 575 0                 # /Users/rkn/Documents/xTIMEcomposer/workspace/module_adat_rx/src/adatReceiver-100.h:575:0
	{
		shr r8, r8, 3
		ldw r9, r1[r9]
	}
.Ltmp527:
	.loc	1 577 0                 # /Users/rkn/Documents/xTIMEcomposer/workspace/module_adat_rx/src/adatReceiver-100.h:577:0
	{
		or r7, r9, r7
		nop
	}
.Ltmp528:
	#DEBUG_VALUE: data <- R7
	#DEBUG_VALUE: word <- R9
	.loc	1 577 0                 # /Users/rkn/Documents/xTIMEcomposer/workspace/module_adat_rx/src/adatReceiver-100.h:577:0
.Lxta.endpoint_labels93:
	{
		in r9, res[r5]
		shl r7, r7, 4
	}
.Ltmp529:
	.loc	1 579 0                 # /Users/rkn/Documents/xTIMEcomposer/workspace/module_adat_rx/src/adatReceiver-100.h:579:0
	{
		shl r9, r9, 6
		nop
	}
	.loc	1 579 0                 # /Users/rkn/Documents/xTIMEcomposer/workspace/module_adat_rx/src/adatReceiver-100.h:579:0
	{
		and r9, r9, r2
		nop
	}
.Ltmp530:
	#DEBUG_VALUE: fourBits <- R9
	.loc	1 580 0                 # /Users/rkn/Documents/xTIMEcomposer/workspace/module_adat_rx/src/adatReceiver-100.h:580:0
	crc32 r9, r0, r0
.Ltmp531:
	#DEBUG_VALUE: compressed <- R9
	.loc	1 581 0                 # /Users/rkn/Documents/xTIMEcomposer/workspace/module_adat_rx/src/adatReceiver-100.h:581:0
	{
		ldc r3, 30
		ldw r9, r11[r9]
	}
.Ltmp532:
	.loc	1 583 0                 # /Users/rkn/Documents/xTIMEcomposer/workspace/module_adat_rx/src/adatReceiver-100.h:583:0
	{
		and r9, r9, r3
		nop
	}
.Ltmp533:
	#DEBUG_VALUE: word <- R9
	.loc	1 583 0                 # /Users/rkn/Documents/xTIMEcomposer/workspace/module_adat_rx/src/adatReceiver-100.h:583:0
.Lxta.endpoint_labels94:
	{
		in r9, res[r5]
		or r8, r9, r8
	}
.Ltmp534:
	.loc	1 585 0                 # /Users/rkn/Documents/xTIMEcomposer/workspace/module_adat_rx/src/adatReceiver-100.h:585:0
	{
		shl r9, r9, 3
		nop
	}
	.loc	1 585 0                 # /Users/rkn/Documents/xTIMEcomposer/workspace/module_adat_rx/src/adatReceiver-100.h:585:0
	{
		and r9, r9, r6
		nop
	}
.Ltmp535:
	#DEBUG_VALUE: fourBits <- R9
	.loc	1 586 0                 # /Users/rkn/Documents/xTIMEcomposer/workspace/module_adat_rx/src/adatReceiver-100.h:586:0
	crc32 r9, r0, r0
.Ltmp536:
	{
		nop
		ldw r9, r11[r9]
	}
.Ltmp537:
	#DEBUG_VALUE: compressed <- R9
	.loc	1 588 0                 # /Users/rkn/Documents/xTIMEcomposer/workspace/module_adat_rx/src/adatReceiver-100.h:588:0
	{
		shl r10, r9, 4
		nop
	}
	.loc	1 588 0                 # /Users/rkn/Documents/xTIMEcomposer/workspace/module_adat_rx/src/adatReceiver-100.h:588:0
	{
		or r8, r8, r10
		nop
	}
	.loc	1 588 0                 # /Users/rkn/Documents/xTIMEcomposer/workspace/module_adat_rx/src/adatReceiver-100.h:588:0
	{
		zext r8, 5
		nop
	}
.Ltmp538:
	#DEBUG_VALUE: nibble <- R8
	#DEBUG_VALUE: old <- R9
	.loc	1 588 0                 # /Users/rkn/Documents/xTIMEcomposer/workspace/module_adat_rx/src/adatReceiver-100.h:588:0
	{
		shr r9, r9, 1
		ldw r8, r1[r8]
	}
.Ltmp539:
	.loc	1 590 0                 # /Users/rkn/Documents/xTIMEcomposer/workspace/module_adat_rx/src/adatReceiver-100.h:590:0
	{
		or r7, r8, r7
		nop
	}
.Ltmp540:
	#DEBUG_VALUE: data <- R7
	#DEBUG_VALUE: word <- R8
	.loc	1 590 0                 # /Users/rkn/Documents/xTIMEcomposer/workspace/module_adat_rx/src/adatReceiver-100.h:590:0
.Lxta.endpoint_labels95:
	{
		in r8, res[r5]
		shl r7, r7, 4
	}
.Ltmp541:
	.loc	1 592 0                 # /Users/rkn/Documents/xTIMEcomposer/workspace/module_adat_rx/src/adatReceiver-100.h:592:0
	{
		and r8, r8, r6
		nop
	}
.Ltmp542:
	#DEBUG_VALUE: fourBits <- R8
	.loc	1 593 0                 # /Users/rkn/Documents/xTIMEcomposer/workspace/module_adat_rx/src/adatReceiver-100.h:593:0
	crc32 r8, r0, r0
.Ltmp543:
	{
		nop
		ldw r8, r11[r8]
	}
.Ltmp544:
	#DEBUG_VALUE: compressed <- R8
	.loc	1 595 0                 # /Users/rkn/Documents/xTIMEcomposer/workspace/module_adat_rx/src/adatReceiver-100.h:595:0
	{
		shl r10, r8, 3
		nop
	}
	.loc	1 595 0                 # /Users/rkn/Documents/xTIMEcomposer/workspace/module_adat_rx/src/adatReceiver-100.h:595:0
	{
		or r9, r10, r9
		nop
	}
	.loc	1 595 0                 # /Users/rkn/Documents/xTIMEcomposer/workspace/module_adat_rx/src/adatReceiver-100.h:595:0
	{
		zext r9, 5
		nop
	}
.Ltmp545:
	#DEBUG_VALUE: nibble <- R9
	#DEBUG_VALUE: old <- R8
	.loc	1 595 0                 # /Users/rkn/Documents/xTIMEcomposer/workspace/module_adat_rx/src/adatReceiver-100.h:595:0
	{
		shr r8, r8, 2
		ldw r9, r1[r9]
	}
.Ltmp546:
	.loc	1 597 0                 # /Users/rkn/Documents/xTIMEcomposer/workspace/module_adat_rx/src/adatReceiver-100.h:597:0
	{
		or r7, r9, r7
		nop
	}
.Ltmp547:
	#DEBUG_VALUE: data <- R7
	#DEBUG_VALUE: word <- R9
	.loc	1 597 0                 # /Users/rkn/Documents/xTIMEcomposer/workspace/module_adat_rx/src/adatReceiver-100.h:597:0
.Lxta.endpoint_labels96:
	{
		in r9, res[r5]
		shl r7, r7, 4
	}
.Ltmp548:
	.loc	1 599 0                 # /Users/rkn/Documents/xTIMEcomposer/workspace/module_adat_rx/src/adatReceiver-100.h:599:0
	{
		shl r9, r9, 5
		nop
	}
	.loc	1 599 0                 # /Users/rkn/Documents/xTIMEcomposer/workspace/module_adat_rx/src/adatReceiver-100.h:599:0
	{
		and r9, r9, r2
		nop
	}
.Ltmp549:
	#DEBUG_VALUE: fourBits <- R9
	.loc	1 600 0                 # /Users/rkn/Documents/xTIMEcomposer/workspace/module_adat_rx/src/adatReceiver-100.h:600:0
	crc32 r9, r0, r0
.Ltmp550:
	{
		nop
		ldw r9, r11[r9]
	}
.Ltmp551:
	#DEBUG_VALUE: compressed <- R9
	.loc	1 603 0                 # /Users/rkn/Documents/xTIMEcomposer/workspace/module_adat_rx/src/adatReceiver-100.h:603:0
	{
		shl r9, r9, 1
		ldc r3, 28
	}
.Ltmp552:
	.loc	1 602 0                 # /Users/rkn/Documents/xTIMEcomposer/workspace/module_adat_rx/src/adatReceiver-100.h:602:0
	{
		and r9, r9, r3
		nop
	}
	.loc	1 603 0                 # /Users/rkn/Documents/xTIMEcomposer/workspace/module_adat_rx/src/adatReceiver-100.h:603:0
	{
		or r8, r9, r8
		nop
	}
	.loc	1 603 0                 # /Users/rkn/Documents/xTIMEcomposer/workspace/module_adat_rx/src/adatReceiver-100.h:603:0
	{
		zext r8, 5
		nop
	}
	{
		nop
		ldw r8, r1[r8]
	}
.Ltmp553:
	#DEBUG_VALUE: nibble <- R8
	.loc	1 605 0                 # /Users/rkn/Documents/xTIMEcomposer/workspace/module_adat_rx/src/adatReceiver-100.h:605:0
	{
		or r7, r8, r7
		nop
	}
.Ltmp554:
	#DEBUG_VALUE: data <- R7
	#DEBUG_VALUE: adatReceiver44100:oChan <- R3
	.loc	1 605 0                 # /Users/rkn/Documents/xTIMEcomposer/workspace/module_adat_rx/src/adatReceiver-100.h:605:0
	{
		shl r7, r7, 4
		mov r3, r4
	}
.Ltmp555:
	.loc	1 606 0                 # /Users/rkn/Documents/xTIMEcomposer/workspace/module_adat_rx/src/adatReceiver-100.h:606:0
.Lxta.endpoint_labels97:
	{
		out res[r3], r7
		nop
	}
	.loc	1 607 0                 # /Users/rkn/Documents/xTIMEcomposer/workspace/module_adat_rx/src/adatReceiver-100.h:607:0
.Lxta.endpoint_labels98:
	{
		in r7, res[r5]
		nop
	}
.Ltmp556:
	#DEBUG_VALUE: word <- R7
	.loc	1 608 0                 # /Users/rkn/Documents/xTIMEcomposer/workspace/module_adat_rx/src/adatReceiver-100.h:608:0
	{
		shl r7, r7, 2
		nop
	}
.Ltmp557:
	.loc	1 608 0                 # /Users/rkn/Documents/xTIMEcomposer/workspace/module_adat_rx/src/adatReceiver-100.h:608:0
	{
		and r7, r7, r6
		nop
	}
.Ltmp558:
	#DEBUG_VALUE: fourBits <- R7
	.loc	1 609 0                 # /Users/rkn/Documents/xTIMEcomposer/workspace/module_adat_rx/src/adatReceiver-100.h:609:0
	crc32 r7, r0, r0
.Ltmp559:
	#DEBUG_VALUE: old <- R7
	#DEBUG_VALUE: compressed <- R7
	#DEBUG_VALUE: word <- R8
	.loc	1 610 0                 # /Users/rkn/Documents/xTIMEcomposer/workspace/module_adat_rx/src/adatReceiver-100.h:610:0
.Lxta.endpoint_labels99:
	{
		in r8, res[r5]
		ldw r7, r11[r7]
	}
.Ltmp560:
	.loc	1 613 0                 # /Users/rkn/Documents/xTIMEcomposer/workspace/module_adat_rx/src/adatReceiver-100.h:613:0
	{
		shl r8, r8, 7
		nop
	}
.Ltmp561:
	#DEBUG_VALUE: fourBits <- R8
	.loc	1 613 0                 # /Users/rkn/Documents/xTIMEcomposer/workspace/module_adat_rx/src/adatReceiver-100.h:613:0
	{
		and r8, r8, r2
		mov r4, r2
	}
.Ltmp562:
	.loc	1 614 0                 # /Users/rkn/Documents/xTIMEcomposer/workspace/module_adat_rx/src/adatReceiver-100.h:614:0
	crc32 r8, r0, r0
	{
		nop
		ldw r8, r11[r8]
	}
.Ltmp563:
	#DEBUG_VALUE: compressed <- R8
	.loc	1 617 0                 # /Users/rkn/Documents/xTIMEcomposer/workspace/module_adat_rx/src/adatReceiver-100.h:617:0
	{
		shl r9, r8, 3
		ldc r2, 16
	}
	.loc	1 616 0                 # /Users/rkn/Documents/xTIMEcomposer/workspace/module_adat_rx/src/adatReceiver-100.h:616:0
	{
		and r9, r9, r2
		nop
	}
	.loc	1 617 0                 # /Users/rkn/Documents/xTIMEcomposer/workspace/module_adat_rx/src/adatReceiver-100.h:617:0
	{
		or r7, r9, r7
		nop
	}
	.loc	1 617 0                 # /Users/rkn/Documents/xTIMEcomposer/workspace/module_adat_rx/src/adatReceiver-100.h:617:0
	{
		zext r7, 5
		nop
	}
.Ltmp564:
	#DEBUG_VALUE: nibble <- R7
	#DEBUG_VALUE: old <- R8
	.loc	1 617 0                 # /Users/rkn/Documents/xTIMEcomposer/workspace/module_adat_rx/src/adatReceiver-100.h:617:0
	{
		shr r8, r8, 2
		ldw r7, r1[r7]
	}
.Ltmp565:
	#DEBUG_VALUE: data <- R7
	#DEBUG_VALUE: word <- R9
	.loc	1 619 0                 # /Users/rkn/Documents/xTIMEcomposer/workspace/module_adat_rx/src/adatReceiver-100.h:619:0
.Lxta.endpoint_labels100:
	{
		in r9, res[r5]
		shl r7, r7, 4
	}
.Ltmp566:
	.loc	1 621 0                 # /Users/rkn/Documents/xTIMEcomposer/workspace/module_adat_rx/src/adatReceiver-100.h:621:0
	{
		shl r9, r9, 4
		nop
	}
	.loc	1 621 0                 # /Users/rkn/Documents/xTIMEcomposer/workspace/module_adat_rx/src/adatReceiver-100.h:621:0
	{
		and r9, r9, r6
		nop
	}
.Ltmp567:
	#DEBUG_VALUE: fourBits <- R9
	.loc	1 622 0                 # /Users/rkn/Documents/xTIMEcomposer/workspace/module_adat_rx/src/adatReceiver-100.h:622:0
	crc32 r9, r0, r0
.Ltmp568:
	{
		nop
		ldw r9, r11[r9]
	}
.Ltmp569:
	#DEBUG_VALUE: compressed <- R9
	.loc	1 624 0                 # /Users/rkn/Documents/xTIMEcomposer/workspace/module_adat_rx/src/adatReceiver-100.h:624:0
	{
		shl r10, r9, 2
		nop
	}
	.loc	1 624 0                 # /Users/rkn/Documents/xTIMEcomposer/workspace/module_adat_rx/src/adatReceiver-100.h:624:0
	{
		or r8, r10, r8
		nop
	}
	.loc	1 624 0                 # /Users/rkn/Documents/xTIMEcomposer/workspace/module_adat_rx/src/adatReceiver-100.h:624:0
	{
		zext r8, 5
		nop
	}
.Ltmp570:
	#DEBUG_VALUE: nibble <- R8
	#DEBUG_VALUE: old <- R9
	.loc	1 624 0                 # /Users/rkn/Documents/xTIMEcomposer/workspace/module_adat_rx/src/adatReceiver-100.h:624:0
	{
		shr r9, r9, 3
		ldw r8, r1[r8]
	}
.Ltmp571:
	.loc	1 626 0                 # /Users/rkn/Documents/xTIMEcomposer/workspace/module_adat_rx/src/adatReceiver-100.h:626:0
	{
		or r7, r8, r7
		nop
	}
.Ltmp572:
	#DEBUG_VALUE: data <- R7
	#DEBUG_VALUE: word <- R8
	.loc	1 626 0                 # /Users/rkn/Documents/xTIMEcomposer/workspace/module_adat_rx/src/adatReceiver-100.h:626:0
.Lxta.endpoint_labels101:
	{
		in r8, res[r5]
		shl r7, r7, 4
	}
.Ltmp573:
	.loc	1 628 0                 # /Users/rkn/Documents/xTIMEcomposer/workspace/module_adat_rx/src/adatReceiver-100.h:628:0
	{
		shl r8, r8, 1
		nop
	}
	.loc	1 628 0                 # /Users/rkn/Documents/xTIMEcomposer/workspace/module_adat_rx/src/adatReceiver-100.h:628:0
	{
		and r8, r8, r6
		nop
	}
.Ltmp574:
	#DEBUG_VALUE: fourBits <- R8
	.loc	1 629 0                 # /Users/rkn/Documents/xTIMEcomposer/workspace/module_adat_rx/src/adatReceiver-100.h:629:0
	crc32 r8, r0, r0
.Ltmp575:
	{
		nop
		ldw r8, r11[r8]
	}
.Ltmp576:
	#DEBUG_VALUE: compressed <- R8
	.loc	1 631 0                 # /Users/rkn/Documents/xTIMEcomposer/workspace/module_adat_rx/src/adatReceiver-100.h:631:0
	{
		shl r8, r8, 1
		nop
	}
.Ltmp577:
	.loc	1 631 0                 # /Users/rkn/Documents/xTIMEcomposer/workspace/module_adat_rx/src/adatReceiver-100.h:631:0
	{
		or r8, r8, r9
		nop
	}
	.loc	1 631 0                 # /Users/rkn/Documents/xTIMEcomposer/workspace/module_adat_rx/src/adatReceiver-100.h:631:0
	{
		zext r8, 5
		nop
	}
	{
		nop
		ldw r8, r1[r8]
	}
.Ltmp578:
	#DEBUG_VALUE: nibble <- R8
	.loc	1 633 0                 # /Users/rkn/Documents/xTIMEcomposer/workspace/module_adat_rx/src/adatReceiver-100.h:633:0
	{
		or r7, r8, r7
		nop
	}
.Ltmp579:
	#DEBUG_VALUE: data <- R7
	#DEBUG_VALUE: word <- R8
	.loc	1 633 0                 # /Users/rkn/Documents/xTIMEcomposer/workspace/module_adat_rx/src/adatReceiver-100.h:633:0
.Lxta.endpoint_labels102:
	{
		in r8, res[r5]
		shl r7, r7, 4
	}
.Ltmp580:
	.loc	1 635 0                 # /Users/rkn/Documents/xTIMEcomposer/workspace/module_adat_rx/src/adatReceiver-100.h:635:0
	{
		shl r8, r8, 5
		nop
	}
	.loc	1 635 0                 # /Users/rkn/Documents/xTIMEcomposer/workspace/module_adat_rx/src/adatReceiver-100.h:635:0
	{
		and r8, r8, r4
		nop
	}
.Ltmp581:
	#DEBUG_VALUE: fourBits <- R8
	.loc	1 636 0                 # /Users/rkn/Documents/xTIMEcomposer/workspace/module_adat_rx/src/adatReceiver-100.h:636:0
	crc32 r8, r0, r0
.Ltmp582:
	{
		nop
		ldw r8, r11[r8]
	}
.Ltmp583:
	#DEBUG_VALUE: compressed <- R8
	#DEBUG_VALUE: old <- R8
	#DEBUG_VALUE: word <- R9
	.loc	1 638 0                 # /Users/rkn/Documents/xTIMEcomposer/workspace/module_adat_rx/src/adatReceiver-100.h:638:0
.Lxta.endpoint_labels103:
	{
		in r9, res[r5]
		shr r8, r8, 1
	}
.Ltmp584:
	.loc	1 641 0                 # /Users/rkn/Documents/xTIMEcomposer/workspace/module_adat_rx/src/adatReceiver-100.h:641:0
	{
		shl r9, r9, 3
		nop
	}
	.loc	1 641 0                 # /Users/rkn/Documents/xTIMEcomposer/workspace/module_adat_rx/src/adatReceiver-100.h:641:0
	{
		and r9, r9, r6
		nop
	}
.Ltmp585:
	#DEBUG_VALUE: fourBits <- R9
	.loc	1 642 0                 # /Users/rkn/Documents/xTIMEcomposer/workspace/module_adat_rx/src/adatReceiver-100.h:642:0
	crc32 r9, r0, r0
.Ltmp586:
	{
		nop
		ldw r9, r11[r9]
	}
.Ltmp587:
	#DEBUG_VALUE: compressed <- R9
	.loc	1 644 0                 # /Users/rkn/Documents/xTIMEcomposer/workspace/module_adat_rx/src/adatReceiver-100.h:644:0
	{
		shl r10, r9, 3
		nop
	}
	.loc	1 644 0                 # /Users/rkn/Documents/xTIMEcomposer/workspace/module_adat_rx/src/adatReceiver-100.h:644:0
	{
		or r8, r10, r8
		nop
	}
	.loc	1 644 0                 # /Users/rkn/Documents/xTIMEcomposer/workspace/module_adat_rx/src/adatReceiver-100.h:644:0
	{
		zext r8, 5
		nop
	}
.Ltmp588:
	#DEBUG_VALUE: nibble <- R8
	#DEBUG_VALUE: old <- R9
	.loc	1 644 0                 # /Users/rkn/Documents/xTIMEcomposer/workspace/module_adat_rx/src/adatReceiver-100.h:644:0
	{
		shr r9, r9, 2
		ldw r8, r1[r8]
	}
.Ltmp589:
	.loc	1 646 0                 # /Users/rkn/Documents/xTIMEcomposer/workspace/module_adat_rx/src/adatReceiver-100.h:646:0
	{
		or r7, r8, r7
		nop
	}
.Ltmp590:
	#DEBUG_VALUE: data <- R7
	#DEBUG_VALUE: word <- R8
	.loc	1 646 0                 # /Users/rkn/Documents/xTIMEcomposer/workspace/module_adat_rx/src/adatReceiver-100.h:646:0
.Lxta.endpoint_labels104:
	{
		in r8, res[r5]
		shl r7, r7, 4
	}
.Ltmp591:
	.loc	1 648 0                 # /Users/rkn/Documents/xTIMEcomposer/workspace/module_adat_rx/src/adatReceiver-100.h:648:0
	{
		shl r8, r8, 7
		nop
	}
	.loc	1 648 0                 # /Users/rkn/Documents/xTIMEcomposer/workspace/module_adat_rx/src/adatReceiver-100.h:648:0
	{
		and r8, r8, r4
		nop
	}
.Ltmp592:
	#DEBUG_VALUE: fourBits <- R8
	.loc	1 649 0                 # /Users/rkn/Documents/xTIMEcomposer/workspace/module_adat_rx/src/adatReceiver-100.h:649:0
	crc32 r8, r0, r0
.Ltmp593:
	{
		nop
		ldw r8, r11[r8]
	}
.Ltmp594:
	#DEBUG_VALUE: compressed <- R8
	.loc	1 652 0                 # /Users/rkn/Documents/xTIMEcomposer/workspace/module_adat_rx/src/adatReceiver-100.h:652:0
	{
		shl r8, r8, 1
		ldc r2, 28
	}
.Ltmp595:
	.loc	1 651 0                 # /Users/rkn/Documents/xTIMEcomposer/workspace/module_adat_rx/src/adatReceiver-100.h:651:0
	{
		and r8, r8, r2
		nop
	}
	.loc	1 652 0                 # /Users/rkn/Documents/xTIMEcomposer/workspace/module_adat_rx/src/adatReceiver-100.h:652:0
	{
		or r8, r8, r9
		nop
	}
	.loc	1 652 0                 # /Users/rkn/Documents/xTIMEcomposer/workspace/module_adat_rx/src/adatReceiver-100.h:652:0
	{
		zext r8, 5
		nop
	}
	{
		nop
		ldw r8, r1[r8]
	}
.Ltmp596:
	#DEBUG_VALUE: nibble <- R8
	.loc	1 654 0                 # /Users/rkn/Documents/xTIMEcomposer/workspace/module_adat_rx/src/adatReceiver-100.h:654:0
	{
		or r7, r8, r7
		nop
	}
.Ltmp597:
	#DEBUG_VALUE: data <- R7
	#DEBUG_VALUE: word <- R8
	.loc	1 654 0                 # /Users/rkn/Documents/xTIMEcomposer/workspace/module_adat_rx/src/adatReceiver-100.h:654:0
.Lxta.endpoint_labels105:
	{
		in r8, res[r5]
		shl r7, r7, 4
	}
.Ltmp598:
	.loc	1 656 0                 # /Users/rkn/Documents/xTIMEcomposer/workspace/module_adat_rx/src/adatReceiver-100.h:656:0
	{
		shl r8, r8, 4
		nop
	}
	.loc	1 656 0                 # /Users/rkn/Documents/xTIMEcomposer/workspace/module_adat_rx/src/adatReceiver-100.h:656:0
	{
		and r8, r8, r6
		nop
	}
.Ltmp599:
	#DEBUG_VALUE: fourBits <- R8
	.loc	1 657 0                 # /Users/rkn/Documents/xTIMEcomposer/workspace/module_adat_rx/src/adatReceiver-100.h:657:0
	crc32 r8, r0, r0
.Ltmp600:
	#DEBUG_VALUE: old <- R8
	#DEBUG_VALUE: compressed <- R8
	#DEBUG_VALUE: word <- R9
	.loc	1 658 0                 # /Users/rkn/Documents/xTIMEcomposer/workspace/module_adat_rx/src/adatReceiver-100.h:658:0
.Lxta.endpoint_labels106:
	{
		in r9, res[r5]
		ldw r8, r11[r8]
	}
.Ltmp601:
	.loc	1 661 0                 # /Users/rkn/Documents/xTIMEcomposer/workspace/module_adat_rx/src/adatReceiver-100.h:661:0
	{
		shl r9, r9, 1
		nop
	}
	.loc	1 661 0                 # /Users/rkn/Documents/xTIMEcomposer/workspace/module_adat_rx/src/adatReceiver-100.h:661:0
	{
		and r9, r9, r6
		nop
	}
.Ltmp602:
	#DEBUG_VALUE: fourBits <- R9
	.loc	1 662 0                 # /Users/rkn/Documents/xTIMEcomposer/workspace/module_adat_rx/src/adatReceiver-100.h:662:0
	crc32 r9, r0, r0
.Ltmp603:
	{
		nop
		ldw r9, r11[r9]
	}
.Ltmp604:
	#DEBUG_VALUE: compressed <- R9
	.loc	1 664 0                 # /Users/rkn/Documents/xTIMEcomposer/workspace/module_adat_rx/src/adatReceiver-100.h:664:0
	{
		shl r10, r9, 4
		nop
	}
	.loc	1 664 0                 # /Users/rkn/Documents/xTIMEcomposer/workspace/module_adat_rx/src/adatReceiver-100.h:664:0
	{
		or r8, r10, r8
		nop
	}
	.loc	1 664 0                 # /Users/rkn/Documents/xTIMEcomposer/workspace/module_adat_rx/src/adatReceiver-100.h:664:0
	{
		zext r8, 5
		nop
	}
.Ltmp605:
	#DEBUG_VALUE: nibble <- R8
	#DEBUG_VALUE: old <- R9
	.loc	1 664 0                 # /Users/rkn/Documents/xTIMEcomposer/workspace/module_adat_rx/src/adatReceiver-100.h:664:0
	{
		shr r9, r9, 1
		ldw r8, r1[r8]
	}
.Ltmp606:
	.loc	1 666 0                 # /Users/rkn/Documents/xTIMEcomposer/workspace/module_adat_rx/src/adatReceiver-100.h:666:0
	{
		or r7, r8, r7
		nop
	}
	.loc	1 666 0                 # /Users/rkn/Documents/xTIMEcomposer/workspace/module_adat_rx/src/adatReceiver-100.h:666:0
	{
		shl r7, r7, 4
		nop
	}
.Ltmp607:
	#DEBUG_VALUE: data <- R7
	.loc	1 667 0                 # /Users/rkn/Documents/xTIMEcomposer/workspace/module_adat_rx/src/adatReceiver-100.h:667:0
.Lxta.endpoint_labels107:
	{
		out res[r3], r7
		nop
	}
	.loc	1 668 0                 # /Users/rkn/Documents/xTIMEcomposer/workspace/module_adat_rx/src/adatReceiver-100.h:668:0
.Lxta.endpoint_labels108:
	{
		in r7, res[r5]
		nop
	}
.Ltmp608:
	#DEBUG_VALUE: word <- R7
	.loc	1 669 0                 # /Users/rkn/Documents/xTIMEcomposer/workspace/module_adat_rx/src/adatReceiver-100.h:669:0
	{
		shl r7, r7, 6
		nop
	}
.Ltmp609:
	.loc	1 669 0                 # /Users/rkn/Documents/xTIMEcomposer/workspace/module_adat_rx/src/adatReceiver-100.h:669:0
	{
		and r7, r7, r4
		nop
	}
.Ltmp610:
	#DEBUG_VALUE: fourBits <- R7
	.loc	1 670 0                 # /Users/rkn/Documents/xTIMEcomposer/workspace/module_adat_rx/src/adatReceiver-100.h:670:0
	crc32 r7, r0, r0
.Ltmp611:
	{
		nop
		ldw r7, r11[r7]
	}
.Ltmp612:
	#DEBUG_VALUE: compressed <- R7
	.loc	1 673 0                 # /Users/rkn/Documents/xTIMEcomposer/workspace/module_adat_rx/src/adatReceiver-100.h:673:0
	{
		shl r8, r7, 2
		ldc r2, 24
	}
	.loc	1 672 0                 # /Users/rkn/Documents/xTIMEcomposer/workspace/module_adat_rx/src/adatReceiver-100.h:672:0
	{
		and r8, r8, r2
		nop
	}
	.loc	1 673 0                 # /Users/rkn/Documents/xTIMEcomposer/workspace/module_adat_rx/src/adatReceiver-100.h:673:0
	{
		or r8, r8, r9
		nop
	}
	.loc	1 673 0                 # /Users/rkn/Documents/xTIMEcomposer/workspace/module_adat_rx/src/adatReceiver-100.h:673:0
	{
		zext r8, 5
		nop
	}
.Ltmp613:
	#DEBUG_VALUE: nibble <- R8
	#DEBUG_VALUE: old <- R7
	.loc	1 673 0                 # /Users/rkn/Documents/xTIMEcomposer/workspace/module_adat_rx/src/adatReceiver-100.h:673:0
	{
		shr r7, r7, 3
		ldw r8, r1[r8]
	}
.Ltmp614:
	#DEBUG_VALUE: data <- R8
	#DEBUG_VALUE: word <- R9
	.loc	1 675 0                 # /Users/rkn/Documents/xTIMEcomposer/workspace/module_adat_rx/src/adatReceiver-100.h:675:0
.Lxta.endpoint_labels109:
	{
		in r9, res[r5]
		shl r8, r8, 4
	}
.Ltmp615:
	.loc	1 677 0                 # /Users/rkn/Documents/xTIMEcomposer/workspace/module_adat_rx/src/adatReceiver-100.h:677:0
	{
		shl r9, r9, 3
		nop
	}
	.loc	1 677 0                 # /Users/rkn/Documents/xTIMEcomposer/workspace/module_adat_rx/src/adatReceiver-100.h:677:0
	{
		and r9, r9, r6
		nop
	}
.Ltmp616:
	#DEBUG_VALUE: fourBits <- R9
	.loc	1 678 0                 # /Users/rkn/Documents/xTIMEcomposer/workspace/module_adat_rx/src/adatReceiver-100.h:678:0
	crc32 r9, r0, r0
.Ltmp617:
	{
		nop
		ldw r9, r11[r9]
	}
.Ltmp618:
	#DEBUG_VALUE: compressed <- R9
	.loc	1 680 0                 # /Users/rkn/Documents/xTIMEcomposer/workspace/module_adat_rx/src/adatReceiver-100.h:680:0
	{
		shl r9, r9, 1
		nop
	}
.Ltmp619:
	.loc	1 680 0                 # /Users/rkn/Documents/xTIMEcomposer/workspace/module_adat_rx/src/adatReceiver-100.h:680:0
	{
		or r7, r9, r7
		nop
	}
	.loc	1 680 0                 # /Users/rkn/Documents/xTIMEcomposer/workspace/module_adat_rx/src/adatReceiver-100.h:680:0
	{
		zext r7, 5
		nop
	}
	{
		nop
		ldw r7, r1[r7]
	}
.Ltmp620:
	#DEBUG_VALUE: nibble <- R7
	.loc	1 682 0                 # /Users/rkn/Documents/xTIMEcomposer/workspace/module_adat_rx/src/adatReceiver-100.h:682:0
	{
		or r7, r7, r8
		nop
	}
.Ltmp621:
	#DEBUG_VALUE: data <- R7
	#DEBUG_VALUE: word <- R8
	.loc	1 682 0                 # /Users/rkn/Documents/xTIMEcomposer/workspace/module_adat_rx/src/adatReceiver-100.h:682:0
.Lxta.endpoint_labels110:
	{
		in r8, res[r5]
		shl r7, r7, 4
	}
.Ltmp622:
	.loc	1 684 0                 # /Users/rkn/Documents/xTIMEcomposer/workspace/module_adat_rx/src/adatReceiver-100.h:684:0
	{
		and r8, r8, r6
		nop
	}
.Ltmp623:
	#DEBUG_VALUE: fourBits <- R8
	.loc	1 685 0                 # /Users/rkn/Documents/xTIMEcomposer/workspace/module_adat_rx/src/adatReceiver-100.h:685:0
	crc32 r8, r0, r0
.Ltmp624:
	#DEBUG_VALUE: old <- R8
	#DEBUG_VALUE: compressed <- R8
	#DEBUG_VALUE: word <- R9
	.loc	1 686 0                 # /Users/rkn/Documents/xTIMEcomposer/workspace/module_adat_rx/src/adatReceiver-100.h:686:0
.Lxta.endpoint_labels111:
	{
		in r9, res[r5]
		ldw r8, r11[r8]
	}
.Ltmp625:
	.loc	1 689 0                 # /Users/rkn/Documents/xTIMEcomposer/workspace/module_adat_rx/src/adatReceiver-100.h:689:0
	{
		shl r9, r9, 4
		nop
	}
	.loc	1 689 0                 # /Users/rkn/Documents/xTIMEcomposer/workspace/module_adat_rx/src/adatReceiver-100.h:689:0
	{
		and r9, r9, r6
		nop
	}
.Ltmp626:
	#DEBUG_VALUE: fourBits <- R9
	.loc	1 690 0                 # /Users/rkn/Documents/xTIMEcomposer/workspace/module_adat_rx/src/adatReceiver-100.h:690:0
	crc32 r9, r0, r0
.Ltmp627:
	{
		nop
		ldw r9, r11[r9]
	}
.Ltmp628:
	#DEBUG_VALUE: compressed <- R9
	.loc	1 693 0                 # /Users/rkn/Documents/xTIMEcomposer/workspace/module_adat_rx/src/adatReceiver-100.h:693:0
	{
		shl r10, r9, 3
		ldc r2, 16
	}
	.loc	1 692 0                 # /Users/rkn/Documents/xTIMEcomposer/workspace/module_adat_rx/src/adatReceiver-100.h:692:0
	{
		and r10, r10, r2
		nop
	}
	.loc	1 693 0                 # /Users/rkn/Documents/xTIMEcomposer/workspace/module_adat_rx/src/adatReceiver-100.h:693:0
	{
		or r8, r10, r8
		nop
	}
	.loc	1 693 0                 # /Users/rkn/Documents/xTIMEcomposer/workspace/module_adat_rx/src/adatReceiver-100.h:693:0
	{
		zext r8, 5
		nop
	}
.Ltmp629:
	#DEBUG_VALUE: nibble <- R8
	#DEBUG_VALUE: old <- R9
	.loc	1 693 0                 # /Users/rkn/Documents/xTIMEcomposer/workspace/module_adat_rx/src/adatReceiver-100.h:693:0
	{
		shr r9, r9, 2
		ldw r8, r1[r8]
	}
.Ltmp630:
	.loc	1 695 0                 # /Users/rkn/Documents/xTIMEcomposer/workspace/module_adat_rx/src/adatReceiver-100.h:695:0
	{
		or r7, r8, r7
		nop
	}
.Ltmp631:
	#DEBUG_VALUE: data <- R7
	#DEBUG_VALUE: word <- R8
	.loc	1 695 0                 # /Users/rkn/Documents/xTIMEcomposer/workspace/module_adat_rx/src/adatReceiver-100.h:695:0
.Lxta.endpoint_labels112:
	{
		in r8, res[r5]
		shl r7, r7, 4
	}
.Ltmp632:
	.loc	1 697 0                 # /Users/rkn/Documents/xTIMEcomposer/workspace/module_adat_rx/src/adatReceiver-100.h:697:0
	{
		shl r8, r8, 2
		nop
	}
	.loc	1 697 0                 # /Users/rkn/Documents/xTIMEcomposer/workspace/module_adat_rx/src/adatReceiver-100.h:697:0
	{
		and r8, r8, r6
		nop
	}
.Ltmp633:
	#DEBUG_VALUE: fourBits <- R8
	.loc	1 698 0                 # /Users/rkn/Documents/xTIMEcomposer/workspace/module_adat_rx/src/adatReceiver-100.h:698:0
	crc32 r8, r0, r0
.Ltmp634:
	{
		nop
		ldw r8, r11[r8]
	}
.Ltmp635:
	#DEBUG_VALUE: compressed <- R8
	.loc	1 700 0                 # /Users/rkn/Documents/xTIMEcomposer/workspace/module_adat_rx/src/adatReceiver-100.h:700:0
	{
		shl r10, r8, 2
		nop
	}
	.loc	1 700 0                 # /Users/rkn/Documents/xTIMEcomposer/workspace/module_adat_rx/src/adatReceiver-100.h:700:0
	{
		or r9, r10, r9
		nop
	}
	.loc	1 700 0                 # /Users/rkn/Documents/xTIMEcomposer/workspace/module_adat_rx/src/adatReceiver-100.h:700:0
	{
		zext r9, 5
		nop
	}
.Ltmp636:
	#DEBUG_VALUE: nibble <- R9
	#DEBUG_VALUE: old <- R8
	.loc	1 700 0                 # /Users/rkn/Documents/xTIMEcomposer/workspace/module_adat_rx/src/adatReceiver-100.h:700:0
	{
		shr r8, r8, 3
		ldw r9, r1[r9]
	}
.Ltmp637:
	.loc	1 702 0                 # /Users/rkn/Documents/xTIMEcomposer/workspace/module_adat_rx/src/adatReceiver-100.h:702:0
	{
		or r7, r9, r7
		nop
	}
.Ltmp638:
	#DEBUG_VALUE: data <- R7
	#DEBUG_VALUE: word <- R9
	.loc	1 702 0                 # /Users/rkn/Documents/xTIMEcomposer/workspace/module_adat_rx/src/adatReceiver-100.h:702:0
.Lxta.endpoint_labels113:
	{
		in r9, res[r5]
		shl r7, r7, 4
	}
.Ltmp639:
	.loc	1 704 0                 # /Users/rkn/Documents/xTIMEcomposer/workspace/module_adat_rx/src/adatReceiver-100.h:704:0
	{
		shl r9, r9, 6
		nop
	}
	.loc	1 704 0                 # /Users/rkn/Documents/xTIMEcomposer/workspace/module_adat_rx/src/adatReceiver-100.h:704:0
	{
		and r9, r9, r4
		nop
	}
.Ltmp640:
	#DEBUG_VALUE: fourBits <- R9
	.loc	1 705 0                 # /Users/rkn/Documents/xTIMEcomposer/workspace/module_adat_rx/src/adatReceiver-100.h:705:0
	crc32 r9, r0, r0
.Ltmp641:
	#DEBUG_VALUE: compressed <- R9
	.loc	1 706 0                 # /Users/rkn/Documents/xTIMEcomposer/workspace/module_adat_rx/src/adatReceiver-100.h:706:0
	{
		ldc r10, 30
		ldw r9, r11[r9]
	}
.Ltmp642:
	.loc	1 708 0                 # /Users/rkn/Documents/xTIMEcomposer/workspace/module_adat_rx/src/adatReceiver-100.h:708:0
	{
		and r9, r9, r10
		nop
	}
.Ltmp643:
	#DEBUG_VALUE: word <- R9
	.loc	1 708 0                 # /Users/rkn/Documents/xTIMEcomposer/workspace/module_adat_rx/src/adatReceiver-100.h:708:0
.Lxta.endpoint_labels114:
	{
		in r9, res[r5]
		or r8, r9, r8
	}
.Ltmp644:
	.loc	1 710 0                 # /Users/rkn/Documents/xTIMEcomposer/workspace/module_adat_rx/src/adatReceiver-100.h:710:0
	{
		shl r9, r9, 4
		nop
	}
	.loc	1 710 0                 # /Users/rkn/Documents/xTIMEcomposer/workspace/module_adat_rx/src/adatReceiver-100.h:710:0
	{
		and r9, r9, r6
		nop
	}
.Ltmp645:
	#DEBUG_VALUE: fourBits <- R9
	.loc	1 711 0                 # /Users/rkn/Documents/xTIMEcomposer/workspace/module_adat_rx/src/adatReceiver-100.h:711:0
	crc32 r9, r0, r0
.Ltmp646:
	{
		nop
		ldw r9, r11[r9]
	}
.Ltmp647:
	#DEBUG_VALUE: compressed <- R9
	.loc	1 713 0                 # /Users/rkn/Documents/xTIMEcomposer/workspace/module_adat_rx/src/adatReceiver-100.h:713:0
	{
		shl r10, r9, 4
		nop
	}
	.loc	1 713 0                 # /Users/rkn/Documents/xTIMEcomposer/workspace/module_adat_rx/src/adatReceiver-100.h:713:0
	{
		or r8, r8, r10
		nop
	}
	.loc	1 713 0                 # /Users/rkn/Documents/xTIMEcomposer/workspace/module_adat_rx/src/adatReceiver-100.h:713:0
	{
		zext r8, 5
		nop
	}
.Ltmp648:
	#DEBUG_VALUE: nibble <- R8
	#DEBUG_VALUE: old <- R9
	.loc	1 713 0                 # /Users/rkn/Documents/xTIMEcomposer/workspace/module_adat_rx/src/adatReceiver-100.h:713:0
	{
		shr r9, r9, 1
		ldw r8, r1[r8]
	}
.Ltmp649:
	.loc	1 715 0                 # /Users/rkn/Documents/xTIMEcomposer/workspace/module_adat_rx/src/adatReceiver-100.h:715:0
	{
		or r7, r8, r7
		nop
	}
.Ltmp650:
	#DEBUG_VALUE: data <- R7
	#DEBUG_VALUE: word <- R8
	.loc	1 715 0                 # /Users/rkn/Documents/xTIMEcomposer/workspace/module_adat_rx/src/adatReceiver-100.h:715:0
.Lxta.endpoint_labels115:
	{
		in r8, res[r5]
		shl r7, r7, 4
	}
.Ltmp651:
	.loc	1 717 0                 # /Users/rkn/Documents/xTIMEcomposer/workspace/module_adat_rx/src/adatReceiver-100.h:717:0
	{
		and r8, r8, r6
		nop
	}
.Ltmp652:
	#DEBUG_VALUE: fourBits <- R8
	.loc	1 718 0                 # /Users/rkn/Documents/xTIMEcomposer/workspace/module_adat_rx/src/adatReceiver-100.h:718:0
	crc32 r8, r0, r0
.Ltmp653:
	{
		nop
		ldw r8, r11[r8]
	}
.Ltmp654:
	#DEBUG_VALUE: compressed <- R8
	.loc	1 720 0                 # /Users/rkn/Documents/xTIMEcomposer/workspace/module_adat_rx/src/adatReceiver-100.h:720:0
	{
		shl r10, r8, 3
		nop
	}
	.loc	1 720 0                 # /Users/rkn/Documents/xTIMEcomposer/workspace/module_adat_rx/src/adatReceiver-100.h:720:0
	{
		or r9, r10, r9
		nop
	}
	.loc	1 720 0                 # /Users/rkn/Documents/xTIMEcomposer/workspace/module_adat_rx/src/adatReceiver-100.h:720:0
	{
		zext r9, 5
		nop
	}
.Ltmp655:
	#DEBUG_VALUE: nibble <- R9
	#DEBUG_VALUE: old <- R8
	.loc	1 720 0                 # /Users/rkn/Documents/xTIMEcomposer/workspace/module_adat_rx/src/adatReceiver-100.h:720:0
	{
		shr r8, r8, 2
		ldw r9, r1[r9]
	}
.Ltmp656:
	.loc	1 722 0                 # /Users/rkn/Documents/xTIMEcomposer/workspace/module_adat_rx/src/adatReceiver-100.h:722:0
	{
		or r7, r9, r7
		nop
	}
	.loc	1 722 0                 # /Users/rkn/Documents/xTIMEcomposer/workspace/module_adat_rx/src/adatReceiver-100.h:722:0
	{
		shl r7, r7, 4
		nop
	}
.Ltmp657:
	#DEBUG_VALUE: data <- R7
	.loc	1 723 0                 # /Users/rkn/Documents/xTIMEcomposer/workspace/module_adat_rx/src/adatReceiver-100.h:723:0
.Lxta.endpoint_labels116:
	{
		out res[r3], r7
		nop
	}
.Ltmp658:
	#DEBUG_VALUE: adatReceiver44100:oChan <- [SP+20]
	.loc	1 724 0                 # /Users/rkn/Documents/xTIMEcomposer/workspace/module_adat_rx/src/adatReceiver-100.h:724:0
.Lxta.endpoint_labels117:
	{
		in r7, res[r5]
		nop
	}
.Ltmp659:
	#DEBUG_VALUE: word <- R7
	.loc	1 725 0                 # /Users/rkn/Documents/xTIMEcomposer/workspace/module_adat_rx/src/adatReceiver-100.h:725:0
	{
		shl r7, r7, 5
		mov r3, r4
	}
.Ltmp660:
	.loc	1 725 0                 # /Users/rkn/Documents/xTIMEcomposer/workspace/module_adat_rx/src/adatReceiver-100.h:725:0
	{
		and r7, r7, r3
		nop
	}
.Ltmp661:
	#DEBUG_VALUE: fourBits <- R7
	.loc	1 726 0                 # /Users/rkn/Documents/xTIMEcomposer/workspace/module_adat_rx/src/adatReceiver-100.h:726:0
	crc32 r7, r0, r0
.Ltmp662:
	{
		nop
		ldw r7, r11[r7]
	}
.Ltmp663:
	#DEBUG_VALUE: compressed <- R7
	.loc	1 729 0                 # /Users/rkn/Documents/xTIMEcomposer/workspace/module_adat_rx/src/adatReceiver-100.h:729:0
	{
		shl r7, r7, 1
		ldc r4, 28
	}
.Ltmp664:
	.loc	1 728 0                 # /Users/rkn/Documents/xTIMEcomposer/workspace/module_adat_rx/src/adatReceiver-100.h:728:0
	{
		and r7, r7, r4
		nop
	}
	.loc	1 729 0                 # /Users/rkn/Documents/xTIMEcomposer/workspace/module_adat_rx/src/adatReceiver-100.h:729:0
	{
		or r7, r7, r8
		nop
	}
	.loc	1 729 0                 # /Users/rkn/Documents/xTIMEcomposer/workspace/module_adat_rx/src/adatReceiver-100.h:729:0
	{
		zext r7, 5
		nop
	}
	{
		nop
		ldw r7, r1[r7]
	}
.Ltmp665:
	#DEBUG_VALUE: nibble <- R7
	#DEBUG_VALUE: data <- R7
	#DEBUG_VALUE: word <- R8
	.loc	1 731 0                 # /Users/rkn/Documents/xTIMEcomposer/workspace/module_adat_rx/src/adatReceiver-100.h:731:0
.Lxta.endpoint_labels118:
	{
		in r8, res[r5]
		shl r7, r7, 4
	}
.Ltmp666:
	.loc	1 733 0                 # /Users/rkn/Documents/xTIMEcomposer/workspace/module_adat_rx/src/adatReceiver-100.h:733:0
	{
		shl r8, r8, 2
		nop
	}
	.loc	1 733 0                 # /Users/rkn/Documents/xTIMEcomposer/workspace/module_adat_rx/src/adatReceiver-100.h:733:0
	{
		and r8, r8, r6
		nop
	}
.Ltmp667:
	#DEBUG_VALUE: fourBits <- R8
	.loc	1 734 0                 # /Users/rkn/Documents/xTIMEcomposer/workspace/module_adat_rx/src/adatReceiver-100.h:734:0
	crc32 r8, r0, r0
.Ltmp668:
	#DEBUG_VALUE: old <- R8
	#DEBUG_VALUE: compressed <- R8
	#DEBUG_VALUE: word <- R9
	.loc	1 735 0                 # /Users/rkn/Documents/xTIMEcomposer/workspace/module_adat_rx/src/adatReceiver-100.h:735:0
.Lxta.endpoint_labels119:
	{
		in r9, res[r5]
		ldw r8, r11[r8]
	}
.Ltmp669:
	.loc	1 738 0                 # /Users/rkn/Documents/xTIMEcomposer/workspace/module_adat_rx/src/adatReceiver-100.h:738:0
	{
		shl r9, r9, 7
		nop
	}
	.loc	1 738 0                 # /Users/rkn/Documents/xTIMEcomposer/workspace/module_adat_rx/src/adatReceiver-100.h:738:0
	{
		and r9, r9, r3
		nop
	}
.Ltmp670:
	#DEBUG_VALUE: fourBits <- R9
	.loc	1 739 0                 # /Users/rkn/Documents/xTIMEcomposer/workspace/module_adat_rx/src/adatReceiver-100.h:739:0
	crc32 r9, r0, r0
.Ltmp671:
	{
		nop
		ldw r9, r11[r9]
	}
.Ltmp672:
	#DEBUG_VALUE: compressed <- R9
	.loc	1 742 0                 # /Users/rkn/Documents/xTIMEcomposer/workspace/module_adat_rx/src/adatReceiver-100.h:742:0
	{
		shl r10, r9, 3
		nop
	}
	.loc	1 741 0                 # /Users/rkn/Documents/xTIMEcomposer/workspace/module_adat_rx/src/adatReceiver-100.h:741:0
	{
		and r10, r10, r2
		nop
	}
	.loc	1 742 0                 # /Users/rkn/Documents/xTIMEcomposer/workspace/module_adat_rx/src/adatReceiver-100.h:742:0
	{
		or r8, r10, r8
		nop
	}
	.loc	1 742 0                 # /Users/rkn/Documents/xTIMEcomposer/workspace/module_adat_rx/src/adatReceiver-100.h:742:0
	{
		zext r8, 5
		nop
	}
.Ltmp673:
	#DEBUG_VALUE: nibble <- R8
	#DEBUG_VALUE: old <- R9
	.loc	1 742 0                 # /Users/rkn/Documents/xTIMEcomposer/workspace/module_adat_rx/src/adatReceiver-100.h:742:0
	{
		shr r9, r9, 2
		ldw r8, r1[r8]
	}
.Ltmp674:
	.loc	1 744 0                 # /Users/rkn/Documents/xTIMEcomposer/workspace/module_adat_rx/src/adatReceiver-100.h:744:0
	{
		or r7, r8, r7
		nop
	}
.Ltmp675:
	#DEBUG_VALUE: data <- R7
	#DEBUG_VALUE: word <- R8
	.loc	1 744 0                 # /Users/rkn/Documents/xTIMEcomposer/workspace/module_adat_rx/src/adatReceiver-100.h:744:0
.Lxta.endpoint_labels120:
	{
		in r8, res[r5]
		shl r7, r7, 4
	}
.Ltmp676:
	.loc	1 746 0                 # /Users/rkn/Documents/xTIMEcomposer/workspace/module_adat_rx/src/adatReceiver-100.h:746:0
	{
		shl r8, r8, 4
		nop
	}
	.loc	1 746 0                 # /Users/rkn/Documents/xTIMEcomposer/workspace/module_adat_rx/src/adatReceiver-100.h:746:0
	{
		and r8, r8, r6
		nop
	}
.Ltmp677:
	#DEBUG_VALUE: fourBits <- R8
	.loc	1 747 0                 # /Users/rkn/Documents/xTIMEcomposer/workspace/module_adat_rx/src/adatReceiver-100.h:747:0
	crc32 r8, r0, r0
.Ltmp678:
	{
		nop
		ldw r8, r11[r8]
	}
.Ltmp679:
	#DEBUG_VALUE: compressed <- R8
	.loc	1 749 0                 # /Users/rkn/Documents/xTIMEcomposer/workspace/module_adat_rx/src/adatReceiver-100.h:749:0
	{
		shl r10, r8, 2
		nop
	}
	.loc	1 749 0                 # /Users/rkn/Documents/xTIMEcomposer/workspace/module_adat_rx/src/adatReceiver-100.h:749:0
	{
		or r9, r10, r9
		nop
	}
	.loc	1 749 0                 # /Users/rkn/Documents/xTIMEcomposer/workspace/module_adat_rx/src/adatReceiver-100.h:749:0
	{
		zext r9, 5
		nop
	}
.Ltmp680:
	#DEBUG_VALUE: nibble <- R9
	#DEBUG_VALUE: old <- R8
	.loc	1 749 0                 # /Users/rkn/Documents/xTIMEcomposer/workspace/module_adat_rx/src/adatReceiver-100.h:749:0
	{
		shr r8, r8, 3
		ldw r9, r1[r9]
	}
.Ltmp681:
	.loc	1 751 0                 # /Users/rkn/Documents/xTIMEcomposer/workspace/module_adat_rx/src/adatReceiver-100.h:751:0
	{
		or r7, r9, r7
		nop
	}
.Ltmp682:
	#DEBUG_VALUE: data <- R7
	#DEBUG_VALUE: word <- R9
	.loc	1 751 0                 # /Users/rkn/Documents/xTIMEcomposer/workspace/module_adat_rx/src/adatReceiver-100.h:751:0
.Lxta.endpoint_labels121:
	{
		in r9, res[r5]
		shl r7, r7, 4
	}
.Ltmp683:
	.loc	1 753 0                 # /Users/rkn/Documents/xTIMEcomposer/workspace/module_adat_rx/src/adatReceiver-100.h:753:0
	{
		shl r9, r9, 1
		nop
	}
	.loc	1 753 0                 # /Users/rkn/Documents/xTIMEcomposer/workspace/module_adat_rx/src/adatReceiver-100.h:753:0
	{
		and r9, r9, r6
		nop
	}
.Ltmp684:
	#DEBUG_VALUE: fourBits <- R9
	.loc	1 754 0                 # /Users/rkn/Documents/xTIMEcomposer/workspace/module_adat_rx/src/adatReceiver-100.h:754:0
	crc32 r9, r0, r0
.Ltmp685:
	{
		nop
		ldw r9, r11[r9]
	}
.Ltmp686:
	#DEBUG_VALUE: compressed <- R9
	.loc	1 756 0                 # /Users/rkn/Documents/xTIMEcomposer/workspace/module_adat_rx/src/adatReceiver-100.h:756:0
	{
		shl r9, r9, 1
		nop
	}
.Ltmp687:
	.loc	1 756 0                 # /Users/rkn/Documents/xTIMEcomposer/workspace/module_adat_rx/src/adatReceiver-100.h:756:0
	{
		or r8, r9, r8
		nop
	}
	.loc	1 756 0                 # /Users/rkn/Documents/xTIMEcomposer/workspace/module_adat_rx/src/adatReceiver-100.h:756:0
	{
		zext r8, 5
		nop
	}
	{
		nop
		ldw r8, r1[r8]
	}
.Ltmp688:
	#DEBUG_VALUE: nibble <- R8
	.loc	1 758 0                 # /Users/rkn/Documents/xTIMEcomposer/workspace/module_adat_rx/src/adatReceiver-100.h:758:0
	{
		or r7, r8, r7
		nop
	}
.Ltmp689:
	#DEBUG_VALUE: data <- R7
	#DEBUG_VALUE: word <- R8
	.loc	1 758 0                 # /Users/rkn/Documents/xTIMEcomposer/workspace/module_adat_rx/src/adatReceiver-100.h:758:0
.Lxta.endpoint_labels122:
	{
		in r8, res[r5]
		shl r7, r7, 4
	}
.Ltmp690:
	.loc	1 760 0                 # /Users/rkn/Documents/xTIMEcomposer/workspace/module_adat_rx/src/adatReceiver-100.h:760:0
	{
		shl r8, r8, 5
		nop
	}
	.loc	1 760 0                 # /Users/rkn/Documents/xTIMEcomposer/workspace/module_adat_rx/src/adatReceiver-100.h:760:0
	{
		and r8, r8, r3
		nop
	}
.Ltmp691:
	#DEBUG_VALUE: fourBits <- R8
	.loc	1 761 0                 # /Users/rkn/Documents/xTIMEcomposer/workspace/module_adat_rx/src/adatReceiver-100.h:761:0
	crc32 r8, r0, r0
.Ltmp692:
	{
		nop
		ldw r8, r11[r8]
	}
.Ltmp693:
	#DEBUG_VALUE: compressed <- R8
	#DEBUG_VALUE: old <- R8
	#DEBUG_VALUE: word <- R9
	.loc	1 763 0                 # /Users/rkn/Documents/xTIMEcomposer/workspace/module_adat_rx/src/adatReceiver-100.h:763:0
.Lxta.endpoint_labels123:
	{
		in r9, res[r5]
		shr r8, r8, 1
	}
.Ltmp694:
	.loc	1 766 0                 # /Users/rkn/Documents/xTIMEcomposer/workspace/module_adat_rx/src/adatReceiver-100.h:766:0
	{
		shl r9, r9, 3
		nop
	}
	.loc	1 766 0                 # /Users/rkn/Documents/xTIMEcomposer/workspace/module_adat_rx/src/adatReceiver-100.h:766:0
	{
		and r9, r9, r6
		nop
	}
.Ltmp695:
	#DEBUG_VALUE: fourBits <- R9
	.loc	1 767 0                 # /Users/rkn/Documents/xTIMEcomposer/workspace/module_adat_rx/src/adatReceiver-100.h:767:0
	crc32 r9, r0, r0
.Ltmp696:
	{
		nop
		ldw r9, r11[r9]
	}
.Ltmp697:
	#DEBUG_VALUE: compressed <- R9
	.loc	1 769 0                 # /Users/rkn/Documents/xTIMEcomposer/workspace/module_adat_rx/src/adatReceiver-100.h:769:0
	{
		shl r10, r9, 3
		nop
	}
	.loc	1 769 0                 # /Users/rkn/Documents/xTIMEcomposer/workspace/module_adat_rx/src/adatReceiver-100.h:769:0
	{
		or r8, r10, r8
		nop
	}
	.loc	1 769 0                 # /Users/rkn/Documents/xTIMEcomposer/workspace/module_adat_rx/src/adatReceiver-100.h:769:0
	{
		zext r8, 5
		nop
	}
.Ltmp698:
	#DEBUG_VALUE: nibble <- R8
	#DEBUG_VALUE: old <- R9
	.loc	1 769 0                 # /Users/rkn/Documents/xTIMEcomposer/workspace/module_adat_rx/src/adatReceiver-100.h:769:0
	{
		shr r9, r9, 2
		ldw r8, r1[r8]
	}
.Ltmp699:
	.loc	1 771 0                 # /Users/rkn/Documents/xTIMEcomposer/workspace/module_adat_rx/src/adatReceiver-100.h:771:0
	{
		or r7, r8, r7
		nop
	}
.Ltmp700:
	#DEBUG_VALUE: data <- R7
	#DEBUG_VALUE: word <- R8
	.loc	1 771 0                 # /Users/rkn/Documents/xTIMEcomposer/workspace/module_adat_rx/src/adatReceiver-100.h:771:0
.Lxta.endpoint_labels124:
	{
		in r8, res[r5]
		shl r7, r7, 4
	}
.Ltmp701:
	.loc	1 773 0                 # /Users/rkn/Documents/xTIMEcomposer/workspace/module_adat_rx/src/adatReceiver-100.h:773:0
	{
		shl r8, r8, 7
		nop
	}
	.loc	1 773 0                 # /Users/rkn/Documents/xTIMEcomposer/workspace/module_adat_rx/src/adatReceiver-100.h:773:0
	{
		and r8, r8, r3
		nop
	}
.Ltmp702:
	#DEBUG_VALUE: fourBits <- R8
	.loc	1 774 0                 # /Users/rkn/Documents/xTIMEcomposer/workspace/module_adat_rx/src/adatReceiver-100.h:774:0
	crc32 r8, r0, r0
.Ltmp703:
	{
		nop
		ldw r8, r11[r8]
	}
.Ltmp704:
	#DEBUG_VALUE: compressed <- R8
	.loc	1 777 0                 # /Users/rkn/Documents/xTIMEcomposer/workspace/module_adat_rx/src/adatReceiver-100.h:777:0
	{
		shl r8, r8, 1
		nop
	}
.Ltmp705:
	.loc	1 776 0                 # /Users/rkn/Documents/xTIMEcomposer/workspace/module_adat_rx/src/adatReceiver-100.h:776:0
	{
		and r8, r8, r4
		nop
	}
	.loc	1 777 0                 # /Users/rkn/Documents/xTIMEcomposer/workspace/module_adat_rx/src/adatReceiver-100.h:777:0
	{
		or r8, r8, r9
		nop
	}
	.loc	1 777 0                 # /Users/rkn/Documents/xTIMEcomposer/workspace/module_adat_rx/src/adatReceiver-100.h:777:0
	{
		zext r8, 5
		nop
	}
	{
		nop
		ldw r8, r1[r8]
	}
.Ltmp706:
	#DEBUG_VALUE: nibble <- R8
	.loc	1 779 0                 # /Users/rkn/Documents/xTIMEcomposer/workspace/module_adat_rx/src/adatReceiver-100.h:779:0
	{
		or r7, r8, r7
		nop
	}
.Ltmp707:
	#DEBUG_VALUE: data <- R7
	#DEBUG_VALUE: adatReceiver44100:oChan <- R4
	.loc	1 779 0                 # /Users/rkn/Documents/xTIMEcomposer/workspace/module_adat_rx/src/adatReceiver-100.h:779:0
	{
		shl r7, r7, 4
		ldw r4, sp[5]
	}
.Ltmp708:
	.loc	1 780 0                 # /Users/rkn/Documents/xTIMEcomposer/workspace/module_adat_rx/src/adatReceiver-100.h:780:0
.Lxta.endpoint_labels125:
	{
		out res[r4], r7
		nop
	}
	.loc	1 781 0                 # /Users/rkn/Documents/xTIMEcomposer/workspace/module_adat_rx/src/adatReceiver-100.h:781:0
.Lxta.endpoint_labels126:
	{
		in r7, res[r5]
		nop
	}
.Ltmp709:
	#DEBUG_VALUE: word <- R7
	.loc	1 782 0                 # /Users/rkn/Documents/xTIMEcomposer/workspace/module_adat_rx/src/adatReceiver-100.h:782:0
	{
		shl r7, r7, 4
		nop
	}
.Ltmp710:
	.loc	1 782 0                 # /Users/rkn/Documents/xTIMEcomposer/workspace/module_adat_rx/src/adatReceiver-100.h:782:0
	{
		and r7, r7, r6
		nop
	}
.Ltmp711:
	#DEBUG_VALUE: fourBits <- R7
	.loc	1 783 0                 # /Users/rkn/Documents/xTIMEcomposer/workspace/module_adat_rx/src/adatReceiver-100.h:783:0
	crc32 r7, r0, r0
.Ltmp712:
	#DEBUG_VALUE: old <- R7
	#DEBUG_VALUE: compressed <- R7
	#DEBUG_VALUE: word <- R8
	.loc	1 784 0                 # /Users/rkn/Documents/xTIMEcomposer/workspace/module_adat_rx/src/adatReceiver-100.h:784:0
.Lxta.endpoint_labels127:
	{
		in r8, res[r5]
		ldw r7, r11[r7]
	}
.Ltmp713:
	.loc	1 787 0                 # /Users/rkn/Documents/xTIMEcomposer/workspace/module_adat_rx/src/adatReceiver-100.h:787:0
	{
		shl r8, r8, 1
		nop
	}
	.loc	1 787 0                 # /Users/rkn/Documents/xTIMEcomposer/workspace/module_adat_rx/src/adatReceiver-100.h:787:0
	{
		and r8, r8, r6
		nop
	}
.Ltmp714:
	#DEBUG_VALUE: fourBits <- R8
	.loc	1 788 0                 # /Users/rkn/Documents/xTIMEcomposer/workspace/module_adat_rx/src/adatReceiver-100.h:788:0
	crc32 r8, r0, r0
.Ltmp715:
	{
		nop
		ldw r8, r11[r8]
	}
.Ltmp716:
	#DEBUG_VALUE: compressed <- R8
	.loc	1 790 0                 # /Users/rkn/Documents/xTIMEcomposer/workspace/module_adat_rx/src/adatReceiver-100.h:790:0
	{
		shl r9, r8, 4
		nop
	}
	.loc	1 790 0                 # /Users/rkn/Documents/xTIMEcomposer/workspace/module_adat_rx/src/adatReceiver-100.h:790:0
	{
		or r7, r9, r7
		nop
	}
	.loc	1 790 0                 # /Users/rkn/Documents/xTIMEcomposer/workspace/module_adat_rx/src/adatReceiver-100.h:790:0
	{
		zext r7, 5
		nop
	}
.Ltmp717:
	#DEBUG_VALUE: nibble <- R7
	#DEBUG_VALUE: old <- R8
	.loc	1 790 0                 # /Users/rkn/Documents/xTIMEcomposer/workspace/module_adat_rx/src/adatReceiver-100.h:790:0
	{
		shr r8, r8, 1
		ldw r7, r1[r7]
	}
.Ltmp718:
	#DEBUG_VALUE: data <- R7
	#DEBUG_VALUE: word <- R9
	.loc	1 792 0                 # /Users/rkn/Documents/xTIMEcomposer/workspace/module_adat_rx/src/adatReceiver-100.h:792:0
.Lxta.endpoint_labels128:
	{
		in r9, res[r5]
		shl r7, r7, 4
	}
.Ltmp719:
	.loc	1 794 0                 # /Users/rkn/Documents/xTIMEcomposer/workspace/module_adat_rx/src/adatReceiver-100.h:794:0
	{
		shl r9, r9, 6
		nop
	}
	.loc	1 794 0                 # /Users/rkn/Documents/xTIMEcomposer/workspace/module_adat_rx/src/adatReceiver-100.h:794:0
	{
		and r9, r9, r3
		nop
	}
.Ltmp720:
	#DEBUG_VALUE: fourBits <- R9
	.loc	1 795 0                 # /Users/rkn/Documents/xTIMEcomposer/workspace/module_adat_rx/src/adatReceiver-100.h:795:0
	crc32 r9, r0, r0
.Ltmp721:
	{
		nop
		ldw r9, r11[r9]
	}
.Ltmp722:
	#DEBUG_VALUE: compressed <- R9
	.loc	1 798 0                 # /Users/rkn/Documents/xTIMEcomposer/workspace/module_adat_rx/src/adatReceiver-100.h:798:0
	{
		shl r10, r9, 2
		ldc r2, 24
	}
	.loc	1 797 0                 # /Users/rkn/Documents/xTIMEcomposer/workspace/module_adat_rx/src/adatReceiver-100.h:797:0
	{
		and r10, r10, r2
		nop
	}
	.loc	1 798 0                 # /Users/rkn/Documents/xTIMEcomposer/workspace/module_adat_rx/src/adatReceiver-100.h:798:0
	{
		or r8, r10, r8
		nop
	}
	.loc	1 798 0                 # /Users/rkn/Documents/xTIMEcomposer/workspace/module_adat_rx/src/adatReceiver-100.h:798:0
	{
		zext r8, 5
		nop
	}
.Ltmp723:
	#DEBUG_VALUE: nibble <- R8
	#DEBUG_VALUE: old <- R9
	.loc	1 798 0                 # /Users/rkn/Documents/xTIMEcomposer/workspace/module_adat_rx/src/adatReceiver-100.h:798:0
	{
		shr r9, r9, 3
		ldw r8, r1[r8]
	}
.Ltmp724:
	.loc	1 800 0                 # /Users/rkn/Documents/xTIMEcomposer/workspace/module_adat_rx/src/adatReceiver-100.h:800:0
	{
		or r7, r8, r7
		nop
	}
.Ltmp725:
	#DEBUG_VALUE: data <- R7
	#DEBUG_VALUE: word <- R8
	.loc	1 800 0                 # /Users/rkn/Documents/xTIMEcomposer/workspace/module_adat_rx/src/adatReceiver-100.h:800:0
.Lxta.endpoint_labels129:
	{
		in r8, res[r5]
		shl r7, r7, 4
	}
.Ltmp726:
	.loc	1 802 0                 # /Users/rkn/Documents/xTIMEcomposer/workspace/module_adat_rx/src/adatReceiver-100.h:802:0
	{
		shl r8, r8, 3
		nop
	}
	.loc	1 802 0                 # /Users/rkn/Documents/xTIMEcomposer/workspace/module_adat_rx/src/adatReceiver-100.h:802:0
	{
		and r8, r8, r6
		nop
	}
.Ltmp727:
	#DEBUG_VALUE: fourBits <- R8
	.loc	1 803 0                 # /Users/rkn/Documents/xTIMEcomposer/workspace/module_adat_rx/src/adatReceiver-100.h:803:0
	crc32 r8, r0, r0
.Ltmp728:
	{
		nop
		ldw r8, r11[r8]
	}
.Ltmp729:
	#DEBUG_VALUE: compressed <- R8
	.loc	1 805 0                 # /Users/rkn/Documents/xTIMEcomposer/workspace/module_adat_rx/src/adatReceiver-100.h:805:0
	{
		shl r8, r8, 1
		nop
	}
.Ltmp730:
	.loc	1 805 0                 # /Users/rkn/Documents/xTIMEcomposer/workspace/module_adat_rx/src/adatReceiver-100.h:805:0
	{
		or r8, r8, r9
		nop
	}
	.loc	1 805 0                 # /Users/rkn/Documents/xTIMEcomposer/workspace/module_adat_rx/src/adatReceiver-100.h:805:0
	{
		zext r8, 5
		nop
	}
	{
		nop
		ldw r8, r1[r8]
	}
.Ltmp731:
	#DEBUG_VALUE: nibble <- R8
	.loc	1 807 0                 # /Users/rkn/Documents/xTIMEcomposer/workspace/module_adat_rx/src/adatReceiver-100.h:807:0
	{
		or r7, r8, r7
		nop
	}
.Ltmp732:
	#DEBUG_VALUE: data <- R7
	#DEBUG_VALUE: word <- R8
	.loc	1 807 0                 # /Users/rkn/Documents/xTIMEcomposer/workspace/module_adat_rx/src/adatReceiver-100.h:807:0
.Lxta.endpoint_labels130:
	{
		in r8, res[r5]
		shl r7, r7, 4
	}
.Ltmp733:
	.loc	1 809 0                 # /Users/rkn/Documents/xTIMEcomposer/workspace/module_adat_rx/src/adatReceiver-100.h:809:0
	{
		and r8, r8, r6
		nop
	}
.Ltmp734:
	#DEBUG_VALUE: fourBits <- R8
	.loc	1 810 0                 # /Users/rkn/Documents/xTIMEcomposer/workspace/module_adat_rx/src/adatReceiver-100.h:810:0
	crc32 r8, r0, r0
.Ltmp735:
	#DEBUG_VALUE: old <- R8
	#DEBUG_VALUE: compressed <- R8
	#DEBUG_VALUE: word <- R9
	.loc	1 811 0                 # /Users/rkn/Documents/xTIMEcomposer/workspace/module_adat_rx/src/adatReceiver-100.h:811:0
.Lxta.endpoint_labels131:
	{
		in r9, res[r5]
		ldw r8, r11[r8]
	}
.Ltmp736:
	.loc	1 814 0                 # /Users/rkn/Documents/xTIMEcomposer/workspace/module_adat_rx/src/adatReceiver-100.h:814:0
	{
		shl r9, r9, 4
		nop
	}
	.loc	1 814 0                 # /Users/rkn/Documents/xTIMEcomposer/workspace/module_adat_rx/src/adatReceiver-100.h:814:0
	{
		and r9, r9, r6
		nop
	}
.Ltmp737:
	#DEBUG_VALUE: fourBits <- R9
	.loc	1 815 0                 # /Users/rkn/Documents/xTIMEcomposer/workspace/module_adat_rx/src/adatReceiver-100.h:815:0
	crc32 r9, r0, r0
.Ltmp738:
	{
		nop
		ldw r9, r11[r9]
	}
.Ltmp739:
	#DEBUG_VALUE: compressed <- R9
	.loc	1 818 0                 # /Users/rkn/Documents/xTIMEcomposer/workspace/module_adat_rx/src/adatReceiver-100.h:818:0
	{
		shl r10, r9, 3
		ldc r2, 16
	}
	.loc	1 817 0                 # /Users/rkn/Documents/xTIMEcomposer/workspace/module_adat_rx/src/adatReceiver-100.h:817:0
	{
		and r10, r10, r2
		nop
	}
	.loc	1 818 0                 # /Users/rkn/Documents/xTIMEcomposer/workspace/module_adat_rx/src/adatReceiver-100.h:818:0
	{
		or r8, r10, r8
		nop
	}
	.loc	1 818 0                 # /Users/rkn/Documents/xTIMEcomposer/workspace/module_adat_rx/src/adatReceiver-100.h:818:0
	{
		zext r8, 5
		nop
	}
.Ltmp740:
	#DEBUG_VALUE: nibble <- R8
	#DEBUG_VALUE: old <- R9
	.loc	1 818 0                 # /Users/rkn/Documents/xTIMEcomposer/workspace/module_adat_rx/src/adatReceiver-100.h:818:0
	{
		shr r9, r9, 2
		ldw r8, r1[r8]
	}
.Ltmp741:
	.loc	1 820 0                 # /Users/rkn/Documents/xTIMEcomposer/workspace/module_adat_rx/src/adatReceiver-100.h:820:0
	{
		or r7, r8, r7
		nop
	}
.Ltmp742:
	#DEBUG_VALUE: data <- R7
	#DEBUG_VALUE: word <- R8
	.loc	1 820 0                 # /Users/rkn/Documents/xTIMEcomposer/workspace/module_adat_rx/src/adatReceiver-100.h:820:0
.Lxta.endpoint_labels132:
	{
		in r8, res[r5]
		shl r7, r7, 4
	}
.Ltmp743:
	.loc	1 822 0                 # /Users/rkn/Documents/xTIMEcomposer/workspace/module_adat_rx/src/adatReceiver-100.h:822:0
	{
		shl r8, r8, 2
		nop
	}
	.loc	1 822 0                 # /Users/rkn/Documents/xTIMEcomposer/workspace/module_adat_rx/src/adatReceiver-100.h:822:0
	{
		and r8, r8, r6
		nop
	}
.Ltmp744:
	#DEBUG_VALUE: fourBits <- R8
	.loc	1 823 0                 # /Users/rkn/Documents/xTIMEcomposer/workspace/module_adat_rx/src/adatReceiver-100.h:823:0
	crc32 r8, r0, r0
.Ltmp745:
	{
		nop
		ldw r8, r11[r8]
	}
.Ltmp746:
	#DEBUG_VALUE: compressed <- R8
	.loc	1 825 0                 # /Users/rkn/Documents/xTIMEcomposer/workspace/module_adat_rx/src/adatReceiver-100.h:825:0
	{
		shl r10, r8, 2
		nop
	}
	.loc	1 825 0                 # /Users/rkn/Documents/xTIMEcomposer/workspace/module_adat_rx/src/adatReceiver-100.h:825:0
	{
		or r9, r10, r9
		nop
	}
	.loc	1 825 0                 # /Users/rkn/Documents/xTIMEcomposer/workspace/module_adat_rx/src/adatReceiver-100.h:825:0
	{
		zext r9, 5
		nop
	}
.Ltmp747:
	#DEBUG_VALUE: nibble <- R9
	#DEBUG_VALUE: old <- R8
	.loc	1 825 0                 # /Users/rkn/Documents/xTIMEcomposer/workspace/module_adat_rx/src/adatReceiver-100.h:825:0
	{
		shr r8, r8, 3
		ldw r9, r1[r9]
	}
.Ltmp748:
	.loc	1 827 0                 # /Users/rkn/Documents/xTIMEcomposer/workspace/module_adat_rx/src/adatReceiver-100.h:827:0
	{
		or r7, r9, r7
		nop
	}
.Ltmp749:
	#DEBUG_VALUE: data <- R7
	#DEBUG_VALUE: word <- R9
	.loc	1 827 0                 # /Users/rkn/Documents/xTIMEcomposer/workspace/module_adat_rx/src/adatReceiver-100.h:827:0
.Lxta.endpoint_labels133:
	{
		in r9, res[r5]
		shl r7, r7, 4
	}
.Ltmp750:
	.loc	1 829 0                 # /Users/rkn/Documents/xTIMEcomposer/workspace/module_adat_rx/src/adatReceiver-100.h:829:0
	{
		shl r9, r9, 6
		nop
	}
	.loc	1 829 0                 # /Users/rkn/Documents/xTIMEcomposer/workspace/module_adat_rx/src/adatReceiver-100.h:829:0
	{
		and r9, r9, r3
		nop
	}
.Ltmp751:
	#DEBUG_VALUE: fourBits <- R9
	.loc	1 830 0                 # /Users/rkn/Documents/xTIMEcomposer/workspace/module_adat_rx/src/adatReceiver-100.h:830:0
	crc32 r9, r0, r0
.Ltmp752:
	#DEBUG_VALUE: compressed <- R9
	.loc	1 831 0                 # /Users/rkn/Documents/xTIMEcomposer/workspace/module_adat_rx/src/adatReceiver-100.h:831:0
	{
		ldc r2, 30
		ldw r9, r11[r9]
	}
.Ltmp753:
	.loc	1 833 0                 # /Users/rkn/Documents/xTIMEcomposer/workspace/module_adat_rx/src/adatReceiver-100.h:833:0
	{
		and r9, r9, r2
		nop
	}
.Ltmp754:
	#DEBUG_VALUE: word <- R9
	.loc	1 833 0                 # /Users/rkn/Documents/xTIMEcomposer/workspace/module_adat_rx/src/adatReceiver-100.h:833:0
.Lxta.endpoint_labels134:
	{
		in r9, res[r5]
		or r8, r9, r8
	}
.Ltmp755:
	.loc	1 835 0                 # /Users/rkn/Documents/xTIMEcomposer/workspace/module_adat_rx/src/adatReceiver-100.h:835:0
	{
		shl r9, r9, 4
		nop
	}
	.loc	1 835 0                 # /Users/rkn/Documents/xTIMEcomposer/workspace/module_adat_rx/src/adatReceiver-100.h:835:0
	{
		and r9, r9, r6
		nop
	}
.Ltmp756:
	#DEBUG_VALUE: fourBits <- R9
	.loc	1 836 0                 # /Users/rkn/Documents/xTIMEcomposer/workspace/module_adat_rx/src/adatReceiver-100.h:836:0
	crc32 r9, r0, r0
.Ltmp757:
	{
		nop
		ldw r9, r11[r9]
	}
.Ltmp758:
	#DEBUG_VALUE: compressed <- R9
	.loc	1 838 0                 # /Users/rkn/Documents/xTIMEcomposer/workspace/module_adat_rx/src/adatReceiver-100.h:838:0
	{
		shl r10, r9, 4
		nop
	}
	.loc	1 838 0                 # /Users/rkn/Documents/xTIMEcomposer/workspace/module_adat_rx/src/adatReceiver-100.h:838:0
	{
		or r8, r8, r10
		nop
	}
	.loc	1 838 0                 # /Users/rkn/Documents/xTIMEcomposer/workspace/module_adat_rx/src/adatReceiver-100.h:838:0
	{
		zext r8, 5
		nop
	}
.Ltmp759:
	#DEBUG_VALUE: nibble <- R8
	#DEBUG_VALUE: old <- R9
	.loc	1 838 0                 # /Users/rkn/Documents/xTIMEcomposer/workspace/module_adat_rx/src/adatReceiver-100.h:838:0
	{
		shr r9, r9, 1
		ldw r8, r1[r8]
	}
.Ltmp760:
	.loc	1 840 0                 # /Users/rkn/Documents/xTIMEcomposer/workspace/module_adat_rx/src/adatReceiver-100.h:840:0
	{
		or r7, r8, r7
		nop
	}
	.loc	1 840 0                 # /Users/rkn/Documents/xTIMEcomposer/workspace/module_adat_rx/src/adatReceiver-100.h:840:0
	{
		shl r7, r7, 4
		nop
	}
.Ltmp761:
	#DEBUG_VALUE: data <- R7
	.loc	1 841 0                 # /Users/rkn/Documents/xTIMEcomposer/workspace/module_adat_rx/src/adatReceiver-100.h:841:0
.Lxta.endpoint_labels135:
	{
		out res[r4], r7
		nop
	}
.Ltmp762:
	#DEBUG_VALUE: adatReceiver44100:oChan <- [SP+20]
	.loc	1 842 0                 # /Users/rkn/Documents/xTIMEcomposer/workspace/module_adat_rx/src/adatReceiver-100.h:842:0
.Lxta.endpoint_labels136:
	{
		in r7, res[r5]
		nop
	}
.Ltmp763:
	#DEBUG_VALUE: word <- R7
	.loc	1 843 0                 # /Users/rkn/Documents/xTIMEcomposer/workspace/module_adat_rx/src/adatReceiver-100.h:843:0
	{
		shl r7, r7, 1
		nop
	}
.Ltmp764:
	.loc	1 843 0                 # /Users/rkn/Documents/xTIMEcomposer/workspace/module_adat_rx/src/adatReceiver-100.h:843:0
	{
		and r7, r7, r6
		nop
	}
.Ltmp765:
	#DEBUG_VALUE: fourBits <- R7
	.loc	1 844 0                 # /Users/rkn/Documents/xTIMEcomposer/workspace/module_adat_rx/src/adatReceiver-100.h:844:0
	crc32 r7, r0, r0
.Ltmp766:
	{
		nop
		ldw r7, r11[r7]
	}
.Ltmp767:
	#DEBUG_VALUE: compressed <- R7
	.loc	1 846 0                 # /Users/rkn/Documents/xTIMEcomposer/workspace/module_adat_rx/src/adatReceiver-100.h:846:0
	{
		shl r8, r7, 3
		nop
	}
	.loc	1 846 0                 # /Users/rkn/Documents/xTIMEcomposer/workspace/module_adat_rx/src/adatReceiver-100.h:846:0
	{
		or r8, r8, r9
		nop
	}
	.loc	1 846 0                 # /Users/rkn/Documents/xTIMEcomposer/workspace/module_adat_rx/src/adatReceiver-100.h:846:0
	{
		zext r8, 5
		nop
	}
.Ltmp768:
	#DEBUG_VALUE: nibble <- R8
	#DEBUG_VALUE: old <- R7
	.loc	1 846 0                 # /Users/rkn/Documents/xTIMEcomposer/workspace/module_adat_rx/src/adatReceiver-100.h:846:0
	{
		shr r7, r7, 2
		ldw r8, r1[r8]
	}
.Ltmp769:
	#DEBUG_VALUE: data <- R8
	#DEBUG_VALUE: word <- R9
	.loc	1 848 0                 # /Users/rkn/Documents/xTIMEcomposer/workspace/module_adat_rx/src/adatReceiver-100.h:848:0
.Lxta.endpoint_labels137:
	{
		in r9, res[r5]
		shl r8, r8, 4
	}
.Ltmp770:
	.loc	1 850 0                 # /Users/rkn/Documents/xTIMEcomposer/workspace/module_adat_rx/src/adatReceiver-100.h:850:0
	{
		shl r9, r9, 5
		mov r4, r3
	}
	.loc	1 850 0                 # /Users/rkn/Documents/xTIMEcomposer/workspace/module_adat_rx/src/adatReceiver-100.h:850:0
	{
		and r9, r9, r4
		nop
	}
.Ltmp771:
	#DEBUG_VALUE: fourBits <- R9
	.loc	1 851 0                 # /Users/rkn/Documents/xTIMEcomposer/workspace/module_adat_rx/src/adatReceiver-100.h:851:0
	crc32 r9, r0, r0
.Ltmp772:
	{
		nop
		ldw r9, r11[r9]
	}
.Ltmp773:
	#DEBUG_VALUE: compressed <- R9
	.loc	1 854 0                 # /Users/rkn/Documents/xTIMEcomposer/workspace/module_adat_rx/src/adatReceiver-100.h:854:0
	{
		shl r9, r9, 1
		ldc r10, 28
	}
.Ltmp774:
	.loc	1 853 0                 # /Users/rkn/Documents/xTIMEcomposer/workspace/module_adat_rx/src/adatReceiver-100.h:853:0
	{
		and r9, r9, r10
		nop
	}
	.loc	1 854 0                 # /Users/rkn/Documents/xTIMEcomposer/workspace/module_adat_rx/src/adatReceiver-100.h:854:0
	{
		or r7, r9, r7
		nop
	}
	.loc	1 854 0                 # /Users/rkn/Documents/xTIMEcomposer/workspace/module_adat_rx/src/adatReceiver-100.h:854:0
	{
		zext r7, 5
		nop
	}
	{
		nop
		ldw r7, r1[r7]
	}
.Ltmp775:
	#DEBUG_VALUE: nibble <- R7
	.loc	1 856 0                 # /Users/rkn/Documents/xTIMEcomposer/workspace/module_adat_rx/src/adatReceiver-100.h:856:0
	{
		or r7, r7, r8
		nop
	}
.Ltmp776:
	#DEBUG_VALUE: data <- R7
	#DEBUG_VALUE: word <- R8
	.loc	1 856 0                 # /Users/rkn/Documents/xTIMEcomposer/workspace/module_adat_rx/src/adatReceiver-100.h:856:0
.Lxta.endpoint_labels138:
	{
		in r8, res[r5]
		shl r7, r7, 4
	}
.Ltmp777:
	.loc	1 858 0                 # /Users/rkn/Documents/xTIMEcomposer/workspace/module_adat_rx/src/adatReceiver-100.h:858:0
	{
		shl r8, r8, 3
		nop
	}
	.loc	1 858 0                 # /Users/rkn/Documents/xTIMEcomposer/workspace/module_adat_rx/src/adatReceiver-100.h:858:0
	{
		and r8, r8, r6
		nop
	}
.Ltmp778:
	#DEBUG_VALUE: fourBits <- R8
	.loc	1 859 0                 # /Users/rkn/Documents/xTIMEcomposer/workspace/module_adat_rx/src/adatReceiver-100.h:859:0
	crc32 r8, r0, r0
.Ltmp779:
	#DEBUG_VALUE: old <- R8
	#DEBUG_VALUE: compressed <- R8
	#DEBUG_VALUE: word <- R9
	.loc	1 860 0                 # /Users/rkn/Documents/xTIMEcomposer/workspace/module_adat_rx/src/adatReceiver-100.h:860:0
.Lxta.endpoint_labels139:
	{
		in r9, res[r5]
		ldw r8, r11[r8]
	}
.Ltmp780:
	.loc	1 863 0                 # /Users/rkn/Documents/xTIMEcomposer/workspace/module_adat_rx/src/adatReceiver-100.h:863:0
	{
		shl r9, r9, 7
		nop
	}
	.loc	1 863 0                 # /Users/rkn/Documents/xTIMEcomposer/workspace/module_adat_rx/src/adatReceiver-100.h:863:0
	{
		and r9, r9, r4
		nop
	}
.Ltmp781:
	#DEBUG_VALUE: fourBits <- R9
	.loc	1 864 0                 # /Users/rkn/Documents/xTIMEcomposer/workspace/module_adat_rx/src/adatReceiver-100.h:864:0
	crc32 r9, r0, r0
.Ltmp782:
	{
		nop
		ldw r9, r11[r9]
	}
.Ltmp783:
	#DEBUG_VALUE: compressed <- R9
	.loc	1 867 0                 # /Users/rkn/Documents/xTIMEcomposer/workspace/module_adat_rx/src/adatReceiver-100.h:867:0
	{
		shl r10, r9, 3
		ldc r3, 16
	}
	.loc	1 866 0                 # /Users/rkn/Documents/xTIMEcomposer/workspace/module_adat_rx/src/adatReceiver-100.h:866:0
	{
		and r10, r10, r3
		nop
	}
	.loc	1 867 0                 # /Users/rkn/Documents/xTIMEcomposer/workspace/module_adat_rx/src/adatReceiver-100.h:867:0
	{
		or r8, r10, r8
		nop
	}
	.loc	1 867 0                 # /Users/rkn/Documents/xTIMEcomposer/workspace/module_adat_rx/src/adatReceiver-100.h:867:0
	{
		zext r8, 5
		nop
	}
.Ltmp784:
	#DEBUG_VALUE: nibble <- R8
	#DEBUG_VALUE: old <- R9
	.loc	1 867 0                 # /Users/rkn/Documents/xTIMEcomposer/workspace/module_adat_rx/src/adatReceiver-100.h:867:0
	{
		shr r9, r9, 2
		ldw r8, r1[r8]
	}
.Ltmp785:
	.loc	1 869 0                 # /Users/rkn/Documents/xTIMEcomposer/workspace/module_adat_rx/src/adatReceiver-100.h:869:0
	{
		or r7, r8, r7
		nop
	}
.Ltmp786:
	#DEBUG_VALUE: data <- R7
	#DEBUG_VALUE: word <- R8
	.loc	1 869 0                 # /Users/rkn/Documents/xTIMEcomposer/workspace/module_adat_rx/src/adatReceiver-100.h:869:0
.Lxta.endpoint_labels140:
	{
		in r8, res[r5]
		shl r7, r7, 4
	}
.Ltmp787:
	.loc	1 871 0                 # /Users/rkn/Documents/xTIMEcomposer/workspace/module_adat_rx/src/adatReceiver-100.h:871:0
	{
		shl r8, r8, 4
		nop
	}
	.loc	1 871 0                 # /Users/rkn/Documents/xTIMEcomposer/workspace/module_adat_rx/src/adatReceiver-100.h:871:0
	{
		and r8, r8, r6
		nop
	}
.Ltmp788:
	#DEBUG_VALUE: fourBits <- R8
	.loc	1 872 0                 # /Users/rkn/Documents/xTIMEcomposer/workspace/module_adat_rx/src/adatReceiver-100.h:872:0
	crc32 r8, r0, r0
.Ltmp789:
	{
		nop
		ldw r8, r11[r8]
	}
.Ltmp790:
	#DEBUG_VALUE: compressed <- R8
	.loc	1 874 0                 # /Users/rkn/Documents/xTIMEcomposer/workspace/module_adat_rx/src/adatReceiver-100.h:874:0
	{
		shl r10, r8, 2
		nop
	}
	.loc	1 874 0                 # /Users/rkn/Documents/xTIMEcomposer/workspace/module_adat_rx/src/adatReceiver-100.h:874:0
	{
		or r9, r10, r9
		nop
	}
	.loc	1 874 0                 # /Users/rkn/Documents/xTIMEcomposer/workspace/module_adat_rx/src/adatReceiver-100.h:874:0
	{
		zext r9, 5
		nop
	}
.Ltmp791:
	#DEBUG_VALUE: nibble <- R9
	#DEBUG_VALUE: old <- R8
	.loc	1 874 0                 # /Users/rkn/Documents/xTIMEcomposer/workspace/module_adat_rx/src/adatReceiver-100.h:874:0
	{
		shr r8, r8, 3
		ldw r9, r1[r9]
	}
.Ltmp792:
	.loc	1 876 0                 # /Users/rkn/Documents/xTIMEcomposer/workspace/module_adat_rx/src/adatReceiver-100.h:876:0
	{
		or r7, r9, r7
		nop
	}
.Ltmp793:
	#DEBUG_VALUE: data <- R7
	#DEBUG_VALUE: word <- R9
	.loc	1 876 0                 # /Users/rkn/Documents/xTIMEcomposer/workspace/module_adat_rx/src/adatReceiver-100.h:876:0
.Lxta.endpoint_labels141:
	{
		in r9, res[r5]
		shl r7, r7, 4
	}
.Ltmp794:
	.loc	1 878 0                 # /Users/rkn/Documents/xTIMEcomposer/workspace/module_adat_rx/src/adatReceiver-100.h:878:0
	{
		shl r9, r9, 1
		nop
	}
	.loc	1 878 0                 # /Users/rkn/Documents/xTIMEcomposer/workspace/module_adat_rx/src/adatReceiver-100.h:878:0
	{
		and r9, r9, r6
		nop
	}
.Ltmp795:
	#DEBUG_VALUE: fourBits <- R9
	.loc	1 879 0                 # /Users/rkn/Documents/xTIMEcomposer/workspace/module_adat_rx/src/adatReceiver-100.h:879:0
	crc32 r9, r0, r0
.Ltmp796:
	{
		nop
		ldw r9, r11[r9]
	}
.Ltmp797:
	#DEBUG_VALUE: compressed <- R9
	.loc	1 881 0                 # /Users/rkn/Documents/xTIMEcomposer/workspace/module_adat_rx/src/adatReceiver-100.h:881:0
	{
		shl r9, r9, 1
		nop
	}
.Ltmp798:
	.loc	1 881 0                 # /Users/rkn/Documents/xTIMEcomposer/workspace/module_adat_rx/src/adatReceiver-100.h:881:0
	{
		or r8, r9, r8
		nop
	}
	.loc	1 881 0                 # /Users/rkn/Documents/xTIMEcomposer/workspace/module_adat_rx/src/adatReceiver-100.h:881:0
	{
		zext r8, 5
		nop
	}
	{
		nop
		ldw r8, r1[r8]
	}
.Ltmp799:
	#DEBUG_VALUE: nibble <- R8
	.loc	1 883 0                 # /Users/rkn/Documents/xTIMEcomposer/workspace/module_adat_rx/src/adatReceiver-100.h:883:0
	{
		or r7, r8, r7
		nop
	}
.Ltmp800:
	#DEBUG_VALUE: data <- R7
	#DEBUG_VALUE: word <- R8
	.loc	1 883 0                 # /Users/rkn/Documents/xTIMEcomposer/workspace/module_adat_rx/src/adatReceiver-100.h:883:0
.Lxta.endpoint_labels142:
	{
		in r8, res[r5]
		shl r7, r7, 4
	}
.Ltmp801:
	.loc	1 885 0                 # /Users/rkn/Documents/xTIMEcomposer/workspace/module_adat_rx/src/adatReceiver-100.h:885:0
	{
		shl r8, r8, 6
		nop
	}
	.loc	1 885 0                 # /Users/rkn/Documents/xTIMEcomposer/workspace/module_adat_rx/src/adatReceiver-100.h:885:0
	{
		and r8, r8, r4
		nop
	}
.Ltmp802:
	#DEBUG_VALUE: fourBits <- R8
	.loc	1 886 0                 # /Users/rkn/Documents/xTIMEcomposer/workspace/module_adat_rx/src/adatReceiver-100.h:886:0
	crc32 r8, r0, r0
.Ltmp803:
	{
		nop
		ldw r8, r11[r8]
	}
.Ltmp804:
	#DEBUG_VALUE: compressed <- R8
	#DEBUG_VALUE: old <- R8
	#DEBUG_VALUE: word <- R9
	.loc	1 888 0                 # /Users/rkn/Documents/xTIMEcomposer/workspace/module_adat_rx/src/adatReceiver-100.h:888:0
.Lxta.endpoint_labels143:
	{
		in r9, res[r5]
		shr r8, r8, 1
	}
.Ltmp805:
	.loc	1 891 0                 # /Users/rkn/Documents/xTIMEcomposer/workspace/module_adat_rx/src/adatReceiver-100.h:891:0
	{
		shl r9, r9, 3
		nop
	}
	.loc	1 891 0                 # /Users/rkn/Documents/xTIMEcomposer/workspace/module_adat_rx/src/adatReceiver-100.h:891:0
	{
		and r9, r9, r6
		nop
	}
.Ltmp806:
	#DEBUG_VALUE: fourBits <- R9
	.loc	1 892 0                 # /Users/rkn/Documents/xTIMEcomposer/workspace/module_adat_rx/src/adatReceiver-100.h:892:0
	crc32 r9, r0, r0
.Ltmp807:
	{
		nop
		ldw r9, r11[r9]
	}
.Ltmp808:
	#DEBUG_VALUE: compressed <- R9
	.loc	1 894 0                 # /Users/rkn/Documents/xTIMEcomposer/workspace/module_adat_rx/src/adatReceiver-100.h:894:0
	{
		shl r10, r9, 3
		nop
	}
	.loc	1 894 0                 # /Users/rkn/Documents/xTIMEcomposer/workspace/module_adat_rx/src/adatReceiver-100.h:894:0
	{
		or r8, r10, r8
		nop
	}
	.loc	1 894 0                 # /Users/rkn/Documents/xTIMEcomposer/workspace/module_adat_rx/src/adatReceiver-100.h:894:0
	{
		zext r8, 5
		nop
	}
.Ltmp809:
	#DEBUG_VALUE: nibble <- R8
	#DEBUG_VALUE: old <- R9
	.loc	1 894 0                 # /Users/rkn/Documents/xTIMEcomposer/workspace/module_adat_rx/src/adatReceiver-100.h:894:0
	{
		shr r9, r9, 2
		ldw r8, r1[r8]
	}
.Ltmp810:
	.loc	1 896 0                 # /Users/rkn/Documents/xTIMEcomposer/workspace/module_adat_rx/src/adatReceiver-100.h:896:0
	{
		or r7, r8, r7
		nop
	}
.Ltmp811:
	#DEBUG_VALUE: data <- R7
	#DEBUG_VALUE: adatReceiver44100:oChan <- R3
	.loc	1 896 0                 # /Users/rkn/Documents/xTIMEcomposer/workspace/module_adat_rx/src/adatReceiver-100.h:896:0
	{
		shl r7, r7, 4
		ldw r3, sp[5]
	}
.Ltmp812:
	.loc	1 897 0                 # /Users/rkn/Documents/xTIMEcomposer/workspace/module_adat_rx/src/adatReceiver-100.h:897:0
.Lxta.endpoint_labels144:
	{
		out res[r3], r7
		nop
	}
	.loc	1 898 0                 # /Users/rkn/Documents/xTIMEcomposer/workspace/module_adat_rx/src/adatReceiver-100.h:898:0
.Lxta.endpoint_labels145:
	{
		in r7, res[r5]
		nop
	}
.Ltmp813:
	#DEBUG_VALUE: word <- R7
	.loc	1 899 0                 # /Users/rkn/Documents/xTIMEcomposer/workspace/module_adat_rx/src/adatReceiver-100.h:899:0
	{
		and r7, r7, r6
		nop
	}
.Ltmp814:
	#DEBUG_VALUE: fourBits <- R7
	.loc	1 900 0                 # /Users/rkn/Documents/xTIMEcomposer/workspace/module_adat_rx/src/adatReceiver-100.h:900:0
	crc32 r7, r0, r0
.Ltmp815:
	{
		nop
		ldw r7, r11[r7]
	}
.Ltmp816:
	#DEBUG_VALUE: compressed <- R7
	.loc	1 902 0                 # /Users/rkn/Documents/xTIMEcomposer/workspace/module_adat_rx/src/adatReceiver-100.h:902:0
	{
		shl r8, r7, 2
		nop
	}
	.loc	1 902 0                 # /Users/rkn/Documents/xTIMEcomposer/workspace/module_adat_rx/src/adatReceiver-100.h:902:0
	{
		or r8, r8, r9
		nop
	}
	.loc	1 902 0                 # /Users/rkn/Documents/xTIMEcomposer/workspace/module_adat_rx/src/adatReceiver-100.h:902:0
	{
		zext r8, 5
		nop
	}
.Ltmp817:
	#DEBUG_VALUE: nibble <- R8
	#DEBUG_VALUE: old <- R7
	.loc	1 902 0                 # /Users/rkn/Documents/xTIMEcomposer/workspace/module_adat_rx/src/adatReceiver-100.h:902:0
	{
		shr r7, r7, 3
		ldw r8, r1[r8]
	}
.Ltmp818:
	#DEBUG_VALUE: data <- R8
	#DEBUG_VALUE: word <- R9
	.loc	1 904 0                 # /Users/rkn/Documents/xTIMEcomposer/workspace/module_adat_rx/src/adatReceiver-100.h:904:0
.Lxta.endpoint_labels146:
	{
		in r9, res[r5]
		shl r8, r8, 4
	}
.Ltmp819:
	.loc	1 906 0                 # /Users/rkn/Documents/xTIMEcomposer/workspace/module_adat_rx/src/adatReceiver-100.h:906:0
	{
		shl r9, r9, 4
		nop
	}
	.loc	1 906 0                 # /Users/rkn/Documents/xTIMEcomposer/workspace/module_adat_rx/src/adatReceiver-100.h:906:0
	{
		and r9, r9, r6
		nop
	}
.Ltmp820:
	#DEBUG_VALUE: fourBits <- R9
	.loc	1 907 0                 # /Users/rkn/Documents/xTIMEcomposer/workspace/module_adat_rx/src/adatReceiver-100.h:907:0
	crc32 r9, r0, r0
.Ltmp821:
	{
		nop
		ldw r9, r11[r9]
	}
.Ltmp822:
	#DEBUG_VALUE: compressed <- R9
	.loc	1 910 0                 # /Users/rkn/Documents/xTIMEcomposer/workspace/module_adat_rx/src/adatReceiver-100.h:910:0
	{
		and r9, r9, r2
		nop
	}
.Ltmp823:
	#DEBUG_VALUE: word <- R9
	.loc	1 910 0                 # /Users/rkn/Documents/xTIMEcomposer/workspace/module_adat_rx/src/adatReceiver-100.h:910:0
.Lxta.endpoint_labels147:
	{
		in r9, res[r5]
		or r7, r9, r7
	}
.Ltmp824:
	.loc	1 912 0                 # /Users/rkn/Documents/xTIMEcomposer/workspace/module_adat_rx/src/adatReceiver-100.h:912:0
	{
		shl r9, r9, 2
		nop
	}
	.loc	1 912 0                 # /Users/rkn/Documents/xTIMEcomposer/workspace/module_adat_rx/src/adatReceiver-100.h:912:0
	{
		and r9, r9, r6
		nop
	}
.Ltmp825:
	#DEBUG_VALUE: fourBits <- R9
	.loc	1 913 0                 # /Users/rkn/Documents/xTIMEcomposer/workspace/module_adat_rx/src/adatReceiver-100.h:913:0
	crc32 r9, r0, r0
.Ltmp826:
	{
		nop
		ldw r9, r11[r9]
	}
.Ltmp827:
	#DEBUG_VALUE: compressed <- R9
	.loc	1 915 0                 # /Users/rkn/Documents/xTIMEcomposer/workspace/module_adat_rx/src/adatReceiver-100.h:915:0
	{
		shl r10, r9, 4
		nop
	}
	.loc	1 915 0                 # /Users/rkn/Documents/xTIMEcomposer/workspace/module_adat_rx/src/adatReceiver-100.h:915:0
	{
		or r7, r7, r10
		nop
	}
	.loc	1 915 0                 # /Users/rkn/Documents/xTIMEcomposer/workspace/module_adat_rx/src/adatReceiver-100.h:915:0
	{
		zext r7, 5
		nop
	}
.Ltmp828:
	#DEBUG_VALUE: nibble <- R7
	#DEBUG_VALUE: old <- R9
	.loc	1 915 0                 # /Users/rkn/Documents/xTIMEcomposer/workspace/module_adat_rx/src/adatReceiver-100.h:915:0
	{
		shr r9, r9, 1
		ldw r7, r1[r7]
	}
.Ltmp829:
	.loc	1 917 0                 # /Users/rkn/Documents/xTIMEcomposer/workspace/module_adat_rx/src/adatReceiver-100.h:917:0
	{
		or r7, r7, r8
		nop
	}
.Ltmp830:
	#DEBUG_VALUE: data <- R7
	#DEBUG_VALUE: word <- R8
	.loc	1 917 0                 # /Users/rkn/Documents/xTIMEcomposer/workspace/module_adat_rx/src/adatReceiver-100.h:917:0
.Lxta.endpoint_labels148:
	{
		in r8, res[r5]
		shl r7, r7, 4
	}
.Ltmp831:
	.loc	1 919 0                 # /Users/rkn/Documents/xTIMEcomposer/workspace/module_adat_rx/src/adatReceiver-100.h:919:0
	{
		shl r8, r8, 6
		nop
	}
	.loc	1 919 0                 # /Users/rkn/Documents/xTIMEcomposer/workspace/module_adat_rx/src/adatReceiver-100.h:919:0
	{
		and r8, r8, r4
		nop
	}
.Ltmp832:
	#DEBUG_VALUE: fourBits <- R8
	.loc	1 920 0                 # /Users/rkn/Documents/xTIMEcomposer/workspace/module_adat_rx/src/adatReceiver-100.h:920:0
	crc32 r8, r0, r0
.Ltmp833:
	{
		nop
		ldw r8, r11[r8]
	}
.Ltmp834:
	#DEBUG_VALUE: compressed <- R8
	.loc	1 923 0                 # /Users/rkn/Documents/xTIMEcomposer/workspace/module_adat_rx/src/adatReceiver-100.h:923:0
	{
		shl r10, r8, 2
		ldc r2, 24
	}
	.loc	1 922 0                 # /Users/rkn/Documents/xTIMEcomposer/workspace/module_adat_rx/src/adatReceiver-100.h:922:0
	{
		and r10, r10, r2
		nop
	}
	.loc	1 923 0                 # /Users/rkn/Documents/xTIMEcomposer/workspace/module_adat_rx/src/adatReceiver-100.h:923:0
	{
		or r9, r10, r9
		nop
	}
	.loc	1 923 0                 # /Users/rkn/Documents/xTIMEcomposer/workspace/module_adat_rx/src/adatReceiver-100.h:923:0
	{
		zext r9, 5
		nop
	}
.Ltmp835:
	#DEBUG_VALUE: nibble <- R9
	#DEBUG_VALUE: old <- R8
	.loc	1 923 0                 # /Users/rkn/Documents/xTIMEcomposer/workspace/module_adat_rx/src/adatReceiver-100.h:923:0
	{
		shr r8, r8, 3
		ldw r9, r1[r9]
	}
.Ltmp836:
	.loc	1 925 0                 # /Users/rkn/Documents/xTIMEcomposer/workspace/module_adat_rx/src/adatReceiver-100.h:925:0
	{
		or r7, r9, r7
		nop
	}
.Ltmp837:
	#DEBUG_VALUE: data <- R7
	#DEBUG_VALUE: word <- R9
	.loc	1 925 0                 # /Users/rkn/Documents/xTIMEcomposer/workspace/module_adat_rx/src/adatReceiver-100.h:925:0
.Lxta.endpoint_labels149:
	{
		in r9, res[r5]
		shl r7, r7, 4
	}
.Ltmp838:
	.loc	1 927 0                 # /Users/rkn/Documents/xTIMEcomposer/workspace/module_adat_rx/src/adatReceiver-100.h:927:0
	{
		shl r9, r9, 4
		nop
	}
	.loc	1 927 0                 # /Users/rkn/Documents/xTIMEcomposer/workspace/module_adat_rx/src/adatReceiver-100.h:927:0
	{
		and r9, r9, r6
		nop
	}
.Ltmp839:
	#DEBUG_VALUE: fourBits <- R9
	.loc	1 928 0                 # /Users/rkn/Documents/xTIMEcomposer/workspace/module_adat_rx/src/adatReceiver-100.h:928:0
	crc32 r9, r0, r0
.Ltmp840:
	{
		nop
		ldw r9, r11[r9]
	}
.Ltmp841:
	#DEBUG_VALUE: compressed <- R9
	.loc	1 930 0                 # /Users/rkn/Documents/xTIMEcomposer/workspace/module_adat_rx/src/adatReceiver-100.h:930:0
	{
		shl r9, r9, 1
		nop
	}
.Ltmp842:
	.loc	1 930 0                 # /Users/rkn/Documents/xTIMEcomposer/workspace/module_adat_rx/src/adatReceiver-100.h:930:0
	{
		or r8, r9, r8
		nop
	}
	.loc	1 930 0                 # /Users/rkn/Documents/xTIMEcomposer/workspace/module_adat_rx/src/adatReceiver-100.h:930:0
	{
		zext r8, 5
		nop
	}
	{
		nop
		ldw r8, r1[r8]
	}
.Ltmp843:
	#DEBUG_VALUE: nibble <- R8
	.loc	1 932 0                 # /Users/rkn/Documents/xTIMEcomposer/workspace/module_adat_rx/src/adatReceiver-100.h:932:0
	{
		or r7, r8, r7
		nop
	}
.Ltmp844:
	#DEBUG_VALUE: data <- R7
	#DEBUG_VALUE: word <- R8
	.loc	1 932 0                 # /Users/rkn/Documents/xTIMEcomposer/workspace/module_adat_rx/src/adatReceiver-100.h:932:0
.Lxta.endpoint_labels150:
	{
		in r8, res[r5]
		shl r7, r7, 4
	}
.Ltmp845:
	.loc	1 934 0                 # /Users/rkn/Documents/xTIMEcomposer/workspace/module_adat_rx/src/adatReceiver-100.h:934:0
	{
		and r8, r8, r6
		nop
	}
.Ltmp846:
	#DEBUG_VALUE: fourBits <- R8
	.loc	1 935 0                 # /Users/rkn/Documents/xTIMEcomposer/workspace/module_adat_rx/src/adatReceiver-100.h:935:0
	crc32 r8, r0, r0
.Ltmp847:
	#DEBUG_VALUE: old <- R8
	#DEBUG_VALUE: compressed <- R8
	#DEBUG_VALUE: word <- R9
	.loc	1 936 0                 # /Users/rkn/Documents/xTIMEcomposer/workspace/module_adat_rx/src/adatReceiver-100.h:936:0
.Lxta.endpoint_labels151:
	{
		in r9, res[r5]
		ldw r8, r11[r8]
	}
.Ltmp848:
	.loc	1 939 0                 # /Users/rkn/Documents/xTIMEcomposer/workspace/module_adat_rx/src/adatReceiver-100.h:939:0
	{
		shl r9, r9, 5
		mov r2, r4
	}
	.loc	1 939 0                 # /Users/rkn/Documents/xTIMEcomposer/workspace/module_adat_rx/src/adatReceiver-100.h:939:0
	{
		and r9, r9, r2
		nop
	}
.Ltmp849:
	#DEBUG_VALUE: fourBits <- R9
	.loc	1 940 0                 # /Users/rkn/Documents/xTIMEcomposer/workspace/module_adat_rx/src/adatReceiver-100.h:940:0
	crc32 r9, r0, r0
.Ltmp850:
	{
		nop
		ldw r9, r11[r9]
	}
.Ltmp851:
	#DEBUG_VALUE: compressed <- R9
	.loc	1 943 0                 # /Users/rkn/Documents/xTIMEcomposer/workspace/module_adat_rx/src/adatReceiver-100.h:943:0
	{
		shl r10, r9, 3
		ldc r4, 16
	}
	.loc	1 942 0                 # /Users/rkn/Documents/xTIMEcomposer/workspace/module_adat_rx/src/adatReceiver-100.h:942:0
	{
		and r10, r10, r4
		nop
	}
	.loc	1 943 0                 # /Users/rkn/Documents/xTIMEcomposer/workspace/module_adat_rx/src/adatReceiver-100.h:943:0
	{
		or r8, r10, r8
		nop
	}
	.loc	1 943 0                 # /Users/rkn/Documents/xTIMEcomposer/workspace/module_adat_rx/src/adatReceiver-100.h:943:0
	{
		zext r8, 5
		nop
	}
.Ltmp852:
	#DEBUG_VALUE: nibble <- R8
	#DEBUG_VALUE: old <- R9
	.loc	1 943 0                 # /Users/rkn/Documents/xTIMEcomposer/workspace/module_adat_rx/src/adatReceiver-100.h:943:0
	{
		shr r9, r9, 2
		ldw r8, r1[r8]
	}
.Ltmp853:
	.loc	1 945 0                 # /Users/rkn/Documents/xTIMEcomposer/workspace/module_adat_rx/src/adatReceiver-100.h:945:0
	{
		or r7, r8, r7
		nop
	}
.Ltmp854:
	#DEBUG_VALUE: data <- R7
	#DEBUG_VALUE: word <- R8
	.loc	1 945 0                 # /Users/rkn/Documents/xTIMEcomposer/workspace/module_adat_rx/src/adatReceiver-100.h:945:0
.Lxta.endpoint_labels152:
	{
		in r8, res[r5]
		shl r7, r7, 4
	}
.Ltmp855:
	.loc	1 947 0                 # /Users/rkn/Documents/xTIMEcomposer/workspace/module_adat_rx/src/adatReceiver-100.h:947:0
	{
		shl r8, r8, 2
		nop
	}
	.loc	1 947 0                 # /Users/rkn/Documents/xTIMEcomposer/workspace/module_adat_rx/src/adatReceiver-100.h:947:0
	{
		and r8, r8, r6
		nop
	}
.Ltmp856:
	#DEBUG_VALUE: fourBits <- R8
	.loc	1 948 0                 # /Users/rkn/Documents/xTIMEcomposer/workspace/module_adat_rx/src/adatReceiver-100.h:948:0
	crc32 r8, r0, r0
.Ltmp857:
	{
		nop
		ldw r11, r11[r8]
	}
.Ltmp858:
	#DEBUG_VALUE: compressed <- R11
	.loc	1 950 0                 # /Users/rkn/Documents/xTIMEcomposer/workspace/module_adat_rx/src/adatReceiver-100.h:950:0
	{
		shl r11, r11, 2
		nop
	}
.Ltmp859:
	.loc	1 950 0                 # /Users/rkn/Documents/xTIMEcomposer/workspace/module_adat_rx/src/adatReceiver-100.h:950:0
	{
		or r11, r11, r9
		nop
	}
	.loc	1 950 0                 # /Users/rkn/Documents/xTIMEcomposer/workspace/module_adat_rx/src/adatReceiver-100.h:950:0
	{
		zext r11, 5
		nop
	}
	{
		nop
		ldw r11, r1[r11]
	}
.Ltmp860:
	#DEBUG_VALUE: nibble <- R11
	.loc	1 952 0                 # /Users/rkn/Documents/xTIMEcomposer/workspace/module_adat_rx/src/adatReceiver-100.h:952:0
	{
		or r11, r11, r7
		nop
	}
.Ltmp861:
	.loc	1 952 0                 # /Users/rkn/Documents/xTIMEcomposer/workspace/module_adat_rx/src/adatReceiver-100.h:952:0
	{
		shl r11, r11, 4
		nop
	}
.Ltmp862:
	#DEBUG_VALUE: data <- R11
	.loc	1 953 0                 # /Users/rkn/Documents/xTIMEcomposer/workspace/module_adat_rx/src/adatReceiver-100.h:953:0
.Lxta.endpoint_labels153:
	{
		out res[r3], r11
		nop
	}
	.loc	1 954 0                 # /Users/rkn/Documents/xTIMEcomposer/workspace/module_adat_rx/src/adatReceiver-100.h:954:0
.Lxta.endpoint_labels154:
	{
		in r11, res[r5]
		nop
	}
.Ltmp863:
	#DEBUG_VALUE: word <- R11
	.loc	1 955 9                 # /Users/rkn/Documents/xTIMEcomposer/workspace/module_adat_rx/src/adatReceiver-100.h:955:9
	{
		add r7, r11, 1
		ldc r8, 2
	}
	{
		lsu r7, r7, r8
		nop
	}
	bt r7, .LBB1_6
.Ltmp864:
# BB#7:                                 # %return
.Lxtalabel9:
	{
		nop
		ldw r10, sp[44]
	}
	{
		nop
		ldw r8, sp[42]
	}
	{
		nop
		ldw r9, sp[43]
	}
	{
		nop
		ldw r6, sp[40]
	}
	{
		nop
		ldw r7, sp[41]
	}
	{
		nop
		ldw r4, sp[38]
	}
	{
		nop
		ldw r5, sp[39]
	}
	{
		nop
		retsp 46
	}
	# RETURN_REG_HOLDER
	.cc_bottom adatReceiver44100.function
	.set	adatReceiver44100.nstackwords,(__memcpy_4.nstackwords + 46)
	.globl	adatReceiver44100.nstackwords
	.set	adatReceiver44100.maxcores,1
	.globl	adatReceiver44100.maxcores
	.set	adatReceiver44100.maxtimers,0
	.globl	adatReceiver44100.maxtimers
	.set	adatReceiver44100.maxchanends,0
	.globl	adatReceiver44100.maxchanends
.Ltmp865:
	.size	adatReceiver44100, .Ltmp865-adatReceiver44100
.Lfunc_end1:
	.cfi_endproc

	.section	.cp.rodata.4,"ac",@progbits
	.cc_top adatReceiver48000.0.init.data,adatReceiver48000.0.init
	.align	4
	.type	adatReceiver48000.0.init,@object
	.size	adatReceiver48000.0.init, 64
adatReceiver48000.0.init:
	.long	8                       # 0x8
	.long	9                       # 0x9
	.long	12                      # 0xc
	.long	13                      # 0xd
	.long	7                       # 0x7
	.long	6                       # 0x6
	.long	3                       # 0x3
	.long	2                       # 0x2
	.long	10                      # 0xa
	.long	11                      # 0xb
	.long	14                      # 0xe
	.long	15                      # 0xf
	.long	5                       # 0x5
	.long	4                       # 0x4
	.long	1                       # 0x1
	.long	0                       # 0x0
	.cc_bottom adatReceiver48000.0.init.data
	.cc_top adatReceiver44100.2.init.data,adatReceiver44100.2.init
	.align	4
	.type	adatReceiver44100.2.init,@object
	.size	adatReceiver44100.2.init, 64
adatReceiver44100.2.init:
	.long	8                       # 0x8
	.long	12                      # 0xc
	.long	10                      # 0xa
	.long	14                      # 0xe
	.long	9                       # 0x9
	.long	13                      # 0xd
	.long	11                      # 0xb
	.long	15                      # 0xf
	.long	7                       # 0x7
	.long	3                       # 0x3
	.long	5                       # 0x5
	.long	1                       # 0x1
	.long	6                       # 0x6
	.long	2                       # 0x2
	.long	4                       # 0x4
	.long	0                       # 0x0
	.cc_bottom adatReceiver44100.2.init.data
	.cc_top adatReceiver44100.3.init.data,adatReceiver44100.3.init
	.align	4
	.type	adatReceiver44100.3.init,@object
	.size	adatReceiver44100.3.init, 128
adatReceiver44100.3.init:
	.long	0                       # 0x0
	.long	8                       # 0x8
	.long	12                      # 0xc
	.long	4                       # 0x4
	.long	6                       # 0x6
	.long	14                      # 0xe
	.long	10                      # 0xa
	.long	2                       # 0x2
	.long	3                       # 0x3
	.long	11                      # 0xb
	.long	15                      # 0xf
	.long	7                       # 0x7
	.long	5                       # 0x5
	.long	13                      # 0xd
	.long	9                       # 0x9
	.long	1                       # 0x1
	.long	1                       # 0x1
	.long	9                       # 0x9
	.long	13                      # 0xd
	.long	5                       # 0x5
	.long	7                       # 0x7
	.long	15                      # 0xf
	.long	11                      # 0xb
	.long	3                       # 0x3
	.long	2                       # 0x2
	.long	10                      # 0xa
	.long	14                      # 0xe
	.long	6                       # 0x6
	.long	4                       # 0x4
	.long	12                      # 0xc
	.long	8                       # 0x8
	.long	0                       # 0x0
	.cc_bottom adatReceiver44100.3.init.data
	.text
.Ldebug_end0:
	.file	2 "/Applications/XMOS_xTIMEcomposer_Community_14.3.3/target/include/timer.h"
	.section	.xtaendpointtable,"",@progbits
.Lentries_start0:
	.long	.Lentries_end1-.Lentries_start0
	.long	0
	.ascii	"/Users/rkn/Documents/xTIMEcomposer/workspace/app_usb_aud_xk_216_mc/.build_2i32o32xxxxx_tdm8"
	.byte	0
.cc_top cc_0,.Lxta.endpoint_labels0
	.ascii	"/Users/rkn/Documents/xTIMEcomposer/workspace/module_adat_rx/src/adatReceiver-100.h"
	.byte	0
	.long	24
	.long	.Lxta.endpoint_labels0
.cc_bottom cc_0
.cc_top cc_1,.Lxta.endpoint_labels1
	.ascii	"/Users/rkn/Documents/xTIMEcomposer/workspace/module_adat_rx/src/adatReceiver-100.h"
	.byte	0
	.long	28
	.long	.Lxta.endpoint_labels1
.cc_bottom cc_1
.cc_top cc_2,.Lxta.endpoint_labels2
	.ascii	"/Users/rkn/Documents/xTIMEcomposer/workspace/module_adat_rx/src/adatReceiver-100.h"
	.byte	0
	.long	29
	.long	.Lxta.endpoint_labels2
.cc_bottom cc_2
.cc_top cc_3,.Lxta.endpoint_labels3
	.ascii	"/Users/rkn/Documents/xTIMEcomposer/workspace/module_adat_rx/src/adatReceiver-100.h"
	.byte	0
	.long	34
	.long	.Lxta.endpoint_labels3
.cc_bottom cc_3
.cc_top cc_4,.Lxta.endpoint_labels4
	.ascii	"/Users/rkn/Documents/xTIMEcomposer/workspace/module_adat_rx/src/adatReceiver-100.h"
	.byte	0
	.long	40
	.long	.Lxta.endpoint_labels4
.cc_bottom cc_4
.cc_top cc_5,.Lxta.endpoint_labels5
	.ascii	"/Users/rkn/Documents/xTIMEcomposer/workspace/module_adat_rx/src/adatReceiver-100.h"
	.byte	0
	.long	41
	.long	.Lxta.endpoint_labels5
.cc_bottom cc_5
.cc_top cc_6,.Lxta.endpoint_labels6
	.ascii	"/Users/rkn/Documents/xTIMEcomposer/workspace/module_adat_rx/src/adatReceiver-100.h"
	.byte	0
	.long	48
	.long	.Lxta.endpoint_labels6
.cc_bottom cc_6
.cc_top cc_7,.Lxta.endpoint_labels7
	.ascii	"/Users/rkn/Documents/xTIMEcomposer/workspace/module_adat_rx/src/adatReceiver-100.h"
	.byte	0
	.long	55
	.long	.Lxta.endpoint_labels7
.cc_bottom cc_7
.cc_top cc_8,.Lxta.endpoint_labels8
	.ascii	"/Users/rkn/Documents/xTIMEcomposer/workspace/module_adat_rx/src/adatReceiver-100.h"
	.byte	0
	.long	62
	.long	.Lxta.endpoint_labels8
.cc_bottom cc_8
.cc_top cc_9,.Lxta.endpoint_labels9
	.ascii	"/Users/rkn/Documents/xTIMEcomposer/workspace/module_adat_rx/src/adatReceiver-100.h"
	.byte	0
	.long	67
	.long	.Lxta.endpoint_labels9
.cc_bottom cc_9
.cc_top cc_10,.Lxta.endpoint_labels10
	.ascii	"/Users/rkn/Documents/xTIMEcomposer/workspace/module_adat_rx/src/adatReceiver-100.h"
	.byte	0
	.long	74
	.long	.Lxta.endpoint_labels10
.cc_bottom cc_10
.cc_top cc_11,.Lxta.endpoint_labels11
	.ascii	"/Users/rkn/Documents/xTIMEcomposer/workspace/module_adat_rx/src/adatReceiver-100.h"
	.byte	0
	.long	81
	.long	.Lxta.endpoint_labels11
.cc_bottom cc_11
.cc_top cc_12,.Lxta.endpoint_labels12
	.ascii	"/Users/rkn/Documents/xTIMEcomposer/workspace/module_adat_rx/src/adatReceiver-100.h"
	.byte	0
	.long	88
	.long	.Lxta.endpoint_labels12
.cc_bottom cc_12
.cc_top cc_13,.Lxta.endpoint_labels13
	.ascii	"/Users/rkn/Documents/xTIMEcomposer/workspace/module_adat_rx/src/adatReceiver-100.h"
	.byte	0
	.long	89
	.long	.Lxta.endpoint_labels13
.cc_bottom cc_13
.cc_top cc_14,.Lxta.endpoint_labels14
	.ascii	"/Users/rkn/Documents/xTIMEcomposer/workspace/module_adat_rx/src/adatReceiver-100.h"
	.byte	0
	.long	95
	.long	.Lxta.endpoint_labels14
.cc_bottom cc_14
.cc_top cc_15,.Lxta.endpoint_labels15
	.ascii	"/Users/rkn/Documents/xTIMEcomposer/workspace/module_adat_rx/src/adatReceiver-100.h"
	.byte	0
	.long	102
	.long	.Lxta.endpoint_labels15
.cc_bottom cc_15
.cc_top cc_16,.Lxta.endpoint_labels16
	.ascii	"/Users/rkn/Documents/xTIMEcomposer/workspace/module_adat_rx/src/adatReceiver-100.h"
	.byte	0
	.long	109
	.long	.Lxta.endpoint_labels16
.cc_bottom cc_16
.cc_top cc_17,.Lxta.endpoint_labels17
	.ascii	"/Users/rkn/Documents/xTIMEcomposer/workspace/module_adat_rx/src/adatReceiver-100.h"
	.byte	0
	.long	116
	.long	.Lxta.endpoint_labels17
.cc_bottom cc_17
.cc_top cc_18,.Lxta.endpoint_labels18
	.ascii	"/Users/rkn/Documents/xTIMEcomposer/workspace/module_adat_rx/src/adatReceiver-100.h"
	.byte	0
	.long	123
	.long	.Lxta.endpoint_labels18
.cc_bottom cc_18
.cc_top cc_19,.Lxta.endpoint_labels19
	.ascii	"/Users/rkn/Documents/xTIMEcomposer/workspace/module_adat_rx/src/adatReceiver-100.h"
	.byte	0
	.long	128
	.long	.Lxta.endpoint_labels19
.cc_bottom cc_19
.cc_top cc_20,.Lxta.endpoint_labels20
	.ascii	"/Users/rkn/Documents/xTIMEcomposer/workspace/module_adat_rx/src/adatReceiver-100.h"
	.byte	0
	.long	135
	.long	.Lxta.endpoint_labels20
.cc_bottom cc_20
.cc_top cc_21,.Lxta.endpoint_labels21
	.ascii	"/Users/rkn/Documents/xTIMEcomposer/workspace/module_adat_rx/src/adatReceiver-100.h"
	.byte	0
	.long	142
	.long	.Lxta.endpoint_labels21
.cc_bottom cc_21
.cc_top cc_22,.Lxta.endpoint_labels22
	.ascii	"/Users/rkn/Documents/xTIMEcomposer/workspace/module_adat_rx/src/adatReceiver-100.h"
	.byte	0
	.long	143
	.long	.Lxta.endpoint_labels22
.cc_bottom cc_22
.cc_top cc_23,.Lxta.endpoint_labels23
	.ascii	"/Users/rkn/Documents/xTIMEcomposer/workspace/module_adat_rx/src/adatReceiver-100.h"
	.byte	0
	.long	150
	.long	.Lxta.endpoint_labels23
.cc_bottom cc_23
.cc_top cc_24,.Lxta.endpoint_labels24
	.ascii	"/Users/rkn/Documents/xTIMEcomposer/workspace/module_adat_rx/src/adatReceiver-100.h"
	.byte	0
	.long	157
	.long	.Lxta.endpoint_labels24
.cc_bottom cc_24
.cc_top cc_25,.Lxta.endpoint_labels25
	.ascii	"/Users/rkn/Documents/xTIMEcomposer/workspace/module_adat_rx/src/adatReceiver-100.h"
	.byte	0
	.long	162
	.long	.Lxta.endpoint_labels25
.cc_bottom cc_25
.cc_top cc_26,.Lxta.endpoint_labels26
	.ascii	"/Users/rkn/Documents/xTIMEcomposer/workspace/module_adat_rx/src/adatReceiver-100.h"
	.byte	0
	.long	169
	.long	.Lxta.endpoint_labels26
.cc_bottom cc_26
.cc_top cc_27,.Lxta.endpoint_labels27
	.ascii	"/Users/rkn/Documents/xTIMEcomposer/workspace/module_adat_rx/src/adatReceiver-100.h"
	.byte	0
	.long	176
	.long	.Lxta.endpoint_labels27
.cc_bottom cc_27
.cc_top cc_28,.Lxta.endpoint_labels28
	.ascii	"/Users/rkn/Documents/xTIMEcomposer/workspace/module_adat_rx/src/adatReceiver-100.h"
	.byte	0
	.long	183
	.long	.Lxta.endpoint_labels28
.cc_bottom cc_28
.cc_top cc_29,.Lxta.endpoint_labels29
	.ascii	"/Users/rkn/Documents/xTIMEcomposer/workspace/module_adat_rx/src/adatReceiver-100.h"
	.byte	0
	.long	190
	.long	.Lxta.endpoint_labels29
.cc_bottom cc_29
.cc_top cc_30,.Lxta.endpoint_labels30
	.ascii	"/Users/rkn/Documents/xTIMEcomposer/workspace/module_adat_rx/src/adatReceiver-100.h"
	.byte	0
	.long	191
	.long	.Lxta.endpoint_labels30
.cc_bottom cc_30
.cc_top cc_31,.Lxta.endpoint_labels31
	.ascii	"/Users/rkn/Documents/xTIMEcomposer/workspace/module_adat_rx/src/adatReceiver-100.h"
	.byte	0
	.long	197
	.long	.Lxta.endpoint_labels31
.cc_bottom cc_31
.cc_top cc_32,.Lxta.endpoint_labels32
	.ascii	"/Users/rkn/Documents/xTIMEcomposer/workspace/module_adat_rx/src/adatReceiver-100.h"
	.byte	0
	.long	204
	.long	.Lxta.endpoint_labels32
.cc_bottom cc_32
.cc_top cc_33,.Lxta.endpoint_labels33
	.ascii	"/Users/rkn/Documents/xTIMEcomposer/workspace/module_adat_rx/src/adatReceiver-100.h"
	.byte	0
	.long	211
	.long	.Lxta.endpoint_labels33
.cc_bottom cc_33
.cc_top cc_34,.Lxta.endpoint_labels34
	.ascii	"/Users/rkn/Documents/xTIMEcomposer/workspace/module_adat_rx/src/adatReceiver-100.h"
	.byte	0
	.long	218
	.long	.Lxta.endpoint_labels34
.cc_bottom cc_34
.cc_top cc_35,.Lxta.endpoint_labels35
	.ascii	"/Users/rkn/Documents/xTIMEcomposer/workspace/module_adat_rx/src/adatReceiver-100.h"
	.byte	0
	.long	223
	.long	.Lxta.endpoint_labels35
.cc_bottom cc_35
.cc_top cc_36,.Lxta.endpoint_labels36
	.ascii	"/Users/rkn/Documents/xTIMEcomposer/workspace/module_adat_rx/src/adatReceiver-100.h"
	.byte	0
	.long	230
	.long	.Lxta.endpoint_labels36
.cc_bottom cc_36
.cc_top cc_37,.Lxta.endpoint_labels37
	.ascii	"/Users/rkn/Documents/xTIMEcomposer/workspace/module_adat_rx/src/adatReceiver-100.h"
	.byte	0
	.long	237
	.long	.Lxta.endpoint_labels37
.cc_bottom cc_37
.cc_top cc_38,.Lxta.endpoint_labels38
	.ascii	"/Users/rkn/Documents/xTIMEcomposer/workspace/module_adat_rx/src/adatReceiver-100.h"
	.byte	0
	.long	244
	.long	.Lxta.endpoint_labels38
.cc_bottom cc_38
.cc_top cc_39,.Lxta.endpoint_labels39
	.ascii	"/Users/rkn/Documents/xTIMEcomposer/workspace/module_adat_rx/src/adatReceiver-100.h"
	.byte	0
	.long	245
	.long	.Lxta.endpoint_labels39
.cc_bottom cc_39
.cc_top cc_40,.Lxta.endpoint_labels40
	.ascii	"/Users/rkn/Documents/xTIMEcomposer/workspace/module_adat_rx/src/adatReceiver-100.h"
	.byte	0
	.long	252
	.long	.Lxta.endpoint_labels40
.cc_bottom cc_40
.cc_top cc_41,.Lxta.endpoint_labels41
	.ascii	"/Users/rkn/Documents/xTIMEcomposer/workspace/module_adat_rx/src/adatReceiver-100.h"
	.byte	0
	.long	257
	.long	.Lxta.endpoint_labels41
.cc_bottom cc_41
.cc_top cc_42,.Lxta.endpoint_labels42
	.ascii	"/Users/rkn/Documents/xTIMEcomposer/workspace/module_adat_rx/src/adatReceiver-100.h"
	.byte	0
	.long	264
	.long	.Lxta.endpoint_labels42
.cc_bottom cc_42
.cc_top cc_43,.Lxta.endpoint_labels43
	.ascii	"/Users/rkn/Documents/xTIMEcomposer/workspace/module_adat_rx/src/adatReceiver-100.h"
	.byte	0
	.long	271
	.long	.Lxta.endpoint_labels43
.cc_bottom cc_43
.cc_top cc_44,.Lxta.endpoint_labels44
	.ascii	"/Users/rkn/Documents/xTIMEcomposer/workspace/module_adat_rx/src/adatReceiver-100.h"
	.byte	0
	.long	278
	.long	.Lxta.endpoint_labels44
.cc_bottom cc_44
.cc_top cc_45,.Lxta.endpoint_labels45
	.ascii	"/Users/rkn/Documents/xTIMEcomposer/workspace/module_adat_rx/src/adatReceiver-100.h"
	.byte	0
	.long	285
	.long	.Lxta.endpoint_labels45
.cc_bottom cc_45
.cc_top cc_46,.Lxta.endpoint_labels46
	.ascii	"/Users/rkn/Documents/xTIMEcomposer/workspace/module_adat_rx/src/adatReceiver-100.h"
	.byte	0
	.long	290
	.long	.Lxta.endpoint_labels46
.cc_bottom cc_46
.cc_top cc_47,.Lxta.endpoint_labels47
	.ascii	"/Users/rkn/Documents/xTIMEcomposer/workspace/module_adat_rx/src/adatReceiver-100.h"
	.byte	0
	.long	298
	.long	.Lxta.endpoint_labels47
.cc_bottom cc_47
.cc_top cc_48,.Lxta.endpoint_labels48
	.ascii	"/Users/rkn/Documents/xTIMEcomposer/workspace/module_adat_rx/src/adatReceiver-100.h"
	.byte	0
	.long	299
	.long	.Lxta.endpoint_labels48
.cc_bottom cc_48
.cc_top cc_49,.Lxta.endpoint_labels49
	.ascii	"/Users/rkn/Documents/xTIMEcomposer/workspace/module_adat_rx/src/adatReceiver-100.h"
	.byte	0
	.long	306
	.long	.Lxta.endpoint_labels49
.cc_bottom cc_49
.cc_top cc_50,.Lxta.endpoint_labels50
	.ascii	"/Users/rkn/Documents/xTIMEcomposer/workspace/module_adat_rx/src/adatReceiver-100.h"
	.byte	0
	.long	313
	.long	.Lxta.endpoint_labels50
.cc_bottom cc_50
.cc_top cc_51,.Lxta.endpoint_labels51
	.ascii	"/Users/rkn/Documents/xTIMEcomposer/workspace/module_adat_rx/src/adatReceiver-100.h"
	.byte	0
	.long	318
	.long	.Lxta.endpoint_labels51
.cc_bottom cc_51
.cc_top cc_52,.Lxta.endpoint_labels52
	.ascii	"/Users/rkn/Documents/xTIMEcomposer/workspace/module_adat_rx/src/adatReceiver-100.h"
	.byte	0
	.long	325
	.long	.Lxta.endpoint_labels52
.cc_bottom cc_52
.cc_top cc_53,.Lxta.endpoint_labels53
	.ascii	"/Users/rkn/Documents/xTIMEcomposer/workspace/module_adat_rx/src/adatReceiver-100.h"
	.byte	0
	.long	332
	.long	.Lxta.endpoint_labels53
.cc_bottom cc_53
.cc_top cc_54,.Lxta.endpoint_labels54
	.ascii	"/Users/rkn/Documents/xTIMEcomposer/workspace/module_adat_rx/src/adatReceiver-100.h"
	.byte	0
	.long	339
	.long	.Lxta.endpoint_labels54
.cc_bottom cc_54
.cc_top cc_55,.Lxta.endpoint_labels55
	.ascii	"/Users/rkn/Documents/xTIMEcomposer/workspace/module_adat_rx/src/adatReceiver-100.h"
	.byte	0
	.long	346
	.long	.Lxta.endpoint_labels55
.cc_bottom cc_55
.cc_top cc_56,.Lxta.endpoint_labels56
	.ascii	"/Users/rkn/Documents/xTIMEcomposer/workspace/module_adat_rx/src/adatReceiver-100.h"
	.byte	0
	.long	347
	.long	.Lxta.endpoint_labels56
.cc_bottom cc_56
.cc_top cc_57,.Lxta.endpoint_labels57
	.ascii	"/Users/rkn/Documents/xTIMEcomposer/workspace/module_adat_rx/src/adatReceiver-100.h"
	.byte	0
	.long	352
	.long	.Lxta.endpoint_labels57
.cc_bottom cc_57
.cc_top cc_58,.Lxta.endpoint_labels58
	.ascii	"/Users/rkn/Documents/xTIMEcomposer/workspace/module_adat_rx/src/adatReceiver-100.h"
	.byte	0
	.long	359
	.long	.Lxta.endpoint_labels58
.cc_bottom cc_58
.cc_top cc_59,.Lxta.endpoint_labels59
	.ascii	"/Users/rkn/Documents/xTIMEcomposer/workspace/module_adat_rx/src/adatReceiver-100.h"
	.byte	0
	.long	366
	.long	.Lxta.endpoint_labels59
.cc_bottom cc_59
.cc_top cc_60,.Lxta.endpoint_labels60
	.ascii	"/Users/rkn/Documents/xTIMEcomposer/workspace/module_adat_rx/src/adatReceiver-100.h"
	.byte	0
	.long	373
	.long	.Lxta.endpoint_labels60
.cc_bottom cc_60
.cc_top cc_61,.Lxta.endpoint_labels61
	.ascii	"/Users/rkn/Documents/xTIMEcomposer/workspace/module_adat_rx/src/adatReceiver-100.h"
	.byte	0
	.long	380
	.long	.Lxta.endpoint_labels61
.cc_bottom cc_61
.cc_top cc_62,.Lxta.endpoint_labels62
	.ascii	"/Users/rkn/Documents/xTIMEcomposer/workspace/module_adat_rx/src/adatReceiver-100.h"
	.byte	0
	.long	385
	.long	.Lxta.endpoint_labels62
.cc_bottom cc_62
.cc_top cc_63,.Lxta.endpoint_labels63
	.ascii	"/Users/rkn/Documents/xTIMEcomposer/workspace/module_adat_rx/src/adatReceiver-100.h"
	.byte	0
	.long	393
	.long	.Lxta.endpoint_labels63
.cc_bottom cc_63
.cc_top cc_64,.Lxta.endpoint_labels64
	.ascii	"/Users/rkn/Documents/xTIMEcomposer/workspace/module_adat_rx/src/adatReceiver-100.h"
	.byte	0
	.long	400
	.long	.Lxta.endpoint_labels64
.cc_bottom cc_64
.cc_top cc_65,.Lxta.endpoint_labels65
	.ascii	"/Users/rkn/Documents/xTIMEcomposer/workspace/module_adat_rx/src/adatReceiver-100.h"
	.byte	0
	.long	401
	.long	.Lxta.endpoint_labels65
.cc_bottom cc_65
.cc_top cc_66,.Lxta.endpoint_labels66
	.ascii	"/Users/rkn/Documents/xTIMEcomposer/workspace/module_adat_rx/src/adatReceiver-100.h"
	.byte	0
	.long	408
	.long	.Lxta.endpoint_labels66
.cc_bottom cc_66
.cc_top cc_67,.Lxta.endpoint_labels67
	.ascii	"/Users/rkn/Documents/xTIMEcomposer/workspace/module_adat_rx/src/adatReceiver-100.h"
	.byte	0
	.long	413
	.long	.Lxta.endpoint_labels67
.cc_bottom cc_67
.cc_top cc_68,.Lxta.endpoint_labels68
	.ascii	"/Users/rkn/Documents/xTIMEcomposer/workspace/module_adat_rx/src/adatReceiver-100.h"
	.byte	0
	.long	420
	.long	.Lxta.endpoint_labels68
.cc_bottom cc_68
.cc_top cc_69,.Lxta.endpoint_labels69
	.ascii	"/Users/rkn/Documents/xTIMEcomposer/workspace/module_adat_rx/src/adatReceiver-100.h"
	.byte	0
	.long	427
	.long	.Lxta.endpoint_labels69
.cc_bottom cc_69
.cc_top cc_70,.Lxta.endpoint_labels70
	.ascii	"/Users/rkn/Documents/xTIMEcomposer/workspace/module_adat_rx/src/adatReceiver-100.h"
	.byte	0
	.long	434
	.long	.Lxta.endpoint_labels70
.cc_bottom cc_70
.cc_top cc_71,.Lxta.endpoint_labels71
	.ascii	"/Users/rkn/Documents/xTIMEcomposer/workspace/module_adat_rx/src/adatReceiver-100.h"
	.byte	0
	.long	441
	.long	.Lxta.endpoint_labels71
.cc_bottom cc_71
.cc_top cc_72,.Lxta.endpoint_labels72
	.ascii	"/Users/rkn/Documents/xTIMEcomposer/workspace/module_adat_rx/src/adatReceiver-100.h"
	.byte	0
	.long	446
	.long	.Lxta.endpoint_labels72
.cc_bottom cc_72
.cc_top cc_73,.Lxta.endpoint_labels73
	.ascii	"/Users/rkn/Documents/xTIMEcomposer/workspace/module_adat_rx/src/adatReceiver-100.h"
	.byte	0
	.long	453
	.long	.Lxta.endpoint_labels73
.cc_bottom cc_73
.cc_top cc_74,.Lxta.endpoint_labels74
	.ascii	"/Users/rkn/Documents/xTIMEcomposer/workspace/module_adat_rx/src/adatReceiver-100.h"
	.byte	0
	.long	454
	.long	.Lxta.endpoint_labels74
.cc_bottom cc_74
.cc_top cc_75,.Lxta.endpoint_labels75
	.ascii	"/Users/rkn/Documents/xTIMEcomposer/workspace/module_adat_rx/src/adatReceiver-100.h"
	.byte	0
	.long	477
	.long	.Lxta.endpoint_labels75
.cc_bottom cc_75
.cc_top cc_76,.Lxta.endpoint_labels76
	.ascii	"/Users/rkn/Documents/xTIMEcomposer/workspace/module_adat_rx/src/adatReceiver-100.h"
	.byte	0
	.long	481
	.long	.Lxta.endpoint_labels76
.cc_bottom cc_76
.cc_top cc_77,.Lxta.endpoint_labels77
	.ascii	"/Users/rkn/Documents/xTIMEcomposer/workspace/module_adat_rx/src/adatReceiver-100.h"
	.byte	0
	.long	482
	.long	.Lxta.endpoint_labels77
.cc_bottom cc_77
.cc_top cc_78,.Lxta.endpoint_labels78
	.ascii	"/Users/rkn/Documents/xTIMEcomposer/workspace/module_adat_rx/src/adatReceiver-100.h"
	.byte	0
	.long	487
	.long	.Lxta.endpoint_labels78
.cc_bottom cc_78
.cc_top cc_79,.Lxta.endpoint_labels79
	.ascii	"/Users/rkn/Documents/xTIMEcomposer/workspace/module_adat_rx/src/adatReceiver-100.h"
	.byte	0
	.long	494
	.long	.Lxta.endpoint_labels79
.cc_bottom cc_79
.cc_top cc_80,.Lxta.endpoint_labels80
	.ascii	"/Users/rkn/Documents/xTIMEcomposer/workspace/module_adat_rx/src/adatReceiver-100.h"
	.byte	0
	.long	495
	.long	.Lxta.endpoint_labels80
.cc_bottom cc_80
.cc_top cc_81,.Lxta.endpoint_labels81
	.ascii	"/Users/rkn/Documents/xTIMEcomposer/workspace/module_adat_rx/src/adatReceiver-100.h"
	.byte	0
	.long	502
	.long	.Lxta.endpoint_labels81
.cc_bottom cc_81
.cc_top cc_82,.Lxta.endpoint_labels82
	.ascii	"/Users/rkn/Documents/xTIMEcomposer/workspace/module_adat_rx/src/adatReceiver-100.h"
	.byte	0
	.long	509
	.long	.Lxta.endpoint_labels82
.cc_bottom cc_82
.cc_top cc_83,.Lxta.endpoint_labels83
	.ascii	"/Users/rkn/Documents/xTIMEcomposer/workspace/module_adat_rx/src/adatReceiver-100.h"
	.byte	0
	.long	515
	.long	.Lxta.endpoint_labels83
.cc_bottom cc_83
.cc_top cc_84,.Lxta.endpoint_labels84
	.ascii	"/Users/rkn/Documents/xTIMEcomposer/workspace/module_adat_rx/src/adatReceiver-100.h"
	.byte	0
	.long	522
	.long	.Lxta.endpoint_labels84
.cc_bottom cc_84
.cc_top cc_85,.Lxta.endpoint_labels85
	.ascii	"/Users/rkn/Documents/xTIMEcomposer/workspace/module_adat_rx/src/adatReceiver-100.h"
	.byte	0
	.long	530
	.long	.Lxta.endpoint_labels85
.cc_bottom cc_85
.cc_top cc_86,.Lxta.endpoint_labels86
	.ascii	"/Users/rkn/Documents/xTIMEcomposer/workspace/module_adat_rx/src/adatReceiver-100.h"
	.byte	0
	.long	535
	.long	.Lxta.endpoint_labels86
.cc_bottom cc_86
.cc_top cc_87,.Lxta.endpoint_labels87
	.ascii	"/Users/rkn/Documents/xTIMEcomposer/workspace/module_adat_rx/src/adatReceiver-100.h"
	.byte	0
	.long	542
	.long	.Lxta.endpoint_labels87
.cc_bottom cc_87
.cc_top cc_88,.Lxta.endpoint_labels88
	.ascii	"/Users/rkn/Documents/xTIMEcomposer/workspace/module_adat_rx/src/adatReceiver-100.h"
	.byte	0
	.long	550
	.long	.Lxta.endpoint_labels88
.cc_bottom cc_88
.cc_top cc_89,.Lxta.endpoint_labels89
	.ascii	"/Users/rkn/Documents/xTIMEcomposer/workspace/module_adat_rx/src/adatReceiver-100.h"
	.byte	0
	.long	551
	.long	.Lxta.endpoint_labels89
.cc_bottom cc_89
.cc_top cc_90,.Lxta.endpoint_labels90
	.ascii	"/Users/rkn/Documents/xTIMEcomposer/workspace/module_adat_rx/src/adatReceiver-100.h"
	.byte	0
	.long	558
	.long	.Lxta.endpoint_labels90
.cc_bottom cc_90
.cc_top cc_91,.Lxta.endpoint_labels91
	.ascii	"/Users/rkn/Documents/xTIMEcomposer/workspace/module_adat_rx/src/adatReceiver-100.h"
	.byte	0
	.long	564
	.long	.Lxta.endpoint_labels91
.cc_bottom cc_91
.cc_top cc_92,.Lxta.endpoint_labels92
	.ascii	"/Users/rkn/Documents/xTIMEcomposer/workspace/module_adat_rx/src/adatReceiver-100.h"
	.byte	0
	.long	571
	.long	.Lxta.endpoint_labels92
.cc_bottom cc_92
.cc_top cc_93,.Lxta.endpoint_labels93
	.ascii	"/Users/rkn/Documents/xTIMEcomposer/workspace/module_adat_rx/src/adatReceiver-100.h"
	.byte	0
	.long	578
	.long	.Lxta.endpoint_labels93
.cc_bottom cc_93
.cc_top cc_94,.Lxta.endpoint_labels94
	.ascii	"/Users/rkn/Documents/xTIMEcomposer/workspace/module_adat_rx/src/adatReceiver-100.h"
	.byte	0
	.long	584
	.long	.Lxta.endpoint_labels94
.cc_bottom cc_94
.cc_top cc_95,.Lxta.endpoint_labels95
	.ascii	"/Users/rkn/Documents/xTIMEcomposer/workspace/module_adat_rx/src/adatReceiver-100.h"
	.byte	0
	.long	591
	.long	.Lxta.endpoint_labels95
.cc_bottom cc_95
.cc_top cc_96,.Lxta.endpoint_labels96
	.ascii	"/Users/rkn/Documents/xTIMEcomposer/workspace/module_adat_rx/src/adatReceiver-100.h"
	.byte	0
	.long	598
	.long	.Lxta.endpoint_labels96
.cc_bottom cc_96
.cc_top cc_97,.Lxta.endpoint_labels97
	.ascii	"/Users/rkn/Documents/xTIMEcomposer/workspace/module_adat_rx/src/adatReceiver-100.h"
	.byte	0
	.long	606
	.long	.Lxta.endpoint_labels97
.cc_bottom cc_97
.cc_top cc_98,.Lxta.endpoint_labels98
	.ascii	"/Users/rkn/Documents/xTIMEcomposer/workspace/module_adat_rx/src/adatReceiver-100.h"
	.byte	0
	.long	607
	.long	.Lxta.endpoint_labels98
.cc_bottom cc_98
.cc_top cc_99,.Lxta.endpoint_labels99
	.ascii	"/Users/rkn/Documents/xTIMEcomposer/workspace/module_adat_rx/src/adatReceiver-100.h"
	.byte	0
	.long	612
	.long	.Lxta.endpoint_labels99
.cc_bottom cc_99
.cc_top cc_100,.Lxta.endpoint_labels100
	.ascii	"/Users/rkn/Documents/xTIMEcomposer/workspace/module_adat_rx/src/adatReceiver-100.h"
	.byte	0
	.long	620
	.long	.Lxta.endpoint_labels100
.cc_bottom cc_100
.cc_top cc_101,.Lxta.endpoint_labels101
	.ascii	"/Users/rkn/Documents/xTIMEcomposer/workspace/module_adat_rx/src/adatReceiver-100.h"
	.byte	0
	.long	627
	.long	.Lxta.endpoint_labels101
.cc_bottom cc_101
.cc_top cc_102,.Lxta.endpoint_labels102
	.ascii	"/Users/rkn/Documents/xTIMEcomposer/workspace/module_adat_rx/src/adatReceiver-100.h"
	.byte	0
	.long	634
	.long	.Lxta.endpoint_labels102
.cc_bottom cc_102
.cc_top cc_103,.Lxta.endpoint_labels103
	.ascii	"/Users/rkn/Documents/xTIMEcomposer/workspace/module_adat_rx/src/adatReceiver-100.h"
	.byte	0
	.long	640
	.long	.Lxta.endpoint_labels103
.cc_bottom cc_103
.cc_top cc_104,.Lxta.endpoint_labels104
	.ascii	"/Users/rkn/Documents/xTIMEcomposer/workspace/module_adat_rx/src/adatReceiver-100.h"
	.byte	0
	.long	647
	.long	.Lxta.endpoint_labels104
.cc_bottom cc_104
.cc_top cc_105,.Lxta.endpoint_labels105
	.ascii	"/Users/rkn/Documents/xTIMEcomposer/workspace/module_adat_rx/src/adatReceiver-100.h"
	.byte	0
	.long	655
	.long	.Lxta.endpoint_labels105
.cc_bottom cc_105
.cc_top cc_106,.Lxta.endpoint_labels106
	.ascii	"/Users/rkn/Documents/xTIMEcomposer/workspace/module_adat_rx/src/adatReceiver-100.h"
	.byte	0
	.long	660
	.long	.Lxta.endpoint_labels106
.cc_bottom cc_106
.cc_top cc_107,.Lxta.endpoint_labels107
	.ascii	"/Users/rkn/Documents/xTIMEcomposer/workspace/module_adat_rx/src/adatReceiver-100.h"
	.byte	0
	.long	667
	.long	.Lxta.endpoint_labels107
.cc_bottom cc_107
.cc_top cc_108,.Lxta.endpoint_labels108
	.ascii	"/Users/rkn/Documents/xTIMEcomposer/workspace/module_adat_rx/src/adatReceiver-100.h"
	.byte	0
	.long	668
	.long	.Lxta.endpoint_labels108
.cc_bottom cc_108
.cc_top cc_109,.Lxta.endpoint_labels109
	.ascii	"/Users/rkn/Documents/xTIMEcomposer/workspace/module_adat_rx/src/adatReceiver-100.h"
	.byte	0
	.long	676
	.long	.Lxta.endpoint_labels109
.cc_bottom cc_109
.cc_top cc_110,.Lxta.endpoint_labels110
	.ascii	"/Users/rkn/Documents/xTIMEcomposer/workspace/module_adat_rx/src/adatReceiver-100.h"
	.byte	0
	.long	683
	.long	.Lxta.endpoint_labels110
.cc_bottom cc_110
.cc_top cc_111,.Lxta.endpoint_labels111
	.ascii	"/Users/rkn/Documents/xTIMEcomposer/workspace/module_adat_rx/src/adatReceiver-100.h"
	.byte	0
	.long	688
	.long	.Lxta.endpoint_labels111
.cc_bottom cc_111
.cc_top cc_112,.Lxta.endpoint_labels112
	.ascii	"/Users/rkn/Documents/xTIMEcomposer/workspace/module_adat_rx/src/adatReceiver-100.h"
	.byte	0
	.long	696
	.long	.Lxta.endpoint_labels112
.cc_bottom cc_112
.cc_top cc_113,.Lxta.endpoint_labels113
	.ascii	"/Users/rkn/Documents/xTIMEcomposer/workspace/module_adat_rx/src/adatReceiver-100.h"
	.byte	0
	.long	703
	.long	.Lxta.endpoint_labels113
.cc_bottom cc_113
.cc_top cc_114,.Lxta.endpoint_labels114
	.ascii	"/Users/rkn/Documents/xTIMEcomposer/workspace/module_adat_rx/src/adatReceiver-100.h"
	.byte	0
	.long	709
	.long	.Lxta.endpoint_labels114
.cc_bottom cc_114
.cc_top cc_115,.Lxta.endpoint_labels115
	.ascii	"/Users/rkn/Documents/xTIMEcomposer/workspace/module_adat_rx/src/adatReceiver-100.h"
	.byte	0
	.long	716
	.long	.Lxta.endpoint_labels115
.cc_bottom cc_115
.cc_top cc_116,.Lxta.endpoint_labels116
	.ascii	"/Users/rkn/Documents/xTIMEcomposer/workspace/module_adat_rx/src/adatReceiver-100.h"
	.byte	0
	.long	723
	.long	.Lxta.endpoint_labels116
.cc_bottom cc_116
.cc_top cc_117,.Lxta.endpoint_labels117
	.ascii	"/Users/rkn/Documents/xTIMEcomposer/workspace/module_adat_rx/src/adatReceiver-100.h"
	.byte	0
	.long	724
	.long	.Lxta.endpoint_labels117
.cc_bottom cc_117
.cc_top cc_118,.Lxta.endpoint_labels118
	.ascii	"/Users/rkn/Documents/xTIMEcomposer/workspace/module_adat_rx/src/adatReceiver-100.h"
	.byte	0
	.long	732
	.long	.Lxta.endpoint_labels118
.cc_bottom cc_118
.cc_top cc_119,.Lxta.endpoint_labels119
	.ascii	"/Users/rkn/Documents/xTIMEcomposer/workspace/module_adat_rx/src/adatReceiver-100.h"
	.byte	0
	.long	737
	.long	.Lxta.endpoint_labels119
.cc_bottom cc_119
.cc_top cc_120,.Lxta.endpoint_labels120
	.ascii	"/Users/rkn/Documents/xTIMEcomposer/workspace/module_adat_rx/src/adatReceiver-100.h"
	.byte	0
	.long	745
	.long	.Lxta.endpoint_labels120
.cc_bottom cc_120
.cc_top cc_121,.Lxta.endpoint_labels121
	.ascii	"/Users/rkn/Documents/xTIMEcomposer/workspace/module_adat_rx/src/adatReceiver-100.h"
	.byte	0
	.long	752
	.long	.Lxta.endpoint_labels121
.cc_bottom cc_121
.cc_top cc_122,.Lxta.endpoint_labels122
	.ascii	"/Users/rkn/Documents/xTIMEcomposer/workspace/module_adat_rx/src/adatReceiver-100.h"
	.byte	0
	.long	759
	.long	.Lxta.endpoint_labels122
.cc_bottom cc_122
.cc_top cc_123,.Lxta.endpoint_labels123
	.ascii	"/Users/rkn/Documents/xTIMEcomposer/workspace/module_adat_rx/src/adatReceiver-100.h"
	.byte	0
	.long	765
	.long	.Lxta.endpoint_labels123
.cc_bottom cc_123
.cc_top cc_124,.Lxta.endpoint_labels124
	.ascii	"/Users/rkn/Documents/xTIMEcomposer/workspace/module_adat_rx/src/adatReceiver-100.h"
	.byte	0
	.long	772
	.long	.Lxta.endpoint_labels124
.cc_bottom cc_124
.cc_top cc_125,.Lxta.endpoint_labels125
	.ascii	"/Users/rkn/Documents/xTIMEcomposer/workspace/module_adat_rx/src/adatReceiver-100.h"
	.byte	0
	.long	780
	.long	.Lxta.endpoint_labels125
.cc_bottom cc_125
.cc_top cc_126,.Lxta.endpoint_labels126
	.ascii	"/Users/rkn/Documents/xTIMEcomposer/workspace/module_adat_rx/src/adatReceiver-100.h"
	.byte	0
	.long	781
	.long	.Lxta.endpoint_labels126
.cc_bottom cc_126
.cc_top cc_127,.Lxta.endpoint_labels127
	.ascii	"/Users/rkn/Documents/xTIMEcomposer/workspace/module_adat_rx/src/adatReceiver-100.h"
	.byte	0
	.long	786
	.long	.Lxta.endpoint_labels127
.cc_bottom cc_127
.cc_top cc_128,.Lxta.endpoint_labels128
	.ascii	"/Users/rkn/Documents/xTIMEcomposer/workspace/module_adat_rx/src/adatReceiver-100.h"
	.byte	0
	.long	793
	.long	.Lxta.endpoint_labels128
.cc_bottom cc_128
.cc_top cc_129,.Lxta.endpoint_labels129
	.ascii	"/Users/rkn/Documents/xTIMEcomposer/workspace/module_adat_rx/src/adatReceiver-100.h"
	.byte	0
	.long	801
	.long	.Lxta.endpoint_labels129
.cc_bottom cc_129
.cc_top cc_130,.Lxta.endpoint_labels130
	.ascii	"/Users/rkn/Documents/xTIMEcomposer/workspace/module_adat_rx/src/adatReceiver-100.h"
	.byte	0
	.long	808
	.long	.Lxta.endpoint_labels130
.cc_bottom cc_130
.cc_top cc_131,.Lxta.endpoint_labels131
	.ascii	"/Users/rkn/Documents/xTIMEcomposer/workspace/module_adat_rx/src/adatReceiver-100.h"
	.byte	0
	.long	813
	.long	.Lxta.endpoint_labels131
.cc_bottom cc_131
.cc_top cc_132,.Lxta.endpoint_labels132
	.ascii	"/Users/rkn/Documents/xTIMEcomposer/workspace/module_adat_rx/src/adatReceiver-100.h"
	.byte	0
	.long	821
	.long	.Lxta.endpoint_labels132
.cc_bottom cc_132
.cc_top cc_133,.Lxta.endpoint_labels133
	.ascii	"/Users/rkn/Documents/xTIMEcomposer/workspace/module_adat_rx/src/adatReceiver-100.h"
	.byte	0
	.long	828
	.long	.Lxta.endpoint_labels133
.cc_bottom cc_133
.cc_top cc_134,.Lxta.endpoint_labels134
	.ascii	"/Users/rkn/Documents/xTIMEcomposer/workspace/module_adat_rx/src/adatReceiver-100.h"
	.byte	0
	.long	834
	.long	.Lxta.endpoint_labels134
.cc_bottom cc_134
.cc_top cc_135,.Lxta.endpoint_labels135
	.ascii	"/Users/rkn/Documents/xTIMEcomposer/workspace/module_adat_rx/src/adatReceiver-100.h"
	.byte	0
	.long	841
	.long	.Lxta.endpoint_labels135
.cc_bottom cc_135
.cc_top cc_136,.Lxta.endpoint_labels136
	.ascii	"/Users/rkn/Documents/xTIMEcomposer/workspace/module_adat_rx/src/adatReceiver-100.h"
	.byte	0
	.long	842
	.long	.Lxta.endpoint_labels136
.cc_bottom cc_136
.cc_top cc_137,.Lxta.endpoint_labels137
	.ascii	"/Users/rkn/Documents/xTIMEcomposer/workspace/module_adat_rx/src/adatReceiver-100.h"
	.byte	0
	.long	849
	.long	.Lxta.endpoint_labels137
.cc_bottom cc_137
.cc_top cc_138,.Lxta.endpoint_labels138
	.ascii	"/Users/rkn/Documents/xTIMEcomposer/workspace/module_adat_rx/src/adatReceiver-100.h"
	.byte	0
	.long	857
	.long	.Lxta.endpoint_labels138
.cc_bottom cc_138
.cc_top cc_139,.Lxta.endpoint_labels139
	.ascii	"/Users/rkn/Documents/xTIMEcomposer/workspace/module_adat_rx/src/adatReceiver-100.h"
	.byte	0
	.long	862
	.long	.Lxta.endpoint_labels139
.cc_bottom cc_139
.cc_top cc_140,.Lxta.endpoint_labels140
	.ascii	"/Users/rkn/Documents/xTIMEcomposer/workspace/module_adat_rx/src/adatReceiver-100.h"
	.byte	0
	.long	870
	.long	.Lxta.endpoint_labels140
.cc_bottom cc_140
.cc_top cc_141,.Lxta.endpoint_labels141
	.ascii	"/Users/rkn/Documents/xTIMEcomposer/workspace/module_adat_rx/src/adatReceiver-100.h"
	.byte	0
	.long	877
	.long	.Lxta.endpoint_labels141
.cc_bottom cc_141
.cc_top cc_142,.Lxta.endpoint_labels142
	.ascii	"/Users/rkn/Documents/xTIMEcomposer/workspace/module_adat_rx/src/adatReceiver-100.h"
	.byte	0
	.long	884
	.long	.Lxta.endpoint_labels142
.cc_bottom cc_142
.cc_top cc_143,.Lxta.endpoint_labels143
	.ascii	"/Users/rkn/Documents/xTIMEcomposer/workspace/module_adat_rx/src/adatReceiver-100.h"
	.byte	0
	.long	890
	.long	.Lxta.endpoint_labels143
.cc_bottom cc_143
.cc_top cc_144,.Lxta.endpoint_labels144
	.ascii	"/Users/rkn/Documents/xTIMEcomposer/workspace/module_adat_rx/src/adatReceiver-100.h"
	.byte	0
	.long	897
	.long	.Lxta.endpoint_labels144
.cc_bottom cc_144
.cc_top cc_145,.Lxta.endpoint_labels145
	.ascii	"/Users/rkn/Documents/xTIMEcomposer/workspace/module_adat_rx/src/adatReceiver-100.h"
	.byte	0
	.long	898
	.long	.Lxta.endpoint_labels145
.cc_bottom cc_145
.cc_top cc_146,.Lxta.endpoint_labels146
	.ascii	"/Users/rkn/Documents/xTIMEcomposer/workspace/module_adat_rx/src/adatReceiver-100.h"
	.byte	0
	.long	905
	.long	.Lxta.endpoint_labels146
.cc_bottom cc_146
.cc_top cc_147,.Lxta.endpoint_labels147
	.ascii	"/Users/rkn/Documents/xTIMEcomposer/workspace/module_adat_rx/src/adatReceiver-100.h"
	.byte	0
	.long	911
	.long	.Lxta.endpoint_labels147
.cc_bottom cc_147
.cc_top cc_148,.Lxta.endpoint_labels148
	.ascii	"/Users/rkn/Documents/xTIMEcomposer/workspace/module_adat_rx/src/adatReceiver-100.h"
	.byte	0
	.long	918
	.long	.Lxta.endpoint_labels148
.cc_bottom cc_148
.cc_top cc_149,.Lxta.endpoint_labels149
	.ascii	"/Users/rkn/Documents/xTIMEcomposer/workspace/module_adat_rx/src/adatReceiver-100.h"
	.byte	0
	.long	926
	.long	.Lxta.endpoint_labels149
.cc_bottom cc_149
.cc_top cc_150,.Lxta.endpoint_labels150
	.ascii	"/Users/rkn/Documents/xTIMEcomposer/workspace/module_adat_rx/src/adatReceiver-100.h"
	.byte	0
	.long	933
	.long	.Lxta.endpoint_labels150
.cc_bottom cc_150
.cc_top cc_151,.Lxta.endpoint_labels151
	.ascii	"/Users/rkn/Documents/xTIMEcomposer/workspace/module_adat_rx/src/adatReceiver-100.h"
	.byte	0
	.long	938
	.long	.Lxta.endpoint_labels151
.cc_bottom cc_151
.cc_top cc_152,.Lxta.endpoint_labels152
	.ascii	"/Users/rkn/Documents/xTIMEcomposer/workspace/module_adat_rx/src/adatReceiver-100.h"
	.byte	0
	.long	946
	.long	.Lxta.endpoint_labels152
.cc_bottom cc_152
.cc_top cc_153,.Lxta.endpoint_labels153
	.ascii	"/Users/rkn/Documents/xTIMEcomposer/workspace/module_adat_rx/src/adatReceiver-100.h"
	.byte	0
	.long	953
	.long	.Lxta.endpoint_labels153
.cc_bottom cc_153
.cc_top cc_154,.Lxta.endpoint_labels154
	.ascii	"/Users/rkn/Documents/xTIMEcomposer/workspace/module_adat_rx/src/adatReceiver-100.h"
	.byte	0
	.long	954
	.long	.Lxta.endpoint_labels154
.cc_bottom cc_154
.Lentries_end1:
	.section	.xtalabeltable,"",@progbits
.Lentries_start2:
	.long	.Lentries_end3-.Lentries_start2
	.long	0
	.ascii	"/Users/rkn/Documents/xTIMEcomposer/workspace/app_usb_aud_xk_216_mc/.build_2i32o32xxxxx_tdm8"
	.byte	0
.cc_top cc_155,.Lxtalabel0
	.ascii	"/Users/rkn/Documents/xTIMEcomposer/workspace/module_adat_rx/src/adatReceiver-100.h"
	.byte	0
	.long	15
	.long	22
	.long	.Lxtalabel0
.cc_bottom cc_155
.cc_top cc_156,.Lxtalabel1
	.ascii	"/Users/rkn/Documents/xTIMEcomposer/workspace/module_adat_rx/src/adatReceiver-100.h"
	.byte	0
	.long	24
	.long	25
	.long	.Lxtalabel1
.cc_bottom cc_156
.cc_top cc_157,.Lxtalabel2
	.ascii	"/Users/rkn/Documents/xTIMEcomposer/workspace/module_adat_rx/src/adatReceiver-100.h"
	.byte	0
	.long	26
	.long	26
	.long	.Lxtalabel2
.cc_bottom cc_157
.cc_top cc_158,.Lxtalabel3
	.ascii	"/Users/rkn/Documents/xTIMEcomposer/workspace/module_adat_rx/src/adatReceiver-100.h"
	.byte	0
	.long	27
	.long	30
	.long	.Lxtalabel3
.cc_bottom cc_158
.cc_top cc_159,.Lxtalabel3
	.ascii	"/Users/rkn/Documents/xTIMEcomposer/workspace/module_adat_rx/src/adatReceiver-100.h"
	.byte	0
	.long	31
	.long	31
	.long	.Lxtalabel3
.cc_bottom cc_159
.cc_top cc_160,.Lxtalabel3
	.ascii	"/Users/rkn/Documents/xTIMEcomposer/workspace/module_adat_rx/src/adatReceiver-100.h"
	.byte	0
	.long	32
	.long	35
	.long	.Lxtalabel3
.cc_bottom cc_160
.cc_top cc_161,.Lxtalabel3
	.ascii	"/Users/rkn/Documents/xTIMEcomposer/workspace/module_adat_rx/src/adatReceiver-100.h"
	.byte	0
	.long	36
	.long	36
	.long	.Lxtalabel3
.cc_bottom cc_161
.cc_top cc_162,.Lxtalabel3
	.ascii	"/Users/rkn/Documents/xTIMEcomposer/workspace/module_adat_rx/src/adatReceiver-100.h"
	.byte	0
	.long	37
	.long	39
	.long	.Lxtalabel3
.cc_bottom cc_162
.cc_top cc_163,.Lxtalabel3
	.ascii	"/Users/rkn/Documents/xTIMEcomposer/workspace/module_adat_rx/src/adatReceiver-100.h"
	.byte	0
	.long	40
	.long	40
	.long	.Lxtalabel3
.cc_bottom cc_163
.cc_top cc_164,.Lxtalabel3
	.ascii	"/Users/rkn/Documents/xTIMEcomposer/workspace/module_adat_rx/src/adatReceiver-100.h"
	.byte	0
	.long	41
	.long	42
	.long	.Lxtalabel3
.cc_bottom cc_164
.cc_top cc_165,.Lxtalabel3
	.ascii	"/Users/rkn/Documents/xTIMEcomposer/workspace/module_adat_rx/src/adatReceiver-100.h"
	.byte	0
	.long	43
	.long	43
	.long	.Lxtalabel3
.cc_bottom cc_165
.cc_top cc_166,.Lxtalabel3
	.ascii	"/Users/rkn/Documents/xTIMEcomposer/workspace/module_adat_rx/src/adatReceiver-100.h"
	.byte	0
	.long	44
	.long	49
	.long	.Lxtalabel3
.cc_bottom cc_166
.cc_top cc_167,.Lxtalabel3
	.ascii	"/Users/rkn/Documents/xTIMEcomposer/workspace/module_adat_rx/src/adatReceiver-100.h"
	.byte	0
	.long	50
	.long	50
	.long	.Lxtalabel3
.cc_bottom cc_167
.cc_top cc_168,.Lxtalabel3
	.ascii	"/Users/rkn/Documents/xTIMEcomposer/workspace/module_adat_rx/src/adatReceiver-100.h"
	.byte	0
	.long	51
	.long	56
	.long	.Lxtalabel3
.cc_bottom cc_168
.cc_top cc_169,.Lxtalabel3
	.ascii	"/Users/rkn/Documents/xTIMEcomposer/workspace/module_adat_rx/src/adatReceiver-100.h"
	.byte	0
	.long	57
	.long	57
	.long	.Lxtalabel3
.cc_bottom cc_169
.cc_top cc_170,.Lxtalabel3
	.ascii	"/Users/rkn/Documents/xTIMEcomposer/workspace/module_adat_rx/src/adatReceiver-100.h"
	.byte	0
	.long	58
	.long	63
	.long	.Lxtalabel3
.cc_bottom cc_170
.cc_top cc_171,.Lxtalabel3
	.ascii	"/Users/rkn/Documents/xTIMEcomposer/workspace/module_adat_rx/src/adatReceiver-100.h"
	.byte	0
	.long	64
	.long	64
	.long	.Lxtalabel3
.cc_bottom cc_171
.cc_top cc_172,.Lxtalabel3
	.ascii	"/Users/rkn/Documents/xTIMEcomposer/workspace/module_adat_rx/src/adatReceiver-100.h"
	.byte	0
	.long	65
	.long	68
	.long	.Lxtalabel3
.cc_bottom cc_172
.cc_top cc_173,.Lxtalabel3
	.ascii	"/Users/rkn/Documents/xTIMEcomposer/workspace/module_adat_rx/src/adatReceiver-100.h"
	.byte	0
	.long	69
	.long	69
	.long	.Lxtalabel3
.cc_bottom cc_173
.cc_top cc_174,.Lxtalabel3
	.ascii	"/Users/rkn/Documents/xTIMEcomposer/workspace/module_adat_rx/src/adatReceiver-100.h"
	.byte	0
	.long	70
	.long	75
	.long	.Lxtalabel3
.cc_bottom cc_174
.cc_top cc_175,.Lxtalabel3
	.ascii	"/Users/rkn/Documents/xTIMEcomposer/workspace/module_adat_rx/src/adatReceiver-100.h"
	.byte	0
	.long	76
	.long	76
	.long	.Lxtalabel3
.cc_bottom cc_175
.cc_top cc_176,.Lxtalabel3
	.ascii	"/Users/rkn/Documents/xTIMEcomposer/workspace/module_adat_rx/src/adatReceiver-100.h"
	.byte	0
	.long	77
	.long	82
	.long	.Lxtalabel3
.cc_bottom cc_176
.cc_top cc_177,.Lxtalabel3
	.ascii	"/Users/rkn/Documents/xTIMEcomposer/workspace/module_adat_rx/src/adatReceiver-100.h"
	.byte	0
	.long	83
	.long	83
	.long	.Lxtalabel3
.cc_bottom cc_177
.cc_top cc_178,.Lxtalabel3
	.ascii	"/Users/rkn/Documents/xTIMEcomposer/workspace/module_adat_rx/src/adatReceiver-100.h"
	.byte	0
	.long	84
	.long	87
	.long	.Lxtalabel3
.cc_bottom cc_178
.cc_top cc_179,.Lxtalabel3
	.ascii	"/Users/rkn/Documents/xTIMEcomposer/workspace/module_adat_rx/src/adatReceiver-100.h"
	.byte	0
	.long	88
	.long	88
	.long	.Lxtalabel3
.cc_bottom cc_179
.cc_top cc_180,.Lxtalabel3
	.ascii	"/Users/rkn/Documents/xTIMEcomposer/workspace/module_adat_rx/src/adatReceiver-100.h"
	.byte	0
	.long	89
	.long	90
	.long	.Lxtalabel3
.cc_bottom cc_180
.cc_top cc_181,.Lxtalabel3
	.ascii	"/Users/rkn/Documents/xTIMEcomposer/workspace/module_adat_rx/src/adatReceiver-100.h"
	.byte	0
	.long	91
	.long	91
	.long	.Lxtalabel3
.cc_bottom cc_181
.cc_top cc_182,.Lxtalabel3
	.ascii	"/Users/rkn/Documents/xTIMEcomposer/workspace/module_adat_rx/src/adatReceiver-100.h"
	.byte	0
	.long	92
	.long	96
	.long	.Lxtalabel3
.cc_bottom cc_182
.cc_top cc_183,.Lxtalabel3
	.ascii	"/Users/rkn/Documents/xTIMEcomposer/workspace/module_adat_rx/src/adatReceiver-100.h"
	.byte	0
	.long	97
	.long	97
	.long	.Lxtalabel3
.cc_bottom cc_183
.cc_top cc_184,.Lxtalabel3
	.ascii	"/Users/rkn/Documents/xTIMEcomposer/workspace/module_adat_rx/src/adatReceiver-100.h"
	.byte	0
	.long	98
	.long	103
	.long	.Lxtalabel3
.cc_bottom cc_184
.cc_top cc_185,.Lxtalabel3
	.ascii	"/Users/rkn/Documents/xTIMEcomposer/workspace/module_adat_rx/src/adatReceiver-100.h"
	.byte	0
	.long	104
	.long	104
	.long	.Lxtalabel3
.cc_bottom cc_185
.cc_top cc_186,.Lxtalabel3
	.ascii	"/Users/rkn/Documents/xTIMEcomposer/workspace/module_adat_rx/src/adatReceiver-100.h"
	.byte	0
	.long	105
	.long	110
	.long	.Lxtalabel3
.cc_bottom cc_186
.cc_top cc_187,.Lxtalabel3
	.ascii	"/Users/rkn/Documents/xTIMEcomposer/workspace/module_adat_rx/src/adatReceiver-100.h"
	.byte	0
	.long	111
	.long	111
	.long	.Lxtalabel3
.cc_bottom cc_187
.cc_top cc_188,.Lxtalabel3
	.ascii	"/Users/rkn/Documents/xTIMEcomposer/workspace/module_adat_rx/src/adatReceiver-100.h"
	.byte	0
	.long	112
	.long	117
	.long	.Lxtalabel3
.cc_bottom cc_188
.cc_top cc_189,.Lxtalabel3
	.ascii	"/Users/rkn/Documents/xTIMEcomposer/workspace/module_adat_rx/src/adatReceiver-100.h"
	.byte	0
	.long	118
	.long	118
	.long	.Lxtalabel3
.cc_bottom cc_189
.cc_top cc_190,.Lxtalabel3
	.ascii	"/Users/rkn/Documents/xTIMEcomposer/workspace/module_adat_rx/src/adatReceiver-100.h"
	.byte	0
	.long	119
	.long	124
	.long	.Lxtalabel3
.cc_bottom cc_190
.cc_top cc_191,.Lxtalabel3
	.ascii	"/Users/rkn/Documents/xTIMEcomposer/workspace/module_adat_rx/src/adatReceiver-100.h"
	.byte	0
	.long	125
	.long	125
	.long	.Lxtalabel3
.cc_bottom cc_191
.cc_top cc_192,.Lxtalabel3
	.ascii	"/Users/rkn/Documents/xTIMEcomposer/workspace/module_adat_rx/src/adatReceiver-100.h"
	.byte	0
	.long	126
	.long	129
	.long	.Lxtalabel3
.cc_bottom cc_192
.cc_top cc_193,.Lxtalabel3
	.ascii	"/Users/rkn/Documents/xTIMEcomposer/workspace/module_adat_rx/src/adatReceiver-100.h"
	.byte	0
	.long	130
	.long	130
	.long	.Lxtalabel3
.cc_bottom cc_193
.cc_top cc_194,.Lxtalabel3
	.ascii	"/Users/rkn/Documents/xTIMEcomposer/workspace/module_adat_rx/src/adatReceiver-100.h"
	.byte	0
	.long	131
	.long	136
	.long	.Lxtalabel3
.cc_bottom cc_194
.cc_top cc_195,.Lxtalabel3
	.ascii	"/Users/rkn/Documents/xTIMEcomposer/workspace/module_adat_rx/src/adatReceiver-100.h"
	.byte	0
	.long	137
	.long	137
	.long	.Lxtalabel3
.cc_bottom cc_195
.cc_top cc_196,.Lxtalabel3
	.ascii	"/Users/rkn/Documents/xTIMEcomposer/workspace/module_adat_rx/src/adatReceiver-100.h"
	.byte	0
	.long	138
	.long	141
	.long	.Lxtalabel3
.cc_bottom cc_196
.cc_top cc_197,.Lxtalabel3
	.ascii	"/Users/rkn/Documents/xTIMEcomposer/workspace/module_adat_rx/src/adatReceiver-100.h"
	.byte	0
	.long	142
	.long	142
	.long	.Lxtalabel3
.cc_bottom cc_197
.cc_top cc_198,.Lxtalabel3
	.ascii	"/Users/rkn/Documents/xTIMEcomposer/workspace/module_adat_rx/src/adatReceiver-100.h"
	.byte	0
	.long	143
	.long	144
	.long	.Lxtalabel3
.cc_bottom cc_198
.cc_top cc_199,.Lxtalabel3
	.ascii	"/Users/rkn/Documents/xTIMEcomposer/workspace/module_adat_rx/src/adatReceiver-100.h"
	.byte	0
	.long	145
	.long	145
	.long	.Lxtalabel3
.cc_bottom cc_199
.cc_top cc_200,.Lxtalabel3
	.ascii	"/Users/rkn/Documents/xTIMEcomposer/workspace/module_adat_rx/src/adatReceiver-100.h"
	.byte	0
	.long	146
	.long	151
	.long	.Lxtalabel3
.cc_bottom cc_200
.cc_top cc_201,.Lxtalabel3
	.ascii	"/Users/rkn/Documents/xTIMEcomposer/workspace/module_adat_rx/src/adatReceiver-100.h"
	.byte	0
	.long	152
	.long	152
	.long	.Lxtalabel3
.cc_bottom cc_201
.cc_top cc_202,.Lxtalabel3
	.ascii	"/Users/rkn/Documents/xTIMEcomposer/workspace/module_adat_rx/src/adatReceiver-100.h"
	.byte	0
	.long	153
	.long	158
	.long	.Lxtalabel3
.cc_bottom cc_202
.cc_top cc_203,.Lxtalabel3
	.ascii	"/Users/rkn/Documents/xTIMEcomposer/workspace/module_adat_rx/src/adatReceiver-100.h"
	.byte	0
	.long	159
	.long	159
	.long	.Lxtalabel3
.cc_bottom cc_203
.cc_top cc_204,.Lxtalabel3
	.ascii	"/Users/rkn/Documents/xTIMEcomposer/workspace/module_adat_rx/src/adatReceiver-100.h"
	.byte	0
	.long	160
	.long	163
	.long	.Lxtalabel3
.cc_bottom cc_204
.cc_top cc_205,.Lxtalabel3
	.ascii	"/Users/rkn/Documents/xTIMEcomposer/workspace/module_adat_rx/src/adatReceiver-100.h"
	.byte	0
	.long	164
	.long	164
	.long	.Lxtalabel3
.cc_bottom cc_205
.cc_top cc_206,.Lxtalabel3
	.ascii	"/Users/rkn/Documents/xTIMEcomposer/workspace/module_adat_rx/src/adatReceiver-100.h"
	.byte	0
	.long	165
	.long	170
	.long	.Lxtalabel3
.cc_bottom cc_206
.cc_top cc_207,.Lxtalabel3
	.ascii	"/Users/rkn/Documents/xTIMEcomposer/workspace/module_adat_rx/src/adatReceiver-100.h"
	.byte	0
	.long	171
	.long	171
	.long	.Lxtalabel3
.cc_bottom cc_207
.cc_top cc_208,.Lxtalabel3
	.ascii	"/Users/rkn/Documents/xTIMEcomposer/workspace/module_adat_rx/src/adatReceiver-100.h"
	.byte	0
	.long	172
	.long	177
	.long	.Lxtalabel3
.cc_bottom cc_208
.cc_top cc_209,.Lxtalabel3
	.ascii	"/Users/rkn/Documents/xTIMEcomposer/workspace/module_adat_rx/src/adatReceiver-100.h"
	.byte	0
	.long	178
	.long	178
	.long	.Lxtalabel3
.cc_bottom cc_209
.cc_top cc_210,.Lxtalabel3
	.ascii	"/Users/rkn/Documents/xTIMEcomposer/workspace/module_adat_rx/src/adatReceiver-100.h"
	.byte	0
	.long	179
	.long	184
	.long	.Lxtalabel3
.cc_bottom cc_210
.cc_top cc_211,.Lxtalabel3
	.ascii	"/Users/rkn/Documents/xTIMEcomposer/workspace/module_adat_rx/src/adatReceiver-100.h"
	.byte	0
	.long	185
	.long	185
	.long	.Lxtalabel3
.cc_bottom cc_211
.cc_top cc_212,.Lxtalabel3
	.ascii	"/Users/rkn/Documents/xTIMEcomposer/workspace/module_adat_rx/src/adatReceiver-100.h"
	.byte	0
	.long	186
	.long	189
	.long	.Lxtalabel3
.cc_bottom cc_212
.cc_top cc_213,.Lxtalabel3
	.ascii	"/Users/rkn/Documents/xTIMEcomposer/workspace/module_adat_rx/src/adatReceiver-100.h"
	.byte	0
	.long	190
	.long	190
	.long	.Lxtalabel3
.cc_bottom cc_213
.cc_top cc_214,.Lxtalabel3
	.ascii	"/Users/rkn/Documents/xTIMEcomposer/workspace/module_adat_rx/src/adatReceiver-100.h"
	.byte	0
	.long	191
	.long	192
	.long	.Lxtalabel3
.cc_bottom cc_214
.cc_top cc_215,.Lxtalabel3
	.ascii	"/Users/rkn/Documents/xTIMEcomposer/workspace/module_adat_rx/src/adatReceiver-100.h"
	.byte	0
	.long	193
	.long	193
	.long	.Lxtalabel3
.cc_bottom cc_215
.cc_top cc_216,.Lxtalabel3
	.ascii	"/Users/rkn/Documents/xTIMEcomposer/workspace/module_adat_rx/src/adatReceiver-100.h"
	.byte	0
	.long	194
	.long	198
	.long	.Lxtalabel3
.cc_bottom cc_216
.cc_top cc_217,.Lxtalabel3
	.ascii	"/Users/rkn/Documents/xTIMEcomposer/workspace/module_adat_rx/src/adatReceiver-100.h"
	.byte	0
	.long	199
	.long	199
	.long	.Lxtalabel3
.cc_bottom cc_217
.cc_top cc_218,.Lxtalabel3
	.ascii	"/Users/rkn/Documents/xTIMEcomposer/workspace/module_adat_rx/src/adatReceiver-100.h"
	.byte	0
	.long	200
	.long	205
	.long	.Lxtalabel3
.cc_bottom cc_218
.cc_top cc_219,.Lxtalabel3
	.ascii	"/Users/rkn/Documents/xTIMEcomposer/workspace/module_adat_rx/src/adatReceiver-100.h"
	.byte	0
	.long	206
	.long	206
	.long	.Lxtalabel3
.cc_bottom cc_219
.cc_top cc_220,.Lxtalabel3
	.ascii	"/Users/rkn/Documents/xTIMEcomposer/workspace/module_adat_rx/src/adatReceiver-100.h"
	.byte	0
	.long	207
	.long	212
	.long	.Lxtalabel3
.cc_bottom cc_220
.cc_top cc_221,.Lxtalabel3
	.ascii	"/Users/rkn/Documents/xTIMEcomposer/workspace/module_adat_rx/src/adatReceiver-100.h"
	.byte	0
	.long	213
	.long	213
	.long	.Lxtalabel3
.cc_bottom cc_221
.cc_top cc_222,.Lxtalabel3
	.ascii	"/Users/rkn/Documents/xTIMEcomposer/workspace/module_adat_rx/src/adatReceiver-100.h"
	.byte	0
	.long	214
	.long	219
	.long	.Lxtalabel3
.cc_bottom cc_222
.cc_top cc_223,.Lxtalabel3
	.ascii	"/Users/rkn/Documents/xTIMEcomposer/workspace/module_adat_rx/src/adatReceiver-100.h"
	.byte	0
	.long	220
	.long	220
	.long	.Lxtalabel3
.cc_bottom cc_223
.cc_top cc_224,.Lxtalabel3
	.ascii	"/Users/rkn/Documents/xTIMEcomposer/workspace/module_adat_rx/src/adatReceiver-100.h"
	.byte	0
	.long	221
	.long	224
	.long	.Lxtalabel3
.cc_bottom cc_224
.cc_top cc_225,.Lxtalabel3
