	.text
	.file	"../src/extensions/analogio-x8.xc"
                                        # Start of file scope inline assembly
	.inline_definition delay_seconds
	.inline_definition delay_milliseconds
	.inline_definition delay_microseconds
	.set usage.anon.0,0
	.set usage.anon.1,0
	.set usage.anon.2,0
	.set usage.anon.3,0
	.set usage.anon.4,0
	.set usage.anon.5,0
	.set usage.anon.6,0
	.set usage.anon.7,0
	.set usage.anon.8,0
	.set usage.anon.9,0
	.set usage.anon.10,0
	.globwrite configAnalogIOx8,r_i2c,"../src/extensions/analogio-x8.xc:252:5: note: object used here\n    AK5558_REGWRITE( AK5558_POWERMANAGEMENT2, 0b00000000 );\n    ^~~~~~~~~~~~~~~~~~~~~~~~~~~~~~~~~~~~~~~~~~~~~~~~~~~~~~\n../src/extensions/analogio-x8.xc:48:111: note: expanded from here\n#define AK5558_REGWRITE(reg, val) { unsigned char data_w[1]; data_w[0] = val; AKM_i2c_shared_master_write_reg(r_i2c, AK5558_I2C_ADDR, reg, data_w, 1);}\n                                                                                                              ^~~~~"
	.globwrite AKM_i2c_shared_master_write_reg,i2c_swlock,"../src/extensions/analogio-x8.xc:233:20: note: object used here\n    swlock_acquire(i2c_swlock);\n                   ^~~~~~~~~~"
	.globwrite AKM_i2c_shared_master_read_reg,i2c_swlock,"../src/extensions/analogio-x8.xc:219:20: note: object used here\n    swlock_acquire(i2c_swlock);\n                   ^~~~~~~~~~"
	.call configAnalogIOx8,AKM_i2c_shared_master_write_reg
	.call configAnalogIOx8,AKM_i2c_shared_master_read_reg
	.call AKM_i2c_shared_master_write_reg,swlock_release
	.call AKM_i2c_shared_master_write_reg,swlock_acquire
	.call AKM_i2c_shared_master_write_reg,AKM_i2c_master_write_reg
	.call AKM_i2c_shared_master_read_reg,swlock_release
	.call AKM_i2c_shared_master_read_reg,swlock_acquire
	.call AKM_i2c_shared_master_read_reg,AKM_i2c_master_read_reg
	.call AKM_i2c_master_write_reg,usage.anon.9
	.call AKM_i2c_master_write_reg,usage.anon.8
	.call AKM_i2c_master_write_reg,usage.anon.10
	.call AKM_i2c_master_read_reg,usage.anon.9
	.call AKM_i2c_master_read_reg,usage.anon.8
	.call AKM_i2c_master_read_reg,usage.anon.7
	.call AKM_i2c_master_read_reg,usage.anon.6
	.call AKM_i2c_master_read_reg,usage.anon.5
	.call AKM_i2c_master_read_reg,usage.anon.10
	.call usage.anon.10,usage.anon.7
	.call usage.anon.10,usage.anon.6
	.call usage.anon.9,usage.anon.4
	.call usage.anon.9,usage.anon.3
	.call usage.anon.8,usage.anon.4
	.call usage.anon.8,usage.anon.3
	.call usage.anon.7,usage.anon.3
	.call usage.anon.6,usage.anon.4
	.call usage.anon.6,usage.anon.3
	.call usage.anon.4,usage.anon.3
	.call usage.anon.2,delay_ticks_longlong
	.call usage.anon.1,delay_ticks_longlong
	.call usage.anon.0,delay_ticks_longlong
	.set usage.anon.3.locnoside, 0
	.set usage.anon.5.locnoside, 0
	.set usage.anon.6.locnoside, 0
	.set usage.anon.7.locnoside, 0
	.set usage.anon.8.locnoside, 0
	.set usage.anon.9.locnoside, 0
	.set usage.anon.10.locnoside, 0
	.set AKM_i2c_master_read_reg.locnoside, 0
	.set AKM_i2c_master_write_reg.locnoside, 0
	.set AKM_i2c_shared_master_read_reg.locnoside, 0
	.set AKM_i2c_shared_master_write_reg.locnoside, 0
	.set configAnalogIOx8.locnoside, 0
	.set AKM_i2c_shared_master_read_reg.locnoglobalaccess, 0
	.set AKM_i2c_shared_master_write_reg.locnoglobalaccess, 0
	.set configAnalogIOx8.locnoglobalaccess, 0
	.globpassesref AKM_i2c_shared_master_read_reg, r_i2c,"../src/extensions/analogio-x8.xc:396:5: error: call to `AKM_i2c_shared_master_read_reg\' in `configAnalogIOx8\' makes alias of global \'r_i2c\'\n    AK4458_REGREAD( AK4458_CONTROL1, data );\n    ^~~~~~~~~~~~~~~~~~~~~~~~~~~~~~~~~~~~~~~\n../src/extensions/analogio-x8.xc:51:37: note: expanded from here\n#define AK4458_REGREAD(reg, val)  { AKM_i2c_shared_master_read_reg(r_i2c, AK4458_I2C_ADDR, reg, val, 1);}\n                                    ^~~~~~~~~~~~~~~~~~~~~~~~~~~~~~~~~~~~~~~~~~~~~~~~~~~~~~~~~~~~~~~~~~~"
	.globpassesref AKM_i2c_shared_master_read_reg, r_i2c,"../src/extensions/analogio-x8.xc:394:5: error: call to `AKM_i2c_shared_master_read_reg\' in `configAnalogIOx8\' makes alias of global \'r_i2c\'\n    AK4458_REGREAD( AK4458_CONTROL10, data );\n    ^~~~~~~~~~~~~~~~~~~~~~~~~~~~~~~~~~~~~~~~\n../src/extensions/analogio-x8.xc:51:37: note: expanded from here\n#define AK4458_REGREAD(reg, val)  { AKM_i2c_shared_master_read_reg(r_i2c, AK4458_I2C_ADDR, reg, val, 1);}\n                                    ^~~~~~~~~~~~~~~~~~~~~~~~~~~~~~~~~~~~~~~~~~~~~~~~~~~~~~~~~~~~~~~~~~~"
	.globpassesref AKM_i2c_shared_master_write_reg, r_i2c,"../src/extensions/analogio-x8.xc:390:5: error: call to `AKM_i2c_shared_master_write_reg\' in `configAnalogIOx8\' makes alias of global \'r_i2c\'\n    AK4458_REGWRITE( AK4458_CONTROL1, 0b00000101 );\n    ^~~~~~~~~~~~~~~~~~~~~~~~~~~~~~~~~~~~~~~~~~~~~~\n../src/extensions/analogio-x8.xc:50:79: note: expanded from here\n#define AK4458_REGWRITE(reg, val) { unsigned char data_w[1]; data_w[0] = val; AKM_i2c_shared_master_write_reg(r_i2c, AK4458_I2C_ADDR, reg, data_w, 1);}\n                                                                              ^~~~~~~~~~~~~~~~~~~~~~~~~~~~~~~~~~~~~~~~~~~~~~~~~~~~~~~~~~~~~~~~~~~~~~~"
	.globpassesref AKM_i2c_shared_master_write_reg, r_i2c,"../src/extensions/analogio-x8.xc:381:5: error: call to `AKM_i2c_shared_master_write_reg\' in `configAnalogIOx8\' makes alias of global \'r_i2c\'\n    AK4458_REGWRITE( AK4458_CONTROL10, 0b01010000 );\n    ^~~~~~~~~~~~~~~~~~~~~~~~~~~~~~~~~~~~~~~~~~~~~~~\n../src/extensions/analogio-x8.xc:50:79: note: expanded from here\n#define AK4458_REGWRITE(reg, val) { unsigned char data_w[1]; data_w[0] = val; AKM_i2c_shared_master_write_reg(r_i2c, AK4458_I2C_ADDR, reg, data_w, 1);}\n                                                                              ^~~~~~~~~~~~~~~~~~~~~~~~~~~~~~~~~~~~~~~~~~~~~~~~~~~~~~~~~~~~~~~~~~~~~~~"
	.globpassesref AKM_i2c_shared_master_write_reg, r_i2c,"../src/extensions/analogio-x8.xc:375:5: error: call to `AKM_i2c_shared_master_write_reg\' in `configAnalogIOx8\' makes alias of global \'r_i2c\'\n    AK4458_REGWRITE( AK4458_CONTROL9, 0b00000000 );\n    ^~~~~~~~~~~~~~~~~~~~~~~~~~~~~~~~~~~~~~~~~~~~~~\n../src/extensions/analogio-x8.xc:50:79: note: expanded from here\n#define AK4458_REGWRITE(reg, val) { unsigned char data_w[1]; data_w[0] = val; AKM_i2c_shared_master_write_reg(r_i2c, AK4458_I2C_ADDR, reg, data_w, 1);}\n                                                                              ^~~~~~~~~~~~~~~~~~~~~~~~~~~~~~~~~~~~~~~~~~~~~~~~~~~~~~~~~~~~~~~~~~~~~~~"
	.globpassesref AKM_i2c_shared_master_write_reg, r_i2c,"../src/extensions/analogio-x8.xc:366:5: error: call to `AKM_i2c_shared_master_write_reg\' in `configAnalogIOx8\' makes alias of global \'r_i2c\'\n    AK4458_REGWRITE( AK4458_CONTROL8, 0b00000000 );\n    ^~~~~~~~~~~~~~~~~~~~~~~~~~~~~~~~~~~~~~~~~~~~~~\n../src/extensions/analogio-x8.xc:50:79: note: expanded from here\n#define AK4458_REGWRITE(reg, val) { unsigned char data_w[1]; data_w[0] = val; AKM_i2c_shared_master_write_reg(r_i2c, AK4458_I2C_ADDR, reg, data_w, 1);}\n                                                                              ^~~~~~~~~~~~~~~~~~~~~~~~~~~~~~~~~~~~~~~~~~~~~~~~~~~~~~~~~~~~~~~~~~~~~~~"
	.globpassesref AKM_i2c_shared_master_write_reg, r_i2c,"../src/extensions/analogio-x8.xc:357:5: error: call to `AKM_i2c_shared_master_write_reg\' in `configAnalogIOx8\' makes alias of global \'r_i2c\'\n    AK4458_REGWRITE( AK4458_CONTROL7, 0b00001100 );\n    ^~~~~~~~~~~~~~~~~~~~~~~~~~~~~~~~~~~~~~~~~~~~~~\n../src/extensions/analogio-x8.xc:50:79: note: expanded from here\n#define AK4458_REGWRITE(reg, val) { unsigned char data_w[1]; data_w[0] = val; AKM_i2c_shared_master_write_reg(r_i2c, AK4458_I2C_ADDR, reg, data_w, 1);}\n                                                                              ^~~~~~~~~~~~~~~~~~~~~~~~~~~~~~~~~~~~~~~~~~~~~~~~~~~~~~~~~~~~~~~~~~~~~~~"
	.globpassesref AKM_i2c_shared_master_write_reg, r_i2c,"../src/extensions/analogio-x8.xc:348:5: error: call to `AKM_i2c_shared_master_write_reg\' in `configAnalogIOx8\' makes alias of global \'r_i2c\'\n    AK4458_REGWRITE( AK4458_CONTROL6, 0b10001101 );\n    ^~~~~~~~~~~~~~~~~~~~~~~~~~~~~~~~~~~~~~~~~~~~~~\n../src/extensions/analogio-x8.xc:50:79: note: expanded from here\n#define AK4458_REGWRITE(reg, val) { unsigned char data_w[1]; data_w[0] = val; AKM_i2c_shared_master_write_reg(r_i2c, AK4458_I2C_ADDR, reg, data_w, 1);}\n                                                                              ^~~~~~~~~~~~~~~~~~~~~~~~~~~~~~~~~~~~~~~~~~~~~~~~~~~~~~~~~~~~~~~~~~~~~~~"
	.globpassesref AKM_i2c_shared_master_write_reg, r_i2c,"../src/extensions/analogio-x8.xc:339:5: error: call to `AKM_i2c_shared_master_write_reg\' in `configAnalogIOx8\' makes alias of global \'r_i2c\'\n    AK4458_REGWRITE( AK4458_CONTROL5, 0b00000000 );\n    ^~~~~~~~~~~~~~~~~~~~~~~~~~~~~~~~~~~~~~~~~~~~~~\n../src/extensions/analogio-x8.xc:50:79: note: expanded from here\n#define AK4458_REGWRITE(reg, val) { unsigned char data_w[1]; data_w[0] = val; AKM_i2c_shared_master_write_reg(r_i2c, AK4458_I2C_ADDR, reg, data_w, 1);}\n                                                                              ^~~~~~~~~~~~~~~~~~~~~~~~~~~~~~~~~~~~~~~~~~~~~~~~~~~~~~~~~~~~~~~~~~~~~~~"
	.globpassesref AKM_i2c_shared_master_write_reg, r_i2c,"../src/extensions/analogio-x8.xc:333:5: error: call to `AKM_i2c_shared_master_write_reg\' in `configAnalogIOx8\' makes alias of global \'r_i2c\'\n    AK4458_REGWRITE( AK4458_CONTROL5, 0b00000011 );\n    ^~~~~~~~~~~~~~~~~~~~~~~~~~~~~~~~~~~~~~~~~~~~~~\n../src/extensions/analogio-x8.xc:50:79: note: expanded from here\n#define AK4458_REGWRITE(reg, val) { unsigned char data_w[1]; data_w[0] = val; AKM_i2c_shared_master_write_reg(r_i2c, AK4458_I2C_ADDR, reg, data_w, 1);}\n                                                                              ^~~~~~~~~~~~~~~~~~~~~~~~~~~~~~~~~~~~~~~~~~~~~~~~~~~~~~~~~~~~~~~~~~~~~~~"
	.globpassesref AKM_i2c_shared_master_write_reg, r_i2c,"../src/extensions/analogio-x8.xc:327:5: error: call to `AKM_i2c_shared_master_write_reg\' in `configAnalogIOx8\' makes alias of global \'r_i2c\'\n    AK4458_REGWRITE( AK4458_CONTROL4, 0b00000000 );\n    ^~~~~~~~~~~~~~~~~~~~~~~~~~~~~~~~~~~~~~~~~~~~~~\n../src/extensions/analogio-x8.xc:50:79: note: expanded from here\n#define AK4458_REGWRITE(reg, val) { unsigned char data_w[1]; data_w[0] = val; AKM_i2c_shared_master_write_reg(r_i2c, AK4458_I2C_ADDR, reg, data_w, 1);}\n                                                                              ^~~~~~~~~~~~~~~~~~~~~~~~~~~~~~~~~~~~~~~~~~~~~~~~~~~~~~~~~~~~~~~~~~~~~~~"
	.globpassesref AKM_i2c_shared_master_write_reg, r_i2c,"../src/extensions/analogio-x8.xc:316:5: error: call to `AKM_i2c_shared_master_write_reg\' in `configAnalogIOx8\' makes alias of global \'r_i2c\'\n    AK4458_REGWRITE( AK4458_CONTROL3, 0b00000000 );\n    ^~~~~~~~~~~~~~~~~~~~~~~~~~~~~~~~~~~~~~~~~~~~~~\n../src/extensions/analogio-x8.xc:50:79: note: expanded from here\n#define AK4458_REGWRITE(reg, val) { unsigned char data_w[1]; data_w[0] = val; AKM_i2c_shared_master_write_reg(r_i2c, AK4458_I2C_ADDR, reg, data_w, 1);}\n                                                                              ^~~~~~~~~~~~~~~~~~~~~~~~~~~~~~~~~~~~~~~~~~~~~~~~~~~~~~~~~~~~~~~~~~~~~~~"
	.globpassesref AKM_i2c_shared_master_write_reg, r_i2c,"../src/extensions/analogio-x8.xc:305:5: error: call to `AKM_i2c_shared_master_write_reg\' in `configAnalogIOx8\' makes alias of global \'r_i2c\'\n    AK4458_REGWRITE( AK4458_CONTROL2, 0b00100010 );\n    ^~~~~~~~~~~~~~~~~~~~~~~~~~~~~~~~~~~~~~~~~~~~~~\n../src/extensions/analogio-x8.xc:50:79: note: expanded from here\n#define AK4458_REGWRITE(reg, val) { unsigned char data_w[1]; data_w[0] = val; AKM_i2c_shared_master_write_reg(r_i2c, AK4458_I2C_ADDR, reg, data_w, 1);}\n                                                                              ^~~~~~~~~~~~~~~~~~~~~~~~~~~~~~~~~~~~~~~~~~~~~~~~~~~~~~~~~~~~~~~~~~~~~~~"
	.globpassesref AKM_i2c_shared_master_write_reg, r_i2c,"../src/extensions/analogio-x8.xc:297:5: error: call to `AKM_i2c_shared_master_write_reg\' in `configAnalogIOx8\' makes alias of global \'r_i2c\'\n    AK4458_REGWRITE( AK4458_CONTROL1, 0b00000100 );\n    ^~~~~~~~~~~~~~~~~~~~~~~~~~~~~~~~~~~~~~~~~~~~~~\n../src/extensions/analogio-x8.xc:50:79: note: expanded from here\n#define AK4458_REGWRITE(reg, val) { unsigned char data_w[1]; data_w[0] = val; AKM_i2c_shared_master_write_reg(r_i2c, AK4458_I2C_ADDR, reg, data_w, 1);}\n                                                                              ^~~~~~~~~~~~~~~~~~~~~~~~~~~~~~~~~~~~~~~~~~~~~~~~~~~~~~~~~~~~~~~~~~~~~~~"
	.globpassesref AKM_i2c_shared_master_write_reg, r_i2c,"../src/extensions/analogio-x8.xc:285:5: error: call to `AKM_i2c_shared_master_write_reg\' in `configAnalogIOx8\' makes alias of global \'r_i2c\'\n    AK5558_REGWRITE( AK5558_POWERMANAGEMENT2, 0b00000001 );\n    ^~~~~~~~~~~~~~~~~~~~~~~~~~~~~~~~~~~~~~~~~~~~~~~~~~~~~~\n../src/extensions/analogio-x8.xc:48:79: note: expanded from here\n#define AK5558_REGWRITE(reg, val) { unsigned char data_w[1]; data_w[0] = val; AKM_i2c_shared_master_write_reg(r_i2c, AK5558_I2C_ADDR, reg, data_w, 1);}\n                                                                              ^~~~~~~~~~~~~~~~~~~~~~~~~~~~~~~~~~~~~~~~~~~~~~~~~~~~~~~~~~~~~~~~~~~~~~~"
	.globpassesref AKM_i2c_shared_master_write_reg, r_i2c,"../src/extensions/analogio-x8.xc:279:5: error: call to `AKM_i2c_shared_master_write_reg\' in `configAnalogIOx8\' makes alias of global \'r_i2c\'\n    AK5558_REGWRITE( AK5558_DSD, 0b00000000 );\n    ^~~~~~~~~~~~~~~~~~~~~~~~~~~~~~~~~~~~~~~~~\n../src/extensions/analogio-x8.xc:48:79: note: expanded from here\n#define AK5558_REGWRITE(reg, val) { unsigned char data_w[1]; data_w[0] = val; AKM_i2c_shared_master_write_reg(r_i2c, AK5558_I2C_ADDR, reg, data_w, 1);}\n                                                                              ^~~~~~~~~~~~~~~~~~~~~~~~~~~~~~~~~~~~~~~~~~~~~~~~~~~~~~~~~~~~~~~~~~~~~~~"
	.globpassesref AKM_i2c_shared_master_write_reg, r_i2c,"../src/extensions/analogio-x8.xc:271:5: error: call to `AKM_i2c_shared_master_write_reg\' in `configAnalogIOx8\' makes alias of global \'r_i2c\'\n    AK5558_REGWRITE( AK5558_CONTROL3, 0b00000000 );\n    ^~~~~~~~~~~~~~~~~~~~~~~~~~~~~~~~~~~~~~~~~~~~~~\n../src/extensions/analogio-x8.xc:48:79: note: expanded from here\n#define AK5558_REGWRITE(reg, val) { unsigned char data_w[1]; data_w[0] = val; AKM_i2c_shared_master_write_reg(r_i2c, AK5558_I2C_ADDR, reg, data_w, 1);}\n                                                                              ^~~~~~~~~~~~~~~~~~~~~~~~~~~~~~~~~~~~~~~~~~~~~~~~~~~~~~~~~~~~~~~~~~~~~~~"
	.globpassesref AKM_i2c_shared_master_write_reg, r_i2c,"../src/extensions/analogio-x8.xc:264:5: error: call to `AKM_i2c_shared_master_write_reg\' in `configAnalogIOx8\' makes alias of global \'r_i2c\'\n    AK5558_REGWRITE( AK5558_CONTROL2, 0b01000000 );\n    ^~~~~~~~~~~~~~~~~~~~~~~~~~~~~~~~~~~~~~~~~~~~~~\n../src/extensions/analogio-x8.xc:48:79: note: expanded from here\n#define AK5558_REGWRITE(reg, val) { unsigned char data_w[1]; data_w[0] = val; AKM_i2c_shared_master_write_reg(r_i2c, AK5558_I2C_ADDR, reg, data_w, 1);}\n                                                                              ^~~~~~~~~~~~~~~~~~~~~~~~~~~~~~~~~~~~~~~~~~~~~~~~~~~~~~~~~~~~~~~~~~~~~~~"
	.globpassesref AKM_i2c_shared_master_write_reg, r_i2c,"../src/extensions/analogio-x8.xc:259:5: error: call to `AKM_i2c_shared_master_write_reg\' in `configAnalogIOx8\' makes alias of global \'r_i2c\'\n    AK5558_REGWRITE( AK5558_CONTROL1, 0b00110001 );\n    ^~~~~~~~~~~~~~~~~~~~~~~~~~~~~~~~~~~~~~~~~~~~~~\n../src/extensions/analogio-x8.xc:48:79: note: expanded from here\n#define AK5558_REGWRITE(reg, val) { unsigned char data_w[1]; data_w[0] = val; AKM_i2c_shared_master_write_reg(r_i2c, AK5558_I2C_ADDR, reg, data_w, 1);}\n                                                                              ^~~~~~~~~~~~~~~~~~~~~~~~~~~~~~~~~~~~~~~~~~~~~~~~~~~~~~~~~~~~~~~~~~~~~~~"
	.globpassesref AKM_i2c_shared_master_write_reg, r_i2c,"../src/extensions/analogio-x8.xc:252:5: error: call to `AKM_i2c_shared_master_write_reg\' in `configAnalogIOx8\' makes alias of global \'r_i2c\'\n    AK5558_REGWRITE( AK5558_POWERMANAGEMENT2, 0b00000000 );\n    ^~~~~~~~~~~~~~~~~~~~~~~~~~~~~~~~~~~~~~~~~~~~~~~~~~~~~~\n../src/extensions/analogio-x8.xc:48:79: note: expanded from here\n#define AK5558_REGWRITE(reg, val) { unsigned char data_w[1]; data_w[0] = val; AKM_i2c_shared_master_write_reg(r_i2c, AK5558_I2C_ADDR, reg, data_w, 1);}\n                                                                              ^~~~~~~~~~~~~~~~~~~~~~~~~~~~~~~~~~~~~~~~~~~~~~~~~~~~~~~~~~~~~~~~~~~~~~~"
	.globpassesref swlock_release, i2c_swlock,"../src/extensions/analogio-x8.xc:235:5: error: call to `swlock_release\' in `AKM_i2c_shared_master_write_reg\' makes alias of global \'i2c_swlock\'\n    swlock_release(i2c_swlock);\n    ^~~~~~~~~~~~~~~~~~~~~~~~~~"
	.globpassesref swlock_acquire, i2c_swlock,"../src/extensions/analogio-x8.xc:233:5: error: call to `swlock_acquire\' in `AKM_i2c_shared_master_write_reg\' makes alias of global \'i2c_swlock\'\n    swlock_acquire(i2c_swlock);\n    ^~~~~~~~~~~~~~~~~~~~~~~~~~"
	.globpassesref swlock_release, i2c_swlock,"../src/extensions/analogio-x8.xc:221:5: error: call to `swlock_release\' in `AKM_i2c_shared_master_read_reg\' makes alias of global \'i2c_swlock\'\n    swlock_release(i2c_swlock);\n    ^~~~~~~~~~~~~~~~~~~~~~~~~~"
	.globpassesref swlock_acquire, i2c_swlock,"../src/extensions/analogio-x8.xc:219:5: error: call to `swlock_acquire\' in `AKM_i2c_shared_master_read_reg\' makes alias of global \'i2c_swlock\'\n    swlock_acquire(i2c_swlock);\n    ^~~~~~~~~~~~~~~~~~~~~~~~~~"

                                        # End of file scope inline assembly
	.text
	.globl	configAnalogIOx8
	.align	4
	.type	configAnalogIOx8,@function
	.cc_top configAnalogIOx8.function,configAnalogIOx8
configAnalogIOx8:                       # @configAnalogIOx8
.Lfunc_begin0:
	.file	1 "../src/extensions/analogio-x8.xc"
	.loc	1 244 0                 # ../src/extensions/analogio-x8.xc:244:0
	.cfi_startproc
	.issue_mode dual
# BB#0:                                 # %allocas
.Lxtalabel0:
	{
		nop
		dualentsp 30
	}
.Ltmp0:
	.cfi_def_cfa_offset 120
.Ltmp1:
	.cfi_offset 15, 0
	std r5, r4, sp[11]              # 4-byte Folded Spill
.Ltmp2:
	.cfi_offset 4, -32
.Ltmp3:
	.cfi_offset 5, -28
	{
		nop
		stw r6, sp[24]
	}
	{
		nop
		stw r7, sp[25]
	}
.Ltmp4:
	.cfi_offset 6, -24
.Ltmp5:
	.cfi_offset 7, -20
	{
		nop
		stw r8, sp[26]
	}
	{
		nop
		stw r9, sp[27]
	}
.Ltmp6:
	.cfi_offset 8, -16
.Ltmp7:
	.cfi_offset 9, -12
.Ltmp8:
	.cfi_offset 10, -8
.Ltmp9:
	#DEBUG_VALUE: AKM_i2c_shared_master_write_reg:data <- R8
	#DEBUG_VALUE: AKM_i2c_shared_master_write_reg:reg_addr <- 1
	#DEBUG_VALUE: AKM_i2c_shared_master_write_reg:device <- 34
	{
		ldaw r8, sp[21]
		stw r10, sp[28]
	}
.Ltmp10:
	.loc	1 393 0 prologue_end    # ../src/extensions/analogio-x8.xc:393:0
	{
		ldc r5, 0
		nop
	}
.Ltmp11:
	.loc	1 252 0                 # ../src/extensions/analogio-x8.xc:252:0
	st8 r5, r8[r5]
.Ltmp12:
	#DEBUG_VALUE: nbytes <- 1
	.loc	1 233 0                 # ../src/extensions/analogio-x8.xc:233:0
	ldaw r4, dp[i2c_swlock]
	{
		mov r0, r4
		nop
	}
.Lxta.call_labels0:
	bl swlock_acquire
	{
		mkmsk r6, 1
		nop
	}
	{
		nop
		stw r6, sp[1]
	}
	.loc	1 234 0                 # ../src/extensions/analogio-x8.xc:234:0
	ldaw r7, dp[r_i2c]
.Ltmp13:
	#DEBUG_VALUE: AKM_i2c_shared_master_read_reg:i2cPorts <- R7
	#DEBUG_VALUE: AKM_i2c_shared_master_read_reg:i2cPorts <- R7
	#DEBUG_VALUE: AKM_i2c_shared_master_write_reg:i2cPorts <- R7
	#DEBUG_VALUE: AKM_i2c_shared_master_write_reg:i2cPorts <- R7
	#DEBUG_VALUE: AKM_i2c_shared_master_write_reg:i2cPorts <- R7
	#DEBUG_VALUE: AKM_i2c_shared_master_write_reg:i2cPorts <- R7
	#DEBUG_VALUE: AKM_i2c_shared_master_write_reg:i2cPorts <- R7
	#DEBUG_VALUE: AKM_i2c_shared_master_write_reg:i2cPorts <- R7
	#DEBUG_VALUE: AKM_i2c_shared_master_write_reg:i2cPorts <- R7
	#DEBUG_VALUE: AKM_i2c_shared_master_write_reg:i2cPorts <- R7
	#DEBUG_VALUE: AKM_i2c_shared_master_write_reg:i2cPorts <- R7
	#DEBUG_VALUE: AKM_i2c_shared_master_write_reg:i2cPorts <- R7
	#DEBUG_VALUE: AKM_i2c_shared_master_write_reg:i2cPorts <- R7
	#DEBUG_VALUE: AKM_i2c_shared_master_write_reg:i2cPorts <- R7
	#DEBUG_VALUE: AKM_i2c_shared_master_write_reg:i2cPorts <- R7
	#DEBUG_VALUE: AKM_i2c_shared_master_write_reg:i2cPorts <- R7
	#DEBUG_VALUE: AKM_i2c_shared_master_write_reg:i2cPorts <- R7
	#DEBUG_VALUE: AKM_i2c_shared_master_write_reg:i2cPorts <- R7
	#DEBUG_VALUE: AKM_i2c_shared_master_write_reg:i2cPorts <- R7
	#DEBUG_VALUE: AKM_i2c_shared_master_write_reg:i2cPorts <- R7
	{
		ldc r10, 34
		nop
	}
	{
		mov r0, r10
		mov r1, r6
	}
	{
		mov r2, r8
		mov r3, r7
	}
.Lxta.call_labels1:
	bl _SAKM_i2c_master_write_reg_0
	.loc	1 235 0                 # ../src/extensions/analogio-x8.xc:235:0
	{
		mov r0, r4
		nop
	}
.Lxta.call_labels2:
	bl swlock_release
.Ltmp14:
	#DEBUG_VALUE: AKM_i2c_shared_master_write_reg:data <- R9
	{
		ldaw r9, sp[20]
		ldc r0, 49
	}
.Ltmp15:
	.loc	1 259 0                 # ../src/extensions/analogio-x8.xc:259:0
	st8 r0, r9[r5]
	.loc	1 233 0                 # ../src/extensions/analogio-x8.xc:233:0
.Ltmp16:
	{
		mov r0, r4
		nop
	}
.Lxta.call_labels3:
	bl swlock_acquire
	.loc	1 234 0                 # ../src/extensions/analogio-x8.xc:234:0
	{
		ldc r1, 2
		stw r6, sp[1]
	}
	{
		mov r0, r10
		mov r2, r9
	}
	{
		mov r3, r7
		nop
	}
.Lxta.call_labels4:
	bl _SAKM_i2c_master_write_reg_0
	.loc	1 235 0                 # ../src/extensions/analogio-x8.xc:235:0
	{
		mov r0, r4
		nop
	}
.Lxta.call_labels5:
	bl swlock_release
	{
		ldaw r9, sp[19]
		nop
	}
.Ltmp17:
	#DEBUG_VALUE: AKM_i2c_shared_master_write_reg:data <- R9
	ldc r0, 64
.Ltmp18:
	.loc	1 264 0                 # ../src/extensions/analogio-x8.xc:264:0
	st8 r0, r9[r5]
	.loc	1 233 0                 # ../src/extensions/analogio-x8.xc:233:0
.Ltmp19:
	{
		mov r0, r4
		nop
	}
.Lxta.call_labels6:
	bl swlock_acquire
	.loc	1 234 0                 # ../src/extensions/analogio-x8.xc:234:0
	{
		mkmsk r1, 2
		stw r6, sp[1]
	}
	{
		mov r0, r10
		mov r2, r9
	}
	{
		mov r3, r7
		nop
	}
.Lxta.call_labels7:
	bl _SAKM_i2c_master_write_reg_0
	.loc	1 235 0                 # ../src/extensions/analogio-x8.xc:235:0
	{
		mov r0, r4
		nop
	}
.Lxta.call_labels8:
	bl swlock_release
	{
		ldaw r8, sp[18]
		nop
	}
.Ltmp20:
	#DEBUG_VALUE: AKM_i2c_shared_master_write_reg:data <- R8
	.loc	1 271 0                 # ../src/extensions/analogio-x8.xc:271:0
	st8 r5, r8[r5]
	.loc	1 233 0                 # ../src/extensions/analogio-x8.xc:233:0
.Ltmp21:
	{
		mov r0, r4
		nop
	}
.Lxta.call_labels9:
	bl swlock_acquire
	.loc	1 234 0                 # ../src/extensions/analogio-x8.xc:234:0
	{
		ldc r9, 4
		stw r6, sp[1]
	}
.Ltmp22:
	{
		mov r0, r10
		mov r1, r9
	}
	{
		mov r2, r8
		mov r3, r7
	}
.Lxta.call_labels10:
	bl _SAKM_i2c_master_write_reg_0
	.loc	1 235 0                 # ../src/extensions/analogio-x8.xc:235:0
	{
		mov r0, r4
		nop
	}
.Lxta.call_labels11:
	bl swlock_release
	{
		ldaw r8, sp[17]
		nop
	}
.Ltmp23:
	#DEBUG_VALUE: AKM_i2c_shared_master_write_reg:data <- R8
	.loc	1 279 0                 # ../src/extensions/analogio-x8.xc:279:0
	st8 r5, r8[r5]
	.loc	1 233 0                 # ../src/extensions/analogio-x8.xc:233:0
.Ltmp24:
	{
		mov r0, r4
		nop
	}
.Lxta.call_labels12:
	bl swlock_acquire
	.loc	1 234 0                 # ../src/extensions/analogio-x8.xc:234:0
	{
		ldc r1, 5
		stw r6, sp[1]
	}
	{
		mov r0, r10
		mov r2, r8
	}
	{
		mov r3, r7
		nop
	}
.Lxta.call_labels13:
	bl _SAKM_i2c_master_write_reg_0
	.loc	1 235 0                 # ../src/extensions/analogio-x8.xc:235:0
	{
		mov r0, r4
		nop
	}
.Lxta.call_labels14:
	bl swlock_release
	{
		ldaw r8, sp[16]
		nop
	}
.Ltmp25:
	#DEBUG_VALUE: AKM_i2c_shared_master_write_reg:data <- R8
	.loc	1 285 0                 # ../src/extensions/analogio-x8.xc:285:0
	st8 r6, r8[r5]
	.loc	1 233 0                 # ../src/extensions/analogio-x8.xc:233:0
.Ltmp26:
	{
		mov r0, r4
		nop
	}
.Lxta.call_labels15:
	bl swlock_acquire
	.loc	1 234 0                 # ../src/extensions/analogio-x8.xc:234:0
	{
		mov r0, r10
		stw r6, sp[1]
	}
	{
		mov r1, r6
		mov r2, r8
	}
	{
		mov r3, r7
		nop
	}
.Lxta.call_labels16:
	bl _SAKM_i2c_master_write_reg_0
	.loc	1 235 0                 # ../src/extensions/analogio-x8.xc:235:0
	{
		mov r0, r4
		nop
	}
.Lxta.call_labels17:
	bl swlock_release
	{
		ldaw r8, sp[15]
		nop
	}
.Ltmp27:
	#DEBUG_VALUE: AKM_i2c_shared_master_write_reg:data <- R8
	.loc	1 297 0                 # ../src/extensions/analogio-x8.xc:297:0
	st8 r9, r8[r5]
	.loc	1 233 0                 # ../src/extensions/analogio-x8.xc:233:0
.Ltmp28:
	{
		mov r0, r4
		nop
	}
.Lxta.call_labels18:
	bl swlock_acquire
	.loc	1 234 0                 # ../src/extensions/analogio-x8.xc:234:0
	{
		ldc r9, 32
		stw r6, sp[1]
	}
	{
		mov r0, r9
		mov r1, r5
	}
	{
		mov r2, r8
		mov r3, r7
	}
.Lxta.call_labels19:
	bl _SAKM_i2c_master_write_reg_0
	.loc	1 235 0                 # ../src/extensions/analogio-x8.xc:235:0
	{
		mov r0, r4
		nop
	}
.Lxta.call_labels20:
	bl swlock_release
	{
		ldaw r8, sp[14]
		nop
	}
.Ltmp29:
	#DEBUG_VALUE: AKM_i2c_shared_master_write_reg:data <- R8
	.loc	1 305 0                 # ../src/extensions/analogio-x8.xc:305:0
	st8 r10, r8[r5]
	.loc	1 233 0                 # ../src/extensions/analogio-x8.xc:233:0
.Ltmp30:
	{
		mov r0, r4
		nop
	}
.Lxta.call_labels21:
	bl swlock_acquire
	.loc	1 234 0                 # ../src/extensions/analogio-x8.xc:234:0
	{
		mov r0, r9
		stw r6, sp[1]
	}
	{
		mov r1, r6
		mov r2, r8
	}
	{
		mov r3, r7
		nop
	}
.Lxta.call_labels22:
	bl _SAKM_i2c_master_write_reg_0
	.loc	1 235 0                 # ../src/extensions/analogio-x8.xc:235:0
	{
		mov r0, r4
		nop
	}
.Lxta.call_labels23:
	bl swlock_release
	{
		ldaw r8, sp[13]
		nop
	}
.Ltmp31:
	#DEBUG_VALUE: AKM_i2c_shared_master_write_reg:data <- R8
	.loc	1 316 0                 # ../src/extensions/analogio-x8.xc:316:0
	st8 r5, r8[r5]
	.loc	1 233 0                 # ../src/extensions/analogio-x8.xc:233:0
.Ltmp32:
	{
		mov r0, r4
		nop
	}
.Lxta.call_labels24:
	bl swlock_acquire
	.loc	1 234 0                 # ../src/extensions/analogio-x8.xc:234:0
	{
		mov r0, r9
		stw r6, sp[1]
	}
	{
		ldc r1, 2
		mov r2, r8
	}
	{
		mov r3, r7
		nop
	}
.Lxta.call_labels25:
	bl _SAKM_i2c_master_write_reg_0
	.loc	1 235 0                 # ../src/extensions/analogio-x8.xc:235:0
	{
		mov r0, r4
		nop
	}
.Lxta.call_labels26:
	bl swlock_release
	{
		ldaw r8, sp[12]
		nop
	}
.Ltmp33:
	#DEBUG_VALUE: AKM_i2c_shared_master_write_reg:data <- R8
	.loc	1 327 0                 # ../src/extensions/analogio-x8.xc:327:0
	st8 r5, r8[r5]
	.loc	1 233 0                 # ../src/extensions/analogio-x8.xc:233:0
.Ltmp34:
	{
		mov r0, r4
		nop
	}
.Lxta.call_labels27:
	bl swlock_acquire
	.loc	1 234 0                 # ../src/extensions/analogio-x8.xc:234:0
	{
		mov r0, r9
		stw r6, sp[1]
	}
	{
		ldc r1, 5
		mov r2, r8
	}
	{
		mov r3, r7
		nop
	}
.Lxta.call_labels28:
	bl _SAKM_i2c_master_write_reg_0
	.loc	1 235 0                 # ../src/extensions/analogio-x8.xc:235:0
	{
		mov r0, r4
		nop
	}
.Lxta.call_labels29:
	bl swlock_release
.Ltmp35:
	#DEBUG_VALUE: AKM_i2c_shared_master_write_reg:data <- R8
	{
		ldaw r8, sp[11]
		mkmsk r0, 2
	}
.Ltmp36:
	.loc	1 333 0                 # ../src/extensions/analogio-x8.xc:333:0
	st8 r0, r8[r5]
	.loc	1 233 0                 # ../src/extensions/analogio-x8.xc:233:0
.Ltmp37:
	{
		mov r0, r4
		nop
	}
.Lxta.call_labels30:
	bl swlock_acquire
	.loc	1 234 0                 # ../src/extensions/analogio-x8.xc:234:0
	{
		mkmsk r10, 3
		stw r6, sp[1]
	}
	{
		mov r0, r9
		mov r1, r10
	}
	{
		mov r2, r8
		mov r3, r7
	}
.Lxta.call_labels31:
	bl _SAKM_i2c_master_write_reg_0
	.loc	1 235 0                 # ../src/extensions/analogio-x8.xc:235:0
	{
		mov r0, r4
		nop
	}
.Lxta.call_labels32:
	bl swlock_release
	{
		ldaw r8, sp[10]
		nop
	}
.Ltmp38:
	#DEBUG_VALUE: AKM_i2c_shared_master_write_reg:data <- R8
	.loc	1 339 0                 # ../src/extensions/analogio-x8.xc:339:0
	st8 r5, r8[r5]
	.loc	1 233 0                 # ../src/extensions/analogio-x8.xc:233:0
.Ltmp39:
	{
		mov r0, r4
		nop
	}
.Lxta.call_labels33:
	bl swlock_acquire
	.loc	1 234 0                 # ../src/extensions/analogio-x8.xc:234:0
	{
		mov r0, r9
		stw r6, sp[1]
	}
	{
		mov r1, r10
		mov r2, r8
	}
	{
		mov r3, r7
		nop
	}
.Lxta.call_labels34:
	bl _SAKM_i2c_master_write_reg_0
	.loc	1 235 0                 # ../src/extensions/analogio-x8.xc:235:0
	{
		mov r0, r4
		nop
	}
.Lxta.call_labels35:
	bl swlock_release
	{
		ldaw r8, sp[9]
		nop
	}
.Ltmp40:
	#DEBUG_VALUE: AKM_i2c_shared_master_write_reg:data <- R8
	ldc r0, 141
.Ltmp41:
	.loc	1 348 0                 # ../src/extensions/analogio-x8.xc:348:0
	st8 r0, r8[r5]
	.loc	1 233 0                 # ../src/extensions/analogio-x8.xc:233:0
.Ltmp42:
	{
		mov r0, r4
		nop
	}
.Lxta.call_labels36:
	bl swlock_acquire
	.loc	1 234 0                 # ../src/extensions/analogio-x8.xc:234:0
	{
		ldc r1, 10
		stw r6, sp[1]
	}
	{
		mov r0, r9
		mov r2, r8
	}
	{
		mov r3, r7
		nop
	}
.Lxta.call_labels37:
	bl _SAKM_i2c_master_write_reg_0
	.loc	1 235 0                 # ../src/extensions/analogio-x8.xc:235:0
	{
		mov r0, r4
		nop
	}
.Lxta.call_labels38:
	bl swlock_release
.Ltmp43:
	#DEBUG_VALUE: AKM_i2c_shared_master_write_reg:data <- R10
	{
		ldaw r10, sp[8]
		ldc r8, 12
	}
.Ltmp44:
	.loc	1 357 0                 # ../src/extensions/analogio-x8.xc:357:0
	st8 r8, r10[r5]
	.loc	1 233 0                 # ../src/extensions/analogio-x8.xc:233:0
.Ltmp45:
	{
		mov r0, r4
		nop
	}
.Lxta.call_labels39:
	bl swlock_acquire
	.loc	1 234 0                 # ../src/extensions/analogio-x8.xc:234:0
	{
		ldc r1, 11
		stw r6, sp[1]
	}
	{
		mov r0, r9
		mov r2, r10
	}
	{
		mov r3, r7
		nop
	}
.Lxta.call_labels40:
	bl _SAKM_i2c_master_write_reg_0
	.loc	1 235 0                 # ../src/extensions/analogio-x8.xc:235:0
	{
		mov r0, r4
		nop
	}
.Lxta.call_labels41:
	bl swlock_release
	{
		ldaw r10, sp[7]
		nop
	}
.Ltmp46:
	#DEBUG_VALUE: AKM_i2c_shared_master_write_reg:data <- R10
	.loc	1 366 0                 # ../src/extensions/analogio-x8.xc:366:0
	st8 r5, r10[r5]
	.loc	1 233 0                 # ../src/extensions/analogio-x8.xc:233:0
.Ltmp47:
	{
		mov r0, r4
		nop
	}
.Lxta.call_labels42:
	bl swlock_acquire
	.loc	1 234 0                 # ../src/extensions/analogio-x8.xc:234:0
	{
		mov r0, r9
		stw r6, sp[1]
	}
	{
		mov r1, r8
		mov r2, r10
	}
	{
		mov r3, r7
		nop
	}
.Lxta.call_labels43:
	bl _SAKM_i2c_master_write_reg_0
	.loc	1 235 0                 # ../src/extensions/analogio-x8.xc:235:0
	{
		mov r0, r4
		nop
	}
.Lxta.call_labels44:
	bl swlock_release
	{
		ldaw r8, sp[6]
		nop
	}
.Ltmp48:
	#DEBUG_VALUE: AKM_i2c_shared_master_write_reg:data <- R8
	.loc	1 375 0                 # ../src/extensions/analogio-x8.xc:375:0
	st8 r5, r8[r5]
	.loc	1 233 0                 # ../src/extensions/analogio-x8.xc:233:0
.Ltmp49:
	{
		mov r0, r4
		nop
	}
.Lxta.call_labels45:
	bl swlock_acquire
	.loc	1 234 0                 # ../src/extensions/analogio-x8.xc:234:0
	{
		ldc r1, 13
		stw r6, sp[1]
	}
	{
		mov r0, r9
		mov r2, r8
	}
	{
		mov r3, r7
		nop
	}
.Lxta.call_labels46:
	bl _SAKM_i2c_master_write_reg_0
	.loc	1 235 0                 # ../src/extensions/analogio-x8.xc:235:0
	{
		mov r0, r4
		nop
	}
.Lxta.call_labels47:
	bl swlock_release
	{
		ldaw r10, sp[5]
		nop
	}
.Ltmp50:
	#DEBUG_VALUE: AKM_i2c_shared_master_write_reg:data <- R10
	ldc r0, 80
.Ltmp51:
	.loc	1 381 0                 # ../src/extensions/analogio-x8.xc:381:0
	st8 r0, r10[r5]
	.loc	1 233 0                 # ../src/extensions/analogio-x8.xc:233:0
.Ltmp52:
	{
		mov r0, r4
		nop
	}
.Lxta.call_labels48:
	bl swlock_acquire
	.loc	1 234 0                 # ../src/extensions/analogio-x8.xc:234:0
	{
		ldc r8, 14
		stw r6, sp[1]
	}
.Ltmp53:
	{
		mov r0, r9
		mov r1, r8
	}
	{
		mov r2, r10
		mov r3, r7
	}
.Lxta.call_labels49:
	bl _SAKM_i2c_master_write_reg_0
	.loc	1 235 0                 # ../src/extensions/analogio-x8.xc:235:0
	{
		mov r0, r4
		nop
	}
.Lxta.call_labels50:
	bl swlock_release
.Ltmp54:
	#DEBUG_VALUE: AKM_i2c_shared_master_write_reg:data <- R10
	{
		ldaw r10, sp[4]
		ldc r0, 5
	}
.Ltmp55:
	.loc	1 390 0                 # ../src/extensions/analogio-x8.xc:390:0
	st8 r0, r10[r5]
	.loc	1 233 0                 # ../src/extensions/analogio-x8.xc:233:0
.Ltmp56:
	{
		mov r0, r4
		nop
	}
.Lxta.call_labels51:
	bl swlock_acquire
	.loc	1 234 0                 # ../src/extensions/analogio-x8.xc:234:0
	{
		mov r0, r9
		stw r6, sp[1]
	}
	{
		mov r1, r5
		mov r2, r10
	}
	{
		mov r3, r7
		nop
	}
.Lxta.call_labels52:
	bl _SAKM_i2c_master_write_reg_0
	.loc	1 235 0                 # ../src/extensions/analogio-x8.xc:235:0
	{
		mov r0, r4
		nop
	}
.Lxta.call_labels53:
	bl swlock_release
	{
		ldaw r9, sp[3]
		nop
	}
.Ltmp57:
	#DEBUG_VALUE: AKM_i2c_shared_master_read_reg:data <- R9
	#DEBUG_VALUE: AKM_i2c_shared_master_read_reg:data <- R9
	.loc	1 393 0                 # ../src/extensions/analogio-x8.xc:393:0
	st8 r5, r9[r5]
	.loc	1 219 0                 # ../src/extensions/analogio-x8.xc:219:0
.Ltmp58:
	{
		mov r0, r4
		nop
	}
.Lxta.call_labels54:
	bl swlock_acquire
	.loc	1 220 0                 # ../src/extensions/analogio-x8.xc:220:0
	{
		mov r0, r8
		mov r1, r9
	}
	{
		mov r2, r7
		mov r3, r6
	}
.Lxta.call_labels55:
	bl _SAKM_i2c_master_read_reg_0
	.loc	1 221 0                 # ../src/extensions/analogio-x8.xc:221:0
	{
		mov r0, r4
		nop
	}
.Lxta.call_labels56:
	bl swlock_release
.Ltmp59:
	.loc	1 219 0                 # ../src/extensions/analogio-x8.xc:219:0
	{
		mov r0, r4
		nop
	}
.Lxta.call_labels57:
	bl swlock_acquire
	.loc	1 220 0                 # ../src/extensions/analogio-x8.xc:220:0
	{
		mov r0, r5
		mov r1, r9
	}
	{
		mov r2, r7
		mov r3, r6
	}
.Lxta.call_labels58:
	bl _SAKM_i2c_master_read_reg_0
	.loc	1 221 0                 # ../src/extensions/analogio-x8.xc:221:0
	{
		mov r0, r4
		nop
	}
.Lxta.call_labels59:
	bl swlock_release
.Ltmp60:
	#DEBUG_VALUE: retval <- 1
	#DEBUG_VALUE: device <- 32
	#DEBUG_VALUE: nbytes <- 1
	#DEBUG_VALUE: AKM_i2c_shared_master_read_reg:reg_addr <- 0
	#DEBUG_VALUE: retval <- 1
	#DEBUG_VALUE: device <- 32
	#DEBUG_VALUE: nbytes <- 1
	#DEBUG_VALUE: AKM_i2c_shared_master_read_reg:reg_addr <- 14
	#DEBUG_VALUE: nbytes <- 1
	#DEBUG_VALUE: AKM_i2c_shared_master_write_reg:reg_addr <- 0
	#DEBUG_VALUE: AKM_i2c_shared_master_write_reg:device <- 32
	#DEBUG_VALUE: nbytes <- 1
	#DEBUG_VALUE: AKM_i2c_shared_master_write_reg:reg_addr <- 14
	#DEBUG_VALUE: AKM_i2c_shared_master_write_reg:device <- 32
	#DEBUG_VALUE: nbytes <- 1
	#DEBUG_VALUE: AKM_i2c_shared_master_write_reg:reg_addr <- 13
	#DEBUG_VALUE: AKM_i2c_shared_master_write_reg:device <- 32
	#DEBUG_VALUE: nbytes <- 1
	#DEBUG_VALUE: AKM_i2c_shared_master_write_reg:reg_addr <- 12
	#DEBUG_VALUE: AKM_i2c_shared_master_write_reg:device <- 32
	#DEBUG_VALUE: nbytes <- 1
	#DEBUG_VALUE: AKM_i2c_shared_master_write_reg:reg_addr <- 11
	#DEBUG_VALUE: AKM_i2c_shared_master_write_reg:device <- 32
	#DEBUG_VALUE: nbytes <- 1
	#DEBUG_VALUE: AKM_i2c_shared_master_write_reg:reg_addr <- 10
	#DEBUG_VALUE: AKM_i2c_shared_master_write_reg:device <- 32
	#DEBUG_VALUE: nbytes <- 1
	#DEBUG_VALUE: AKM_i2c_shared_master_write_reg:reg_addr <- 7
	#DEBUG_VALUE: AKM_i2c_shared_master_write_reg:device <- 32
	#DEBUG_VALUE: nbytes <- 1
	#DEBUG_VALUE: AKM_i2c_shared_master_write_reg:reg_addr <- 7
	#DEBUG_VALUE: AKM_i2c_shared_master_write_reg:device <- 32
	#DEBUG_VALUE: nbytes <- 1
	#DEBUG_VALUE: AKM_i2c_shared_master_write_reg:reg_addr <- 5
	#DEBUG_VALUE: AKM_i2c_shared_master_write_reg:device <- 32
	#DEBUG_VALUE: nbytes <- 1
	#DEBUG_VALUE: AKM_i2c_shared_master_write_reg:reg_addr <- 2
	#DEBUG_VALUE: AKM_i2c_shared_master_write_reg:device <- 32
	#DEBUG_VALUE: nbytes <- 1
	#DEBUG_VALUE: AKM_i2c_shared_master_write_reg:reg_addr <- 1
	#DEBUG_VALUE: AKM_i2c_shared_master_write_reg:device <- 32
	#DEBUG_VALUE: nbytes <- 1
	#DEBUG_VALUE: AKM_i2c_shared_master_write_reg:reg_addr <- 0
	#DEBUG_VALUE: AKM_i2c_shared_master_write_reg:device <- 32
	#DEBUG_VALUE: nbytes <- 1
	#DEBUG_VALUE: AKM_i2c_shared_master_write_reg:reg_addr <- 1
	#DEBUG_VALUE: AKM_i2c_shared_master_write_reg:device <- 34
	#DEBUG_VALUE: nbytes <- 1
	#DEBUG_VALUE: AKM_i2c_shared_master_write_reg:reg_addr <- 5
	#DEBUG_VALUE: AKM_i2c_shared_master_write_reg:device <- 34
	#DEBUG_VALUE: nbytes <- 1
	#DEBUG_VALUE: AKM_i2c_shared_master_write_reg:reg_addr <- 4
	#DEBUG_VALUE: AKM_i2c_shared_master_write_reg:device <- 34
	#DEBUG_VALUE: nbytes <- 1
	#DEBUG_VALUE: AKM_i2c_shared_master_write_reg:reg_addr <- 3
	#DEBUG_VALUE: AKM_i2c_shared_master_write_reg:device <- 34
	#DEBUG_VALUE: nbytes <- 1
	#DEBUG_VALUE: AKM_i2c_shared_master_write_reg:reg_addr <- 2
	#DEBUG_VALUE: AKM_i2c_shared_master_write_reg:device <- 34
	{
		nop
		ldw r10, sp[28]
	}
	{
		nop
		ldw r8, sp[26]
	}
	{
		nop
		ldw r9, sp[27]
	}
.Ltmp61:
	{
		nop
		ldw r6, sp[24]
	}
	{
		nop
		ldw r7, sp[25]
	}
.Ltmp62:
	ldd r5, r4, sp[11]              # 4-byte Folded Reload
	{
		nop
		retsp 30
	}
	# RETURN_REG_HOLDER
.Ltmp63:
	.cc_bottom configAnalogIOx8.function
	.set	configAnalogIOx8.nstackwords,((_SAKM_i2c_master_write_reg_0.nstackwords $M swlock_acquire.nstackwords $M _SAKM_i2c_master_read_reg_0.nstackwords $M swlock_release.nstackwords) + 30)
	.globl	configAnalogIOx8.nstackwords
	.set	configAnalogIOx8.maxcores,_SAKM_i2c_master_read_reg_0.maxcores $M _SAKM_i2c_master_write_reg_0.maxcores $M swlock_acquire.maxcores $M swlock_release.maxcores $M 1
	.globl	configAnalogIOx8.maxcores
	.set	configAnalogIOx8.maxtimers,_SAKM_i2c_master_read_reg_0.maxtimers $M _SAKM_i2c_master_write_reg_0.maxtimers $M swlock_acquire.maxtimers $M swlock_release.maxtimers $M 0
	.globl	configAnalogIOx8.maxtimers
	.set	configAnalogIOx8.maxchanends,_SAKM_i2c_master_read_reg_0.maxchanends $M _SAKM_i2c_master_write_reg_0.maxchanends $M swlock_acquire.maxchanends $M swlock_release.maxchanends $M 0
	.globl	configAnalogIOx8.maxchanends
.Ltmp64:
	.size	configAnalogIOx8, .Ltmp64-configAnalogIOx8
.Lfunc_end0:
	.cfi_endproc

	.globl	AKM_i2c_shared_master_read_reg
	.align	4
	.type	AKM_i2c_shared_master_read_reg,@function
	.cc_top AKM_i2c_shared_master_read_reg.function,AKM_i2c_shared_master_read_reg
AKM_i2c_shared_master_read_reg:         # @AKM_i2c_shared_master_read_reg
.Lfunc_begin1:
	.loc	1 217 0                 # ../src/extensions/analogio-x8.xc:217:0
	.cfi_startproc
	.issue_mode dual
# BB#0:                                 # %allocas
.Lxtalabel1:
	{
		nop
		dualentsp 10
	}
.Ltmp65:
	.cfi_def_cfa_offset 40
.Ltmp66:
	.cfi_offset 15, 0
	std r5, r4, sp[2]               # 4-byte Folded Spill
.Ltmp67:
	.cfi_offset 4, -24
.Ltmp68:
	.cfi_offset 5, -20
	std r7, r6, sp[3]               # 4-byte Folded Spill
.Ltmp69:
	.cfi_offset 6, -16
.Ltmp70:
	.cfi_offset 7, -12
	std r9, r8, sp[4]               # 4-byte Folded Spill
.Ltmp71:
	.cfi_offset 8, -8
.Ltmp72:
	.cfi_offset 9, -4
	#DEBUG_VALUE: AKM_i2c_shared_master_read_reg:i2cPorts <- R0
	#DEBUG_VALUE: AKM_i2c_shared_master_read_reg:device <- R1
	#DEBUG_VALUE: AKM_i2c_shared_master_read_reg:reg_addr <- R2
	#DEBUG_VALUE: AKM_i2c_shared_master_read_reg:data <- R3
	#DEBUG_VALUE: AKM_i2c_shared_master_read_reg:nbytes <- [SP+44]
.Ltmp73:
	#DEBUG_VALUE: AKM_i2c_shared_master_read_reg:data <- R4
	#DEBUG_VALUE: AKM_i2c_shared_master_read_reg:reg_addr <- R5
	{
		mov r4, r3
		mov r5, r2
	}
.Ltmp74:
	#DEBUG_VALUE: AKM_i2c_shared_master_read_reg:device <- R6
	#DEBUG_VALUE: AKM_i2c_shared_master_read_reg:i2cPorts <- R7
	{
		mov r6, r1
		mov r7, r0
	}
.Ltmp75:
	{
		nop
		ldw r9, sp[12]
	}
	.loc	1 219 0 prologue_end    # ../src/extensions/analogio-x8.xc:219:0
.Ltmp76:
	ldaw r8, dp[i2c_swlock]
	{
		mov r0, r8
		nop
	}
.Lxta.call_labels60:
	bl swlock_acquire
	{
		nop
		stw r9, sp[2]
	}
.Ltmp77:
	#DEBUG_VALUE: AKM_i2c_shared_master_read_reg:device <- R0
	.loc	1 220 0                 # ../src/extensions/analogio-x8.xc:220:0
	{
		mov r0, r6
		stw r7, sp[1]
	}
.Ltmp78:
	#DEBUG_VALUE: AKM_i2c_shared_master_read_reg:reg_addr <- R1
	#DEBUG_VALUE: AKM_i2c_shared_master_read_reg:data <- R2
	{
		mov r1, r5
		mov r2, r4
	}
.Ltmp79:
.Lxta.call_labels61:
	bl AKM_i2c_master_read_reg
.Ltmp80:
	#DEBUG_VALUE: retval <- 1
	.loc	1 221 0                 # ../src/extensions/analogio-x8.xc:221:0
	{
		mov r0, r8
		nop
	}
.Lxta.call_labels62:
	bl swlock_release
	{
		mkmsk r0, 1
		nop
	}
	ldd r9, r8, sp[4]               # 4-byte Folded Reload
	ldd r7, r6, sp[3]               # 4-byte Folded Reload
	ldd r5, r4, sp[2]               # 4-byte Folded Reload
	{
		nop
		retsp 10
	}
.Ltmp81:
	# RETURN_REG_HOLDER
.Ltmp82:
	.cc_bottom AKM_i2c_shared_master_read_reg.function
	.set	AKM_i2c_shared_master_read_reg.nstackwords,((swlock_acquire.nstackwords $M AKM_i2c_master_read_reg.nstackwords $M swlock_release.nstackwords) + 10)
	.globl	AKM_i2c_shared_master_read_reg.nstackwords
	.set	AKM_i2c_shared_master_read_reg.maxcores,AKM_i2c_master_read_reg.maxcores $M swlock_acquire.maxcores $M swlock_release.maxcores $M 1
	.globl	AKM_i2c_shared_master_read_reg.maxcores
	.set	AKM_i2c_shared_master_read_reg.maxtimers,AKM_i2c_master_read_reg.maxtimers $M swlock_acquire.maxtimers $M swlock_release.maxtimers $M 0
	.globl	AKM_i2c_shared_master_read_reg.maxtimers
	.set	AKM_i2c_shared_master_read_reg.maxchanends,AKM_i2c_master_read_reg.maxchanends $M swlock_acquire.maxchanends $M swlock_release.maxchanends $M 0
	.globl	AKM_i2c_shared_master_read_reg.maxchanends
.Ltmp83:
	.size	AKM_i2c_shared_master_read_reg, .Ltmp83-AKM_i2c_shared_master_read_reg
.Lfunc_end1:
	.cfi_endproc

	.globl	_SAKM_i2c_shared_master_read_reg_0
	.align	4
	.type	_SAKM_i2c_shared_master_read_reg_0,@function
	.cc_top _SAKM_i2c_shared_master_read_reg_0.function,_SAKM_i2c_shared_master_read_reg_0
_SAKM_i2c_shared_master_read_reg_0:     # @_SAKM_i2c_shared_master_read_reg_0
.Lfunc_begin2:
	.loc	1 217 0                 # ../src/extensions/analogio-x8.xc:217:0
	.cfi_startproc
	.issue_mode dual
# BB#0:                                 # %allocas
.Lxtalabel2:
	{
		nop
		dualentsp 8
	}
.Ltmp84:
	.cfi_def_cfa_offset 32
.Ltmp85:
	.cfi_offset 15, 0
	std r5, r4, sp[1]               # 4-byte Folded Spill
.Ltmp86:
	.cfi_offset 4, -24
.Ltmp87:
	.cfi_offset 5, -20
	std r7, r6, sp[2]               # 4-byte Folded Spill
.Ltmp88:
	.cfi_offset 6, -16
.Ltmp89:
	.cfi_offset 7, -12
.Ltmp90:
	.cfi_offset 8, -8
	#DEBUG_VALUE: AKM_i2c_shared_master_read_reg:i2cPorts <- R0
	#DEBUG_VALUE: AKM_i2c_shared_master_read_reg:reg_addr <- R1
	#DEBUG_VALUE: AKM_i2c_shared_master_read_reg:data <- R2
	{
		mov r4, r3
		stw r8, sp[6]
	}
.Ltmp91:
	#DEBUG_VALUE: AKM_i2c_shared_master_read_reg:data <- R5
	#DEBUG_VALUE: AKM_i2c_shared_master_read_reg:reg_addr <- R6
	{
		mov r5, r2
		mov r6, r1
	}
.Ltmp92:
	{
		mov r7, r0
		nop
	}
.Ltmp93:
	#DEBUG_VALUE: device <- 32
	#DEBUG_VALUE: nbytes <- 1
	#DEBUG_VALUE: AKM_i2c_shared_master_read_reg:i2cPorts <- R7
	.loc	1 219 0 prologue_end    # ../src/extensions/analogio-x8.xc:219:0
	ldaw r8, dp[i2c_swlock]
	{
		mov r0, r8
		nop
	}
.Lxta.call_labels63:
	bl swlock_acquire
.Ltmp94:
	#DEBUG_VALUE: AKM_i2c_shared_master_read_reg:reg_addr <- R0
	#DEBUG_VALUE: AKM_i2c_shared_master_read_reg:data <- R1
	.loc	1 220 0                 # ../src/extensions/analogio-x8.xc:220:0
	{
		mov r0, r6
		mov r1, r5
	}
.Ltmp95:
	#DEBUG_VALUE: AKM_i2c_shared_master_read_reg:i2cPorts <- R2
	{
		mov r2, r7
		mov r3, r4
	}
.Ltmp96:
.Lxta.call_labels64:
	bl _SAKM_i2c_master_read_reg_0
.Ltmp97:
	#DEBUG_VALUE: retval <- 1
	.loc	1 221 0                 # ../src/extensions/analogio-x8.xc:221:0
	{
		mov r0, r8
		nop
	}
.Lxta.call_labels65:
	bl swlock_release
	{
		mkmsk r0, 1
		ldw r8, sp[6]
	}
	ldd r7, r6, sp[2]               # 4-byte Folded Reload
	ldd r5, r4, sp[1]               # 4-byte Folded Reload
	{
		nop
		retsp 8
	}
	# RETURN_REG_HOLDER
.Ltmp98:
	.cc_bottom _SAKM_i2c_shared_master_read_reg_0.function
	.set	_SAKM_i2c_shared_master_read_reg_0.nstackwords,((swlock_acquire.nstackwords $M _SAKM_i2c_master_read_reg_0.nstackwords $M swlock_release.nstackwords) + 8)
	.globl	_SAKM_i2c_shared_master_read_reg_0.nstackwords
	.set	_SAKM_i2c_shared_master_read_reg_0.maxcores,_SAKM_i2c_master_read_reg_0.maxcores $M swlock_acquire.maxcores $M swlock_release.maxcores $M 1
	.globl	_SAKM_i2c_shared_master_read_reg_0.maxcores
	.set	_SAKM_i2c_shared_master_read_reg_0.maxtimers,_SAKM_i2c_master_read_reg_0.maxtimers $M swlock_acquire.maxtimers $M swlock_release.maxtimers $M 0
	.globl	_SAKM_i2c_shared_master_read_reg_0.maxtimers
	.set	_SAKM_i2c_shared_master_read_reg_0.maxchanends,_SAKM_i2c_master_read_reg_0.maxchanends $M swlock_acquire.maxchanends $M swlock_release.maxchanends $M 0
	.globl	_SAKM_i2c_shared_master_read_reg_0.maxchanends
.Ltmp99:
	.size	_SAKM_i2c_shared_master_read_reg_0, .Ltmp99-_SAKM_i2c_shared_master_read_reg_0
.Lfunc_end2:
	.cfi_endproc

	.globl	AKM_i2c_shared_master_write_reg
	.align	4
	.type	AKM_i2c_shared_master_write_reg,@function
	.cc_top AKM_i2c_shared_master_write_reg.function,AKM_i2c_shared_master_write_reg
AKM_i2c_shared_master_write_reg:        # @AKM_i2c_shared_master_write_reg
.Lfunc_begin3:
	.loc	1 231 0                 # ../src/extensions/analogio-x8.xc:231:0
	.cfi_startproc
	.issue_mode dual
# BB#0:                                 # %allocas
.Lxtalabel3:
	{
		nop
		dualentsp 10
	}
.Ltmp100:
	.cfi_def_cfa_offset 40
.Ltmp101:
	.cfi_offset 15, 0
	std r5, r4, sp[2]               # 4-byte Folded Spill
.Ltmp102:
	.cfi_offset 4, -24
.Ltmp103:
	.cfi_offset 5, -20
	std r7, r6, sp[3]               # 4-byte Folded Spill
.Ltmp104:
	.cfi_offset 6, -16
.Ltmp105:
	.cfi_offset 7, -12
	std r9, r8, sp[4]               # 4-byte Folded Spill
.Ltmp106:
	.cfi_offset 8, -8
.Ltmp107:
	.cfi_offset 9, -4
	#DEBUG_VALUE: AKM_i2c_shared_master_write_reg:i2cPorts <- R0
	#DEBUG_VALUE: AKM_i2c_shared_master_write_reg:device <- R1
	#DEBUG_VALUE: AKM_i2c_shared_master_write_reg:reg_addr <- R2
	#DEBUG_VALUE: AKM_i2c_shared_master_write_reg:data <- R3
	#DEBUG_VALUE: AKM_i2c_shared_master_write_reg:nbytes <- [SP+44]
.Ltmp108:
	#DEBUG_VALUE: AKM_i2c_shared_master_write_reg:data <- R4
	#DEBUG_VALUE: AKM_i2c_shared_master_write_reg:reg_addr <- R5
	{
		mov r4, r3
		mov r5, r2
	}
.Ltmp109:
	#DEBUG_VALUE: AKM_i2c_shared_master_write_reg:device <- R6
	#DEBUG_VALUE: AKM_i2c_shared_master_write_reg:i2cPorts <- R7
	{
		mov r6, r1
		mov r7, r0
	}
.Ltmp110:
	{
		nop
		ldw r9, sp[12]
	}
	.loc	1 233 0 prologue_end    # ../src/extensions/analogio-x8.xc:233:0
.Ltmp111:
	ldaw r8, dp[i2c_swlock]
	{
		mov r0, r8
		nop
	}
.Lxta.call_labels66:
	bl swlock_acquire
	{
		nop
		stw r9, sp[2]
	}
.Ltmp112:
	#DEBUG_VALUE: AKM_i2c_shared_master_write_reg:device <- R0
	.loc	1 234 0                 # ../src/extensions/analogio-x8.xc:234:0
	{
		mov r0, r6
		stw r7, sp[1]
	}
.Ltmp113:
	#DEBUG_VALUE: AKM_i2c_shared_master_write_reg:reg_addr <- R1
	#DEBUG_VALUE: AKM_i2c_shared_master_write_reg:data <- R2
	{
		mov r1, r5
		mov r2, r4
	}
.Ltmp114:
.Lxta.call_labels67:
	bl AKM_i2c_master_write_reg
.Ltmp115:
	#DEBUG_VALUE: retval <- R4
	{
		mov r4, r0
		mov r0, r8
	}
.Ltmp116:
	.loc	1 235 0                 # ../src/extensions/analogio-x8.xc:235:0
.Lxta.call_labels68:
	bl swlock_release
	{
		mov r0, r4
		nop
	}
	ldd r9, r8, sp[4]               # 4-byte Folded Reload
	ldd r7, r6, sp[3]               # 4-byte Folded Reload
	ldd r5, r4, sp[2]               # 4-byte Folded Reload
	{
		nop
		retsp 10
	}
.Ltmp117:
	# RETURN_REG_HOLDER
.Ltmp118:
	.cc_bottom AKM_i2c_shared_master_write_reg.function
	.set	AKM_i2c_shared_master_write_reg.nstackwords,((swlock_acquire.nstackwords $M AKM_i2c_master_write_reg.nstackwords $M swlock_release.nstackwords) + 10)
	.globl	AKM_i2c_shared_master_write_reg.nstackwords
	.set	AKM_i2c_shared_master_write_reg.maxcores,AKM_i2c_master_write_reg.maxcores $M swlock_acquire.maxcores $M swlock_release.maxcores $M 1
	.globl	AKM_i2c_shared_master_write_reg.maxcores
	.set	AKM_i2c_shared_master_write_reg.maxtimers,AKM_i2c_master_write_reg.maxtimers $M swlock_acquire.maxtimers $M swlock_release.maxtimers $M 0
	.globl	AKM_i2c_shared_master_write_reg.maxtimers
	.set	AKM_i2c_shared_master_write_reg.maxchanends,AKM_i2c_master_write_reg.maxchanends $M swlock_acquire.maxchanends $M swlock_release.maxchanends $M 0
	.globl	AKM_i2c_shared_master_write_reg.maxchanends
.Ltmp119:
	.size	AKM_i2c_shared_master_write_reg, .Ltmp119-AKM_i2c_shared_master_write_reg
.Lfunc_end3:
	.cfi_endproc

	.globl	_SAKM_i2c_shared_master_write_reg_0
	.align	4
	.type	_SAKM_i2c_shared_master_write_reg_0,@function
	.cc_top _SAKM_i2c_shared_master_write_reg_0.function,_SAKM_i2c_shared_master_write_reg_0
_SAKM_i2c_shared_master_write_reg_0:    # @_SAKM_i2c_shared_master_write_reg_0
.Lfunc_begin4:
	.loc	1 231 0                 # ../src/extensions/analogio-x8.xc:231:0
	.cfi_startproc
	.issue_mode dual
# BB#0:                                 # %allocas
.Lxtalabel4:
	{
		nop
		dualentsp 8
	}
.Ltmp120:
	.cfi_def_cfa_offset 32
.Ltmp121:
	.cfi_offset 15, 0
	std r5, r4, sp[1]               # 4-byte Folded Spill
.Ltmp122:
	.cfi_offset 4, -24
.Ltmp123:
	.cfi_offset 5, -20
	std r7, r6, sp[2]               # 4-byte Folded Spill
.Ltmp124:
	.cfi_offset 6, -16
.Ltmp125:
	.cfi_offset 7, -12
	std r9, r8, sp[3]               # 4-byte Folded Spill
.Ltmp126:
	.cfi_offset 8, -8
.Ltmp127:
	.cfi_offset 9, -4
	#DEBUG_VALUE: AKM_i2c_shared_master_write_reg:i2cPorts <- R0
	#DEBUG_VALUE: AKM_i2c_shared_master_write_reg:device <- R1
	#DEBUG_VALUE: AKM_i2c_shared_master_write_reg:reg_addr <- R2
	#DEBUG_VALUE: AKM_i2c_shared_master_write_reg:data <- R3
.Ltmp128:
	#DEBUG_VALUE: AKM_i2c_shared_master_write_reg:data <- R4
	#DEBUG_VALUE: AKM_i2c_shared_master_write_reg:reg_addr <- R5
	{
		mov r4, r3
		mov r5, r2
	}
.Ltmp129:
	#DEBUG_VALUE: AKM_i2c_shared_master_write_reg:device <- R6
	#DEBUG_VALUE: nbytes <- 1
	#DEBUG_VALUE: AKM_i2c_shared_master_write_reg:i2cPorts <- R7
	{
		mov r6, r1
		mov r7, r0
	}
.Ltmp130:
	{
		nop
		ldw r9, sp[9]
	}
	.loc	1 233 0 prologue_end    # ../src/extensions/analogio-x8.xc:233:0
.Ltmp131:
	ldaw r8, dp[i2c_swlock]
	{
		mov r0, r8
		nop
	}
.Lxta.call_labels69:
	bl swlock_acquire
.Ltmp132:
	#DEBUG_VALUE: AKM_i2c_shared_master_write_reg:device <- R0
	.loc	1 234 0                 # ../src/extensions/analogio-x8.xc:234:0
	{
		mov r0, r6
		stw r9, sp[1]
	}
.Ltmp133:
	#DEBUG_VALUE: AKM_i2c_shared_master_write_reg:reg_addr <- R1
	#DEBUG_VALUE: AKM_i2c_shared_master_write_reg:data <- R2
	{
		mov r1, r5
		mov r2, r4
	}
.Ltmp134:
	{
		mov r3, r7
		nop
	}
.Ltmp135:
	#DEBUG_VALUE: AKM_i2c_shared_master_write_reg:i2cPorts <- R3
.Lxta.call_labels70:
	bl _SAKM_i2c_master_write_reg_0
.Ltmp136:
	#DEBUG_VALUE: retval <- R4
	{
		mov r4, r0
		mov r0, r8
	}
.Ltmp137:
	.loc	1 235 0                 # ../src/extensions/analogio-x8.xc:235:0
.Lxta.call_labels71:
	bl swlock_release
	{
		mov r0, r4
		nop
	}
	ldd r9, r8, sp[3]               # 4-byte Folded Reload
	ldd r7, r6, sp[2]               # 4-byte Folded Reload
	ldd r5, r4, sp[1]               # 4-byte Folded Reload
	{
		nop
		retsp 8
	}
	# RETURN_REG_HOLDER
.Ltmp138:
	.cc_bottom _SAKM_i2c_shared_master_write_reg_0.function
	.set	_SAKM_i2c_shared_master_write_reg_0.nstackwords,((swlock_acquire.nstackwords $M _SAKM_i2c_master_write_reg_0.nstackwords $M swlock_release.nstackwords) + 8)
	.globl	_SAKM_i2c_shared_master_write_reg_0.nstackwords
	.set	_SAKM_i2c_shared_master_write_reg_0.maxcores,_SAKM_i2c_master_write_reg_0.maxcores $M swlock_acquire.maxcores $M swlock_release.maxcores $M 1
	.globl	_SAKM_i2c_shared_master_write_reg_0.maxcores
	.set	_SAKM_i2c_shared_master_write_reg_0.maxtimers,_SAKM_i2c_master_write_reg_0.maxtimers $M swlock_acquire.maxtimers $M swlock_release.maxtimers $M 0
	.globl	_SAKM_i2c_shared_master_write_reg_0.maxtimers
	.set	_SAKM_i2c_shared_master_write_reg_0.maxchanends,_SAKM_i2c_master_write_reg_0.maxchanends $M swlock_acquire.maxchanends $M swlock_release.maxchanends $M 0
	.globl	_SAKM_i2c_shared_master_write_reg_0.maxchanends
.Ltmp139:
	.size	_SAKM_i2c_shared_master_write_reg_0, .Ltmp139-_SAKM_i2c_shared_master_write_reg_0
.Lfunc_end4:
	.cfi_endproc

	.align	4
	.type	highPulseDrive,@function
	.cc_top highPulseDrive.function,highPulseDrive
highPulseDrive:                         # @highPulseDrive
.Lfunc_begin5:
	.loc	1 81 0                  # ../src/extensions/analogio-x8.xc:81:0
	.cfi_startproc
	.issue_mode dual
# BB#0:                                 # %allocas
.Lxtalabel5:
	{
		nop
		dualentsp 0
	}
	{
		extsp 2
		nop
	}
.Ltmp140:
	.cfi_def_cfa_offset 8
	{
		nop
		stw r4, sp[0]
	}
.Ltmp141:
	.cfi_offset 4, -8
	#DEBUG_VALUE: highPulseDrive:i2c <- R0
	#DEBUG_VALUE: highPulseDrive:sdaValue <- R1
	.loc	1 82 5 prologue_end     # ../src/extensions/analogio-x8.xc:82:5
.Ltmp142:
	bf r1, .LBB5_2
.Ltmp143:
# BB#1:                                 # %iftrue
.Lxtalabel6:
	#DEBUG_VALUE: highPulseDrive:i2c <- R0
	{
		ldc r1, 14
		nop
	}
.Ltmp144:
	#DEBUG_VALUE: time <- R2
	.loc	1 83 43                 # ../src/extensions/analogio-x8.xc:83:43
.Lxta.endpoint_labels0:
	{
		out res[r0], r1
		gettime r2
	}
.Ltmp145:
	ldc r3, 250
	.loc	1 61 0                  # ../src/extensions/analogio-x8.xc:61:0
.Ltmp146:
	{
		add r2, r2, r3
		get r11, id
	}
	.loc	1 62 0                  # ../src/extensions/analogio-x8.xc:62:0
	ldaw r4, dp[__timers]
	{
		nop
		ldw r11, r4[r11]
	}
	.loc	1 62 0                  # ../src/extensions/analogio-x8.xc:62:0
	{
		setd res[r11], r2
		nop
	}
	.loc	1 62 0                  # ../src/extensions/analogio-x8.xc:62:0
	{
		setc res[r11], 9
		nop
	}
	.loc	1 62 0                  # ../src/extensions/analogio-x8.xc:62:0
.Ltmp147:
.Lxta.endpoint_labels1:
	{
		in r2, res[r11]
		nop
	}
.Ltmp148:
	#DEBUG_VALUE: _ <- R2
	{
		mkmsk r2, 4
		nop
	}
.Ltmp149:
	bu .LBB5_3
.Ltmp150:
.LBB5_2:                                # %iffalse
.Lxtalabel7:
	#DEBUG_VALUE: highPulseDrive:i2c <- R0
	{
		ldc r1, 12
		nop
	}
.Ltmp151:
	#DEBUG_VALUE: time <- R2
	.loc	1 94 42                 # ../src/extensions/analogio-x8.xc:94:42
.Lxta.endpoint_labels2:
	{
		out res[r0], r1
		gettime r2
	}
.Ltmp152:
	ldc r3, 250
	.loc	1 61 0                  # ../src/extensions/analogio-x8.xc:61:0
.Ltmp153:
	{
		add r2, r2, r3
		get r11, id
	}
	.loc	1 62 0                  # ../src/extensions/analogio-x8.xc:62:0
	ldaw r4, dp[__timers]
	{
		nop
		ldw r11, r4[r11]
	}
	.loc	1 62 0                  # ../src/extensions/analogio-x8.xc:62:0
	{
		setd res[r11], r2
		nop
	}
	.loc	1 62 0                  # ../src/extensions/analogio-x8.xc:62:0
	{
		setc res[r11], 9
		nop
	}
	.loc	1 62 0                  # ../src/extensions/analogio-x8.xc:62:0
.Ltmp154:
.Lxta.endpoint_labels3:
	{
		in r2, res[r11]
		nop
	}
.Ltmp155:
	#DEBUG_VALUE: _ <- R2
	{
		ldc r2, 13
		nop
	}
.Ltmp156:
.LBB5_3:                                # %return
.Lxtalabel8:
	#DEBUG_VALUE: time <- R2
	.loc	1 96 43                 # ../src/extensions/analogio-x8.xc:96:43
.Lxta.endpoint_labels4:
	{
		out res[r0], r2
		gettime r2
	}
.Ltmp157:
	.loc	1 61 0                  # ../src/extensions/analogio-x8.xc:61:0
	{
		add r2, r2, r3
		nop
	}
	.loc	1 62 0                  # ../src/extensions/analogio-x8.xc:62:0
	{
		setd res[r11], r2
		nop
	}
	.loc	1 62 0                  # ../src/extensions/analogio-x8.xc:62:0
.Ltmp158:
.Lxta.endpoint_labels5:
	{
		in r2, res[r11]
		nop
	}
.Ltmp159:
	#DEBUG_VALUE: _ <- R2
	.loc	1 60 0                  # ../src/extensions/analogio-x8.xc:60:0
	{
		gettime r2
		nop
	}
.Ltmp160:
	#DEBUG_VALUE: time <- R2
	.loc	1 61 0                  # ../src/extensions/analogio-x8.xc:61:0
	{
		add r2, r2, r3
		nop
	}
.Ltmp161:
	.loc	1 62 0                  # ../src/extensions/analogio-x8.xc:62:0
	{
		setd res[r11], r2
		nop
	}
	.loc	1 62 0                  # ../src/extensions/analogio-x8.xc:62:0
.Ltmp162:
.Lxta.endpoint_labels6:
	{
		in r2, res[r11]
		nop
	}
.Ltmp163:
	#DEBUG_VALUE: _ <- R2
	#DEBUG_VALUE: time <- R0
	.loc	1 98 42                 # ../src/extensions/analogio-x8.xc:98:42
.Lxta.endpoint_labels7:
	{
		out res[r0], r1
		gettime r0
	}
.Ltmp164:
	.loc	1 61 0                  # ../src/extensions/analogio-x8.xc:61:0
	{
		add r0, r0, r3
		nop
	}
	.loc	1 62 0                  # ../src/extensions/analogio-x8.xc:62:0
	{
		setd res[r11], r0
		nop
	}
.Ltmp165:
	#DEBUG_VALUE: _ <- R0
	.loc	1 62 0                  # ../src/extensions/analogio-x8.xc:62:0
.Lxta.endpoint_labels8:
	{
		in r0, res[r11]
		ldw r4, sp[0]
	}
.Ltmp166:
	{
		ldaw sp, sp[2]
		nop
	}
	{
		nop
		retsp 0
	}
	# RETURN_REG_HOLDER
.Ltmp167:
	.cc_bottom highPulseDrive.function
	.set	highPulseDrive.nstackwords,2
	.set	highPulseDrive.maxcores,1
	.set	highPulseDrive.maxtimers,0
	.set	highPulseDrive.maxchanends,0
.Ltmp168:
	.size	highPulseDrive, .Ltmp168-highPulseDrive
.Lfunc_end5:
	.cfi_endproc

	.section	.cp.rodata.cst4,"aMc",@progbits,4
	.cc_top .LCPI6_0.data,.LCPI6_0
	.align	4
	.type	.LCPI6_0,@object
	.size	.LCPI6_0, 4
.LCPI6_0:
	.long	4294967288              # 0xfffffff8
	.cc_bottom .LCPI6_0.data
	.text
	.align	4
	.type	tx8,@function
	.cc_top tx8.function,tx8
tx8:                                    # @tx8
.Lfunc_begin6:
	.loc	1 142 0                 # ../src/extensions/analogio-x8.xc:142:0
	.cfi_startproc
	.issue_mode dual
# BB#0:                                 # %allocas
.Lxtalabel9:
	{
		nop
		dualentsp 6
	}
.Ltmp169:
	.cfi_def_cfa_offset 24
.Ltmp170:
	.cfi_offset 15, 0
	std r5, r4, sp[1]               # 4-byte Folded Spill
.Ltmp171:
	.cfi_offset 4, -16
.Ltmp172:
	.cfi_offset 5, -12
.Ltmp173:
	.cfi_offset 6, -8
	#DEBUG_VALUE: tx8:i2c <- R0
	#DEBUG_VALUE: tx8:data <- R1
.Ltmp174:
	#DEBUG_VALUE: tx8:i2c <- R4
	{
		mov r4, r0
		stw r6, sp[4]
	}
.Ltmp175:
	.loc	1 144 0 prologue_end    # ../src/extensions/analogio-x8.xc:144:0
	{
		bitrev r0, r1
		nop
	}
	.loc	1 144 0                 # ../src/extensions/analogio-x8.xc:144:0
	{
		shr r5, r0, 24
		nop
	}
.Ltmp176:
	#DEBUG_VALUE: i <- 8
	#DEBUG_VALUE: CtlAdrsData <- R5
	ldw r6, cp[.LCPI6_0]
.Ltmp177:
.LBB6_1:                                # %LoopBody
                                        # =>This Inner Loop Header: Depth=1
.Lxtalabel10:
	#DEBUG_VALUE: tx8:i2c <- R4
	#DEBUG_VALUE: i <- 8
	.loc	1 146 0                 # ../src/extensions/analogio-x8.xc:146:0
	{
		mov r1, r5
		nop
	}
	{
		zext r1, 1
		mov r0, r4
	}
	.loc	1 146 0                 # ../src/extensions/analogio-x8.xc:146:0
.Lxta.call_labels72:
	bl highPulseDrive
.Ltmp178:
	#DEBUG_VALUE: CtlAdrsData <- R5
	.loc	1 147 0                 # ../src/extensions/analogio-x8.xc:147:0
	{
		shr r5, r5, 1
		add r6, r6, 1
	}
.Ltmp179:
.xtaloop 8
	# LOOPMARKER 1
.Lxta.loop_labels0:
	# LOOPMARKER 0
	.loc	1 145 0                 # ../src/extensions/analogio-x8.xc:145:0
	bt r6, .LBB6_1
.Ltmp180:
# BB#2:                                 # %ifdone
.Lxtalabel11:
	#DEBUG_VALUE: tx8:i2c <- R4
	#DEBUG_VALUE: highPulseSample:expectedSDA <- 0
	{
		ldc r0, 14
		nop
	}
.Ltmp181:
	#DEBUG_VALUE: time <- R1
	.loc	1 105 39                # ../src/extensions/analogio-x8.xc:105:39
.Lxta.endpoint_labels9:
	{
		out res[r4], r0
		gettime r1
	}
.Ltmp182:
	ldc r2, 250
	.loc	1 61 0                  # ../src/extensions/analogio-x8.xc:61:0
.Ltmp183:
	{
		add r1, r1, r2
		get r11, id
	}
	.loc	1 62 0                  # ../src/extensions/analogio-x8.xc:62:0
	ldaw r3, dp[__timers]
	{
		nop
		ldw r3, r3[r11]
	}
	.loc	1 62 0                  # ../src/extensions/analogio-x8.xc:62:0
	{
		setd res[r3], r1
		nop
	}
	.loc	1 62 0                  # ../src/extensions/analogio-x8.xc:62:0
	{
		setc res[r3], 9
		nop
	}
	.loc	1 62 0                  # ../src/extensions/analogio-x8.xc:62:0
.Ltmp184:
.Lxta.endpoint_labels10:
	{
		in r1, res[r3]
		nop
	}
.Ltmp185:
	#DEBUG_VALUE: _ <- R1
	{
		mkmsk r1, 4
		nop
	}
.Ltmp186:
	#DEBUG_VALUE: time <- R1
	.loc	1 107 40                # ../src/extensions/analogio-x8.xc:107:40
.Lxta.endpoint_labels11:
	{
		out res[r4], r1
		gettime r1
	}
.Ltmp187:
	.loc	1 61 0                  # ../src/extensions/analogio-x8.xc:61:0
	{
		add r1, r1, r2
		nop
	}
	.loc	1 62 0                  # ../src/extensions/analogio-x8.xc:62:0
	{
		setd res[r3], r1
		nop
	}
	.loc	1 62 0                  # ../src/extensions/analogio-x8.xc:62:0
.Ltmp188:
.Lxta.endpoint_labels12:
	{
		in r1, res[r3]
		nop
	}
.Ltmp189:
	#DEBUG_VALUE: _ <- R1
	#DEBUG_VALUE: time <- R11
	.loc	1 114 0                 # ../src/extensions/analogio-x8.xc:114:0
	{
		peek r1, res[r4]
		gettime r11
	}
.Ltmp190:
	.loc	1 61 0                  # ../src/extensions/analogio-x8.xc:61:0
	{
		add r11, r11, r2
		nop
	}
	.loc	1 62 0                  # ../src/extensions/analogio-x8.xc:62:0
	{
		setd res[r3], r11
		nop
	}
	.loc	1 62 0                  # ../src/extensions/analogio-x8.xc:62:0
.Ltmp191:
.Lxta.endpoint_labels13:
	{
		in r11, res[r3]
		nop
	}
.Ltmp192:
	#DEBUG_VALUE: _ <- R11
	#DEBUG_VALUE: time <- R0
	.loc	1 117 39                # ../src/extensions/analogio-x8.xc:117:39
.Lxta.endpoint_labels14:
	{
		out res[r4], r0
		gettime r0
	}
.Ltmp193:
	.loc	1 61 0                  # ../src/extensions/analogio-x8.xc:61:0
	{
		add r0, r0, r2
		nop
	}
	.loc	1 62 0                  # ../src/extensions/analogio-x8.xc:62:0
	{
		setd res[r3], r0
		nop
	}
	.loc	1 62 0                  # ../src/extensions/analogio-x8.xc:62:0
.Ltmp194:
.Lxta.endpoint_labels15:
	{
		in r0, res[r3]
		nop
	}
.Ltmp195:
	#DEBUG_VALUE: _ <- R0
	.loc	1 150 5                 # ../src/extensions/analogio-x8.xc:150:5
	{
		shr r0, r1, 1
		nop
	}
.Ltmp196:
	.loc	1 150 5                 # ../src/extensions/analogio-x8.xc:150:5
	{
		zext r0, 1
		ldw r6, sp[4]
	}
	ldd r5, r4, sp[1]               # 4-byte Folded Reload
.Ltmp197:
	{
		nop
		retsp 6
	}
	# RETURN_REG_HOLDER
.Ltmp198:
	.cc_bottom tx8.function
	.set	tx8.nstackwords,(highPulseDrive.nstackwords + 6)
	.set	tx8.maxcores,highPulseDrive.maxcores $M 1
	.set	tx8.maxtimers,highPulseDrive.maxtimers $M 0
	.set	tx8.maxchanends,highPulseDrive.maxchanends $M 0
.Ltmp199:
	.size	tx8, .Ltmp199-tx8
.Lfunc_end6:
	.cfi_endproc

	.section	.cp.rodata.cst4,"aMc",@progbits,4
	.cc_top .LCPI7_0.data,.LCPI7_0
	.align	4
	.type	.LCPI7_0,@object
	.size	.LCPI7_0, 4
.LCPI7_0:
	.long	4294967288              # 0xfffffff8
	.cc_bottom .LCPI7_0.data
	.text
	.globl	AKM_i2c_master_read_reg
	.align	4
	.type	AKM_i2c_master_read_reg,@function
	.cc_top AKM_i2c_master_read_reg.function,AKM_i2c_master_read_reg
AKM_i2c_master_read_reg:                # @AKM_i2c_master_read_reg
.Lfunc_begin7:
	.loc	1 158 0                 # ../src/extensions/analogio-x8.xc:158:0
	.cfi_startproc
	.issue_mode dual
# BB#0:                                 # %allocas
.Lxtalabel12:
	{
		nop
		dualentsp 10
	}
.Ltmp200:
	.cfi_def_cfa_offset 40
.Ltmp201:
	.cfi_offset 15, 0
	std r5, r4, sp[1]               # 4-byte Folded Spill
.Ltmp202:
	.cfi_offset 4, -32
.Ltmp203:
	.cfi_offset 5, -28
	std r7, r6, sp[2]               # 4-byte Folded Spill
.Ltmp204:
	.cfi_offset 6, -24
.Ltmp205:
	.cfi_offset 7, -20
	std r9, r8, sp[3]               # 4-byte Folded Spill
.Ltmp206:
	.cfi_offset 8, -16
.Ltmp207:
	.cfi_offset 9, -12
	{
		nop
		stw r10, sp[8]
	}
.Ltmp208:
	.cfi_offset 10, -8
	#DEBUG_VALUE: AKM_i2c_master_read_reg:device <- R0
	#DEBUG_VALUE: AKM_i2c_master_read_reg:addr <- R1
	#DEBUG_VALUE: AKM_i2c_master_read_reg:data <- R2
	#DEBUG_VALUE: AKM_i2c_master_read_reg:nbytes <- R3
	#DEBUG_VALUE: AKM_i2c_master_read_reg:i2cPorts <- [SP+44]
.Ltmp209:
	#DEBUG_VALUE: AKM_i2c_master_read_reg:data <- [SP+4]
	#DEBUG_VALUE: AKM_i2c_master_read_reg:addr <- R7
	{
		mov r7, r1
		stw r2, sp[1]
	}
.Ltmp210:
	#DEBUG_VALUE: AKM_i2c_master_read_reg:device <- R6
	{
		mov r6, r0
		ldw r0, sp[11]
	}
.Ltmp211:
	#DEBUG_VALUE: startBit:i2c <- R4
	#DEBUG_VALUE: waitBeforeNextStart:p_i2c <- R4
	#DEBUG_VALUE: startBit:i2c <- R4
	#DEBUG_VALUE: highPulseDrive:i2c <- R4
	#DEBUG_VALUE: stopBit:i2c <- R4
	#DEBUG_VALUE: waitBeforeNextStart:p_i2c <- R4
	#DEBUG_VALUE: time <- R0
	.loc	1 160 0 prologue_end    # ../src/extensions/analogio-x8.xc:160:0
	{
		gettime r0
		ldw r4, r0[0]
	}
.Ltmp212:
	ldc r9, 250
	.loc	1 61 0                  # ../src/extensions/analogio-x8.xc:61:0
.Ltmp213:
	{
		add r0, r0, r9
		get r11, id
	}
	.loc	1 62 0                  # ../src/extensions/analogio-x8.xc:62:0
	ldaw r1, dp[__timers]
	{
		nop
		ldw r8, r1[r11]
	}
	.loc	1 62 0                  # ../src/extensions/analogio-x8.xc:62:0
	{
		setd res[r8], r0
		nop
	}
	.loc	1 62 0                  # ../src/extensions/analogio-x8.xc:62:0
	{
		setc res[r8], 9
		nop
	}
.Ltmp214:
	#DEBUG_VALUE: _ <- R0
	.loc	1 62 0                  # ../src/extensions/analogio-x8.xc:62:0
.Lxta.endpoint_labels16:
	{
		in r0, res[r8]
		ldc r10, 13
	}
.Ltmp215:
	#DEBUG_VALUE: time <- R0
	.loc	1 127 39                # ../src/extensions/analogio-x8.xc:127:39
.Lxta.endpoint_labels17:
	{
		out res[r4], r10
		gettime r0
	}
.Ltmp216:
	.loc	1 61 0                  # ../src/extensions/analogio-x8.xc:61:0
	{
		add r0, r0, r9
		nop
	}
	.loc	1 62 0                  # ../src/extensions/analogio-x8.xc:62:0
	{
		setd res[r8], r0
		nop
	}
	.loc	1 62 0                  # ../src/extensions/analogio-x8.xc:62:0
.Ltmp217:
.Lxta.endpoint_labels18:
	{
		in r0, res[r8]
		nop
	}
.Ltmp218:
	#DEBUG_VALUE: _ <- R0
	.loc	1 60 0                  # ../src/extensions/analogio-x8.xc:60:0
	{
		gettime r0
		nop
	}
.Ltmp219:
	#DEBUG_VALUE: time <- R0
	.loc	1 61 0                  # ../src/extensions/analogio-x8.xc:61:0
	{
		add r0, r0, r9
		nop
	}
.Ltmp220:
	.loc	1 62 0                  # ../src/extensions/analogio-x8.xc:62:0
	{
		setd res[r8], r0
		nop
	}
.Ltmp221:
	#DEBUG_VALUE: _ <- R0
	.loc	1 62 0                  # ../src/extensions/analogio-x8.xc:62:0
.Lxta.endpoint_labels19:
	{
		in r0, res[r8]
		ldc r5, 12
	}
.Ltmp222:
	#DEBUG_VALUE: time <- R0
	.loc	1 129 38                # ../src/extensions/analogio-x8.xc:129:38
.Lxta.endpoint_labels20:
	{
		out res[r4], r5
		gettime r0
	}
.Ltmp223:
	.loc	1 61 0                  # ../src/extensions/analogio-x8.xc:61:0
	{
		add r0, r0, r9
		nop
	}
	.loc	1 62 0                  # ../src/extensions/analogio-x8.xc:62:0
	{
		setd res[r8], r0
		nop
	}
	.loc	1 62 0                  # ../src/extensions/analogio-x8.xc:62:0
.Ltmp224:
.Lxta.endpoint_labels21:
	{
		in r0, res[r8]
		nop
	}
.Ltmp225:
	#DEBUG_VALUE: _ <- R0
	.loc	1 161 0                 # ../src/extensions/analogio-x8.xc:161:0
	{
		mov r0, r4
		mov r1, r6
	}
.Ltmp226:
.Lxta.call_labels73:
	bl tx8
.Ltmp227:
	#DEBUG_VALUE: AKM_i2c_master_read_reg:addr <- R1
	.loc	1 162 0                 # ../src/extensions/analogio-x8.xc:162:0
	{
		mov r0, r4
		mov r1, r7
	}
.Ltmp228:
.Lxta.call_labels74:
	bl tx8
	.loc	1 74 0                  # ../src/extensions/analogio-x8.xc:74:0
.Ltmp229:
	{
		gettime r0
		nop
	}
.Ltmp230:
	#DEBUG_VALUE: time <- R0
	ldc r7, 5000
	.loc	1 75 0                  # ../src/extensions/analogio-x8.xc:75:0
.Ltmp231:
	{
		add r0, r0, r7
		nop
	}
.Ltmp232:
	.loc	1 76 0                  # ../src/extensions/analogio-x8.xc:76:0
	{
		setd res[r8], r0
		nop
	}
	.loc	1 76 0                  # ../src/extensions/analogio-x8.xc:76:0
	{
		setc res[r8], 9
		nop
	}
	.loc	1 76 0                  # ../src/extensions/analogio-x8.xc:76:0
.Ltmp233:
.Lxta.endpoint_labels22:
	{
		in r0, res[r8]
		nop
	}
.Ltmp234:
	#DEBUG_VALUE: _ <- R0
	.loc	1 78 0                  # ../src/extensions/analogio-x8.xc:78:0
	{
		setc res[r4], 1
		nop
	}
	.loc	1 78 0                  # ../src/extensions/analogio-x8.xc:78:0
.Ltmp235:
.Lxta.endpoint_labels23:
	{
		in r0, res[r4]
		nop
	}
.Ltmp236:
	.loc	1 60 0                  # ../src/extensions/analogio-x8.xc:60:0
	{
		gettime r0
		nop
	}
.Ltmp237:
	#DEBUG_VALUE: time <- R0
	.loc	1 61 0                  # ../src/extensions/analogio-x8.xc:61:0
	{
		add r0, r0, r9
		nop
	}
.Ltmp238:
	.loc	1 62 0                  # ../src/extensions/analogio-x8.xc:62:0
	{
		setd res[r8], r0
		nop
	}
	.loc	1 62 0                  # ../src/extensions/analogio-x8.xc:62:0
	{
		setc res[r8], 9
		nop
	}
	.loc	1 62 0                  # ../src/extensions/analogio-x8.xc:62:0
.Ltmp239:
.Lxta.endpoint_labels24:
	{
		in r0, res[r8]
		nop
	}
.Ltmp240:
	#DEBUG_VALUE: _ <- R0
	#DEBUG_VALUE: time <- R0
	.loc	1 127 39                # ../src/extensions/analogio-x8.xc:127:39
.Lxta.endpoint_labels25:
	{
		out res[r4], r10
		gettime r0
	}
.Ltmp241:
	.loc	1 61 0                  # ../src/extensions/analogio-x8.xc:61:0
	{
		add r0, r0, r9
		nop
	}
	.loc	1 62 0                  # ../src/extensions/analogio-x8.xc:62:0
	{
		setd res[r8], r0
		nop
	}
	.loc	1 62 0                  # ../src/extensions/analogio-x8.xc:62:0
.Ltmp242:
.Lxta.endpoint_labels26:
	{
		in r0, res[r8]
		nop
	}
.Ltmp243:
	#DEBUG_VALUE: _ <- R0
	.loc	1 60 0                  # ../src/extensions/analogio-x8.xc:60:0
	{
		gettime r0
		nop
	}
.Ltmp244:
	#DEBUG_VALUE: time <- R0
	.loc	1 61 0                  # ../src/extensions/analogio-x8.xc:61:0
	{
		add r0, r0, r9
		nop
	}
.Ltmp245:
	.loc	1 62 0                  # ../src/extensions/analogio-x8.xc:62:0
	{
		setd res[r8], r0
		nop
	}
	.loc	1 62 0                  # ../src/extensions/analogio-x8.xc:62:0
.Ltmp246:
.Lxta.endpoint_labels27:
	{
		in r0, res[r8]
		nop
	}
.Ltmp247:
	#DEBUG_VALUE: _ <- R0
	#DEBUG_VALUE: time <- R0
	.loc	1 129 38                # ../src/extensions/analogio-x8.xc:129:38
.Lxta.endpoint_labels28:
	{
		out res[r4], r5
		gettime r0
	}
.Ltmp248:
	.loc	1 61 0                  # ../src/extensions/analogio-x8.xc:61:0
	{
		add r0, r0, r9
		nop
	}
	.loc	1 62 0                  # ../src/extensions/analogio-x8.xc:62:0
	{
		setd res[r8], r0
		nop
	}
	.loc	1 62 0                  # ../src/extensions/analogio-x8.xc:62:0
.Ltmp249:
.Lxta.endpoint_labels29:
	{
		in r0, res[r8]
		nop
	}
.Ltmp250:
	#DEBUG_VALUE: _ <- R0
	{
		mkmsk r0, 1
		nop
	}
.Ltmp251:
	.loc	1 167 0                 # ../src/extensions/analogio-x8.xc:167:0
	{
		or r1, r6, r0
		mov r0, r4
	}
	.loc	1 167 0                 # ../src/extensions/analogio-x8.xc:167:0
.Lxta.call_labels75:
	bl tx8
.Ltmp252:
	#DEBUG_VALUE: temp <- 0
	#DEBUG_VALUE: rdData <- 0
	{
		ldc r0, 0
		nop
	}
.Ltmp253:
	#DEBUG_VALUE: i <- 8
	ldw r1, cp[.LCPI7_0]
	{
		ldc r2, 14
		mkmsk r3, 4
	}
.Ltmp254:
.LBB7_1:                                # %LoopBody
                                        # =>This Inner Loop Header: Depth=1
.Lxtalabel13:
	#DEBUG_VALUE: AKM_i2c_master_read_reg:data <- [SP+4]
	#DEBUG_VALUE: AKM_i2c_master_read_reg:nbytes <- R3
	#DEBUG_VALUE: AKM_i2c_master_read_reg:i2cPorts <- [SP+44]
	#DEBUG_VALUE: rdData <- 0
	#DEBUG_VALUE: temp <- 0
	#DEBUG_VALUE: i <- 8
	#DEBUG_VALUE: highPulseSample:expectedSDA <- 0
	#DEBUG_VALUE: time <- R11
	.loc	1 105 39                # ../src/extensions/analogio-x8.xc:105:39
.Lxta.endpoint_labels30:
	{
		out res[r4], r2
		gettime r11
	}
.Ltmp255:
	.loc	1 61 0                  # ../src/extensions/analogio-x8.xc:61:0
	{
		add r11, r11, r9
		nop
	}
	.loc	1 62 0                  # ../src/extensions/analogio-x8.xc:62:0
	{
		setd res[r8], r11
		nop
	}
	.loc	1 62 0                  # ../src/extensions/analogio-x8.xc:62:0
	{
		setc res[r8], 9
		nop
	}
	.loc	1 62 0                  # ../src/extensions/analogio-x8.xc:62:0
.Ltmp256:
.Lxta.endpoint_labels31:
	{
		in r11, res[r8]
		nop
	}
.Ltmp257:
	#DEBUG_VALUE: _ <- R11
	#DEBUG_VALUE: time <- R11
	.loc	1 107 40                # ../src/extensions/analogio-x8.xc:107:40
.Lxta.endpoint_labels32:
	{
		out res[r4], r3
		gettime r11
	}
.Ltmp258:
	.loc	1 61 0                  # ../src/extensions/analogio-x8.xc:61:0
	{
		add r11, r11, r9
		nop
	}
	.loc	1 62 0                  # ../src/extensions/analogio-x8.xc:62:0
	{
		setd res[r8], r11
		nop
	}
	.loc	1 62 0                  # ../src/extensions/analogio-x8.xc:62:0
.Ltmp259:
.Lxta.endpoint_labels33:
	{
		in r11, res[r8]
		nop
	}
.Ltmp260:
	#DEBUG_VALUE: _ <- R11
	#DEBUG_VALUE: time <- R6
	.loc	1 114 0                 # ../src/extensions/analogio-x8.xc:114:0
	{
		peek r11, res[r4]
		gettime r6
	}
.Ltmp261:
	.loc	1 61 0                  # ../src/extensions/analogio-x8.xc:61:0
	{
		add r6, r6, r9
		nop
	}
	.loc	1 62 0                  # ../src/extensions/analogio-x8.xc:62:0
	{
		setd res[r8], r6
		nop
	}
	.loc	1 62 0                  # ../src/extensions/analogio-x8.xc:62:0
	{
		setc res[r8], 9
		nop
	}
	.loc	1 62 0                  # ../src/extensions/analogio-x8.xc:62:0
.Ltmp262:
.Lxta.endpoint_labels34:
	{
		in r6, res[r8]
		nop
	}
.Ltmp263:
	#DEBUG_VALUE: _ <- R6
	#DEBUG_VALUE: time <- R6
	.loc	1 117 39                # ../src/extensions/analogio-x8.xc:117:39
.Lxta.endpoint_labels35:
	{
		out res[r4], r2
		gettime r6
	}
.Ltmp264:
	.loc	1 61 0                  # ../src/extensions/analogio-x8.xc:61:0
	{
		add r6, r6, r9
		nop
	}
	.loc	1 62 0                  # ../src/extensions/analogio-x8.xc:62:0
	{
		setd res[r8], r6
		nop
	}
.Ltmp265:
	#DEBUG_VALUE: _ <- R6
	#DEBUG_VALUE: rdData <- R0
	.loc	1 62 0                  # ../src/extensions/analogio-x8.xc:62:0
.Lxta.endpoint_labels36:
	{
		in r6, res[r8]
		shl r0, r0, 1
	}
.Ltmp266:
	.loc	1 177 5                 # ../src/extensions/analogio-x8.xc:177:5
	{
		shr r11, r11, 1
		nop
	}
	.loc	1 177 5                 # ../src/extensions/analogio-x8.xc:177:5
	{
		zext r11, 1
		nop
	}
	.loc	1 177 5                 # ../src/extensions/analogio-x8.xc:177:5
	{
		or r0, r11, r0
		add r1, r1, 1
	}
.xtaloop 8
	# LOOPMARKER 1
.Lxta.loop_labels1:
	# LOOPMARKER 0
	.loc	1 173 0                 # ../src/extensions/analogio-x8.xc:173:0
	bt r1, .LBB7_1
.Ltmp267:
# BB#2:                                 # %ifdone
.Lxtalabel14:
	#DEBUG_VALUE: AKM_i2c_master_read_reg:data <- [SP+4]
	#DEBUG_VALUE: AKM_i2c_master_read_reg:nbytes <- R3
	#DEBUG_VALUE: AKM_i2c_master_read_reg:i2cPorts <- [SP+44]
	#DEBUG_VALUE: temp <- 0
	#DEBUG_VALUE: i <- 8
	{
		nop
		ldw r1, sp[12]
	}
.Ltrap_info0:
	{
		ecallf r1
		nop
	}
	#DEBUG_VALUE: AKM_i2c_master_read_reg:data <- [SP+4]
	#DEBUG_VALUE: AKM_i2c_master_read_reg:nbytes <- R3
	#DEBUG_VALUE: AKM_i2c_master_read_reg:i2cPorts <- [SP+44]
	#DEBUG_VALUE: temp <- 0
	#DEBUG_VALUE: i <- 8
.Ltmp268:
	#DEBUG_VALUE: highPulseDrive:sdaValue <- 0
	.loc	1 181 0                 # ../src/extensions/analogio-x8.xc:181:0
	{
		ldc r1, 0
		ldw r2, sp[1]
	}
	st8 r0, r2[r1]
.Ltmp269:
	#DEBUG_VALUE: time <- R0
	.loc	1 94 42                 # ../src/extensions/analogio-x8.xc:94:42
.Lxta.endpoint_labels37:
	{
		out res[r4], r5
		gettime r0
	}
.Ltmp270:
	.loc	1 61 0                  # ../src/extensions/analogio-x8.xc:61:0
	{
		add r0, r0, r9
		nop
	}
	.loc	1 62 0                  # ../src/extensions/analogio-x8.xc:62:0
	{
		setd res[r8], r0
		nop
	}
	.loc	1 62 0                  # ../src/extensions/analogio-x8.xc:62:0
	{
		setc res[r8], 9
		nop
	}
	.loc	1 62 0                  # ../src/extensions/analogio-x8.xc:62:0
.Ltmp271:
.Lxta.endpoint_labels38:
	{
		in r0, res[r8]
		nop
	}
.Ltmp272:
	#DEBUG_VALUE: _ <- R0
	#DEBUG_VALUE: time <- R0
	.loc	1 96 43                 # ../src/extensions/analogio-x8.xc:96:43
.Lxta.endpoint_labels39:
	{
		out res[r4], r10
		gettime r0
	}
.Ltmp273:
	.loc	1 61 0                  # ../src/extensions/analogio-x8.xc:61:0
	{
		add r0, r0, r9
		nop
	}
	.loc	1 62 0                  # ../src/extensions/analogio-x8.xc:62:0
	{
		setd res[r8], r0
		nop
	}
	.loc	1 62 0                  # ../src/extensions/analogio-x8.xc:62:0
.Ltmp274:
.Lxta.endpoint_labels40:
	{
		in r0, res[r8]
		nop
	}
.Ltmp275:
	#DEBUG_VALUE: _ <- R0
	.loc	1 60 0                  # ../src/extensions/analogio-x8.xc:60:0
	{
		gettime r0
		nop
	}
.Ltmp276:
	#DEBUG_VALUE: time <- R0
	.loc	1 61 0                  # ../src/extensions/analogio-x8.xc:61:0
	{
		add r0, r0, r9
		nop
	}
.Ltmp277:
	.loc	1 62 0                  # ../src/extensions/analogio-x8.xc:62:0
	{
		setd res[r8], r0
		nop
	}
	.loc	1 62 0                  # ../src/extensions/analogio-x8.xc:62:0
.Ltmp278:
.Lxta.endpoint_labels41:
	{
		in r0, res[r8]
		nop
	}
.Ltmp279:
	#DEBUG_VALUE: _ <- R0
	#DEBUG_VALUE: time <- R0
	.loc	1 98 42                 # ../src/extensions/analogio-x8.xc:98:42
.Lxta.endpoint_labels42:
	{
		out res[r4], r5
		gettime r0
	}
.Ltmp280:
	.loc	1 61 0                  # ../src/extensions/analogio-x8.xc:61:0
	{
		add r0, r0, r9
		nop
	}
	.loc	1 62 0                  # ../src/extensions/analogio-x8.xc:62:0
	{
		setd res[r8], r0
		nop
	}
	.loc	1 62 0                  # ../src/extensions/analogio-x8.xc:62:0
.Ltmp281:
.Lxta.endpoint_labels43:
	{
		in r0, res[r8]
		nop
	}
.Ltmp282:
	#DEBUG_VALUE: _ <- R0
	#DEBUG_VALUE: time <- R0
	.loc	1 134 38                # ../src/extensions/analogio-x8.xc:134:38
.Lxta.endpoint_labels44:
	{
		out res[r4], r5
		gettime r0
	}
.Ltmp283:
	.loc	1 61 0                  # ../src/extensions/analogio-x8.xc:61:0
	{
		add r0, r0, r9
		nop
	}
	.loc	1 62 0                  # ../src/extensions/analogio-x8.xc:62:0
	{
		setd res[r8], r0
		nop
	}
	.loc	1 62 0                  # ../src/extensions/analogio-x8.xc:62:0
.Ltmp284:
.Lxta.endpoint_labels45:
	{
		in r0, res[r8]
		nop
	}
.Ltmp285:
	#DEBUG_VALUE: _ <- R0
	#DEBUG_VALUE: time <- R0
	.loc	1 136 39                # ../src/extensions/analogio-x8.xc:136:39
.Lxta.endpoint_labels46:
	{
		out res[r4], r10
		gettime r0
	}
.Ltmp286:
	.loc	1 61 0                  # ../src/extensions/analogio-x8.xc:61:0
	{
		add r0, r0, r9
		nop
	}
	.loc	1 62 0                  # ../src/extensions/analogio-x8.xc:62:0
	{
		setd res[r8], r0
		nop
	}
	.loc	1 62 0                  # ../src/extensions/analogio-x8.xc:62:0
.Ltmp287:
.Lxta.endpoint_labels47:
	{
		in r0, res[r8]
		nop
	}
.Ltmp288:
	#DEBUG_VALUE: _ <- R0
	.loc	1 60 0                  # ../src/extensions/analogio-x8.xc:60:0
	{
		gettime r0
		nop
	}
.Ltmp289:
	#DEBUG_VALUE: time <- R0
	.loc	1 61 0                  # ../src/extensions/analogio-x8.xc:61:0
	{
		add r0, r0, r9
		nop
	}
.Ltmp290:
	.loc	1 62 0                  # ../src/extensions/analogio-x8.xc:62:0
	{
		setd res[r8], r0
		nop
	}
	.loc	1 62 0                  # ../src/extensions/analogio-x8.xc:62:0
.Ltmp291:
.Lxta.endpoint_labels48:
	{
		in r0, res[r8]
		nop
	}
.Ltmp292:
	#DEBUG_VALUE: _ <- R0
	.loc	1 138 0                 # ../src/extensions/analogio-x8.xc:138:0
	{
		setc res[r4], 1
		nop
	}
	.loc	1 138 0                 # ../src/extensions/analogio-x8.xc:138:0
.Ltmp293:
.Lxta.endpoint_labels49:
	{
		in r0, res[r4]
		nop
	}
.Ltmp294:
	.loc	1 60 0                  # ../src/extensions/analogio-x8.xc:60:0
	{
		gettime r0
		nop
	}
.Ltmp295:
	#DEBUG_VALUE: time <- R0
	.loc	1 61 0                  # ../src/extensions/analogio-x8.xc:61:0
	{
		add r0, r0, r9
		nop
	}
.Ltmp296:
	.loc	1 62 0                  # ../src/extensions/analogio-x8.xc:62:0
	{
		setd res[r8], r0
		nop
	}
	.loc	1 62 0                  # ../src/extensions/analogio-x8.xc:62:0
.Ltmp297:
.Lxta.endpoint_labels50:
	{
		in r0, res[r8]
		nop
	}
.Ltmp298:
	#DEBUG_VALUE: _ <- R0
	.loc	1 74 0                  # ../src/extensions/analogio-x8.xc:74:0
	{
		gettime r0
		nop
	}
.Ltmp299:
	#DEBUG_VALUE: time <- R0
	.loc	1 75 0                  # ../src/extensions/analogio-x8.xc:75:0
	{
		add r0, r0, r7
		nop
	}
.Ltmp300:
	.loc	1 76 0                  # ../src/extensions/analogio-x8.xc:76:0
	{
		setd res[r8], r0
		nop
	}
	.loc	1 76 0                  # ../src/extensions/analogio-x8.xc:76:0
	{
		setc res[r8], 9
		nop
	}
	.loc	1 76 0                  # ../src/extensions/analogio-x8.xc:76:0
.Ltmp301:
.Lxta.endpoint_labels51:
	{
		in r0, res[r8]
		nop
	}
.Ltmp302:
	#DEBUG_VALUE: _ <- R0
	.loc	1 78 0                  # ../src/extensions/analogio-x8.xc:78:0
	{
		setc res[r4], 1
		nop
	}
	.loc	1 78 0                  # ../src/extensions/analogio-x8.xc:78:0
.Ltmp303:
.Lxta.endpoint_labels52:
	{
		in r0, res[r4]
		nop
	}
.Ltmp304:
	{
		mkmsk r0, 1
		ldw r10, sp[8]
	}
	ldd r9, r8, sp[3]               # 4-byte Folded Reload
	ldd r7, r6, sp[2]               # 4-byte Folded Reload
	ldd r5, r4, sp[1]               # 4-byte Folded Reload
	{
		nop
		retsp 10
	}
.Ltmp305:
	# RETURN_REG_HOLDER
.Ltmp306:
	.cc_bottom AKM_i2c_master_read_reg.function
	.set	AKM_i2c_master_read_reg.nstackwords,(tx8.nstackwords + 10)
	.globl	AKM_i2c_master_read_reg.nstackwords
	.set	AKM_i2c_master_read_reg.maxcores,tx8.maxcores $M 1
	.globl	AKM_i2c_master_read_reg.maxcores
	.set	AKM_i2c_master_read_reg.maxtimers,tx8.maxtimers $M 0
	.globl	AKM_i2c_master_read_reg.maxtimers
	.set	AKM_i2c_master_read_reg.maxchanends,tx8.maxchanends $M 0
	.globl	AKM_i2c_master_read_reg.maxchanends
.Ltmp307:
	.size	AKM_i2c_master_read_reg, .Ltmp307-AKM_i2c_master_read_reg
.Lfunc_end7:
	.cfi_endproc

	.section	.cp.rodata.cst4,"aMc",@progbits,4
	.cc_top .LCPI8_0.data,.LCPI8_0
	.align	4
	.type	.LCPI8_0,@object
	.size	.LCPI8_0, 4
.LCPI8_0:
	.long	4294967288              # 0xfffffff8
	.cc_bottom .LCPI8_0.data
	.text
	.globl	_SAKM_i2c_master_read_reg_0
	.align	4
	.type	_SAKM_i2c_master_read_reg_0,@function
	.cc_top _SAKM_i2c_master_read_reg_0.function,_SAKM_i2c_master_read_reg_0
_SAKM_i2c_master_read_reg_0:            # @_SAKM_i2c_master_read_reg_0
.Lfunc_begin8:
	.loc	1 158 0                 # ../src/extensions/analogio-x8.xc:158:0
	.cfi_startproc
	.issue_mode dual
# BB#0:                                 # %allocas
.Lxtalabel15:
	{
		nop
		dualentsp 10
	}
.Ltmp308:
	.cfi_def_cfa_offset 40
.Ltmp309:
	.cfi_offset 15, 0
	std r5, r4, sp[1]               # 4-byte Folded Spill
.Ltmp310:
	.cfi_offset 4, -32
.Ltmp311:
	.cfi_offset 5, -28
	std r7, r6, sp[2]               # 4-byte Folded Spill
.Ltmp312:
	.cfi_offset 6, -24
.Ltmp313:
	.cfi_offset 7, -20
	std r9, r8, sp[3]               # 4-byte Folded Spill
.Ltmp314:
	.cfi_offset 8, -16
.Ltmp315:
	.cfi_offset 9, -12
.Ltmp316:
	.cfi_offset 10, -8
	#DEBUG_VALUE: AKM_i2c_master_read_reg:addr <- R0
	#DEBUG_VALUE: AKM_i2c_master_read_reg:data <- R1
	#DEBUG_VALUE: AKM_i2c_master_read_reg:i2cPorts <- R2
	{
		mov r6, r3
		stw r10, sp[8]
	}
.Ltmp317:
	#DEBUG_VALUE: AKM_i2c_master_read_reg:data <- [SP+4]
	#DEBUG_VALUE: device <- 32
	#DEBUG_VALUE: nbytes <- 1
	#DEBUG_VALUE: AKM_i2c_master_read_reg:addr <- R7
	{
		mov r7, r0
		stw r1, sp[1]
	}
.Ltmp318:
	#DEBUG_VALUE: startBit:i2c <- R4
	#DEBUG_VALUE: waitBeforeNextStart:p_i2c <- R4
	#DEBUG_VALUE: startBit:i2c <- R4
	#DEBUG_VALUE: highPulseDrive:i2c <- R4
	#DEBUG_VALUE: stopBit:i2c <- R4
	#DEBUG_VALUE: waitBeforeNextStart:p_i2c <- R4
	#DEBUG_VALUE: time <- R0
	.loc	1 160 0 prologue_end    # ../src/extensions/analogio-x8.xc:160:0
	{
		gettime r0
		ldw r4, r2[0]
	}
.Ltmp319:
	ldc r9, 250
	.loc	1 61 0                  # ../src/extensions/analogio-x8.xc:61:0
.Ltmp320:
	{
		add r0, r0, r9
		get r11, id
	}
	.loc	1 62 0                  # ../src/extensions/analogio-x8.xc:62:0
	ldaw r1, dp[__timers]
	{
		nop
		ldw r8, r1[r11]
	}
	.loc	1 62 0                  # ../src/extensions/analogio-x8.xc:62:0
	{
		setd res[r8], r0
		nop
	}
	.loc	1 62 0                  # ../src/extensions/analogio-x8.xc:62:0
	{
		setc res[r8], 9
		nop
	}
.Ltmp321:
	#DEBUG_VALUE: _ <- R0
	.loc	1 62 0                  # ../src/extensions/analogio-x8.xc:62:0
.Lxta.endpoint_labels53:
	{
		in r0, res[r8]
		ldc r10, 13
	}
.Ltmp322:
	#DEBUG_VALUE: time <- R0
	.loc	1 127 39                # ../src/extensions/analogio-x8.xc:127:39
.Lxta.endpoint_labels54:
	{
		out res[r4], r10
		gettime r0
	}
.Ltmp323:
	.loc	1 61 0                  # ../src/extensions/analogio-x8.xc:61:0
	{
		add r0, r0, r9
		nop
	}
	.loc	1 62 0                  # ../src/extensions/analogio-x8.xc:62:0
	{
		setd res[r8], r0
		nop
	}
	.loc	1 62 0                  # ../src/extensions/analogio-x8.xc:62:0
.Ltmp324:
.Lxta.endpoint_labels55:
	{
		in r0, res[r8]
		nop
	}
.Ltmp325:
	#DEBUG_VALUE: _ <- R0
	.loc	1 60 0                  # ../src/extensions/analogio-x8.xc:60:0
	{
		gettime r0
		nop
	}
.Ltmp326:
	#DEBUG_VALUE: time <- R0
	.loc	1 61 0                  # ../src/extensions/analogio-x8.xc:61:0
	{
		add r0, r0, r9
		nop
	}
.Ltmp327:
	.loc	1 62 0                  # ../src/extensions/analogio-x8.xc:62:0
	{
		setd res[r8], r0
		nop
	}
.Ltmp328:
	#DEBUG_VALUE: _ <- R0
	.loc	1 62 0                  # ../src/extensions/analogio-x8.xc:62:0
.Lxta.endpoint_labels56:
	{
		in r0, res[r8]
		ldc r5, 12
	}
.Ltmp329:
	#DEBUG_VALUE: time <- R0
	.loc	1 129 38                # ../src/extensions/analogio-x8.xc:129:38
.Lxta.endpoint_labels57:
	{
		out res[r4], r5
		gettime r0
	}
.Ltmp330:
	.loc	1 61 0                  # ../src/extensions/analogio-x8.xc:61:0
	{
		add r0, r0, r9
		nop
	}
	.loc	1 62 0                  # ../src/extensions/analogio-x8.xc:62:0
	{
		setd res[r8], r0
		nop
	}
.Ltmp331:
	#DEBUG_VALUE: _ <- R0
	.loc	1 62 0                  # ../src/extensions/analogio-x8.xc:62:0
.Lxta.endpoint_labels58:
	{
		in r0, res[r8]
		ldc r1, 32
	}
.Ltmp332:
	.loc	1 161 0                 # ../src/extensions/analogio-x8.xc:161:0
	{
		mov r0, r4
		nop
	}
.Lxta.call_labels76:
	bl tx8
.Ltmp333:
	#DEBUG_VALUE: AKM_i2c_master_read_reg:addr <- R1
	.loc	1 162 0                 # ../src/extensions/analogio-x8.xc:162:0
	{
		mov r0, r4
		mov r1, r7
	}
.Ltmp334:
.Lxta.call_labels77:
	bl tx8
	.loc	1 74 0                  # ../src/extensions/analogio-x8.xc:74:0
.Ltmp335:
	{
		gettime r0
		nop
	}
.Ltmp336:
	#DEBUG_VALUE: time <- R0
	ldc r1, 5000
	.loc	1 75 0                  # ../src/extensions/analogio-x8.xc:75:0
.Ltmp337:
	{
		add r0, r0, r1
		nop
	}
.Ltmp338:
	.loc	1 76 0                  # ../src/extensions/analogio-x8.xc:76:0
	{
		setd res[r8], r0
		nop
	}
	.loc	1 76 0                  # ../src/extensions/analogio-x8.xc:76:0
	{
		setc res[r8], 9
		nop
	}
	.loc	1 76 0                  # ../src/extensions/analogio-x8.xc:76:0
.Ltmp339:
.Lxta.endpoint_labels59:
	{
		in r0, res[r8]
		nop
	}
.Ltmp340:
	#DEBUG_VALUE: _ <- R0
	.loc	1 78 0                  # ../src/extensions/analogio-x8.xc:78:0
	{
		setc res[r4], 1
		nop
	}
	.loc	1 78 0                  # ../src/extensions/analogio-x8.xc:78:0
.Ltmp341:
.Lxta.endpoint_labels60:
	{
		in r0, res[r4]
		nop
	}
.Ltmp342:
	.loc	1 60 0                  # ../src/extensions/analogio-x8.xc:60:0
	{
		gettime r0
		nop
	}
.Ltmp343:
	#DEBUG_VALUE: time <- R0
	.loc	1 61 0                  # ../src/extensions/analogio-x8.xc:61:0
	{
		add r0, r0, r9
		nop
	}
.Ltmp344:
	.loc	1 62 0                  # ../src/extensions/analogio-x8.xc:62:0
	{
		setd res[r8], r0
		nop
	}
	.loc	1 62 0                  # ../src/extensions/analogio-x8.xc:62:0
	{
		setc res[r8], 9
		nop
	}
	.loc	1 62 0                  # ../src/extensions/analogio-x8.xc:62:0
.Ltmp345:
.Lxta.endpoint_labels61:
	{
		in r0, res[r8]
		nop
	}
.Ltmp346:
	#DEBUG_VALUE: _ <- R0
	#DEBUG_VALUE: time <- R0
	.loc	1 127 39                # ../src/extensions/analogio-x8.xc:127:39
.Lxta.endpoint_labels62:
	{
		out res[r4], r10
		gettime r0
	}
.Ltmp347:
	.loc	1 61 0                  # ../src/extensions/analogio-x8.xc:61:0
	{
		add r0, r0, r9
		nop
	}
	.loc	1 62 0                  # ../src/extensions/analogio-x8.xc:62:0
	{
		setd res[r8], r0
		nop
	}
	.loc	1 62 0                  # ../src/extensions/analogio-x8.xc:62:0
.Ltmp348:
.Lxta.endpoint_labels63:
	{
		in r0, res[r8]
		nop
	}
.Ltmp349:
	#DEBUG_VALUE: _ <- R0
	.loc	1 60 0                  # ../src/extensions/analogio-x8.xc:60:0
	{
		gettime r0
		nop
	}
.Ltmp350:
	#DEBUG_VALUE: time <- R0
	.loc	1 61 0                  # ../src/extensions/analogio-x8.xc:61:0
	{
		add r0, r0, r9
		nop
	}
.Ltmp351:
	.loc	1 62 0                  # ../src/extensions/analogio-x8.xc:62:0
	{
		setd res[r8], r0
		nop
	}
	.loc	1 62 0                  # ../src/extensions/analogio-x8.xc:62:0
.Ltmp352:
.Lxta.endpoint_labels64:
	{
		in r0, res[r8]
		nop
	}
.Ltmp353:
	#DEBUG_VALUE: _ <- R0
	#DEBUG_VALUE: time <- R0
	.loc	1 129 38                # ../src/extensions/analogio-x8.xc:129:38
.Lxta.endpoint_labels65:
	{
		out res[r4], r5
		gettime r0
	}
.Ltmp354:
	.loc	1 61 0                  # ../src/extensions/analogio-x8.xc:61:0
	{
		add r0, r0, r9
		nop
	}
	.loc	1 62 0                  # ../src/extensions/analogio-x8.xc:62:0
	{
		setd res[r8], r0
		nop
	}
.Ltmp355:
	#DEBUG_VALUE: _ <- R0
	.loc	1 62 0                  # ../src/extensions/analogio-x8.xc:62:0
.Lxta.endpoint_labels66:
	{
		in r0, res[r8]
		ldc r1, 33
	}
.Ltmp356:
	.loc	1 167 0                 # ../src/extensions/analogio-x8.xc:167:0
	{
		mov r0, r4
		nop
	}
.Lxta.call_labels78:
	bl tx8
.Ltmp357:
	#DEBUG_VALUE: temp <- 0
	#DEBUG_VALUE: rdData <- 0
	{
		ldc r0, 0
		nop
	}
.Ltmp358:
	#DEBUG_VALUE: i <- 8
	ldw r1, cp[.LCPI8_0]
	{
		ldc r2, 14
		mkmsk r3, 4
	}
.Ltmp359:
.LBB8_1:                                # %LoopBody
                                        # =>This Inner Loop Header: Depth=1
.Lxtalabel16:
	#DEBUG_VALUE: AKM_i2c_master_read_reg:data <- [SP+4]
	#DEBUG_VALUE: nbytes <- 1
	#DEBUG_VALUE: device <- 32
	#DEBUG_VALUE: rdData <- 0
	#DEBUG_VALUE: temp <- 0
	#DEBUG_VALUE: i <- 8
	#DEBUG_VALUE: highPulseSample:expectedSDA <- 0
	#DEBUG_VALUE: time <- R11
	.loc	1 105 39                # ../src/extensions/analogio-x8.xc:105:39
.Lxta.endpoint_labels67:
	{
		out res[r4], r2
		gettime r11
	}
.Ltmp360:
	.loc	1 61 0                  # ../src/extensions/analogio-x8.xc:61:0
	{
		add r11, r11, r9
		nop
	}
	.loc	1 62 0                  # ../src/extensions/analogio-x8.xc:62:0
	{
		setd res[r8], r11
		nop
	}
	.loc	1 62 0                  # ../src/extensions/analogio-x8.xc:62:0
	{
		setc res[r8], 9
		nop
	}
	.loc	1 62 0                  # ../src/extensions/analogio-x8.xc:62:0
.Ltmp361:
.Lxta.endpoint_labels68:
	{
		in r11, res[r8]
		nop
	}
.Ltmp362:
	#DEBUG_VALUE: _ <- R11
	#DEBUG_VALUE: time <- R11
	.loc	1 107 40                # ../src/extensions/analogio-x8.xc:107:40
.Lxta.endpoint_labels69:
	{
		out res[r4], r3
		gettime r11
	}
.Ltmp363:
	.loc	1 61 0                  # ../src/extensions/analogio-x8.xc:61:0
	{
		add r11, r11, r9
		nop
	}
	.loc	1 62 0                  # ../src/extensions/analogio-x8.xc:62:0
	{
		setd res[r8], r11
		nop
	}
	.loc	1 62 0                  # ../src/extensions/analogio-x8.xc:62:0
.Ltmp364:
.Lxta.endpoint_labels70:
	{
		in r11, res[r8]
		nop
	}
.Ltmp365:
	#DEBUG_VALUE: _ <- R11
	#DEBUG_VALUE: time <- R7
	.loc	1 114 0                 # ../src/extensions/analogio-x8.xc:114:0
	{
		peek r11, res[r4]
		gettime r7
	}
.Ltmp366:
	.loc	1 61 0                  # ../src/extensions/analogio-x8.xc:61:0
	{
		add r7, r7, r9
		nop
	}
	.loc	1 62 0                  # ../src/extensions/analogio-x8.xc:62:0
	{
		setd res[r8], r7
		nop
	}
	.loc	1 62 0                  # ../src/extensions/analogio-x8.xc:62:0
	{
		setc res[r8], 9
		nop
	}
	.loc	1 62 0                  # ../src/extensions/analogio-x8.xc:62:0
.Ltmp367:
.Lxta.endpoint_labels71:
	{
		in r7, res[r8]
		nop
	}
.Ltmp368:
	#DEBUG_VALUE: _ <- R7
	#DEBUG_VALUE: time <- R7
	.loc	1 117 39                # ../src/extensions/analogio-x8.xc:117:39
.Lxta.endpoint_labels72:
	{
		out res[r4], r2
		gettime r7
	}
.Ltmp369:
	.loc	1 61 0                  # ../src/extensions/analogio-x8.xc:61:0
	{
		add r7, r7, r9
		nop
	}
	.loc	1 62 0                  # ../src/extensions/analogio-x8.xc:62:0
	{
		setd res[r8], r7
		nop
	}
.Ltmp370:
	#DEBUG_VALUE: _ <- R7
	#DEBUG_VALUE: rdData <- R0
	.loc	1 62 0                  # ../src/extensions/analogio-x8.xc:62:0
.Lxta.endpoint_labels73:
	{
		in r7, res[r8]
		shl r0, r0, 1
	}
.Ltmp371:
	.loc	1 177 5                 # ../src/extensions/analogio-x8.xc:177:5
	{
		shr r11, r11, 1
		nop
	}
	.loc	1 177 5                 # ../src/extensions/analogio-x8.xc:177:5
	{
		zext r11, 1
		nop
	}
	.loc	1 177 5                 # ../src/extensions/analogio-x8.xc:177:5
	{
		or r0, r11, r0
		add r1, r1, 1
	}
.xtaloop 8
	# LOOPMARKER 1
.Lxta.loop_labels2:
	# LOOPMARKER 0
	.loc	1 173 0                 # ../src/extensions/analogio-x8.xc:173:0
	bt r1, .LBB8_1
.Ltmp372:
# BB#2:                                 # %ifdone
.Lxtalabel17:
	#DEBUG_VALUE: AKM_i2c_master_read_reg:data <- [SP+4]
	#DEBUG_VALUE: nbytes <- 1
	#DEBUG_VALUE: device <- 32
	#DEBUG_VALUE: temp <- 0
	#DEBUG_VALUE: i <- 8
.Ltrap_info1:
	{
		ecallf r6
		nop
	}
	#DEBUG_VALUE: AKM_i2c_master_read_reg:data <- [SP+4]
	#DEBUG_VALUE: nbytes <- 1
	#DEBUG_VALUE: device <- 32
	#DEBUG_VALUE: temp <- 0
	#DEBUG_VALUE: i <- 8
.Ltmp373:
	#DEBUG_VALUE: highPulseDrive:sdaValue <- 0
	.loc	1 181 0                 # ../src/extensions/analogio-x8.xc:181:0
	{
		ldc r1, 0
		ldw r2, sp[1]
	}
	st8 r0, r2[r1]
.Ltmp374:
	#DEBUG_VALUE: time <- R0
	.loc	1 94 42                 # ../src/extensions/analogio-x8.xc:94:42
.Lxta.endpoint_labels74:
	{
		out res[r4], r5
		gettime r0
	}
.Ltmp375:
	.loc	1 61 0                  # ../src/extensions/analogio-x8.xc:61:0
	{
		add r0, r0, r9
		nop
	}
	.loc	1 62 0                  # ../src/extensions/analogio-x8.xc:62:0
	{
		setd res[r8], r0
		nop
	}
	.loc	1 62 0                  # ../src/extensions/analogio-x8.xc:62:0
	{
		setc res[r8], 9
		nop
	}
	.loc	1 62 0                  # ../src/extensions/analogio-x8.xc:62:0
.Ltmp376:
.Lxta.endpoint_labels75:
	{
		in r0, res[r8]
		nop
	}
.Ltmp377:
	#DEBUG_VALUE: _ <- R0
	#DEBUG_VALUE: time <- R0
	.loc	1 96 43                 # ../src/extensions/analogio-x8.xc:96:43
.Lxta.endpoint_labels76:
	{
		out res[r4], r10
		gettime r0
	}
.Ltmp378:
	.loc	1 61 0                  # ../src/extensions/analogio-x8.xc:61:0
	{
		add r0, r0, r9
		nop
	}
	.loc	1 62 0                  # ../src/extensions/analogio-x8.xc:62:0
	{
		setd res[r8], r0
		nop
	}
	.loc	1 62 0                  # ../src/extensions/analogio-x8.xc:62:0
.Ltmp379:
.Lxta.endpoint_labels77:
	{
		in r0, res[r8]
		nop
	}
.Ltmp380:
	#DEBUG_VALUE: _ <- R0
	.loc	1 60 0                  # ../src/extensions/analogio-x8.xc:60:0
	{
		gettime r0
		nop
	}
.Ltmp381:
	#DEBUG_VALUE: time <- R0
	.loc	1 61 0                  # ../src/extensions/analogio-x8.xc:61:0
	{
		add r0, r0, r9
		nop
	}
.Ltmp382:
	.loc	1 62 0                  # ../src/extensions/analogio-x8.xc:62:0
	{
		setd res[r8], r0
		nop
	}
	.loc	1 62 0                  # ../src/extensions/analogio-x8.xc:62:0
.Ltmp383:
.Lxta.endpoint_labels78:
	{
		in r0, res[r8]
		nop
	}
.Ltmp384:
	#DEBUG_VALUE: _ <- R0
	#DEBUG_VALUE: time <- R0
	.loc	1 98 42                 # ../src/extensions/analogio-x8.xc:98:42
.Lxta.endpoint_labels79:
	{
		out res[r4], r5
		gettime r0
	}
.Ltmp385:
	.loc	1 61 0                  # ../src/extensions/analogio-x8.xc:61:0
	{
		add r0, r0, r9
		nop
	}
	.loc	1 62 0                  # ../src/extensions/analogio-x8.xc:62:0
	{
		setd res[r8], r0
		nop
	}
	.loc	1 62 0                  # ../src/extensions/analogio-x8.xc:62:0
.Ltmp386:
.Lxta.endpoint_labels80:
	{
		in r0, res[r8]
		nop
	}
.Ltmp387:
	#DEBUG_VALUE: _ <- R0
	#DEBUG_VALUE: time <- R0
	.loc	1 134 38                # ../src/extensions/analogio-x8.xc:134:38
.Lxta.endpoint_labels81:
	{
		out res[r4], r5
		gettime r0
	}
.Ltmp388:
	.loc	1 61 0                  # ../src/extensions/analogio-x8.xc:61:0
	{
		add r0, r0, r9
		nop
	}
	.loc	1 62 0                  # ../src/extensions/analogio-x8.xc:62:0
	{
		setd res[r8], r0
		nop
	}
	.loc	1 62 0                  # ../src/extensions/analogio-x8.xc:62:0
.Ltmp389:
.Lxta.endpoint_labels82:
	{
		in r0, res[r8]
		nop
	}
.Ltmp390:
	#DEBUG_VALUE: _ <- R0
	#DEBUG_VALUE: time <- R0
	.loc	1 136 39                # ../src/extensions/analogio-x8.xc:136:39
.Lxta.endpoint_labels83:
	{
		out res[r4], r10
		gettime r0
	}
.Ltmp391:
	.loc	1 61 0                  # ../src/extensions/analogio-x8.xc:61:0
	{
		add r0, r0, r9
		nop
	}
	.loc	1 62 0                  # ../src/extensions/analogio-x8.xc:62:0
	{
		setd res[r8], r0
		nop
	}
	.loc	1 62 0                  # ../src/extensions/analogio-x8.xc:62:0
.Ltmp392:
.Lxta.endpoint_labels84:
	{
		in r0, res[r8]
		nop
	}
.Ltmp393:
	#DEBUG_VALUE: _ <- R0
	.loc	1 60 0                  # ../src/extensions/analogio-x8.xc:60:0
	{
		gettime r0
		nop
	}
.Ltmp394:
	#DEBUG_VALUE: time <- R0
	.loc	1 61 0                  # ../src/extensions/analogio-x8.xc:61:0
	{
		add r0, r0, r9
		nop
	}
.Ltmp395:
	.loc	1 62 0                  # ../src/extensions/analogio-x8.xc:62:0
	{
		setd res[r8], r0
		nop
	}
	.loc	1 62 0                  # ../src/extensions/analogio-x8.xc:62:0
.Ltmp396:
.Lxta.endpoint_labels85:
	{
		in r0, res[r8]
		nop
	}
.Ltmp397:
	#DEBUG_VALUE: _ <- R0
	.loc	1 138 0                 # ../src/extensions/analogio-x8.xc:138:0
	{
		setc res[r4], 1
		nop
	}
	.loc	1 138 0                 # ../src/extensions/analogio-x8.xc:138:0
.Ltmp398:
.Lxta.endpoint_labels86:
	{
		in r0, res[r4]
		nop
	}
.Ltmp399:
	.loc	1 60 0                  # ../src/extensions/analogio-x8.xc:60:0
	{
		gettime r0
		nop
	}
.Ltmp400:
	#DEBUG_VALUE: time <- R0
	.loc	1 61 0                  # ../src/extensions/analogio-x8.xc:61:0
	{
		add r0, r0, r9
		nop
	}
.Ltmp401:
	.loc	1 62 0                  # ../src/extensions/analogio-x8.xc:62:0
	{
		setd res[r8], r0
		nop
	}
	.loc	1 62 0                  # ../src/extensions/analogio-x8.xc:62:0
.Ltmp402:
.Lxta.endpoint_labels87:
	{
		in r0, res[r8]
		nop
	}
.Ltmp403:
	#DEBUG_VALUE: _ <- R0
	.loc	1 74 0                  # ../src/extensions/analogio-x8.xc:74:0
	{
		gettime r0
		nop
	}
.Ltmp404:
	#DEBUG_VALUE: time <- R0
	ldc r1, 5000
	.loc	1 75 0                  # ../src/extensions/analogio-x8.xc:75:0
.Ltmp405:
	{
		add r0, r0, r1
		nop
	}
.Ltmp406:
	.loc	1 76 0                  # ../src/extensions/analogio-x8.xc:76:0
	{
		setd res[r8], r0
		nop
	}
	.loc	1 76 0                  # ../src/extensions/analogio-x8.xc:76:0
	{
		setc res[r8], 9
		nop
	}
	.loc	1 76 0                  # ../src/extensions/analogio-x8.xc:76:0
.Ltmp407:
.Lxta.endpoint_labels88:
	{
		in r0, res[r8]
		nop
	}
.Ltmp408:
	#DEBUG_VALUE: _ <- R0
	.loc	1 78 0                  # ../src/extensions/analogio-x8.xc:78:0
	{
		setc res[r4], 1
		nop
	}
	.loc	1 78 0                  # ../src/extensions/analogio-x8.xc:78:0
.Ltmp409:
.Lxta.endpoint_labels89:
	{
		in r0, res[r4]
		nop
	}
.Ltmp410:
	{
		mkmsk r0, 1
		ldw r10, sp[8]
	}
	ldd r9, r8, sp[3]               # 4-byte Folded Reload
	ldd r7, r6, sp[2]               # 4-byte Folded Reload
	ldd r5, r4, sp[1]               # 4-byte Folded Reload
	{
		nop
		retsp 10
	}
.Ltmp411:
	# RETURN_REG_HOLDER
.Ltmp412:
	.cc_bottom _SAKM_i2c_master_read_reg_0.function
	.set	_SAKM_i2c_master_read_reg_0.nstackwords,(tx8.nstackwords + 10)
	.globl	_SAKM_i2c_master_read_reg_0.nstackwords
	.set	_SAKM_i2c_master_read_reg_0.maxcores,tx8.maxcores $M 1
	.globl	_SAKM_i2c_master_read_reg_0.maxcores
	.set	_SAKM_i2c_master_read_reg_0.maxtimers,tx8.maxtimers $M 0
	.globl	_SAKM_i2c_master_read_reg_0.maxtimers
	.set	_SAKM_i2c_master_read_reg_0.maxchanends,tx8.maxchanends $M 0
	.globl	_SAKM_i2c_master_read_reg_0.maxchanends
.Ltmp413:
	.size	_SAKM_i2c_master_read_reg_0, .Ltmp413-_SAKM_i2c_master_read_reg_0
.Lfunc_end8:
	.cfi_endproc

	.globl	AKM_i2c_master_write_reg
	.align	4
	.type	AKM_i2c_master_write_reg,@function
	.cc_top AKM_i2c_master_write_reg.function,AKM_i2c_master_write_reg
AKM_i2c_master_write_reg:               # @AKM_i2c_master_write_reg
.Lfunc_begin9:
	.loc	1 194 0                 # ../src/extensions/analogio-x8.xc:194:0
	.cfi_startproc
	.issue_mode dual
# BB#0:                                 # %allocas
.Lxtalabel18:
	{
		nop
		dualentsp 10
	}
.Ltmp414:
	.cfi_def_cfa_offset 40
.Ltmp415:
	.cfi_offset 15, 0
	std r5, r4, sp[1]               # 4-byte Folded Spill
.Ltmp416:
	.cfi_offset 4, -32
.Ltmp417:
	.cfi_offset 5, -28
	std r7, r6, sp[2]               # 4-byte Folded Spill
.Ltmp418:
	.cfi_offset 6, -24
.Ltmp419:
	.cfi_offset 7, -20
	std r9, r8, sp[3]               # 4-byte Folded Spill
.Ltmp420:
	.cfi_offset 8, -16
.Ltmp421:
	.cfi_offset 9, -12
	{
		nop
		stw r10, sp[8]
	}
.Ltmp422:
	.cfi_offset 10, -8
	#DEBUG_VALUE: AKM_i2c_master_write_reg:device <- R0
	#DEBUG_VALUE: AKM_i2c_master_write_reg:addr <- R1
	#DEBUG_VALUE: AKM_i2c_master_write_reg:s_data <- R2
	#DEBUG_VALUE: AKM_i2c_master_write_reg:nbytes <- R3
	#DEBUG_VALUE: AKM_i2c_master_write_reg:i2cPorts <- [SP+44]
.Ltmp423:
	#DEBUG_VALUE: AKM_i2c_master_write_reg:s_data <- [SP+4]
	#DEBUG_VALUE: AKM_i2c_master_write_reg:addr <- R6
	{
		mov r6, r1
		stw r2, sp[1]
	}
.Ltmp424:
	#DEBUG_VALUE: AKM_i2c_master_write_reg:device <- R1
	{
		mov r1, r0
		ldw r0, sp[11]
	}
.Ltmp425:
	#DEBUG_VALUE: startBit:i2c <- R4
	#DEBUG_VALUE: stopBit:i2c <- R4
	#DEBUG_VALUE: time <- R0
	.loc	1 199 0 prologue_end    # ../src/extensions/analogio-x8.xc:199:0
	{
		gettime r0
		ldw r4, r0[0]
	}
.Ltmp426:
	ldc r8, 250
	.loc	1 61 0                  # ../src/extensions/analogio-x8.xc:61:0
.Ltmp427:
	{
		add r0, r0, r8
		get r11, id
	}
	.loc	1 62 0                  # ../src/extensions/analogio-x8.xc:62:0
	ldaw r2, dp[__timers]
	{
		nop
		ldw r9, r2[r11]
	}
	.loc	1 62 0                  # ../src/extensions/analogio-x8.xc:62:0
	{
		setd res[r9], r0
		nop
	}
	.loc	1 62 0                  # ../src/extensions/analogio-x8.xc:62:0
	{
		setc res[r9], 9
		nop
	}
.Ltmp428:
	#DEBUG_VALUE: _ <- R0
	.loc	1 62 0                  # ../src/extensions/analogio-x8.xc:62:0
.Lxta.endpoint_labels90:
	{
		in r0, res[r9]
		ldc r10, 13
	}
.Ltmp429:
	#DEBUG_VALUE: time <- R0
	.loc	1 127 39                # ../src/extensions/analogio-x8.xc:127:39
.Lxta.endpoint_labels91:
	{
		out res[r4], r10
		gettime r0
	}
.Ltmp430:
	.loc	1 61 0                  # ../src/extensions/analogio-x8.xc:61:0
	{
		add r0, r0, r8
		nop
	}
	.loc	1 62 0                  # ../src/extensions/analogio-x8.xc:62:0
	{
		setd res[r9], r0
		nop
	}
	.loc	1 62 0                  # ../src/extensions/analogio-x8.xc:62:0
.Ltmp431:
.Lxta.endpoint_labels92:
	{
		in r0, res[r9]
		nop
	}
.Ltmp432:
	#DEBUG_VALUE: _ <- R0
	.loc	1 60 0                  # ../src/extensions/analogio-x8.xc:60:0
	{
		gettime r0
		nop
	}
.Ltmp433:
	#DEBUG_VALUE: time <- R0
	.loc	1 61 0                  # ../src/extensions/analogio-x8.xc:61:0
	{
		add r0, r0, r8
		nop
	}
.Ltmp434:
	.loc	1 62 0                  # ../src/extensions/analogio-x8.xc:62:0
	{
		setd res[r9], r0
		nop
	}
.Ltmp435:
	#DEBUG_VALUE: _ <- R0
	.loc	1 62 0                  # ../src/extensions/analogio-x8.xc:62:0
.Lxta.endpoint_labels93:
	{
		in r0, res[r9]
		ldc r5, 12
	}
.Ltmp436:
	#DEBUG_VALUE: time <- R0
	.loc	1 129 38                # ../src/extensions/analogio-x8.xc:129:38
.Lxta.endpoint_labels94:
	{
		out res[r4], r5
		gettime r0
	}
.Ltmp437:
	.loc	1 61 0                  # ../src/extensions/analogio-x8.xc:61:0
	{
		add r0, r0, r8
		nop
	}
	.loc	1 62 0                  # ../src/extensions/analogio-x8.xc:62:0
	{
		setd res[r9], r0
		nop
	}
	.loc	1 62 0                  # ../src/extensions/analogio-x8.xc:62:0
.Ltmp438:
.Lxta.endpoint_labels95:
	{
		in r0, res[r9]
		nop
	}
.Ltmp439:
	#DEBUG_VALUE: _ <- R0
	.loc	1 200 0                 # ../src/extensions/analogio-x8.xc:200:0
	{
		mov r0, r4
		nop
	}
.Ltmp440:
.Lxta.call_labels79:
	bl tx8
.Ltmp441:
	#DEBUG_VALUE: ack <- R7
	{
		mov r7, r0
		mov r0, r4
	}
.Ltmp442:
	.loc	1 201 0                 # ../src/extensions/analogio-x8.xc:201:0
	{
		mov r1, r6
		nop
	}
.Ltmp443:
	#DEBUG_VALUE: AKM_i2c_master_write_reg:addr <- R1
.Lxta.call_labels80:
	bl tx8
.Ltmp444:
	{
		nop
		ldw r1, sp[12]
	}
.Ltrap_info2:
	{
		ecallf r1
		nop
	}
	#DEBUG_VALUE: AKM_i2c_master_write_reg:s_data <- [SP+4]
.Ltmp445:
	#DEBUG_VALUE: AKM_i2c_master_write_reg:nbytes <- R3
	#DEBUG_VALUE: AKM_i2c_master_write_reg:i2cPorts <- [SP+44]
	#DEBUG_VALUE: stopBit:i2c <- R4
	#DEBUG_VALUE: ack <- R7
	#DEBUG_VALUE: ack <- R6
	.loc	1 201 0                 # ../src/extensions/analogio-x8.xc:201:0
	{
		or r6, r0, r7
		ldc r0, 0
	}
.Ltmp446:
	{
		nop
		ldw r1, sp[1]
	}
	.loc	1 204 0                 # ../src/extensions/analogio-x8.xc:204:0
	{
		mov r0, r4
		ld8u r1, r1[r0]
	}
	.loc	1 205 0                 # ../src/extensions/analogio-x8.xc:205:0
.Lxta.call_labels81:
	bl tx8
.Ltmp447:
	#DEBUG_VALUE: ack <- R0
	.loc	1 205 0                 # ../src/extensions/analogio-x8.xc:205:0
.Lxta.endpoint_labels96:
	{
		out res[r4], r5
		or r0, r6, r0
	}
.Ltmp448:
	.loc	1 60 0                  # ../src/extensions/analogio-x8.xc:60:0
	{
		gettime r1
		nop
	}
.Ltmp449:
	#DEBUG_VALUE: time <- R1
	.loc	1 61 0                  # ../src/extensions/analogio-x8.xc:61:0
	{
		add r1, r1, r8
		nop
	}
.Ltmp450:
	.loc	1 62 0                  # ../src/extensions/analogio-x8.xc:62:0
	{
		setd res[r9], r1
		nop
	}
	.loc	1 62 0                  # ../src/extensions/analogio-x8.xc:62:0
	{
		setc res[r9], 9
		nop
	}
	.loc	1 62 0                  # ../src/extensions/analogio-x8.xc:62:0
.Ltmp451:
.Lxta.endpoint_labels97:
	{
		in r1, res[r9]
		nop
	}
.Ltmp452:
	#DEBUG_VALUE: _ <- R1
	#DEBUG_VALUE: time <- R1
	.loc	1 136 39                # ../src/extensions/analogio-x8.xc:136:39
.Lxta.endpoint_labels98:
	{
		out res[r4], r10
		gettime r1
	}
.Ltmp453:
	.loc	1 61 0                  # ../src/extensions/analogio-x8.xc:61:0
	{
		add r1, r1, r8
		nop
	}
	.loc	1 62 0                  # ../src/extensions/analogio-x8.xc:62:0
	{
		setd res[r9], r1
		nop
	}
	.loc	1 62 0                  # ../src/extensions/analogio-x8.xc:62:0
.Ltmp454:
.Lxta.endpoint_labels99:
	{
		in r1, res[r9]
		nop
	}
.Ltmp455:
	#DEBUG_VALUE: _ <- R1
	.loc	1 60 0                  # ../src/extensions/analogio-x8.xc:60:0
	{
		gettime r1
		nop
	}
.Ltmp456:
	#DEBUG_VALUE: time <- R1
	.loc	1 61 0                  # ../src/extensions/analogio-x8.xc:61:0
	{
		add r1, r1, r8
		nop
	}
.Ltmp457:
	.loc	1 62 0                  # ../src/extensions/analogio-x8.xc:62:0
	{
		setd res[r9], r1
		nop
	}
	.loc	1 62 0                  # ../src/extensions/analogio-x8.xc:62:0
.Ltmp458:
.Lxta.endpoint_labels100:
	{
		in r1, res[r9]
		nop
	}
.Ltmp459:
	#DEBUG_VALUE: _ <- R1
	.loc	1 138 0                 # ../src/extensions/analogio-x8.xc:138:0
	{
		setc res[r4], 1
		nop
	}
	.loc	1 138 0                 # ../src/extensions/analogio-x8.xc:138:0
.Ltmp460:
.Lxta.endpoint_labels101:
	{
		in r1, res[r4]
		nop
	}
.Ltmp461:
	.loc	1 60 0                  # ../src/extensions/analogio-x8.xc:60:0
	{
		gettime r1
		nop
	}
.Ltmp462:
	#DEBUG_VALUE: time <- R1
	.loc	1 61 0                  # ../src/extensions/analogio-x8.xc:61:0
	{
		add r1, r1, r8
		nop
	}
.Ltmp463:
	.loc	1 62 0                  # ../src/extensions/analogio-x8.xc:62:0
	{
		setd res[r9], r1
		nop
	}
.Ltmp464:
	#DEBUG_VALUE: _ <- R1
	.loc	1 62 0                  # ../src/extensions/analogio-x8.xc:62:0
.Lxta.endpoint_labels102:
	{
		in r1, res[r9]
		eq r0, r0, 0
	}
.Ltmp465:
	{
		nop
		ldw r10, sp[8]
	}
	ldd r9, r8, sp[3]               # 4-byte Folded Reload
	ldd r7, r6, sp[2]               # 4-byte Folded Reload
	ldd r5, r4, sp[1]               # 4-byte Folded Reload
.Ltmp466:
	{
		nop
		retsp 10
	}
.Ltmp467:
	# RETURN_REG_HOLDER
.Ltmp468:
	.cc_bottom AKM_i2c_master_write_reg.function
	.set	AKM_i2c_master_write_reg.nstackwords,(tx8.nstackwords + 10)
	.globl	AKM_i2c_master_write_reg.nstackwords
	.set	AKM_i2c_master_write_reg.maxcores,tx8.maxcores $M 1
	.globl	AKM_i2c_master_write_reg.maxcores
	.set	AKM_i2c_master_write_reg.maxtimers,tx8.maxtimers $M 0
	.globl	AKM_i2c_master_write_reg.maxtimers
	.set	AKM_i2c_master_write_reg.maxchanends,tx8.maxchanends $M 0
	.globl	AKM_i2c_master_write_reg.maxchanends
.Ltmp469:
	.size	AKM_i2c_master_write_reg, .Ltmp469-AKM_i2c_master_write_reg
.Lfunc_end9:
	.cfi_endproc

	.globl	_SAKM_i2c_master_write_reg_0
	.align	4
	.type	_SAKM_i2c_master_write_reg_0,@function
	.cc_top _SAKM_i2c_master_write_reg_0.function,_SAKM_i2c_master_write_reg_0
_SAKM_i2c_master_write_reg_0:           # @_SAKM_i2c_master_write_reg_0
.Lfunc_begin10:
	.loc	1 194 0                 # ../src/extensions/analogio-x8.xc:194:0
	.cfi_startproc
	.issue_mode dual
# BB#0:                                 # %allocas
.Lxtalabel19:
	{
		nop
		dualentsp 10
	}
.Ltmp470:
	.cfi_def_cfa_offset 40
.Ltmp471:
	.cfi_offset 15, 0
	std r5, r4, sp[1]               # 4-byte Folded Spill
.Ltmp472:
	.cfi_offset 4, -32
.Ltmp473:
	.cfi_offset 5, -28
	std r7, r6, sp[2]               # 4-byte Folded Spill
.Ltmp474:
	.cfi_offset 6, -24
.Ltmp475:
	.cfi_offset 7, -20
	std r9, r8, sp[3]               # 4-byte Folded Spill
.Ltmp476:
	.cfi_offset 8, -16
.Ltmp477:
	.cfi_offset 9, -12
	{
		nop
		stw r10, sp[8]
	}
.Ltmp478:
	.cfi_offset 10, -8
	#DEBUG_VALUE: AKM_i2c_master_write_reg:device <- R0
	#DEBUG_VALUE: AKM_i2c_master_write_reg:addr <- R1
	#DEBUG_VALUE: AKM_i2c_master_write_reg:s_data <- R2
	#DEBUG_VALUE: AKM_i2c_master_write_reg:i2cPorts <- R3
.Ltmp479:
	#DEBUG_VALUE: AKM_i2c_master_write_reg:s_data <- [SP+4]
	#DEBUG_VALUE: AKM_i2c_master_write_reg:addr <- R6
	{
		mov r6, r1
		stw r2, sp[1]
	}
.Ltmp480:
	#DEBUG_VALUE: nbytes <- 1
	#DEBUG_VALUE: AKM_i2c_master_write_reg:device <- R1
	#DEBUG_VALUE: startBit:i2c <- R4
	#DEBUG_VALUE: stopBit:i2c <- R4
	{
		mov r1, r0
		ldw r4, r3[0]
	}
.Ltmp481:
	.loc	1 60 0 prologue_end     # ../src/extensions/analogio-x8.xc:60:0
	{
		gettime r0
		nop
	}
.Ltmp482:
	#DEBUG_VALUE: time <- R0
	ldc r8, 250
	.loc	1 61 0                  # ../src/extensions/analogio-x8.xc:61:0
.Ltmp483:
	{
		add r0, r0, r8
		get r11, id
	}
.Ltmp484:
	.loc	1 62 0                  # ../src/extensions/analogio-x8.xc:62:0
	ldaw r2, dp[__timers]
	{
		nop
		ldw r9, r2[r11]
	}
	.loc	1 62 0                  # ../src/extensions/analogio-x8.xc:62:0
	{
		setd res[r9], r0
		nop
	}
	.loc	1 62 0                  # ../src/extensions/analogio-x8.xc:62:0
	{
		setc res[r9], 9
		nop
	}
.Ltmp485:
	#DEBUG_VALUE: _ <- R0
	.loc	1 62 0                  # ../src/extensions/analogio-x8.xc:62:0
.Lxta.endpoint_labels103:
	{
		in r0, res[r9]
		ldc r10, 13
	}
.Ltmp486:
	#DEBUG_VALUE: time <- R0
	.loc	1 127 39                # ../src/extensions/analogio-x8.xc:127:39
.Lxta.endpoint_labels104:
	{
		out res[r4], r10
		gettime r0
	}
.Ltmp487:
	.loc	1 61 0                  # ../src/extensions/analogio-x8.xc:61:0
	{
		add r0, r0, r8
		nop
	}
	.loc	1 62 0                  # ../src/extensions/analogio-x8.xc:62:0
	{
		setd res[r9], r0
		nop
	}
	.loc	1 62 0                  # ../src/extensions/analogio-x8.xc:62:0
.Ltmp488:
.Lxta.endpoint_labels105:
	{
		in r0, res[r9]
		nop
	}
.Ltmp489:
	#DEBUG_VALUE: _ <- R0
	.loc	1 60 0                  # ../src/extensions/analogio-x8.xc:60:0
	{
		gettime r0
		nop
	}
.Ltmp490:
	#DEBUG_VALUE: time <- R0
	.loc	1 61 0                  # ../src/extensions/analogio-x8.xc:61:0
	{
		add r0, r0, r8
		nop
	}
.Ltmp491:
	.loc	1 62 0                  # ../src/extensions/analogio-x8.xc:62:0
	{
		setd res[r9], r0
		nop
	}
.Ltmp492:
	#DEBUG_VALUE: _ <- R0
	.loc	1 62 0                  # ../src/extensions/analogio-x8.xc:62:0
.Lxta.endpoint_labels106:
	{
		in r0, res[r9]
		ldc r5, 12
	}
.Ltmp493:
	#DEBUG_VALUE: time <- R0
	.loc	1 129 38                # ../src/extensions/analogio-x8.xc:129:38
.Lxta.endpoint_labels107:
	{
		out res[r4], r5
		gettime r0
	}
.Ltmp494:
	.loc	1 61 0                  # ../src/extensions/analogio-x8.xc:61:0
	{
		add r0, r0, r8
		nop
	}
	.loc	1 62 0                  # ../src/extensions/analogio-x8.xc:62:0
	{
		setd res[r9], r0
		nop
	}
	.loc	1 62 0                  # ../src/extensions/analogio-x8.xc:62:0
.Ltmp495:
.Lxta.endpoint_labels108:
	{
		in r0, res[r9]
		nop
	}
.Ltmp496:
	#DEBUG_VALUE: _ <- R0
	.loc	1 200 0                 # ../src/extensions/analogio-x8.xc:200:0
	{
		mov r0, r4
		nop
	}
.Ltmp497:
.Lxta.call_labels82:
	bl tx8
.Ltmp498:
	#DEBUG_VALUE: ack <- R7
	{
		mov r7, r0
		mov r0, r4
	}
.Ltmp499:
	.loc	1 201 0                 # ../src/extensions/analogio-x8.xc:201:0
	{
		mov r1, r6
		nop
	}
.Ltmp500:
	#DEBUG_VALUE: AKM_i2c_master_write_reg:addr <- R1
.Lxta.call_labels83:
	bl tx8
.Ltmp501:
	{
		nop
		ldw r1, sp[11]
	}
.Ltrap_info3:
	{
		ecallf r1
		nop
	}
	#DEBUG_VALUE: AKM_i2c_master_write_reg:s_data <- [SP+4]
	#DEBUG_VALUE: nbytes <- 1
.Ltmp502:
	#DEBUG_VALUE: stopBit:i2c <- R4
	#DEBUG_VALUE: ack <- R7
	#DEBUG_VALUE: ack <- R6
	.loc	1 201 0                 # ../src/extensions/analogio-x8.xc:201:0
	{
		or r6, r0, r7
		ldc r0, 0
	}
.Ltmp503:
	{
		nop
		ldw r1, sp[1]
	}
	.loc	1 204 0                 # ../src/extensions/analogio-x8.xc:204:0
	{
		mov r0, r4
		ld8u r1, r1[r0]
	}
	.loc	1 205 0                 # ../src/extensions/analogio-x8.xc:205:0
.Lxta.call_labels84:
	bl tx8
.Ltmp504:
	#DEBUG_VALUE: ack <- R0
	.loc	1 205 0                 # ../src/extensions/analogio-x8.xc:205:0
.Lxta.endpoint_labels109:
	{
		out res[r4], r5
		or r0, r6, r0
	}
.Ltmp505:
	.loc	1 60 0                  # ../src/extensions/analogio-x8.xc:60:0
	{
		gettime r1
		nop
	}
.Ltmp506:
	#DEBUG_VALUE: time <- R1
	.loc	1 61 0                  # ../src/extensions/analogio-x8.xc:61:0
	{
		add r1, r1, r8
		nop
	}
.Ltmp507:
	.loc	1 62 0                  # ../src/extensions/analogio-x8.xc:62:0
	{
		setd res[r9], r1
		nop
	}
	.loc	1 62 0                  # ../src/extensions/analogio-x8.xc:62:0
	{
		setc res[r9], 9
		nop
	}
	.loc	1 62 0                  # ../src/extensions/analogio-x8.xc:62:0
.Ltmp508:
.Lxta.endpoint_labels110:
	{
		in r1, res[r9]
		nop
	}
.Ltmp509:
	#DEBUG_VALUE: _ <- R1
	#DEBUG_VALUE: time <- R1
	.loc	1 136 39                # ../src/extensions/analogio-x8.xc:136:39
.Lxta.endpoint_labels111:
	{
		out res[r4], r10
		gettime r1
	}
.Ltmp510:
	.loc	1 61 0                  # ../src/extensions/analogio-x8.xc:61:0
	{
		add r1, r1, r8
		nop
	}
	.loc	1 62 0                  # ../src/extensions/analogio-x8.xc:62:0
	{
		setd res[r9], r1
		nop
	}
	.loc	1 62 0                  # ../src/extensions/analogio-x8.xc:62:0
.Ltmp511:
.Lxta.endpoint_labels112:
	{
		in r1, res[r9]
		nop
	}
.Ltmp512:
	#DEBUG_VALUE: _ <- R1
	.loc	1 60 0                  # ../src/extensions/analogio-x8.xc:60:0
	{
		gettime r1
		nop
	}
.Ltmp513:
	#DEBUG_VALUE: time <- R1
	.loc	1 61 0                  # ../src/extensions/analogio-x8.xc:61:0
	{
		add r1, r1, r8
		nop
	}
.Ltmp514:
	.loc	1 62 0                  # ../src/extensions/analogio-x8.xc:62:0
	{
		setd res[r9], r1
		nop
	}
	.loc	1 62 0                  # ../src/extensions/analogio-x8.xc:62:0
.Ltmp515:
.Lxta.endpoint_labels113:
	{
		in r1, res[r9]
		nop
	}
.Ltmp516:
	#DEBUG_VALUE: _ <- R1
	.loc	1 138 0                 # ../src/extensions/analogio-x8.xc:138:0
	{
		setc res[r4], 1
		nop
	}
	.loc	1 138 0                 # ../src/extensions/analogio-x8.xc:138:0
.Ltmp517:
.Lxta.endpoint_labels114:
	{
		in r1, res[r4]
		nop
	}
.Ltmp518:
	.loc	1 60 0                  # ../src/extensions/analogio-x8.xc:60:0
	{
		gettime r1
		nop
	}
.Ltmp519:
	#DEBUG_VALUE: time <- R1
	.loc	1 61 0                  # ../src/extensions/analogio-x8.xc:61:0
	{
		add r1, r1, r8
		nop
	}
.Ltmp520:
	.loc	1 62 0                  # ../src/extensions/analogio-x8.xc:62:0
	{
		setd res[r9], r1
		nop
	}
.Ltmp521:
	#DEBUG_VALUE: _ <- R1
	.loc	1 62 0                  # ../src/extensions/analogio-x8.xc:62:0
.Lxta.endpoint_labels115:
	{
		in r1, res[r9]
		eq r0, r0, 0
	}
.Ltmp522:
	{
		nop
		ldw r10, sp[8]
	}
	ldd r9, r8, sp[3]               # 4-byte Folded Reload
	ldd r7, r6, sp[2]               # 4-byte Folded Reload
	ldd r5, r4, sp[1]               # 4-byte Folded Reload
.Ltmp523:
	{
		nop
		retsp 10
	}
.Ltmp524:
	# RETURN_REG_HOLDER
.Ltmp525:
	.cc_bottom _SAKM_i2c_master_write_reg_0.function
	.set	_SAKM_i2c_master_write_reg_0.nstackwords,(tx8.nstackwords + 10)
	.globl	_SAKM_i2c_master_write_reg_0.nstackwords
	.set	_SAKM_i2c_master_write_reg_0.maxcores,tx8.maxcores $M 1
	.globl	_SAKM_i2c_master_write_reg_0.maxcores
	.set	_SAKM_i2c_master_write_reg_0.maxtimers,tx8.maxtimers $M 0
	.globl	_SAKM_i2c_master_write_reg_0.maxtimers
	.set	_SAKM_i2c_master_write_reg_0.maxchanends,tx8.maxchanends $M 0
	.globl	_SAKM_i2c_master_write_reg_0.maxchanends
.Ltmp526:
	.size	_SAKM_i2c_master_write_reg_0, .Ltmp526-_SAKM_i2c_master_write_reg_0
.Lfunc_end10:
	.cfi_endproc

.Ldebug_end0:
	.file	2 "/Applications/XMOS_xTIMEcomposer_Community_14.3.3/target/include/timer.h"
	.section	.xtacalltable,"",@progbits
.Lentries_start0:
	.long	.Lentries_end1-.Lentries_start0
	.long	0
	.ascii	"/Users/rkn/Documents/xTIMEcomposer/workspace/app_usb_aud_xk_216_mc/.build_2i32o32xxxxx_tdm8"
	.byte	0
.cc_top cc_0,.Lxta.call_labels72
	.ascii	"../src/extensions/analogio-x8.xc"
	.byte	0
	.long	146
	.long	.Lxta.call_labels72
.cc_bottom cc_0
.cc_top cc_1,.Lxta.call_labels76
	.ascii	"../src/extensions/analogio-x8.xc"
	.byte	0
	.long	161
	.long	.Lxta.call_labels76
.cc_bottom cc_1
.cc_top cc_2,.Lxta.call_labels73
	.ascii	"../src/extensions/analogio-x8.xc"
	.byte	0
	.long	161
	.long	.Lxta.call_labels73
.cc_bottom cc_2
.cc_top cc_3,.Lxta.call_labels74
	.ascii	"../src/extensions/analogio-x8.xc"
	.byte	0
	.long	162
	.long	.Lxta.call_labels74
.cc_bottom cc_3
.cc_top cc_4,.Lxta.call_labels77
	.ascii	"../src/extensions/analogio-x8.xc"
	.byte	0
	.long	162
	.long	.Lxta.call_labels77
.cc_bottom cc_4
.cc_top cc_5,.Lxta.call_labels75
	.ascii	"../src/extensions/analogio-x8.xc"
	.byte	0
	.long	167
	.long	.Lxta.call_labels75
.cc_bottom cc_5
.cc_top cc_6,.Lxta.call_labels78
	.ascii	"../src/extensions/analogio-x8.xc"
	.byte	0
	.long	167
	.long	.Lxta.call_labels78
.cc_bottom cc_6
.cc_top cc_7,.Lxta.call_labels79
	.ascii	"../src/extensions/analogio-x8.xc"
	.byte	0
	.long	200
	.long	.Lxta.call_labels79
.cc_bottom cc_7
.cc_top cc_8,.Lxta.call_labels82
	.ascii	"../src/extensions/analogio-x8.xc"
	.byte	0
	.long	200
	.long	.Lxta.call_labels82
.cc_bottom cc_8
.cc_top cc_9,.Lxta.call_labels83
	.ascii	"../src/extensions/analogio-x8.xc"
	.byte	0
	.long	201
	.long	.Lxta.call_labels83
.cc_bottom cc_9
.cc_top cc_10,.Lxta.call_labels80
	.ascii	"../src/extensions/analogio-x8.xc"
	.byte	0
	.long	201
	.long	.Lxta.call_labels80
.cc_bottom cc_10
.cc_top cc_11,.Lxta.call_labels81
	.ascii	"../src/extensions/analogio-x8.xc"
	.byte	0
	.long	205
	.long	.Lxta.call_labels81
.cc_bottom cc_11
.cc_top cc_12,.Lxta.call_labels84
	.ascii	"../src/extensions/analogio-x8.xc"
	.byte	0
	.long	205
	.long	.Lxta.call_labels84
.cc_bottom cc_12
.cc_top cc_13,.Lxta.call_labels60
	.ascii	"../src/extensions/analogio-x8.xc"
	.byte	0
	.long	219
	.long	.Lxta.call_labels60
.cc_bottom cc_13
.cc_top cc_14,.Lxta.call_labels54
	.ascii	"../src/extensions/analogio-x8.xc"
	.byte	0
	.long	219
	.long	.Lxta.call_labels54
.cc_bottom cc_14
.cc_top cc_15,.Lxta.call_labels63
	.ascii	"../src/extensions/analogio-x8.xc"
	.byte	0
	.long	219
	.long	.Lxta.call_labels63
.cc_bottom cc_15
.cc_top cc_16,.Lxta.call_labels57
	.ascii	"../src/extensions/analogio-x8.xc"
	.byte	0
	.long	219
	.long	.Lxta.call_labels57
.cc_bottom cc_16
.cc_top cc_17,.Lxta.call_labels61
	.ascii	"../src/extensions/analogio-x8.xc"
	.byte	0
	.long	220
	.long	.Lxta.call_labels61
.cc_bottom cc_17
.cc_top cc_18,.Lxta.call_labels55
	.ascii	"../src/extensions/analogio-x8.xc"
	.byte	0
	.long	220
	.long	.Lxta.call_labels55
.cc_bottom cc_18
.cc_top cc_19,.Lxta.call_labels64
	.ascii	"../src/extensions/analogio-x8.xc"
	.byte	0
	.long	220
	.long	.Lxta.call_labels64
.cc_bottom cc_19
.cc_top cc_20,.Lxta.call_labels58
	.ascii	"../src/extensions/analogio-x8.xc"
	.byte	0
	.long	220
	.long	.Lxta.call_labels58
.cc_bottom cc_20
.cc_top cc_21,.Lxta.call_labels62
	.ascii	"../src/extensions/analogio-x8.xc"
	.byte	0
	.long	221
	.long	.Lxta.call_labels62
.cc_bottom cc_21
.cc_top cc_22,.Lxta.call_labels56
	.ascii	"../src/extensions/analogio-x8.xc"
	.byte	0
	.long	221
	.long	.Lxta.call_labels56
.cc_bottom cc_22
.cc_top cc_23,.Lxta.call_labels65
	.ascii	"../src/extensions/analogio-x8.xc"
	.byte	0
	.long	221
	.long	.Lxta.call_labels65
.cc_bottom cc_23
.cc_top cc_24,.Lxta.call_labels59
	.ascii	"../src/extensions/analogio-x8.xc"
	.byte	0
	.long	221
	.long	.Lxta.call_labels59
.cc_bottom cc_24
.cc_top cc_25,.Lxta.call_labels0
	.ascii	"../src/extensions/analogio-x8.xc"
	.byte	0
	.long	233
	.long	.Lxta.call_labels0
.cc_bottom cc_25
.cc_top cc_26,.Lxta.call_labels42
	.ascii	"../src/extensions/analogio-x8.xc"
	.byte	0
	.long	233
	.long	.Lxta.call_labels42
.cc_bottom cc_26
.cc_top cc_27,.Lxta.call_labels27
	.ascii	"../src/extensions/analogio-x8.xc"
	.byte	0
	.long	233
	.long	.Lxta.call_labels27
.cc_bottom cc_27
.cc_top cc_28,.Lxta.call_labels15
	.ascii	"../src/extensions/analogio-x8.xc"
	.byte	0
	.long	233
	.long	.Lxta.call_labels15
.cc_bottom cc_28
.cc_top cc_29,.Lxta.call_labels66
	.ascii	"../src/extensions/analogio-x8.xc"
	.byte	0
	.long	233
	.long	.Lxta.call_labels66
.cc_bottom cc_29
.cc_top cc_30,.Lxta.call_labels30
	.ascii	"../src/extensions/analogio-x8.xc"
	.byte	0
	.long	233
	.long	.Lxta.call_labels30
.cc_bottom cc_30
.cc_top cc_31,.Lxta.call_labels18
	.ascii	"../src/extensions/analogio-x8.xc"
	.byte	0
	.long	233
	.long	.Lxta.call_labels18
.cc_bottom cc_31
.cc_top cc_32,.Lxta.call_labels3
	.ascii	"../src/extensions/analogio-x8.xc"
	.byte	0
	.long	233
	.long	.Lxta.call_labels3
.cc_bottom cc_32
.cc_top cc_33,.Lxta.call_labels33
	.ascii	"../src/extensions/analogio-x8.xc"
	.byte	0
	.long	233
	.long	.Lxta.call_labels33
.cc_bottom cc_33
.cc_top cc_34,.Lxta.call_labels21
	.ascii	"../src/extensions/analogio-x8.xc"
	.byte	0
	.long	233
	.long	.Lxta.call_labels21
.cc_bottom cc_34
.cc_top cc_35,.Lxta.call_labels69
	.ascii	"../src/extensions/analogio-x8.xc"
	.byte	0
	.long	233
	.long	.Lxta.call_labels69
.cc_bottom cc_35
.cc_top cc_36,.Lxta.call_labels36
	.ascii	"../src/extensions/analogio-x8.xc"
	.byte	0
	.long	233
	.long	.Lxta.call_labels36
.cc_bottom cc_36
.cc_top cc_37,.Lxta.call_labels24
	.ascii	"../src/extensions/analogio-x8.xc"
	.byte	0
	.long	233
	.long	.Lxta.call_labels24
.cc_bottom cc_37
.cc_top cc_38,.Lxta.call_labels6
	.ascii	"../src/extensions/analogio-x8.xc"
	.byte	0
	.long	233
	.long	.Lxta.call_labels6
.cc_bottom cc_38
.cc_top cc_39,.Lxta.call_labels39
	.ascii	"../src/extensions/analogio-x8.xc"
	.byte	0
	.long	233
	.long	.Lxta.call_labels39
.cc_bottom cc_39
.cc_top cc_40,.Lxta.call_labels51
	.ascii	"../src/extensions/analogio-x8.xc"
	.byte	0
	.long	233
	.long	.Lxta.call_labels51
.cc_bottom cc_40
.cc_top cc_41,.Lxta.call_labels12
	.ascii	"../src/extensions/analogio-x8.xc"
	.byte	0
	.long	233
	.long	.Lxta.call_labels12
.cc_bottom cc_41
.cc_top cc_42,.Lxta.call_labels48
	.ascii	"../src/extensions/analogio-x8.xc"
	.byte	0
	.long	233
	.long	.Lxta.call_labels48
.cc_bottom cc_42
.cc_top cc_43,.Lxta.call_labels45
	.ascii	"../src/extensions/analogio-x8.xc"
	.byte	0
	.long	233
	.long	.Lxta.call_labels45
.cc_bottom cc_43
.cc_top cc_44,.Lxta.call_labels9
	.ascii	"../src/extensions/analogio-x8.xc"
	.byte	0
	.long	233
	.long	.Lxta.call_labels9
.cc_bottom cc_44
.cc_top cc_45,.Lxta.call_labels43
	.ascii	"../src/extensions/analogio-x8.xc"
	.byte	0
	.long	234
	.long	.Lxta.call_labels43
.cc_bottom cc_45
.cc_top cc_46,.Lxta.call_labels46
	.ascii	"../src/extensions/analogio-x8.xc"
	.byte	0
	.long	234
	.long	.Lxta.call_labels46
.cc_bottom cc_46
.cc_top cc_47,.Lxta.call_labels10
	.ascii	"../src/extensions/analogio-x8.xc"
	.byte	0
	.long	234
	.long	.Lxta.call_labels10
.cc_bottom cc_47
.cc_top cc_48,.Lxta.call_labels25
	.ascii	"../src/extensions/analogio-x8.xc"
	.byte	0
	.long	234
	.long	.Lxta.call_labels25
.cc_bottom cc_48
.cc_top cc_49,.Lxta.call_labels49
	.ascii	"../src/extensions/analogio-x8.xc"
	.byte	0
	.long	234
	.long	.Lxta.call_labels49
.cc_bottom cc_49
.cc_top cc_50,.Lxta.call_labels7
	.ascii	"../src/extensions/analogio-x8.xc"
	.byte	0
	.long	234
	.long	.Lxta.call_labels7
.cc_bottom cc_50
.cc_top cc_51,.Lxta.call_labels40
	.ascii	"../src/extensions/analogio-x8.xc"
	.byte	0
	.long	234
	.long	.Lxta.call_labels40
.cc_bottom cc_51
.cc_top cc_52,.Lxta.call_labels52
	.ascii	"../src/extensions/analogio-x8.xc"
	.byte	0
	.long	234
	.long	.Lxta.call_labels52
.cc_bottom cc_52
.cc_top cc_53,.Lxta.call_labels70
	.ascii	"../src/extensions/analogio-x8.xc"
	.byte	0
	.long	234
	.long	.Lxta.call_labels70
.cc_bottom cc_53
.cc_top cc_54,.Lxta.call_labels37
	.ascii	"../src/extensions/analogio-x8.xc"
	.byte	0
	.long	234
	.long	.Lxta.call_labels37
.cc_bottom cc_54
.cc_top cc_55,.Lxta.call_labels4
	.ascii	"../src/extensions/analogio-x8.xc"
	.byte	0
	.long	234
	.long	.Lxta.call_labels4
.cc_bottom cc_55
.cc_top cc_56,.Lxta.call_labels22
	.ascii	"../src/extensions/analogio-x8.xc"
	.byte	0
	.long	234
	.long	.Lxta.call_labels22
.cc_bottom cc_56
.cc_top cc_57,.Lxta.call_labels34
	.ascii	"../src/extensions/analogio-x8.xc"
	.byte	0
	.long	234
	.long	.Lxta.call_labels34
.cc_bottom cc_57
.cc_top cc_58,.Lxta.call_labels67
	.ascii	"../src/extensions/analogio-x8.xc"
	.byte	0
	.long	234
	.long	.Lxta.call_labels67
.cc_bottom cc_58
.cc_top cc_59,.Lxta.call_labels19
	.ascii	"../src/extensions/analogio-x8.xc"
	.byte	0
	.long	234
	.long	.Lxta.call_labels19
.cc_bottom cc_59
.cc_top cc_60,.Lxta.call_labels31
	.ascii	"../src/extensions/analogio-x8.xc"
	.byte	0
	.long	234
	.long	.Lxta.call_labels31
.cc_bottom cc_60
.cc_top cc_61,.Lxta.call_labels1
	.ascii	"../src/extensions/analogio-x8.xc"
	.byte	0
	.long	234
	.long	.Lxta.call_labels1
.cc_bottom cc_61
.cc_top cc_62,.Lxta.call_labels16
	.ascii	"../src/extensions/analogio-x8.xc"
	.byte	0
	.long	234
	.long	.Lxta.call_labels16
.cc_bottom cc_62
.cc_top cc_63,.Lxta.call_labels28
	.ascii	"../src/extensions/analogio-x8.xc"
	.byte	0
	.long	234
	.long	.Lxta.call_labels28
.cc_bottom cc_63
.cc_top cc_64,.Lxta.call_labels13
	.ascii	"../src/extensions/analogio-x8.xc"
	.byte	0
	.long	234
	.long	.Lxta.call_labels13
.cc_bottom cc_64
.cc_top cc_65,.Lxta.call_labels14
	.ascii	"../src/extensions/analogio-x8.xc"
	.byte	0
	.long	235
	.long	.Lxta.call_labels14
.cc_bottom cc_65
.cc_top cc_66,.Lxta.call_labels17
	.ascii	"../src/extensions/analogio-x8.xc"
	.byte	0
	.long	235
	.long	.Lxta.call_labels17
.cc_bottom cc_66
.cc_top cc_67,.Lxta.call_labels20
	.ascii	"../src/extensions/analogio-x8.xc"
	.byte	0
	.long	235
	.long	.Lxta.call_labels20
.cc_bottom cc_67
.cc_top cc_68,.Lxta.call_labels68
	.ascii	"../src/extensions/analogio-x8.xc"
	.byte	0
	.long	235
	.long	.Lxta.call_labels68
.cc_bottom cc_68
.cc_top cc_69,.Lxta.call_labels26
	.ascii	"../src/extensions/analogio-x8.xc"
	.byte	0
	.long	235
	.long	.Lxta.call_labels26
.cc_bottom cc_69
.cc_top cc_70,.Lxta.call_labels53
	.ascii	"../src/extensions/analogio-x8.xc"
	.byte	0
	.long	235
	.long	.Lxta.call_labels53
.cc_bottom cc_70
.cc_top cc_71,.Lxta.call_labels71
	.ascii	"../src/extensions/analogio-x8.xc"
	.byte	0
	.long	235
	.long	.Lxta.call_labels71
.cc_bottom cc_71
.cc_top cc_72,.Lxta.call_labels50
	.ascii	"../src/extensions/analogio-x8.xc"
	.byte	0
	.long	235
	.long	.Lxta.call_labels50
.cc_bottom cc_72
.cc_top cc_73,.Lxta.call_labels11
	.ascii	"../src/extensions/analogio-x8.xc"
	.byte	0
	.long	235
	.long	.Lxta.call_labels11
.cc_bottom cc_73
.cc_top cc_74,.Lxta.call_labels47
	.ascii	"../src/extensions/analogio-x8.xc"
	.byte	0
	.long	235
	.long	.Lxta.call_labels47
.cc_bottom cc_74
.cc_top cc_75,.Lxta.call_labels44
	.ascii	"../src/extensions/analogio-x8.xc"
	.byte	0
	.long	235
	.long	.Lxta.call_labels44
.cc_bottom cc_75
.cc_top cc_76,.Lxta.call_labels8
	.ascii	"../src/extensions/analogio-x8.xc"
	.byte	0
	.long	235
	.long	.Lxta.call_labels8
.cc_bottom cc_76
.cc_top cc_77,.Lxta.call_labels41
	.ascii	"../src/extensions/analogio-x8.xc"
	.byte	0
	.long	235
	.long	.Lxta.call_labels41
.cc_bottom cc_77
.cc_top cc_78,.Lxta.call_labels38
	.ascii	"../src/extensions/analogio-x8.xc"
	.byte	0
	.long	235
	.long	.Lxta.call_labels38
.cc_bottom cc_78
.cc_top cc_79,.Lxta.call_labels5
	.ascii	"../src/extensions/analogio-x8.xc"
	.byte	0
	.long	235
	.long	.Lxta.call_labels5
.cc_bottom cc_79
.cc_top cc_80,.Lxta.call_labels35
	.ascii	"../src/extensions/analogio-x8.xc"
	.byte	0
	.long	235
	.long	.Lxta.call_labels35
.cc_bottom cc_80
.cc_top cc_81,.Lxta.call_labels32
	.ascii	"../src/extensions/analogio-x8.xc"
	.byte	0
	.long	235
	.long	.Lxta.call_labels32
.cc_bottom cc_81
.cc_top cc_82,.Lxta.call_labels2
	.ascii	"../src/extensions/analogio-x8.xc"
	.byte	0
	.long	235
	.long	.Lxta.call_labels2
.cc_bottom cc_82
.cc_top cc_83,.Lxta.call_labels29
	.ascii	"../src/extensions/analogio-x8.xc"
	.byte	0
	.long	235
	.long	.Lxta.call_labels29
.cc_bottom cc_83
.cc_top cc_84,.Lxta.call_labels23
	.ascii	"../src/extensions/analogio-x8.xc"
	.byte	0
	.long	235
	.long	.Lxta.call_labels23
.cc_bottom cc_84
.Lentries_end1:
	.section	.xtaendpointtable,"",@progbits
.Lentries_start2:
	.long	.Lentries_end3-.Lentries_start2
	.long	0
	.ascii	"/Users/rkn/Documents/xTIMEcomposer/workspace/app_usb_aud_xk_216_mc/.build_2i32o32xxxxx_tdm8"
	.byte	0
.cc_top cc_85,.Lxta.endpoint_labels58
	.ascii	"../src/extensions/analogio-x8.xc"
	.byte	0
	.long	62
	.long	.Lxta.endpoint_labels58
.cc_bottom cc_85
.cc_top cc_86,.Lxta.endpoint_labels1
	.ascii	"../src/extensions/analogio-x8.xc"
	.byte	0
	.long	62
	.long	.Lxta.endpoint_labels1
.cc_bottom cc_86
.cc_top cc_87,.Lxta.endpoint_labels113
	.ascii	"../src/extensions/analogio-x8.xc"
	.byte	0
	.long	62
	.long	.Lxta.endpoint_labels113
.cc_bottom cc_87
.cc_top cc_88,.Lxta.endpoint_labels3
	.ascii	"../src/extensions/analogio-x8.xc"
	.byte	0
	.long	62
	.long	.Lxta.endpoint_labels3
.cc_bottom cc_88
.cc_top cc_89,.Lxta.endpoint_labels112
	.ascii	"../src/extensions/analogio-x8.xc"
	.byte	0
	.long	62
	.long	.Lxta.endpoint_labels112
.cc_bottom cc_89
.cc_top cc_90,.Lxta.endpoint_labels5
	.ascii	"../src/extensions/analogio-x8.xc"
	.byte	0
	.long	62
	.long	.Lxta.endpoint_labels5
.cc_bottom cc_90
.cc_top cc_91,.Lxta.endpoint_labels6
	.ascii	"../src/extensions/analogio-x8.xc"
	.byte	0
	.long	62
	.long	.Lxta.endpoint_labels6
.cc_bottom cc_91
.cc_top cc_92,.Lxta.endpoint_labels110
	.ascii	"../src/extensions/analogio-x8.xc"
	.byte	0
	.long	62
	.long	.Lxta.endpoint_labels110
.cc_bottom cc_92
.cc_top cc_93,.Lxta.endpoint_labels8
	.ascii	"../src/extensions/analogio-x8.xc"
	.byte	0
	.long	62
	.long	.Lxta.endpoint_labels8
.cc_bottom cc_93
.cc_top cc_94,.Lxta.endpoint_labels108
	.ascii	"../src/extensions/analogio-x8.xc"
	.byte	0
	.long	62
	.long	.Lxta.endpoint_labels108
.cc_bottom cc_94
.cc_top cc_95,.Lxta.endpoint_labels10
	.ascii	"../src/extensions/analogio-x8.xc"
	.byte	0
	.long	62
	.long	.Lxta.endpoint_labels10
.cc_bottom cc_95
.cc_top cc_96,.Lxta.endpoint_labels106
	.ascii	"../src/extensions/analogio-x8.xc"
	.byte	0
	.long	62
	.long	.Lxta.endpoint_labels106
.cc_bottom cc_96
.cc_top cc_97,.Lxta.endpoint_labels12
	.ascii	"../src/extensions/analogio-x8.xc"
	.byte	0
	.long	62
	.long	.Lxta.endpoint_labels12
.cc_bottom cc_97
.cc_top cc_98,.Lxta.endpoint_labels13
	.ascii	"../src/extensions/analogio-x8.xc"
	.byte	0
	.long	62
	.long	.Lxta.endpoint_labels13
.cc_bottom cc_98
.cc_top cc_99,.Lxta.endpoint_labels105
	.ascii	"../src/extensions/analogio-x8.xc"
	.byte	0
	.long	62
	.long	.Lxta.endpoint_labels105
.cc_bottom cc_99
.cc_top cc_100,.Lxta.endpoint_labels15
	.ascii	"../src/extensions/analogio-x8.xc"
	.byte	0
	.long	62
	.long	.Lxta.endpoint_labels15
.cc_bottom cc_100
.cc_top cc_101,.Lxta.endpoint_labels16
	.ascii	"../src/extensions/analogio-x8.xc"
	.byte	0
	.long	62
	.long	.Lxta.endpoint_labels16
.cc_bottom cc_101
.cc_top cc_102,.Lxta.endpoint_labels103
	.ascii	"../src/extensions/analogio-x8.xc"
	.byte	0
	.long	62
	.long	.Lxta.endpoint_labels103
.cc_bottom cc_102
.cc_top cc_103,.Lxta.endpoint_labels18
	.ascii	"../src/extensions/analogio-x8.xc"
	.byte	0
	.long	62
	.long	.Lxta.endpoint_labels18
.cc_bottom cc_103
.cc_top cc_104,.Lxta.endpoint_labels19
	.ascii	"../src/extensions/analogio-x8.xc"
	.byte	0
	.long	62
	.long	.Lxta.endpoint_labels19
.cc_bottom cc_104
.cc_top cc_105,.Lxta.endpoint_labels102
	.ascii	"../src/extensions/analogio-x8.xc"
	.byte	0
	.long	62
	.long	.Lxta.endpoint_labels102
.cc_bottom cc_105
.cc_top cc_106,.Lxta.endpoint_labels21
	.ascii	"../src/extensions/analogio-x8.xc"
	.byte	0
	.long	62
	.long	.Lxta.endpoint_labels21
.cc_bottom cc_106
.cc_top cc_107,.Lxta.endpoint_labels100
	.ascii	"../src/extensions/analogio-x8.xc"
	.byte	0
	.long	62
	.long	.Lxta.endpoint_labels100
.cc_bottom cc_107
.cc_top cc_108,.Lxta.endpoint_labels99
	.ascii	"../src/extensions/analogio-x8.xc"
	.byte	0
	.long	62
	.long	.Lxta.endpoint_labels99
.cc_bottom cc_108
.cc_top cc_109,.Lxta.endpoint_labels24
	.ascii	"../src/extensions/analogio-x8.xc"
	.byte	0
	.long	62
	.long	.Lxta.endpoint_labels24
.cc_bottom cc_109
.cc_top cc_110,.Lxta.endpoint_labels97
	.ascii	"../src/extensions/analogio-x8.xc"
	.byte	0
	.long	62
	.long	.Lxta.endpoint_labels97
.cc_bottom cc_110
.cc_top cc_111,.Lxta.endpoint_labels26
	.ascii	"../src/extensions/analogio-x8.xc"
	.byte	0
	.long	62
	.long	.Lxta.endpoint_labels26
.cc_bottom cc_111
.cc_top cc_112,.Lxta.endpoint_labels27
	.ascii	"../src/extensions/analogio-x8.xc"
	.byte	0
	.long	62
	.long	.Lxta.endpoint_labels27
.cc_bottom cc_112
.cc_top cc_113,.Lxta.endpoint_labels95
	.ascii	"../src/extensions/analogio-x8.xc"
	.byte	0
	.long	62
	.long	.Lxta.endpoint_labels95
.cc_bottom cc_113
.cc_top cc_114,.Lxta.endpoint_labels29
	.ascii	"../src/extensions/analogio-x8.xc"
	.byte	0
	.long	62
	.long	.Lxta.endpoint_labels29
.cc_bottom cc_114
.cc_top cc_115,.Lxta.endpoint_labels93
	.ascii	"../src/extensions/analogio-x8.xc"
	.byte	0
	.long	62
	.long	.Lxta.endpoint_labels93
.cc_bottom cc_115
.cc_top cc_116,.Lxta.endpoint_labels31
	.ascii	"../src/extensions/analogio-x8.xc"
	.byte	0
	.long	62
	.long	.Lxta.endpoint_labels31
.cc_bottom cc_116
.cc_top cc_117,.Lxta.endpoint_labels92
	.ascii	"../src/extensions/analogio-x8.xc"
	.byte	0
	.long	62
	.long	.Lxta.endpoint_labels92
.cc_bottom cc_117
.cc_top cc_118,.Lxta.endpoint_labels33
	.ascii	"../src/extensions/analogio-x8.xc"
	.byte	0
	.long	62
	.long	.Lxta.endpoint_labels33
.cc_bottom cc_118
.cc_top cc_119,.Lxta.endpoint_labels34
	.ascii	"../src/extensions/analogio-x8.xc"
	.byte	0
	.long	62
	.long	.Lxta.endpoint_labels34
.cc_bottom cc_119
.cc_top cc_120,.Lxta.endpoint_labels90
	.ascii	"../src/extensions/analogio-x8.xc"
	.byte	0
	.long	62
	.long	.Lxta.endpoint_labels90
.cc_bottom cc_120
.cc_top cc_121,.Lxta.endpoint_labels36
	.ascii	"../src/extensions/analogio-x8.xc"
	.byte	0
	.long	62
	.long	.Lxta.endpoint_labels36
.cc_bottom cc_121
.cc_top cc_122,.Lxta.endpoint_labels87
	.ascii	"../src/extensions/analogio-x8.xc"
	.byte	0
	.long	62
	.long	.Lxta.endpoint_labels87
.cc_bottom cc_122
.cc_top cc_123,.Lxta.endpoint_labels38
	.ascii	"../src/extensions/analogio-x8.xc"
	.byte	0
	.long	62
	.long	.Lxta.endpoint_labels38
.cc_bottom cc_123
.cc_top cc_124,.Lxta.endpoint_labels85
	.ascii	"../src/extensions/analogio-x8.xc"
	.byte	0
	.long	62
	.long	.Lxta.endpoint_labels85
.cc_bottom cc_124
.cc_top cc_125,.Lxta.endpoint_labels40
	.ascii	"../src/extensions/analogio-x8.xc"
	.byte	0
	.long	62
	.long	.Lxta.endpoint_labels40
.cc_bottom cc_125
.cc_top cc_126,.Lxta.endpoint_labels41
	.ascii	"../src/extensions/analogio-x8.xc"
	.byte	0
	.long	62
	.long	.Lxta.endpoint_labels41
.cc_bottom cc_126
.cc_top cc_127,.Lxta.endpoint_labels84
	.ascii	"../src/extensions/analogio-x8.xc"
	.byte	0
	.long	62
	.long	.Lxta.endpoint_labels84
.cc_bottom cc_127
.cc_top cc_128,.Lxta.endpoint_labels43
	.ascii	"../src/extensions/analogio-x8.xc"
	.byte	0
	.long	62
	.long	.Lxta.endpoint_labels43
.cc_bottom cc_128
.cc_top cc_129,.Lxta.endpoint_labels82
	.ascii	"../src/extensions/analogio-x8.xc"
	.byte	0
	.long	62
	.long	.Lxta.endpoint_labels82
.cc_bottom cc_129
.cc_top cc_130,.Lxta.endpoint_labels45
	.ascii	"../src/extensions/analogio-x8.xc"
	.byte	0
	.long	62
	.long	.Lxta.endpoint_labels45
.cc_bottom cc_130
.cc_top cc_131,.Lxta.endpoint_labels80
	.ascii	"../src/extensions/analogio-x8.xc"
	.byte	0
	.long	62
	.long	.Lxta.endpoint_labels80
.cc_bottom cc_131
.cc_top cc_132,.Lxta.endpoint_labels47
	.ascii	"../src/extensions/analogio-x8.xc"
	.byte	0
	.long	62
	.long	.Lxta.endpoint_labels47
.cc_bottom cc_132
.cc_top cc_133,.Lxta.endpoint_labels48
	.ascii	"../src/extensions/analogio-x8.xc"
	.byte	0
	.long	62
	.long	.Lxta.endpoint_labels48
.cc_bottom cc_133
.cc_top cc_134,.Lxta.endpoint_labels78
	.ascii	"../src/extensions/analogio-x8.xc"
	.byte	0
	.long	62
	.long	.Lxta.endpoint_labels78
.cc_bottom cc_134
.cc_top cc_135,.Lxta.endpoint_labels50
	.ascii	"../src/extensions/analogio-x8.xc"
	.byte	0
	.long	62
	.long	.Lxta.endpoint_labels50
.cc_bottom cc_135
.cc_top cc_136,.Lxta.endpoint_labels77
	.ascii	"../src/extensions/analogio-x8.xc"
	.byte	0
	.long	62
	.long	.Lxta.endpoint_labels77
.cc_bottom cc_136
.cc_top cc_137,.Lxta.endpoint_labels75
	.ascii	"../src/extensions/analogio-x8.xc"
	.byte	0
	.long	62
	.long	.Lxta.endpoint_labels75
.cc_bottom cc_137
.cc_top cc_138,.Lxta.endpoint_labels53
	.ascii	"../src/extensions/analogio-x8.xc"
	.byte	0
	.long	62
	.long	.Lxta.endpoint_labels53
.cc_bottom cc_138
.cc_top cc_139,.Lxta.endpoint_labels73
	.ascii	"../src/extensions/analogio-x8.xc"
	.byte	0
	.long	62
	.long	.Lxta.endpoint_labels73
.cc_bottom cc_139
.cc_top cc_140,.Lxta.endpoint_labels55
	.ascii	"../src/extensions/analogio-x8.xc"
	.byte	0
	.long	62
	.long	.Lxta.endpoint_labels55
.cc_bottom cc_140
.cc_top cc_141,.Lxta.endpoint_labels56
	.ascii	"../src/extensions/analogio-x8.xc"
	.byte	0
	.long	62
	.long	.Lxta.endpoint_labels56
.cc_bottom cc_141
.cc_top cc_142,.Lxta.endpoint_labels71
	.ascii	"../src/extensions/analogio-x8.xc"
	.byte	0
	.long	62
	.long	.Lxta.endpoint_labels71
.cc_bottom cc_142
.cc_top cc_143,.Lxta.endpoint_labels115
	.ascii	"../src/extensions/analogio-x8.xc"
	.byte	0
	.long	62
	.long	.Lxta.endpoint_labels115
.cc_bottom cc_143
.cc_top cc_144,.Lxta.endpoint_labels70
	.ascii	"../src/extensions/analogio-x8.xc"
	.byte	0
	.long	62
	.long	.Lxta.endpoint_labels70
.cc_bottom cc_144
.cc_top cc_145,.Lxta.endpoint_labels68
	.ascii	"../src/extensions/analogio-x8.xc"
	.byte	0
	.long	62
	.long	.Lxta.endpoint_labels68
.cc_bottom cc_145
.cc_top cc_146,.Lxta.endpoint_labels61
	.ascii	"../src/extensions/analogio-x8.xc"
	.byte	0
	.long	62
	.long	.Lxta.endpoint_labels61
.cc_bottom cc_146
.cc_top cc_147,.Lxta.endpoint_labels66
	.ascii	"../src/extensions/analogio-x8.xc"
	.byte	0
	.long	62
	.long	.Lxta.endpoint_labels66
.cc_bottom cc_147
.cc_top cc_148,.Lxta.endpoint_labels63
	.ascii	"../src/extensions/analogio-x8.xc"
	.byte	0
	.long	62
	.long	.Lxta.endpoint_labels63
.cc_bottom cc_148
.cc_top cc_149,.Lxta.endpoint_labels64
	.ascii	"../src/extensions/analogio-x8.xc"
	.byte	0
	.long	62
	.long	.Lxta.endpoint_labels64
.cc_bottom cc_149
.cc_top cc_150,.Lxta.endpoint_labels51
	.ascii	"../src/extensions/analogio-x8.xc"
	.byte	0
	.long	76
	.long	.Lxta.endpoint_labels51
.cc_bottom cc_150
.cc_top cc_151,.Lxta.endpoint_labels22
	.ascii	"../src/extensions/analogio-x8.xc"
	.byte	0
	.long	76
	.long	.Lxta.endpoint_labels22
.cc_bottom cc_151
.cc_top cc_152,.Lxta.endpoint_labels88
	.ascii	"../src/extensions/analogio-x8.xc"
	.byte	0
	.long	76
	.long	.Lxta.endpoint_labels88
.cc_bottom cc_152
.cc_top cc_153,.Lxta.endpoint_labels59
	.ascii	"../src/extensions/analogio-x8.xc"
	.byte	0
	.long	76
	.long	.Lxta.endpoint_labels59
.cc_bottom cc_153
.cc_top cc_154,.Lxta.endpoint_labels60
	.ascii	"../src/extensions/analogio-x8.xc"
	.byte	0
	.long	78
	.long	.Lxta.endpoint_labels60
.cc_bottom cc_154
.cc_top cc_155,.Lxta.endpoint_labels23
	.ascii	"../src/extensions/analogio-x8.xc"
	.byte	0
	.long	78
	.long	.Lxta.endpoint_labels23
.cc_bottom cc_155
.cc_top cc_156,.Lxta.endpoint_labels52
	.ascii	"../src/extensions/analogio-x8.xc"
	.byte	0
	.long	78
	.long	.Lxta.endpoint_labels52
.cc_bottom cc_156
.cc_top cc_157,.Lxta.endpoint_labels89
	.ascii	"../src/extensions/analogio-x8.xc"
	.byte	0
	.long	78
	.long	.Lxta.endpoint_labels89
.cc_bottom cc_157
.cc_top cc_158,.Lxta.endpoint_labels0
	.ascii	"../src/extensions/analogio-x8.xc"
	.byte	0
	.long	83
	.long	.Lxta.endpoint_labels0
.cc_bottom cc_158
.cc_top cc_159,.Lxta.endpoint_labels74
	.ascii	"../src/extensions/analogio-x8.xc"
	.byte	0
	.long	94
	.long	.Lxta.endpoint_labels74
.cc_bottom cc_159
.cc_top cc_160,.Lxta.endpoint_labels37
	.ascii	"../src/extensions/analogio-x8.xc"
	.byte	0
	.long	94
	.long	.Lxta.endpoint_labels37
.cc_bottom cc_160
.cc_top cc_161,.Lxta.endpoint_labels2
	.ascii	"../src/extensions/analogio-x8.xc"
	.byte	0
	.long	94
	.long	.Lxta.endpoint_labels2
.cc_bottom cc_161
.cc_top cc_162,.Lxta.endpoint_labels76
	.ascii	"../src/extensions/analogio-x8.xc"
	.byte	0
	.long	96
	.long	.Lxta.endpoint_labels76
.cc_bottom cc_162
.cc_top cc_163,.Lxta.endpoint_labels39
	.ascii	"../src/extensions/analogio-x8.xc"
	.byte	0
	.long	96
	.long	.Lxta.endpoint_labels39
.cc_bottom cc_163
.cc_top cc_164,.Lxta.endpoint_labels4
	.ascii	"../src/extensions/analogio-x8.xc"
	.byte	0
	.long	96
	.long	.Lxta.endpoint_labels4
.cc_bottom cc_164
.cc_top cc_165,.Lxta.endpoint_labels79
	.ascii	"../src/extensions/analogio-x8.xc"
	.byte	0
	.long	98
	.long	.Lxta.endpoint_labels79
.cc_bottom cc_165
.cc_top cc_166,.Lxta.endpoint_labels7
	.ascii	"../src/extensions/analogio-x8.xc"
	.byte	0
	.long	98
	.long	.Lxta.endpoint_labels7
.cc_bottom cc_166
.cc_top cc_167,.Lxta.endpoint_labels42
	.ascii	"../src/extensions/analogio-x8.xc"
	.byte	0
	.long	98
	.long	.Lxta.endpoint_labels42
.cc_bottom cc_167
.cc_top cc_168,.Lxta.endpoint_labels67
	.ascii	"../src/extensions/analogio-x8.xc"
	.byte	0
	.long	105
	.long	.Lxta.endpoint_labels67
.cc_bottom cc_168
.cc_top cc_169,.Lxta.endpoint_labels30
	.ascii	"../src/extensions/analogio-x8.xc"
	.byte	0
	.long	105
	.long	.Lxta.endpoint_labels30
.cc_bottom cc_169
.cc_top cc_170,.Lxta.endpoint_labels9
	.ascii	"../src/extensions/analogio-x8.xc"
	.byte	0
	.long	105
	.long	.Lxta.endpoint_labels9
.cc_bottom cc_170
.cc_top cc_171,.Lxta.endpoint_labels11
	.ascii	"../src/extensions/analogio-x8.xc"
	.byte	0
	.long	107
	.long	.Lxta.endpoint_labels11
.cc_bottom cc_171
.cc_top cc_172,.Lxta.endpoint_labels32
	.ascii	"../src/extensions/analogio-x8.xc"
	.byte	0
	.long	107
	.long	.Lxta.endpoint_labels32
.cc_bottom cc_172
.cc_top cc_173,.Lxta.endpoint_labels69
	.ascii	"../src/extensions/analogio-x8.xc"
	.byte	0
	.long	107
	.long	.Lxta.endpoint_labels69
.cc_bottom cc_173
.cc_top cc_174,.Lxta.endpoint_labels35
	.ascii	"../src/extensions/analogio-x8.xc"
	.byte	0
	.long	117
	.long	.Lxta.endpoint_labels35
.cc_bottom cc_174
.cc_top cc_175,.Lxta.endpoint_labels14
	.ascii	"../src/extensions/analogio-x8.xc"
	.byte	0
	.long	117
	.long	.Lxta.endpoint_labels14
.cc_bottom cc_175
.cc_top cc_176,.Lxta.endpoint_labels72
	.ascii	"../src/extensions/analogio-x8.xc"
	.byte	0
	.long	117
	.long	.Lxta.endpoint_labels72
.cc_bottom cc_176
.cc_top cc_177,.Lxta.endpoint_labels62
	.ascii	"../src/extensions/analogio-x8.xc"
	.byte	0
	.long	127
	.long	.Lxta.endpoint_labels62
.cc_bottom cc_177
.cc_top cc_178,.Lxta.endpoint_labels91
	.ascii	"../src/extensions/analogio-x8.xc"
	.byte	0
	.long	127
	.long	.Lxta.endpoint_labels91
.cc_bottom cc_178
.cc_top cc_179,.Lxta.endpoint_labels54
	.ascii	"../src/extensions/analogio-x8.xc"
	.byte	0
	.long	127
	.long	.Lxta.endpoint_labels54
.cc_bottom cc_179
.cc_top cc_180,.Lxta.endpoint_labels17
	.ascii	"../src/extensions/analogio-x8.xc"
	.byte	0
	.long	127
	.long	.Lxta.endpoint_labels17
.cc_bottom cc_180
.cc_top cc_181,.Lxta.endpoint_labels104
	.ascii	"../src/extensions/analogio-x8.xc"
	.byte	0
	.long	127
	.long	.Lxta.endpoint_labels104
.cc_bottom cc_181
.cc_top cc_182,.Lxta.endpoint_labels25
	.ascii	"../src/extensions/analogio-x8.xc"
	.byte	0
	.long	127
	.long	.Lxta.endpoint_labels25
.cc_bottom cc_182
.cc_top cc_183,.Lxta.endpoint_labels65
	.ascii	"../src/extensions/analogio-x8.xc"
	.byte	0
	.long	129
	.long	.Lxta.endpoint_labels65
.cc_bottom cc_183
.cc_top cc_184,.Lxta.endpoint_labels107
	.ascii	"../src/extensions/analogio-x8.xc"
	.byte	0
	.long	129
	.long	.Lxta.endpoint_labels107
.cc_bottom cc_184
.cc_top cc_185,.Lxta.endpoint_labels57
	.ascii	"../src/extensions/analogio-x8.xc"
	.byte	0
	.long	129
	.long	.Lxta.endpoint_labels57
.cc_bottom cc_185
.cc_top cc_186,.Lxta.endpoint_labels94
	.ascii	"../src/extensions/analogio-x8.xc"
	.byte	0
	.long	129
	.long	.Lxta.endpoint_labels94
.cc_bottom cc_186
.cc_top cc_187,.Lxta.endpoint_labels20
	.ascii	"../src/extensions/analogio-x8.xc"
	.byte	0
	.long	129
	.long	.Lxta.endpoint_labels20
.cc_bottom cc_187
.cc_top cc_188,.Lxta.endpoint_labels28
	.ascii	"../src/extensions/analogio-x8.xc"
	.byte	0
	.long	129
	.long	.Lxta.endpoint_labels28
.cc_bottom cc_188
.cc_top cc_189,.Lxta.endpoint_labels96
	.ascii	"../src/extensions/analogio-x8.xc"
	.byte	0
	.long	134
	.long	.Lxta.endpoint_labels96
.cc_bottom cc_189
.cc_top cc_190,.Lxta.endpoint_labels44
	.ascii	"../src/extensions/analogio-x8.xc"
	.byte	0
	.long	134
	.long	.Lxta.endpoint_labels44
.cc_bottom cc_190
.cc_top cc_191,.Lxta.endpoint_labels109
	.ascii	"../src/extensions/analogio-x8.xc"
	.byte	0
	.long	134
	.long	.Lxta.endpoint_labels109
.cc_bottom cc_191
.cc_top cc_192,.Lxta.endpoint_labels81
	.ascii	"../src/extensions/analogio-x8.xc"
	.byte	0
	.long	134
	.long	.Lxta.endpoint_labels81
.cc_bottom cc_192
.cc_top cc_193,.Lxta.endpoint_labels98
	.ascii	"../src/extensions/analogio-x8.xc"
	.byte	0
	.long	136
	.long	.Lxta.endpoint_labels98
.cc_bottom cc_193
.cc_top cc_194,.Lxta.endpoint_labels46
	.ascii	"../src/extensions/analogio-x8.xc"
	.byte	0
	.long	136
	.long	.Lxta.endpoint_labels46
.cc_bottom cc_194
.cc_top cc_195,.Lxta.endpoint_labels83
	.ascii	"../src/extensions/analogio-x8.xc"
	.byte	0
	.long	136
	.long	.Lxta.endpoint_labels83
.cc_bottom cc_195
.cc_top cc_196,.Lxta.endpoint_labels111
	.ascii	"../src/extensions/analogio-x8.xc"
	.byte	0
	.long	136
	.long	.Lxta.endpoint_labels111
.cc_bottom cc_196
.cc_top cc_197,.Lxta.endpoint_labels49
	.ascii	"../src/extensions/analogio-x8.xc"
	.byte	0
	.long	138
	.long	.Lxta.endpoint_labels49
.cc_bottom cc_197
.cc_top cc_198,.Lxta.endpoint_labels101
	.ascii	"../src/extensions/analogio-x8.xc"
	.byte	0
	.long	138
	.long	.Lxta.endpoint_labels101
.cc_bottom cc_198
.cc_top cc_199,.Lxta.endpoint_labels114
	.ascii	"../src/extensions/analogio-x8.xc"
	.byte	0
	.long	138
	.long	.Lxta.endpoint_labels114
.cc_bottom cc_199
.cc_top cc_200,.Lxta.endpoint_labels86
	.ascii	"../src/extensions/analogio-x8.xc"
	.byte	0
	.long	138
	.long	.Lxta.endpoint_labels86
.cc_bottom cc_200
.Lentries_end3:
	.section	.xtalabeltable,"",@progbits
.Lentries_start4:
	.long	.Lentries_end5-.Lentries_start4
	.long	0
	.ascii	"/Users/rkn/Documents/xTIMEcomposer/workspace/app_usb_aud_xk_216_mc/.build_2i32o32xxxxx_tdm8"
	.byte	0
.cc_top cc_201,.Lxtalabel12
	.ascii	"../src/extensions/analogio-x8.xc"
	.byte	0
	.long	57
	.long	58
	.long	.Lxtalabel12
.cc_bottom cc_201
.cc_top cc_202,.Lxtalabel15
	.ascii	"../src/extensions/analogio-x8.xc"
	.byte	0
	.long	57
	.long	58
	.long	.Lxtalabel15
.cc_bottom cc_202
.cc_top cc_203,.Lxtalabel15
	.ascii	"../src/extensions/analogio-x8.xc"
	.byte	0
	.long	57
	.long	58
	.long	.Lxtalabel15
.cc_bottom cc_203
.cc_top cc_204,.Lxtalabel15
	.ascii	"../src/extensions/analogio-x8.xc"
	.byte	0
	.long	57
	.long	58
	.long	.Lxtalabel15
.cc_bottom cc_204
.cc_top cc_205,.Lxtalabel15
	.ascii	"../src/extensions/analogio-x8.xc"
	.byte	0
	.long	57
	.long	58
	.long	.Lxtalabel15
.cc_bottom cc_205
.cc_top cc_206,.Lxtalabel15
	.ascii	"../src/extensions/analogio-x8.xc"
	.byte	0
	.long	57
	.long	58
	.long	.Lxtalabel15
.cc_bottom cc_206
.cc_top cc_207,.Lxtalabel19
	.ascii	"../src/extensions/analogio-x8.xc"
	.byte	0
	.long	57
	.long	58
	.long	.Lxtalabel19
.cc_bottom cc_207
.cc_top cc_208,.Lxtalabel15
	.ascii	"../src/extensions/analogio-x8.xc"
	.byte	0
	.long	57
	.long	58
	.long	.Lxtalabel15
.cc_bottom cc_208
.cc_top cc_209,.Lxtalabel19
	.ascii	"../src/extensions/analogio-x8.xc"
	.byte	0
	.long	57
	.long	58
	.long	.Lxtalabel19
.cc_bottom cc_209
.cc_top cc_210,.Lxtalabel15
	.ascii	"../src/extensions/analogio-x8.xc"
	.byte	0
	.long	57
	.long	58
	.long	.Lxtalabel15
.cc_bottom cc_210
.cc_top cc_211,.Lxtalabel15
	.ascii	"../src/extensions/analogio-x8.xc"
	.byte	0
	.long	57
	.long	58
	.long	.Lxtalabel15
.cc_bottom cc_211
.cc_top cc_212,.Lxtalabel19
	.ascii	"../src/extensions/analogio-x8.xc"
	.byte	0
	.long	57
	.long	58
	.long	.Lxtalabel19
.cc_bottom cc_212
.cc_top cc_213,.Lxtalabel13
	.ascii	"../src/extensions/analogio-x8.xc"
	.byte	0
	.long	57
	.long	58
	.long	.Lxtalabel13
.cc_bottom cc_213
.cc_top cc_214,.Lxtalabel19
	.ascii	"../src/extensions/analogio-x8.xc"
	.byte	0
	.long	57
	.long	58
	.long	.Lxtalabel19
.cc_bottom cc_214
.cc_top cc_215,.Lxtalabel13
	.ascii	"../src/extensions/analogio-x8.xc"
	.byte	0
	.long	57
	.long	58
	.long	.Lxtalabel13
.cc_bottom cc_215
.cc_top cc_216,.Lxtalabel13
	.ascii	"../src/extensions/analogio-x8.xc"
	.byte	0
	.long	57
	.long	58
	.long	.Lxtalabel13
.cc_bottom cc_216
.cc_top cc_217,.Lxtalabel13
	.ascii	"../src/extensions/analogio-x8.xc"
	.byte	0
	.long	57
	.long	58
	.long	.Lxtalabel13
.cc_bottom cc_217
.cc_top cc_218,.Lxtalabel12
	.ascii	"../src/extensions/analogio-x8.xc"
	.byte	0
	.long	57
	.long	58
	.long	.Lxtalabel12
.cc_bottom cc_218
.cc_top cc_219,.Lxtalabel12
	.ascii	"../src/extensions/analogio-x8.xc"
	.byte	0
	.long	57
	.long	58
	.long	.Lxtalabel12
.cc_bottom cc_219
.cc_top cc_220,.Lxtalabel18
	.ascii	"../src/extensions/analogio-x8.xc"
	.byte	0
	.long	57
	.long	58
	.long	.Lxtalabel18
.cc_bottom cc_220
.cc_top cc_221,.Lxtalabel12
	.ascii	"../src/extensions/analogio-x8.xc"
	.byte	0
	.long	57
	.long	58
	.long	.Lxtalabel12
.cc_bottom cc_221
.cc_top cc_222,.Lxtalabel18
	.ascii	"../src/extensions/analogio-x8.xc"
	.byte	0
	.long	57
	.long	58
	.long	.Lxtalabel18
.cc_bottom cc_222
.cc_top cc_223,.Lxtalabel12
	.ascii	"../src/extensions/analogio-x8.xc"
	.byte	0
	.long	57
	.long	58
	.long	.Lxtalabel12
.cc_bottom cc_223
.cc_top cc_224,.Lxtalabel12
	.ascii	"../src/extensions/analogio-x8.xc"
	.byte	0
	.long	57
	.long	58
	.long	.Lxtalabel12
.cc_bottom cc_224
.cc_top cc_225,.Lxtalabel18
	.ascii	"../src/extensions/analogio-x8.xc"
	.byte	0
	.long	57
	.long	58
	.long	.Lxtalabel18
.cc_bottom cc_225
.cc_top cc_226,.Lxtalabel12
	.ascii	"../src/extensions/analogio-x8.xc"
	.byte	0
	.long	57
	.long	58
	.long	.Lxtalabel12
.cc_bottom cc_226
.cc_top cc_227,.Lxtalabel18
	.ascii	"../src/extensions/analogio-x8.xc"
	.byte	0
	.long	57
	.long	58
	.long	.Lxtalabel18
.cc_bottom cc_227
.cc_top cc_228,.Lxtalabel12
	.ascii	"../src/extensions/analogio-x8.xc"
	.byte	0
	.long	57
	.long	58
	.long	.Lxtalabel12
.cc_bottom cc_228
.cc_top cc_229,.Lxtalabel11
	.ascii	"../src/extensions/analogio-x8.xc"
	.byte	0
	.long	57
	.long	58
	.long	.Lxtalabel11
.cc_bottom cc_229
.cc_top cc_230,.Lxtalabel11
	.ascii	"../src/extensions/analogio-x8.xc"
	.byte	0
	.long	57
	.long	58
	.long	.Lxtalabel11
.cc_bottom cc_230
.cc_top cc_231,.Lxtalabel11
	.ascii	"../src/extensions/analogio-x8.xc"
	.byte	0
	.long	57
	.long	58
	.long	.Lxtalabel11
.cc_bottom cc_231
.cc_top cc_232,.Lxtalabel11
	.ascii	"../src/extensions/analogio-x8.xc"
	.byte	0
	.long	57
	.long	58
	.long	.Lxtalabel11
.cc_bottom cc_232
.cc_top cc_233,.Lxtalabel7
	.ascii	"../src/extensions/analogio-x8.xc"
	.byte	0
	.long	57
	.long	58
	.long	.Lxtalabel7
.cc_bottom cc_233
.cc_top cc_234,.Lxtalabel7
	.ascii	"../src/extensions/analogio-x8.xc"
	.byte	0
	.long	57
	.long	58
	.long	.Lxtalabel7
.cc_bottom cc_234
.cc_top cc_235,.Lxtalabel7
	.ascii	"../src/extensions/analogio-x8.xc"
	.byte	0
	.long	57
	.long	58
	.long	.Lxtalabel7
.cc_bottom cc_235
.cc_top cc_236,.Lxtalabel7
	.ascii	"../src/extensions/analogio-x8.xc"
	.byte	0
	.long	57
	.long	58
	.long	.Lxtalabel7
.cc_bottom cc_236
.cc_top cc_237,.Lxtalabel6
	.ascii	"../src/extensions/analogio-x8.xc"
	.byte	0
	.long	57
	.long	58
	.long	.Lxtalabel6
.cc_bottom cc_237
.cc_top cc_238,.Lxtalabel16
	.ascii	"../src/extensions/analogio-x8.xc"
	.byte	0
	.long	57
	.long	58
	.long	.Lxtalabel16
.cc_bottom cc_238
.cc_top cc_239,.Lxtalabel6
	.ascii	"../src/extensions/analogio-x8.xc"
	.byte	0
	.long	57
	.long	58
	.long	.Lxtalabel6
.cc_bottom cc_239
.cc_top cc_240,.Lxtalabel16
	.ascii	"../src/extensions/analogio-x8.xc"
	.byte	0
	.long	57
	.long	58
	.long	.Lxtalabel16
.cc_bottom cc_240
.cc_top cc_241,.Lxtalabel6
	.ascii	"../src/extensions/analogio-x8.xc"
	.byte	0
	.long	57
	.long	58
	.long	.Lxtalabel6
.cc_bottom cc_241
.cc_top cc_242,.Lxtalabel16
	.ascii	"../src/extensions/analogio-x8.xc"
	.byte	0
	.long	57
	.long	58
	.long	.Lxtalabel16
.cc_bottom cc_242
.cc_top cc_243,.Lxtalabel6
	.ascii	"../src/extensions/analogio-x8.xc"
	.byte	0
	.long	57
	.long	58
	.long	.Lxtalabel6
.cc_bottom cc_243
.cc_top cc_244,.Lxtalabel16
	.ascii	"../src/extensions/analogio-x8.xc"
	.byte	0
	.long	57
	.long	58
	.long	.Lxtalabel16
.cc_bottom cc_244
.cc_top cc_245,.Lxtalabel11
	.ascii	"../src/extensions/analogio-x8.xc"
	.byte	0
	.long	60
	.long	63
	.long	.Lxtalabel11
.cc_bottom cc_245
.cc_top cc_246,.Lxtalabel18
	.ascii	"../src/extensions/analogio-x8.xc"
	.byte	0
	.long	60
	.long	63
	.long	.Lxtalabel18
.cc_bottom cc_246
.cc_top cc_247,.Lxtalabel15
	.ascii	"../src/extensions/analogio-x8.xc"
	.byte	0
	.long	60
	.long	63
	.long	.Lxtalabel15
.cc_bottom cc_247
.cc_top cc_248,.Lxtalabel13
	.ascii	"../src/extensions/analogio-x8.xc"
	.byte	0
	.long	60
	.long	63
	.long	.Lxtalabel13
.cc_bottom cc_248
.cc_top cc_249,.Lxtalabel16
	.ascii	"../src/extensions/analogio-x8.xc"
	.byte	0
	.long	60
	.long	63
	.long	.Lxtalabel16
.cc_bottom cc_249
.cc_top cc_250,.Lxtalabel6
	.ascii	"../src/extensions/analogio-x8.xc"
	.byte	0
	.long	60
	.long	63
	.long	.Lxtalabel6
.cc_bottom cc_250
.cc_top cc_251,.Lxtalabel16
	.ascii	"../src/extensions/analogio-x8.xc"
	.byte	0
	.long	60
	.long	63
	.long	.Lxtalabel16
.cc_bottom cc_251
.cc_top cc_252,.Lxtalabel6
	.ascii	"../src/extensions/analogio-x8.xc"
	.byte	0
	.long	60
	.long	63
	.long	.Lxtalabel6
.cc_bottom cc_252
.cc_top cc_253,.Lxtalabel13
	.ascii	"../src/extensions/analogio-x8.xc"
	.byte	0
	.long	60
	.long	63
	.long	.Lxtalabel13
.cc_bottom cc_253
.cc_top cc_254,.Lxtalabel16
	.ascii	"../src/extensions/analogio-x8.xc"
	.byte	0
	.long	60
	.long	63
	.long	.Lxtalabel16
.cc_bottom cc_254
.cc_top cc_255,.Lxtalabel6
	.ascii	"../src/extensions/analogio-x8.xc"
	.byte	0
	.long	60
	.long	63
	.long	.Lxtalabel6
.cc_bottom cc_255
.cc_top cc_256,.Lxtalabel16
	.ascii	"../src/extensions/analogio-x8.xc"
	.byte	0
	.long	60
	.long	63
	.long	.Lxtalabel16
.cc_bottom cc_256
.cc_top cc_257,.Lxtalabel6
	.ascii	"../src/extensions/analogio-x8.xc"
	.byte	0
	.long	60
	.long	63
	.long	.Lxtalabel6
.cc_bottom cc_257
.cc_top cc_258,.Lxtalabel13
	.ascii	"../src/extensions/analogio-x8.xc"
	.byte	0
	.long	60
	.long	63
	.long	.Lxtalabel13
.cc_bottom cc_258
.cc_top cc_259,.Lxtalabel13
	.ascii	"../src/extensions/analogio-x8.xc"
	.byte	0
	.long	60
	.long	63
	.long	.Lxtalabel13
.cc_bottom cc_259
.cc_top cc_260,.Lxtalabel19
	.ascii	"../src/extensions/analogio-x8.xc"
	.byte	0
	.long	60
	.long	63
	.long	.Lxtalabel19
.cc_bottom cc_260
.cc_top cc_261,.Lxtalabel15
	.ascii	"../src/extensions/analogio-x8.xc"
	.byte	0
	.long	60
	.long	63
	.long	.Lxtalabel15
.cc_bottom cc_261
.cc_top cc_262,.Lxtalabel7
	.ascii	"../src/extensions/analogio-x8.xc"
	.byte	0
	.long	60
	.long	63
	.long	.Lxtalabel7
.cc_bottom cc_262
.cc_top cc_263,.Lxtalabel12
	.ascii	"../src/extensions/analogio-x8.xc"
	.byte	0
	.long	60
	.long	63
	.long	.Lxtalabel12
.cc_bottom cc_263
.cc_top cc_264,.Lxtalabel7
	.ascii	"../src/extensions/analogio-x8.xc"
	.byte	0
	.long	60
	.long	63
	.long	.Lxtalabel7
.cc_bottom cc_264
.cc_top cc_265,.Lxtalabel15
	.ascii	"../src/extensions/analogio-x8.xc"
	.byte	0
	.long	60
	.long	63
	.long	.Lxtalabel15
.cc_bottom cc_265
.cc_top cc_266,.Lxtalabel7
	.ascii	"../src/extensions/analogio-x8.xc"
	.byte	0
	.long	60
	.long	63
	.long	.Lxtalabel7
.cc_bottom cc_266
.cc_top cc_267,.Lxtalabel12
	.ascii	"../src/extensions/analogio-x8.xc"
	.byte	0
	.long	60
	.long	63
	.long	.Lxtalabel12
.cc_bottom cc_267
.cc_top cc_268,.Lxtalabel18
	.ascii	"../src/extensions/analogio-x8.xc"
	.byte	0
	.long	60
	.long	63
	.long	.Lxtalabel18
.cc_bottom cc_268
.cc_top cc_269,.Lxtalabel7
	.ascii	"../src/extensions/analogio-x8.xc"
	.byte	0
	.long	60
	.long	63
	.long	.Lxtalabel7
.cc_bottom cc_269
.cc_top cc_270,.Lxtalabel12
	.ascii	"../src/extensions/analogio-x8.xc"
	.byte	0
	.long	60
	.long	63
	.long	.Lxtalabel12
.cc_bottom cc_270
.cc_top cc_271,.Lxtalabel12
	.ascii	"../src/extensions/analogio-x8.xc"
	.byte	0
	.long	60
	.long	63
	.long	.Lxtalabel12
.cc_bottom cc_271
.cc_top cc_272,.Lxtalabel15
	.ascii	"../src/extensions/analogio-x8.xc"
	.byte	0
	.long	60
	.long	63
	.long	.Lxtalabel15
.cc_bottom cc_272
.cc_top cc_273,.Lxtalabel19
	.ascii	"../src/extensions/analogio-x8.xc"
	.byte	0
	.long	60
	.long	63
	.long	.Lxtalabel19
.cc_bottom cc_273
.cc_top cc_274,.Lxtalabel15
	.ascii	"../src/extensions/analogio-x8.xc"
	.byte	0
	.long	60
	.long	63
	.long	.Lxtalabel15
.cc_bottom cc_274
.cc_top cc_275,.Lxtalabel11
	.ascii	"../src/extensions/analogio-x8.xc"
	.byte	0
	.long	60
	.long	63
	.long	.Lxtalabel11
.cc_bottom cc_275
.cc_top cc_276,.Lxtalabel15
	.ascii	"../src/extensions/analogio-x8.xc"
	.byte	0
	.long	60
	.long	63
	.long	.Lxtalabel15
.cc_bottom cc_276
.cc_top cc_277,.Lxtalabel15
	.ascii	"../src/extensions/analogio-x8.xc"
	.byte	0
	.long	60
	.long	63
	.long	.Lxtalabel15
.cc_bottom cc_277
.cc_top cc_278,.Lxtalabel12
	.ascii	"../src/extensions/analogio-x8.xc"
	.byte	0
	.long	60
	.long	63
	.long	.Lxtalabel12
.cc_bottom cc_278
.cc_top cc_279,.Lxtalabel11
	.ascii	"../src/extensions/analogio-x8.xc"
	.byte	0
	.long	60
	.long	63
	.long	.Lxtalabel11
.cc_bottom cc_279
.cc_top cc_280,.Lxtalabel12
	.ascii	"../src/extensions/analogio-x8.xc"
	.byte	0
	.long	60
	.long	63
	.long	.Lxtalabel12
.cc_bottom cc_280
.cc_top cc_281,.Lxtalabel11
	.ascii	"../src/extensions/analogio-x8.xc"
	.byte	0
	.long	60
	.long	63
	.long	.Lxtalabel11
.cc_bottom cc_281
.cc_top cc_282,.Lxtalabel18
	.ascii	"../src/extensions/analogio-x8.xc"
	.byte	0
	.long	60
	.long	63
	.long	.Lxtalabel18
.cc_bottom cc_282
.cc_top cc_283,.Lxtalabel19
	.ascii	"../src/extensions/analogio-x8.xc"
	.byte	0
	.long	60
	.long	63
	.long	.Lxtalabel19
.cc_bottom cc_283
.cc_top cc_284,.Lxtalabel12
	.ascii	"../src/extensions/analogio-x8.xc"
	.byte	0
	.long	60
	.long	63
	.long	.Lxtalabel12
.cc_bottom cc_284
.cc_top cc_285,.Lxtalabel18
	.ascii	"../src/extensions/analogio-x8.xc"
	.byte	0
	.long	60
	.long	63
	.long	.Lxtalabel18
.cc_bottom cc_285
.cc_top cc_286,.Lxtalabel15
	.ascii	"../src/extensions/analogio-x8.xc"
	.byte	0
	.long	60
	.long	63
	.long	.Lxtalabel15
.cc_bottom cc_286
.cc_top cc_287,.Lxtalabel19
	.ascii	"../src/extensions/analogio-x8.xc"
	.byte	0
	.long	60
	.long	63
	.long	.Lxtalabel19
.cc_bottom cc_287
.cc_top cc_288,.Lxtalabel12
	.ascii	"../src/extensions/analogio-x8.xc"
	.byte	0
	.long	60
	.long	63
	.long	.Lxtalabel12
.cc_bottom cc_288
.cc_top cc_289,.Lxtalabel7
	.ascii	"../src/extensions/analogio-x8.xc"
	.byte	0
	.long	66
	.long	68
	.long	.Lxtalabel7
.cc_bottom cc_289
.cc_top cc_290,.Lxtalabel12
	.ascii	"../src/extensions/analogio-x8.xc"
	.byte	0
	.long	66
	.long	68
	.long	.Lxtalabel12
.cc_bottom cc_290
.cc_top cc_291,.Lxtalabel12
	.ascii	"../src/extensions/analogio-x8.xc"
	.byte	0
	.long	66
	.long	68
	.long	.Lxtalabel12
.cc_bottom cc_291
.cc_top cc_292,.Lxtalabel6
	.ascii	"../src/extensions/analogio-x8.xc"
	.byte	0
	.long	66
	.long	68
	.long	.Lxtalabel6
.cc_bottom cc_292
.cc_top cc_293,.Lxtalabel15
	.ascii	"../src/extensions/analogio-x8.xc"
	.byte	0
	.long	66
	.long	68
	.long	.Lxtalabel15
.cc_bottom cc_293
.cc_top cc_294,.Lxtalabel18
	.ascii	"../src/extensions/analogio-x8.xc"
	.byte	0
	.long	66
	.long	68
	.long	.Lxtalabel18
.cc_bottom cc_294
.cc_top cc_295,.Lxtalabel19
	.ascii	"../src/extensions/analogio-x8.xc"
	.byte	0
	.long	66
	.long	68
	.long	.Lxtalabel19
.cc_bottom cc_295
.cc_top cc_296,.Lxtalabel15
	.ascii	"../src/extensions/analogio-x8.xc"
	.byte	0
	.long	66
	.long	68
	.long	.Lxtalabel15
.cc_bottom cc_296
.cc_top cc_297,.Lxtalabel12
	.ascii	"../src/extensions/analogio-x8.xc"
	.byte	0
	.long	71
	.long	72
	.long	.Lxtalabel12
.cc_bottom cc_297
.cc_top cc_298,.Lxtalabel15
	.ascii	"../src/extensions/analogio-x8.xc"
	.byte	0
	.long	71
	.long	72
	.long	.Lxtalabel15
.cc_bottom cc_298
.cc_top cc_299,.Lxtalabel12
	.ascii	"../src/extensions/analogio-x8.xc"
	.byte	0
	.long	74
	.long	76
	.long	.Lxtalabel12
.cc_bottom cc_299
.cc_top cc_300,.Lxtalabel15
	.ascii	"../src/extensions/analogio-x8.xc"
	.byte	0
	.long	74
	.long	76
	.long	.Lxtalabel15
.cc_bottom cc_300
.cc_top cc_301,.Lxtalabel12
	.ascii	"../src/extensions/analogio-x8.xc"
	.byte	0
	.long	78
	.long	79
	.long	.Lxtalabel12
.cc_bottom cc_301
.cc_top cc_302,.Lxtalabel15
	.ascii	"../src/extensions/analogio-x8.xc"
	.byte	0
	.long	78
	.long	79
	.long	.Lxtalabel15
.cc_bottom cc_302
.cc_top cc_303,.Lxtalabel5
	.ascii	"../src/extensions/analogio-x8.xc"
	.byte	0
	.long	82
	.long	82
	.long	.Lxtalabel5
.cc_bottom cc_303
.cc_top cc_304,.Lxtalabel6
	.ascii	"../src/extensions/analogio-x8.xc"
	.byte	0
	.long	83
	.long	84
	.long	.Lxtalabel6
.cc_bottom cc_304
.cc_top cc_305,.Lxtalabel6
	.ascii	"../src/extensions/analogio-x8.xc"
	.byte	0
	.long	86
	.long	86
	.long	.Lxtalabel6
.cc_bottom cc_305
.cc_top cc_306,.Lxtalabel6
	.ascii	"../src/extensions/analogio-x8.xc"
	.byte	0
	.long	90
	.long	93
	.long	.Lxtalabel6
.cc_bottom cc_306
.cc_top cc_307,.Lxtalabel7
	.ascii	"../src/extensions/analogio-x8.xc"
	.byte	0
	.long	94
	.long	100
	.long	.Lxtalabel7
.cc_bottom cc_307
.cc_top cc_308,.Lxtalabel8
	.ascii	"../src/extensions/analogio-x8.xc"
	.byte	0
	.long	101
	.long	101
	.long	.Lxtalabel8
.cc_bottom cc_308
.cc_top cc_309,.Lxtalabel13
	.ascii	"../src/extensions/analogio-x8.xc"
	.byte	0
	.long	105
	.long	107
	.long	.Lxtalabel13
.cc_bottom cc_309
.cc_top cc_310,.Lxtalabel11
	.ascii	"../src/extensions/analogio-x8.xc"
	.byte	0
	.long	105
	.long	107
	.long	.Lxtalabel11
.cc_bottom cc_310
.cc_top cc_311,.Lxtalabel16
	.ascii	"../src/extensions/analogio-x8.xc"
	.byte	0
	.long	105
	.long	107
	.long	.Lxtalabel16
.cc_bottom cc_311
.cc_top cc_312,.Lxtalabel11
	.ascii	"../src/extensions/analogio-x8.xc"
	.byte	0
	.long	113
	.long	115
	.long	.Lxtalabel11
.cc_bottom cc_312
.cc_top cc_313,.Lxtalabel13
	.ascii	"../src/extensions/analogio-x8.xc"
	.byte	0
	.long	113
	.long	115
	.long	.Lxtalabel13
.cc_bottom cc_313
.cc_top cc_314,.Lxtalabel16
	.ascii	"../src/extensions/analogio-x8.xc"
	.byte	0
	.long	113
	.long	115
	.long	.Lxtalabel16
.cc_bottom cc_314
.cc_top cc_315,.Lxtalabel16
	.ascii	"../src/extensions/analogio-x8.xc"
	.byte	0
	.long	117
	.long	117
	.long	.Lxtalabel16
.cc_bottom cc_315
.cc_top cc_316,.Lxtalabel11
	.ascii	"../src/extensions/analogio-x8.xc"
	.byte	0
	.long	117
	.long	117
	.long	.Lxtalabel11
.cc_bottom cc_316
.cc_top cc_317,.Lxtalabel13
	.ascii	"../src/extensions/analogio-x8.xc"
	.byte	0
	.long	117
	.long	117
	.long	.Lxtalabel13
.cc_bottom cc_317
.cc_top cc_318,.Lxtalabel13
	.ascii	"../src/extensions/analogio-x8.xc"
	.byte	0
	.long	121
	.long	123
	.long	.Lxtalabel13
.cc_bottom cc_318
.cc_top cc_319,.Lxtalabel11
	.ascii	"../src/extensions/analogio-x8.xc"
	.byte	0
	.long	121
	.long	123
	.long	.Lxtalabel11
.cc_bottom cc_319
.cc_top cc_320,.Lxtalabel16
	.ascii	"../src/extensions/analogio-x8.xc"
	.byte	0
	.long	121
	.long	123
	.long	.Lxtalabel16
.cc_bottom cc_320
.cc_top cc_321,.Lxtalabel15
	.ascii	"../src/extensions/analogio-x8.xc"
	.byte	0
	.long	126
	.long	131
	.long	.Lxtalabel15
.cc_bottom cc_321
.cc_top cc_322,.Lxtalabel18
	.ascii	"../src/extensions/analogio-x8.xc"
	.byte	0
	.long	126
	.long	131
	.long	.Lxtalabel18
.cc_bottom cc_322
.cc_top cc_323,.Lxtalabel12
	.ascii	"../src/extensions/analogio-x8.xc"
	.byte	0
	.long	126
	.long	131
	.long	.Lxtalabel12
.cc_bottom cc_323
.cc_top cc_324,.Lxtalabel19
	.ascii	"../src/extensions/analogio-x8.xc"
	.byte	0
	.long	126
	.long	131
	.long	.Lxtalabel19
.cc_bottom cc_324
.cc_top cc_325,.Lxtalabel15
	.ascii	"../src/extensions/analogio-x8.xc"
	.byte	0
	.long	126
	.long	131
	.long	.Lxtalabel15
.cc_bottom cc_325
.cc_top cc_326,.Lxtalabel12
	.ascii	"../src/extensions/analogio-x8.xc"
	.byte	0
	.long	126
	.long	131
	.long	.Lxtalabel12
.cc_bottom cc_326
.cc_top cc_327,.Lxtalabel9
	.ascii	"../src/extensions/analogio-x8.xc"
	.byte	0
	.long	143
	.long	145
	.long	.Lxtalabel9
.cc_bottom cc_327
.cc_top cc_328,.Lxtalabel10
	.ascii	"../src/extensions/analogio-x8.xc"
	.byte	0
	.long	146
	.long	148
	.long	.Lxtalabel10
.cc_bottom cc_328
.cc_top cc_329,.Lxtalabel11
	.ascii	"../src/extensions/analogio-x8.xc"
	.byte	0
	.long	149
	.long	151
	.long	.Lxtalabel11
.cc_bottom cc_329
.cc_top cc_330,.Lxtalabel15
	.ascii	"../src/extensions/analogio-x8.xc"
	.byte	0
	.long	158
	.long	158
	.long	.Lxtalabel15
.cc_bottom cc_330
.cc_top cc_331,.Lxtalabel12
	.ascii	"../src/extensions/analogio-x8.xc"
	.byte	0
	.long	158
	.long	158
	.long	.Lxtalabel12
.cc_bottom cc_331
.cc_top cc_332,.Lxtalabel15
	.ascii	"../src/extensions/analogio-x8.xc"
	.byte	0
	.long	160
	.long	163
	.long	.Lxtalabel15
.cc_bottom cc_332
.cc_top cc_333,.Lxtalabel12
	.ascii	"../src/extensions/analogio-x8.xc"
	.byte	0
	.long	160
	.long	163
	.long	.Lxtalabel12
.cc_bottom cc_333
.cc_top cc_334,.Lxtalabel15
	.ascii	"../src/extensions/analogio-x8.xc"
	.byte	0
	.long	166
	.long	167
	.long	.Lxtalabel15
.cc_bottom cc_334
.cc_top cc_335,.Lxtalabel12
	.ascii	"../src/extensions/analogio-x8.xc"
	.byte	0
	.long	166
	.long	167
	.long	.Lxtalabel12
.cc_bottom cc_335
.cc_top cc_336,.Lxtalabel12
	.ascii	"../src/extensions/analogio-x8.xc"
	.byte	0
	.long	170
	.long	173
	.long	.Lxtalabel12
.cc_bottom cc_336
.cc_top cc_337,.Lxtalabel15
	.ascii	"../src/extensions/analogio-x8.xc"
	.byte	0
	.long	170
	.long	173
	.long	.Lxtalabel15
.cc_bottom cc_337
.cc_top cc_338,.Lxtalabel16
	.ascii	"../src/extensions/analogio-x8.xc"
	.byte	0
	.long	174
	.long	177
	.long	.Lxtalabel16
.cc_bottom cc_338
.cc_top cc_339,.Lxtalabel13
	.ascii	"../src/extensions/analogio-x8.xc"
	.byte	0
	.long	174
	.long	177
	.long	.Lxtalabel13
.cc_bottom cc_339
.cc_top cc_340,.Lxtalabel13
	.ascii	"../src/extensions/analogio-x8.xc"
	.byte	0
	.long	178
	.long	179
	.long	.Lxtalabel13
.cc_bottom cc_340
.cc_top cc_341,.Lxtalabel16
	.ascii	"../src/extensions/analogio-x8.xc"
	.byte	0
	.long	178
	.long	179
	.long	.Lxtalabel16
.cc_bottom cc_341
.cc_top cc_342,.Lxtalabel16
	.ascii	"../src/extensions/analogio-x8.xc"
	.byte	0
	.long	180
	.long	180
	.long	.Lxtalabel16
.cc_bottom cc_342
.cc_top cc_343,.Lxtalabel13
	.ascii	"../src/extensions/analogio-x8.xc"
	.byte	0
	.long	180
	.long	180
	.long	.Lxtalabel13
.cc_bottom cc_343
.cc_top cc_344,.Lxtalabel17
	.ascii	"../src/extensions/analogio-x8.xc"
	.byte	0
	.long	181
	.long	184
	.long	.Lxtalabel17
.cc_bottom cc_344
.cc_top cc_345,.Lxtalabel14
	.ascii	"../src/extensions/analogio-x8.xc"
	.byte	0
	.long	181
	.long	184
	.long	.Lxtalabel14
.cc_bottom cc_345
.cc_top cc_346,.Lxtalabel17
	.ascii	"../src/extensions/analogio-x8.xc"
	.byte	0
	.long	186
	.long	187
	.long	.Lxtalabel17
.cc_bottom cc_346
.cc_top cc_347,.Lxtalabel14
	.ascii	"../src/extensions/analogio-x8.xc"
	.byte	0
	.long	186
	.long	187
	.long	.Lxtalabel14
.cc_bottom cc_347
.cc_top cc_348,.Lxtalabel19
	.ascii	"../src/extensions/analogio-x8.xc"
	.byte	0
	.long	194
	.long	196
	.long	.Lxtalabel19
.cc_bottom cc_348
.cc_top cc_349,.Lxtalabel18
	.ascii	"../src/extensions/analogio-x8.xc"
	.byte	0
	.long	194
	.long	196
	.long	.Lxtalabel18
.cc_bottom cc_349
.cc_top cc_350,.Lxtalabel19
	.ascii	"../src/extensions/analogio-x8.xc"
	.byte	0
	.long	199
	.long	201
	.long	.Lxtalabel19
.cc_bottom cc_350
.cc_top cc_351,.Lxtalabel18
	.ascii	"../src/extensions/analogio-x8.xc"
	.byte	0
	.long	199
	.long	201
	.long	.Lxtalabel18
.cc_bottom cc_351
.cc_top cc_352,.Lxtalabel18
	.ascii	"../src/extensions/analogio-x8.xc"
	.byte	0
	.long	204
	.long	205
	.long	.Lxtalabel18
.cc_bottom cc_352
.cc_top cc_353,.Lxtalabel19
	.ascii	"../src/extensions/analogio-x8.xc"
	.byte	0
	.long	204
	.long	205
	.long	.Lxtalabel19
.cc_bottom cc_353
.cc_top cc_354,.Lxtalabel19
	.ascii	"../src/extensions/analogio-x8.xc"
	.byte	0
	.long	207
	.long	209
	.long	.Lxtalabel19
.cc_bottom cc_354
.cc_top cc_355,.Lxtalabel18
	.ascii	"../src/extensions/analogio-x8.xc"
	.byte	0
	.long	207
	.long	209
	.long	.Lxtalabel18
.cc_bottom cc_355
.cc_top cc_356,.Lxtalabel0
	.ascii	"../src/extensions/analogio-x8.xc"
	.byte	0
	.long	217
	.long	223
	.long	.Lxtalabel0
.cc_bottom cc_356
.cc_top cc_357,.Lxtalabel0
	.ascii	"../src/extensions/analogio-x8.xc"
	.byte	0
	.long	217
	.long	223
	.long	.Lxtalabel0
.cc_bottom cc_357
.cc_top cc_358,.Lxtalabel2
	.ascii	"../src/extensions/analogio-x8.xc"
	.byte	0
	.long	217
	.long	223
	.long	.Lxtalabel2
.cc_bottom cc_358
.cc_top cc_359,.Lxtalabel1
	.ascii	"../src/extensions/analogio-x8.xc"
	.byte	0
	.long	217
	.long	223
	.long	.Lxtalabel1
.cc_bottom cc_359
.cc_top cc_360,.Lxtalabel4
	.ascii	"../src/extensions/analogio-x8.xc"
	.byte	0
	.long	231
	.long	237
	.long	.Lxtalabel4
.cc_bottom cc_360
.cc_top cc_361,.Lxtalabel0
	.ascii	"../src/extensions/analogio-x8.xc"
	.byte	0
	.long	231
	.long	237
	.long	.Lxtalabel0
.cc_bottom cc_361
.cc_top cc_362,.Lxtalabel0
	.ascii	"../src/extensions/analogio-x8.xc"
	.byte	0
	.long	231
	.long	237
	.long	.Lxtalabel0
.cc_bottom cc_362
.cc_top cc_363,.Lxtalabel0
	.ascii	"../src/extensions/analogio-x8.xc"
	.byte	0
	.long	231
	.long	237
	.long	.Lxtalabel0
.cc_bottom cc_363
.cc_top cc_364,.Lxtalabel0
	.ascii	"../src/extensions/analogio-x8.xc"
	.byte	0
	.long	231
	.long	237
	.long	.Lxtalabel0
.cc_bottom cc_364
.cc_top cc_365,.Lxtalabel0
	.ascii	"../src/extensions/analogio-x8.xc"
	.byte	0
	.long	231
	.long	237
	.long	.Lxtalabel0
.cc_bottom cc_365
.cc_top cc_366,.Lxtalabel0
	.ascii	"../src/extensions/analogio-x8.xc"
	.byte	0
	.long	231
	.long	237
	.long	.Lxtalabel0
.cc_bottom cc_366
.cc_top cc_367,.Lxtalabel0
	.ascii	"../src/extensions/analogio-x8.xc"
	.byte	0
	.long	231
	.long	237
	.long	.Lxtalabel0
.cc_bottom cc_367
.cc_top cc_368,.Lxtalabel0
	.ascii	"../src/extensions/analogio-x8.xc"
	.byte	0
	.long	231
	.long	237
	.long	.Lxtalabel0
.cc_bottom cc_368
.cc_top cc_369,.Lxtalabel0
	.ascii	"../src/extensions/analogio-x8.xc"
	.byte	0
	.long	231
	.long	237
	.long	.Lxtalabel0
.cc_bottom cc_369
.cc_top cc_370,.Lxtalabel0
	.ascii	"../src/extensions/analogio-x8.xc"
	.byte	0
	.long	231
	.long	237
	.long	.Lxtalabel0
.cc_bottom cc_370
.cc_top cc_371,.Lxtalabel0
	.ascii	"../src/extensions/analogio-x8.xc"
	.byte	0
	.long	231
	.long	237
	.long	.Lxtalabel0
.cc_bottom cc_371
.cc_top cc_372,.Lxtalabel0
	.ascii	"../src/extensions/analogio-x8.xc"
	.byte	0
	.long	231
	.long	237
	.long	.Lxtalabel0
.cc_bottom cc_372
.cc_top cc_373,.Lxtalabel0
	.ascii	"../src/extensions/analogio-x8.xc"
	.byte	0
	.long	231
	.long	237
	.long	.Lxtalabel0
.cc_bottom cc_373
.cc_top cc_374,.Lxtalabel0
	.ascii	"../src/extensions/analogio-x8.xc"
	.byte	0
	.long	231
	.long	237
	.long	.Lxtalabel0
.cc_bottom cc_374
.cc_top cc_375,.Lxtalabel0
	.ascii	"../src/extensions/analogio-x8.xc"
	.byte	0
	.long	231
	.long	237
	.long	.Lxtalabel0
.cc_bottom cc_375
.cc_top cc_376,.Lxtalabel0
	.ascii	"../src/extensions/analogio-x8.xc"
	.byte	0
	.long	231
	.long	237
	.long	.Lxtalabel0
.cc_bottom cc_376
.cc_top cc_377,.Lxtalabel0
	.ascii	"../src/extensions/analogio-x8.xc"
	.byte	0
	.long	231
	.long	237
	.long	.Lxtalabel0
.cc_bottom cc_377
.cc_top cc_378,.Lxtalabel0
	.ascii	"../src/extensions/analogio-x8.xc"
	.byte	0
	.long	231
	.long	237
	.long	.Lxtalabel0
.cc_bottom cc_378
.cc_top cc_379,.Lxtalabel3
	.ascii	"../src/extensions/analogio-x8.xc"
	.byte	0
	.long	231
	.long	237
	.long	.Lxtalabel3
.cc_bottom cc_379
.cc_top cc_380,.Lxtalabel0
	.ascii	"../src/extensions/analogio-x8.xc"
	.byte	0
	.long	244
	.long	244
	.long	.Lxtalabel0
.cc_bottom cc_380
.cc_top cc_381,.Lxtalabel0
	.ascii	"../src/extensions/analogio-x8.xc"
	.byte	0
	.long	252
	.long	252
	.long	.Lxtalabel0
.cc_bottom cc_381
.cc_top cc_382,.Lxtalabel0
	.ascii	"../src/extensions/analogio-x8.xc"
	.byte	0
	.long	259
	.long	259
	.long	.Lxtalabel0
.cc_bottom cc_382
.cc_top cc_383,.Lxtalabel0
	.ascii	"../src/extensions/analogio-x8.xc"
	.byte	0
	.long	264
	.long	264
	.long	.Lxtalabel0
.cc_bottom cc_383
.cc_top cc_384,.Lxtalabel0
	.ascii	"../src/extensions/analogio-x8.xc"
	.byte	0
	.long	271
	.long	271
	.long	.Lxtalabel0
.cc_bottom cc_384
.cc_top cc_385,.Lxtalabel0
	.ascii	"../src/extensions/analogio-x8.xc"
	.byte	0
	.long	279
	.long	279
	.long	.Lxtalabel0
.cc_bottom cc_385
.cc_top cc_386,.Lxtalabel0
	.ascii	"../src/extensions/analogio-x8.xc"
	.byte	0
	.long	285
	.long	285
	.long	.Lxtalabel0
.cc_bottom cc_386
.cc_top cc_387,.Lxtalabel0
	.ascii	"../src/extensions/analogio-x8.xc"
	.byte	0
	.long	297
	.long	297
	.long	.Lxtalabel0
.cc_bottom cc_387
.cc_top cc_388,.Lxtalabel0
	.ascii	"../src/extensions/analogio-x8.xc"
	.byte	0
	.long	305
	.long	305
	.long	.Lxtalabel0
.cc_bottom cc_388
.cc_top cc_389,.Lxtalabel0
	.ascii	"../src/extensions/analogio-x8.xc"
	.byte	0
	.long	316
	.long	316
	.long	.Lxtalabel0
.cc_bottom cc_389
.cc_top cc_390,.Lxtalabel0
	.ascii	"../src/extensions/analogio-x8.xc"
	.byte	0
	.long	327
	.long	327
	.long	.Lxtalabel0
.cc_bottom cc_390
.cc_top cc_391,.Lxtalabel0
	.ascii	"../src/extensions/analogio-x8.xc"
	.byte	0
	.long	333
	.long	333
	.long	.Lxtalabel0
.cc_bottom cc_391
.cc_top cc_392,.Lxtalabel0
	.ascii	"../src/extensions/analogio-x8.xc"
	.byte	0
	.long	339
	.long	339
	.long	.Lxtalabel0
.cc_bottom cc_392
.cc_top cc_393,.Lxtalabel0
	.ascii	"../src/extensions/analogio-x8.xc"
	.byte	0
	.long	348
	.long	348
	.long	.Lxtalabel0
.cc_bottom cc_393
.cc_top cc_394,.Lxtalabel0
	.ascii	"../src/extensions/analogio-x8.xc"
	.byte	0
	.long	357
	.long	357
	.long	.Lxtalabel0
.cc_bottom cc_394
.cc_top cc_395,.Lxtalabel0
	.ascii	"../src/extensions/analogio-x8.xc"
	.byte	0
	.long	366
	.long	366
	.long	.Lxtalabel0
.cc_bottom cc_395
.cc_top cc_396,.Lxtalabel0
	.ascii	"../src/extensions/analogio-x8.xc"
	.byte	0
	.long	375
	.long	375
	.long	.Lxtalabel0
.cc_bottom cc_396
.cc_top cc_397,.Lxtalabel0
	.ascii	"../src/extensions/analogio-x8.xc"
	.byte	0
	.long	381
	.long	381
	.long	.Lxtalabel0
.cc_bottom cc_397
.cc_top cc_398,.Lxtalabel0
	.ascii	"../src/extensions/analogio-x8.xc"
	.byte	0
	.long	390
	.long	390
	.long	.Lxtalabel0
.cc_bottom cc_398
.cc_top cc_399,.Lxtalabel0
	.ascii	"../src/extensions/analogio-x8.xc"
	.byte	0
	.long	392
	.long	393
	.long	.Lxtalabel0
.cc_bottom cc_399
.cc_top cc_400,.Lxtalabel0
	.ascii	"../src/extensions/analogio-x8.xc"
	.byte	0
	.long	394
	.long	394
	.long	.Lxtalabel0
.cc_bottom cc_400
.cc_top cc_401,.Lxtalabel0
	.ascii	"../src/extensions/analogio-x8.xc"
	.byte	0
	.long	396
	.long	396
	.long	.Lxtalabel0
.cc_bottom cc_401
.cc_top cc_402,.Lxtalabel0
	.ascii	"../src/extensions/analogio-x8.xc"
	.byte	0
	.long	398
	.long	398
	.long	.Lxtalabel0
.cc_bottom cc_402
.Lentries_end5:
	.section	.xtalooplabeltable,"",@progbits
.Lentries_start6:
	.long	.Lentries_end7-.Lentries_start6
	.long	0
	.ascii	"/Users/rkn/Documents/xTIMEcomposer/workspace/app_usb_aud_xk_216_mc/.build_2i32o32xxxxx_tdm8"
	.byte	0
.cc_top cc_403,.Lxta.loop_labels0
	.ascii	"../src/extensions/analogio-x8.xc"
	.byte	0
	.long	146
	.long	148
	.long	.Lxta.loop_labels0
.cc_bottom cc_403
.cc_top cc_404,.Lxta.loop_labels1
	.ascii	"../src/extensions/analogio-x8.xc"
	.byte	0
	.long	174
	.long	180
	.long	.Lxta.loop_labels1
.cc_bottom cc_404
.cc_top cc_405,.Lxta.loop_labels2
	.ascii	"../src/extensions/analogio-x8.xc"
	.byte	0
	.long	174
	.long	180
	.long	.Lxta.loop_labels2
.cc_bottom cc_405
.Lentries_end7:
	.section	.trap_info,"",@progbits
.Ltrap_info_entries_start0:
	.long	.Ltrap_info_entries_end0-.Ltrap_info_entries_start0
	.long	1
	.section	.trap_info_str,"MS",@progbits
.Ltrap_info_str0:
.asciiz"../src/extensions/analogio-x8.xc:181:3: error: out of bounds array access\n  data[0] = rdData;\n  ^~~~~~~\n"
	.section	.trap_info,"",@progbits
.cc_top cc_trapinfo_0,.Ltrap_info0
	.long	.Ltrap_info0
	.long	.Ltrap_info_str0
.cc_bottom cc_trapinfo_0
	.section	.trap_info_str,"MS",@progbits
.Ltrap_info_str1:
.asciiz"../src/extensions/analogio-x8.xc:181:3: error: out of bounds array access\n  data[0] = rdData;\n  ^~~~~~~\n"
	.section	.trap_info,"",@progbits
.cc_top cc_trapinfo_1,.Ltrap_info1
	.long	.Ltrap_info1
	.long	.Ltrap_info_str1
.cc_bottom cc_trapinfo_1
	.section	.trap_info_str,"MS",@progbits
.Ltrap_info_str2:
.asciiz"../src/extensions/analogio-x8.xc:204:10: error: out of bounds array access\n  data = s_data[0];\n         ^~~~~~~~~\n"
	.section	.trap_info,"",@progbits
.cc_top cc_trapinfo_2,.Ltrap_info2
	.long	.Ltrap_info2
	.long	.Ltrap_info_str2
.cc_bottom cc_trapinfo_2
	.section	.trap_info_str,"MS",@progbits
.Ltrap_info_str3:
.asciiz"../src/extensions/analogio-x8.xc:204:10: error: out of bounds array access\n  data = s_data[0];\n         ^~~~~~~~~\n"
	.section	.trap_info,"",@progbits
.cc_top cc_trapinfo_3,.Ltrap_info3
	.long	.Ltrap_info3
	.long	.Ltrap_info_str3
.cc_bottom cc_trapinfo_3
.Ltrap_info_entries_end0: