	.text
	.file	"/Users/rkn/Documents/xTIMEcomposer/workspace/module_usb_audio/audio.xc"
                                        # Start of file scope inline assembly
	.inline_definition delay_seconds
	.inline_definition delay_milliseconds
	.inline_definition delay_microseconds
	.inline_definition array_to_xc_ptr
	.set dummy_deliver.dynalloc_maxchanends, 0
	.set dummy_deliver.dynalloc_maxcores, 0
	.set dummy_deliver.dynalloc_maxtimers, 0
	.set dummy_deliver.init.0.savedstate,6
	.set dummy_deliver.select.yield.enable.savedstate,6
	.set dummy_deliver.select.yield.enable.cases.maxtimers,0 $M dummy_deliver.select.yield.case.0.maxtimers
	.set dummy_deliver.select.yield.enable.cases.maxcores,0 $M dummy_deliver.select.yield.case.0.maxcores
	.set dummy_deliver.select.yield.enable.cases.maxchanends,0 $M dummy_deliver.select.yield.case.0.maxchanends
	.set dummy_deliver.select.yield.enable.cases,0
	.set dummy_deliver.select.yield.enable.cases.nstackwords, 0 $M (dummy_deliver.select.yield.case.0.nstackwords)
	.set dummy_deliver.select.enable.savedstate,6
	.set dummy_deliver.select.enable.cases.maxtimers,0 $M dummy_deliver.select.case.0.maxtimers
	.set dummy_deliver.select.enable.cases.maxcores,0 $M dummy_deliver.select.case.0.maxcores
	.set dummy_deliver.select.enable.cases.maxchanends,0 $M dummy_deliver.select.case.0.maxchanends
	.set dummy_deliver.select.enable.cases,0
	.set dummy_deliver.select.enable.cases.nstackwords, 0 $M (dummy_deliver.select.case.0.nstackwords)
	.set audio.savedstate,8
	.globl audio.savedstate
	.set _Saudio_0.savedstate,8
	.globl _Saudio_0.savedstate
	.weak _i.i_dfu.HandleDfuRequest.maxchanends.group
	.max_reduce _i.i_dfu.HandleDfuRequest.max.maxchanends, _i.i_dfu.HandleDfuRequest.maxchanends.group, 0
	.weak _i.i_dfu.HandleDfuRequest.maxcores.group
	.max_reduce _i.i_dfu.HandleDfuRequest.max.maxcores, _i.i_dfu.HandleDfuRequest.maxcores.group, 0
	.weak _i.i_dfu.HandleDfuRequest.maxtimers.group
	.max_reduce _i.i_dfu.HandleDfuRequest.max.maxtimers, _i.i_dfu.HandleDfuRequest.maxtimers.group, 0
	.weak _i.i_dfu.HandleDfuRequest.nstackwords.group
	.globl _i.i_dfu.HandleDfuRequest.nstackwords.group
	.weak _i.i_dfu.HandleDfuRequest.fns.group
	.globl _i.i_dfu.HandleDfuRequest.fns.group
	.max_reduce _i.i_dfu.HandleDfuRequest.max.nstackwords, _i.i_dfu.HandleDfuRequest.nstackwords.group, 0
	.max_reduce _i.i_dfu.HandleDfuRequest.fns, _i.i_dfu.HandleDfuRequest.fns.group, 0
	.weak _i.i_dfu.finish.maxchanends.group
	.max_reduce _i.i_dfu.finish.max.maxchanends, _i.i_dfu.finish.maxchanends.group, 0
	.weak _i.i_dfu.finish.maxcores.group
	.max_reduce _i.i_dfu.finish.max.maxcores, _i.i_dfu.finish.maxcores.group, 0
	.weak _i.i_dfu.finish.maxtimers.group
	.max_reduce _i.i_dfu.finish.max.maxtimers, _i.i_dfu.finish.maxtimers.group, 0
	.weak _i.i_dfu.finish.nstackwords.group
	.globl _i.i_dfu.finish.nstackwords.group
	.weak _i.i_dfu.finish.fns.group
	.globl _i.i_dfu.finish.fns.group
	.max_reduce _i.i_dfu.finish.max.nstackwords, _i.i_dfu.finish.nstackwords.group, 0
	.max_reduce _i.i_dfu.finish.fns, _i.i_dfu.finish.fns.group, 0
	.weak _i.i_dfu.__interface_init.maxchanends.group
	.max_reduce _i.i_dfu.__interface_init.max.maxchanends, _i.i_dfu.__interface_init.maxchanends.group, 0
	.weak _i.i_dfu.__interface_init.maxcores.group
	.max_reduce _i.i_dfu.__interface_init.max.maxcores, _i.i_dfu.__interface_init.maxcores.group, 0
	.weak _i.i_dfu.__interface_init.maxtimers.group
	.max_reduce _i.i_dfu.__interface_init.max.maxtimers, _i.i_dfu.__interface_init.maxtimers.group, 0
	.weak _i.i_dfu.__interface_init.nstackwords.group
	.globl _i.i_dfu.__interface_init.nstackwords.group
	.weak _i.i_dfu.__interface_init.fns.group
	.globl _i.i_dfu.__interface_init.fns.group
	.max_reduce _i.i_dfu.__interface_init.max.nstackwords, _i.i_dfu.__interface_init.nstackwords.group, 0
	.max_reduce _i.i_dfu.__interface_init.fns, _i.i_dfu.__interface_init.fns.group, 0
	.weak _i.i_dfu._client_call_y.maxchanends.group
	.add_to_set _i.i_dfu._client_call_y.maxchanends.group, (__interface_client_call_y_other.maxchanends + __interface_client_call_y_extra.maxchanends), __interface_client_call_y_other
	.max_reduce _i.i_dfu._client_call_y.max.maxchanends, _i.i_dfu._client_call_y.maxchanends.group, 0
	.weak _i.i_dfu._client_call_y.maxcores.group
	.add_to_set _i.i_dfu._client_call_y.maxcores.group, (__interface_client_call_y_other.maxcores + __interface_client_call_y_extra.maxcores), __interface_client_call_y_other
	.max_reduce _i.i_dfu._client_call_y.max.maxcores, _i.i_dfu._client_call_y.maxcores.group, 0
	.weak _i.i_dfu._client_call_y.maxtimers.group
	.add_to_set _i.i_dfu._client_call_y.maxtimers.group, (__interface_client_call_y_other.maxtimers + __interface_client_call_y_extra.maxtimers), __interface_client_call_y_other
	.max_reduce _i.i_dfu._client_call_y.max.maxtimers, _i.i_dfu._client_call_y.maxtimers.group, 0
	.weak _i.i_dfu._client_call_y.nstackwords.group
	.globl _i.i_dfu._client_call_y.nstackwords.group
	.weak _i.i_dfu._client_call_y.fns.group
	.globl _i.i_dfu._client_call_y.fns.group
	.add_to_set _i.i_dfu._client_call_y.nstackwords.group, (__interface_client_call_y_other.nstackwords + __interface_client_call_y_extra.nstackwords), __interface_client_call_y_other
	.add_to_set _i.i_dfu._client_call_y.fns.group, __interface_client_call_y_other, __interface_client_call_y_other
	.max_reduce _i.i_dfu._client_call_y.max.nstackwords, _i.i_dfu._client_call_y.nstackwords.group, 0
	.max_reduce _i.i_dfu._client_call_y.fns, _i.i_dfu._client_call_y.fns.group, 0
	.set usage.anon.0,0
	.set usage.anon.1,0
	.set usage.anon.2,0
	.set usage.anon.3,0
	.set usage.anon.4,0
	.set usage.anon.5,0
	.set usage.anon.6,0
	.set usage.anon.7,0
	.set usage.anon.8,0
	.set usage.anon.9,0
	.set usage.anon.10,0
	.set usage.anon.11,0
	.globread usage.anon.10,usage.anon.8,"/Users/rkn/Documents/xTIMEcomposer/workspace/module_usb_audio/audio.xc:659:46: note: object used here\n                p_i2s_dac[index++] <: bitrev(samplesOut[frameCount +i]);\n                                             ^~~~~~~~~~~~~~~~~~~~~~~~~\n/Applications/XMOS_xTIMEcomposer_Community_14.3.2/target/include/xclib.h:36:44: note: expanded from macro \'bitrev\'\n#define bitrev(x)         __builtin_bitrev(x)\n                                           ^"
	.globread usage.anon.5,dsdMode,"/Users/rkn/Documents/xTIMEcomposer/workspace/module_usb_audio/audio.xc:238:12: note: object used here\n        if(dsdMode == DSD_MODE_OFF)\n           ^~~~~~~"
	.globread usage.anon.5,usage.anon.7,"/Users/rkn/Documents/xTIMEcomposer/workspace/module_usb_audio/audio.xc:280:32: note: object used here\n                outuint(c_out, samplesIn_1[i]);\n                               ^~~~~~~~~~~~~~\n/Applications/XMOS_xTIMEcomposer_Community_14.3.2/target/include/xs1.h:968:67: note: expanded from macro \'outuint\'\n#define outuint(c, val)                     __builtin_out_uint(c, val)\n                                                                  ^"
	.globread usage.anon.5,usage.anon.6,"/Users/rkn/Documents/xTIMEcomposer/workspace/module_usb_audio/audio.xc:282:32: note: object used here\n                outuint(c_out, samplesIn_0[i]);\n                               ^~~~~~~~~~~~~~\n/Applications/XMOS_xTIMEcomposer_Community_14.3.2/target/include/xs1.h:968:67: note: expanded from macro \'outuint\'\n#define outuint(c, val)                     __builtin_out_uint(c, val)\n                                                                  ^"
	.globwrite audio,clk_audio_mclk,"/Users/rkn/Documents/xTIMEcomposer/workspace/module_usb_audio/audio.xc:1004:25: note: object used here\n    configure_clock_src(clk_audio_mclk, p_mclk_in);\n                        ^~~~~~~~~~~~~~"
	.globwrite audio,p_mclk_in,"/Users/rkn/Documents/xTIMEcomposer/workspace/module_usb_audio/audio.xc:1004:41: note: object used here\n    configure_clock_src(clk_audio_mclk, p_mclk_in);\n                                        ^~~~~~~~~"
	.globwrite audio,dsdMode,"/Users/rkn/Documents/xTIMEcomposer/workspace/module_usb_audio/audio.xc:1238:21: note: object used here\n                    dsdMode = inuint(c_mix_out);\n                    ^~~~~~~"
	.globwrite audio,p_bclk,"/Users/rkn/Documents/xTIMEcomposer/workspace/module_usb_audio/audio.xc:1119:17: note: object used here\n                p_bclk,\n                ^~~~~~"
	.globwrite audio,p_lrclk,"/Users/rkn/Documents/xTIMEcomposer/workspace/module_usb_audio/audio.xc:1118:17: note: object used here\n                p_lrclk,\n                ^~~~~~~"
	.globwrite audio,p_i2s_adc,"/Users/rkn/Documents/xTIMEcomposer/workspace/module_usb_audio/audio.xc:1113:17: note: object used here\n                p_i2s_adc,\n                ^~~~~~~~~"
	.globwrite audio,p_i2s_dac,"/Users/rkn/Documents/xTIMEcomposer/workspace/module_usb_audio/audio.xc:1109:17: note: object used here\n                p_i2s_dac,\n                ^~~~~~~~~"
	.globwrite usage.anon.11,usage.anon.8,"/Users/rkn/Documents/xTIMEcomposer/workspace/module_usb_audio/audio.xc:911:25: note: object used here\n                        samplesOut[i] = tmp;\n                        ^~~~~~~~~~~~~"
	.globwrite usage.anon.10,p_lrclk,"/Users/rkn/Documents/xTIMEcomposer/workspace/module_usb_audio/audio.xc:644:13: note: object used here\n            p_lrclk <: 0x00000000;\n            ^~~~~~~"
	.globwrite usage.anon.10,p_i2s_adc,"/Users/rkn/Documents/xTIMEcomposer/workspace/module_usb_audio/audio.xc:626:69: note: object used here\n                asm volatile(\"in %0, res[%1]\" : \"=r\"(sample)  : \"r\"(p_i2s_adc[index++]));\n                                                                    ^~~~~~~~~~~~~~~~~~"
	.globwrite usage.anon.10,p_i2s_dac,"/Users/rkn/Documents/xTIMEcomposer/workspace/module_usb_audio/audio.xc:659:17: note: object used here\n                p_i2s_dac[index++] <: bitrev(samplesOut[frameCount +i]);\n                ^~~~~~~~~~~~~~~~~~"
	.globwrite usage.anon.10,usage.anon.7,"/Users/rkn/Documents/xTIMEcomposer/workspace/module_usb_audio/audio.xc:630:21: note: object used here\n                    samplesIn_1[((frameCount-2)&(I2S_CHANS_PER_FRAME-1))+i] = bitrev(sample); // channels 0, 2, 4.. on each line.\n                    ^~~~~~~~~~~~~~~~~~~~~~~~~~~~~~~~~~~~~~~~~~~~~~~~~~~~~~~"
	.globwrite usage.anon.10,usage.anon.6,"/Users/rkn/Documents/xTIMEcomposer/workspace/module_usb_audio/audio.xc:632:21: note: object used here\n                    samplesIn_0[((frameCount-2)&(I2S_CHANS_PER_FRAME-1))+i] = bitrev(sample);\n                    ^~~~~~~~~~~~~~~~~~~~~~~~~~~~~~~~~~~~~~~~~~~~~~~~~~~~~~~"
	.globwrite usage.anon.9,p_lrclk,"/Users/rkn/Documents/xTIMEcomposer/workspace/module_usb_audio/audio.xc:316:18: note: object used here\n        clearbuf(p_lrclk);\n                 ^~~~~~~\n/Applications/XMOS_xTIMEcomposer_Community_14.3.2/target/include/xs1.h:1070:67: note: expanded from macro \'clearbuf\'\n#define clearbuf(p)                          __builtin_clear_buff(p)\n                                                                  ^"
	.globwrite usage.anon.9,p_i2s_adc,"/Users/rkn/Documents/xTIMEcomposer/workspace/module_usb_audio/audio.xc:328:22: note: object used here\n            clearbuf(p_i2s_adc[i]);\n                     ^~~~~~~~~~~~\n/Applications/XMOS_xTIMEcomposer_Community_14.3.2/target/include/xs1.h:1070:67: note: expanded from macro \'clearbuf\'\n#define clearbuf(p)                          __builtin_clear_buff(p)\n                                                                  ^"
	.globwrite usage.anon.9,p_i2s_dac,"/Users/rkn/Documents/xTIMEcomposer/workspace/module_usb_audio/audio.xc:321:22: note: object used here\n            clearbuf(p_i2s_dac[i]);\n                     ^~~~~~~~~~~~\n/Applications/XMOS_xTIMEcomposer_Community_14.3.2/target/include/xs1.h:1070:67: note: expanded from macro \'clearbuf\'\n#define clearbuf(p)                          __builtin_clear_buff(p)\n                                                                  ^"
	.globwrite usage.anon.5,p_bclk,"/Users/rkn/Documents/xTIMEcomposer/workspace/module_usb_audio/audio.xc:242:13: note: object used here\n            p_bclk <: 0;\n            ^~~~~~"
	.globwrite usage.anon.5,p_lrclk,"/Users/rkn/Documents/xTIMEcomposer/workspace/module_usb_audio/audio.xc:241:13: note: object used here\n            p_lrclk <: 0;\n            ^~~~~~~"
	.globwrite usage.anon.5,usage.anon.8,"/Users/rkn/Documents/xTIMEcomposer/workspace/module_usb_audio/audio.xc:266:13: note: object used here\n            samplesOut[i] = tmp;\n            ^~~~~~~~~~~~~"
	.call audio,usage.anon.11
	.call audio,usage.anon.10
	.call audio,configure_clock_src
	.call audio,DFUHandler
	.call audio,ConfigAudioPortsWrapper
	.call audio,AudioHwInit
	.call audio,AudioHwConfig
	.call usage.anon.11,testct_byref
	.call usage.anon.10,usage.anon.9
	.call usage.anon.10,usage.anon.5
	.call usage.anon.10,usage.anon.4
	.call usage.anon.9,usage.anon.4
	.call usage.anon.2,delay_ticks_longlong
	.call usage.anon.1,delay_ticks_longlong
	.call usage.anon.0,delay_ticks_longlong
	.par DFUHandler,usage.anon.11,"/Users/rkn/Documents/xTIMEcomposer/workspace/module_usb_audio/audio.xc:1253:25: error: use of `%s\' violates parallel usage rules\n                        par\n                        ^~~"
	.set usage.anon.3.locnoside, 0
	.set usage.anon.5.locnoside, 0
	.set usage.anon.9.locnoside, 0
	.set usage.anon.10.locnoside, 0
	.set testct_byref.locnoside, 0
	.set usage.anon.11.locnoside, 0
	.set audio.locnoside, 0
	.set usage.anon.5.locnoglobalaccess, 0
	.set usage.anon.9.locnoglobalaccess, 0
	.set usage.anon.10.locnoglobalaccess, 0
	.set usage.anon.11.locnoglobalaccess, 0
	.set audio.locnoglobalaccess, 0
	.globpassesref ConfigAudioPortsWrapper, p_bclk,"/Users/rkn/Documents/xTIMEcomposer/workspace/module_usb_audio/audio.xc:1107:13: error: call to `ConfigAudioPortsWrapper\' in `audio\' makes alias of global \'p_bclk\'\n            ConfigAudioPortsWrapper(\n            ^~~~~~~~~~~~~~~~~~~~~~~~"
	.globpassesref ConfigAudioPortsWrapper, p_lrclk,"/Users/rkn/Documents/xTIMEcomposer/workspace/module_usb_audio/audio.xc:1107:13: error: call to `ConfigAudioPortsWrapper\' in `audio\' makes alias of global \'p_lrclk\'\n            ConfigAudioPortsWrapper(\n            ^~~~~~~~~~~~~~~~~~~~~~~~"
	.globpassesref ConfigAudioPortsWrapper, p_i2s_adc,"/Users/rkn/Documents/xTIMEcomposer/workspace/module_usb_audio/audio.xc:1107:13: error: call to `ConfigAudioPortsWrapper\' in `audio\' makes alias of global \'p_i2s_adc\'\n            ConfigAudioPortsWrapper(\n            ^~~~~~~~~~~~~~~~~~~~~~~~"
	.globpassesref ConfigAudioPortsWrapper, p_i2s_dac,"/Users/rkn/Documents/xTIMEcomposer/workspace/module_usb_audio/audio.xc:1107:13: error: call to `ConfigAudioPortsWrapper\' in `audio\' makes alias of global \'p_i2s_dac\'\n            ConfigAudioPortsWrapper(\n            ^~~~~~~~~~~~~~~~~~~~~~~~"
	.globpassesref configure_clock_src, p_mclk_in,"/Users/rkn/Documents/xTIMEcomposer/workspace/module_usb_audio/audio.xc:1004:5: error: call to `configure_clock_src\' in `audio\' makes alias of global \'p_mclk_in\'\n    configure_clock_src(clk_audio_mclk, p_mclk_in);\n    ^~~~~~~~~~~~~~~~~~~~~~~~~~~~~~~~~~~~~~~~~~~~~~"
	.globpassesref configure_clock_src, clk_audio_mclk,"/Users/rkn/Documents/xTIMEcomposer/workspace/module_usb_audio/audio.xc:1004:5: error: call to `configure_clock_src\' in `audio\' makes alias of global \'clk_audio_mclk\'\n    configure_clock_src(clk_audio_mclk, p_mclk_in);\n    ^~~~~~~~~~~~~~~~~~~~~~~~~~~~~~~~~~~~~~~~~~~~~~"

                                        # End of file scope inline assembly
	.text
	.weak	_i.i_dfu._chan.finish
	.align	4
	.type	_i.i_dfu._chan.finish,@function
	.cc_top _i.i_dfu._chan.finish.function,_i.i_dfu._chan.finish
_i.i_dfu._chan.finish:                  # @_i.i_dfu._chan.finish
	.cfi_startproc
	.issue_mode dual
# BB#0:                                 # %allocas
	#DEBUG_VALUE: _i.i_dfu._chan.finish:dest <- R0
	{
		getr r1, 2
		dualentsp 0
	}
	{
		setd res[r1], r0
		add r0, r1, 1
	}
	{
		out res[r1], r0
		nop
	}
	{
		outct res[r1], 2
		nop
	}
	{
		in r0, res[r1]
		nop
	}
	{
		chkct res[r1], 1
		nop
	}
	{
		freer res[r1]
		retsp 0
	}
	# RETURN_REG_HOLDER
	.cc_bottom _i.i_dfu._chan.finish.function
	.set	_i.i_dfu._chan.finish.nstackwords,0
	.globl	_i.i_dfu._chan.finish.nstackwords
	.weak	_i.i_dfu._chan.finish.nstackwords
	.set	_i.i_dfu._chan.finish.maxcores,1
	.globl	_i.i_dfu._chan.finish.maxcores
	.weak	_i.i_dfu._chan.finish.maxcores
	.set	_i.i_dfu._chan.finish.maxtimers,0
	.globl	_i.i_dfu._chan.finish.maxtimers
	.weak	_i.i_dfu._chan.finish.maxtimers
	.set	_i.i_dfu._chan.finish.maxchanends,1
	.globl	_i.i_dfu._chan.finish.maxchanends
	.weak	_i.i_dfu._chan.finish.maxchanends
.Ltmp0:
	.size	_i.i_dfu._chan.finish, .Ltmp0-_i.i_dfu._chan.finish
	.cfi_endproc

	.weak	_i.i_dfu._chan.HandleDfuRequest
	.align	4
	.type	_i.i_dfu._chan.HandleDfuRequest,@function
	.cc_top _i.i_dfu._chan.HandleDfuRequest.function,_i.i_dfu._chan.HandleDfuRequest
_i.i_dfu._chan.HandleDfuRequest:        # @_i.i_dfu._chan.HandleDfuRequest
	.cfi_startproc
	.issue_mode dual
# BB#0:                                 # %allocas
	{
		nop
		dualentsp 6
	}
.Ltmp1:
	.cfi_def_cfa_offset 24
.Ltmp2:
	.cfi_offset 15, 0
	std r5, r4, sp[2]               # 4-byte Folded Spill
.Ltmp3:
	.cfi_offset 4, -8
.Ltmp4:
	.cfi_offset 5, -4
	#DEBUG_VALUE: _i.i_dfu._chan.HandleDfuRequest:dest <- R0
	#DEBUG_VALUE: _i.i_dfu._chan.HandleDfuRequest:param1 <- R1
	#DEBUG_VALUE: _i.i_dfu._chan.HandleDfuRequest:param2 <- R2
	#DEBUG_VALUE: _i.i_dfu._chan.HandleDfuRequest:param3 <- R3
	#DEBUG_VALUE: _i.i_dfu._chan.HandleDfuRequest:param4 <- [SP+28]
	{
		nop
		ldw r11, sp[7]
	}
	{
		getr r4, 2
		ldw r5, sp[8]
	}
	{
		setd res[r4], r0
		nop
	}
	{
		out res[r4], r4
		nop
	}
	{
		outct res[r4], 2
		nop
	}
	{
		chkct res[r4], 1
		stw r1, sp[2]
	}
	{
		out res[r4], r5
		stw r2, sp[3]
	}
	{
		out res[r4], r3
		nop
	}
	{
		out res[r4], r11
		nop
	}
	{
		outct res[r4], 2
		ldaw r1, sp[2]
	}
	{
		mov r0, r4
		nop
	}
	bl __interface_client_call
	{
		in r0, res[r4]
		nop
	}
	{
		in r1, res[r4]
		nop
	}
	{
		in r2, res[r4]
		nop
	}
	{
		in r3, res[r4]
		nop
	}
	{
		in r11, res[r4]
		nop
	}
	{
		chkct res[r4], 1
		nop
	}
	{
		freer res[r4]
		stw r11, sp[9]
	}
	ldd r5, r4, sp[2]               # 4-byte Folded Reload
	{
		nop
		retsp 6
	}
	# RETURN_REG_HOLDER
	.cc_bottom _i.i_dfu._chan.HandleDfuRequest.function
	.set	_i.i_dfu._chan.HandleDfuRequest.nstackwords,(__interface_client_call.nstackwords + 6)
	.globl	_i.i_dfu._chan.HandleDfuRequest.nstackwords
	.weak	_i.i_dfu._chan.HandleDfuRequest.nstackwords
	.set	_i.i_dfu._chan.HandleDfuRequest.maxcores,__interface_client_call.maxcores $M 1
	.globl	_i.i_dfu._chan.HandleDfuRequest.maxcores
	.weak	_i.i_dfu._chan.HandleDfuRequest.maxcores
	.set	_i.i_dfu._chan.HandleDfuRequest.maxtimers,__interface_client_call.maxtimers $M 0
	.globl	_i.i_dfu._chan.HandleDfuRequest.maxtimers
	.weak	_i.i_dfu._chan.HandleDfuRequest.maxtimers
	.set	_i.i_dfu._chan.HandleDfuRequest.maxchanends,(1 + __interface_client_call.maxchanends) $M 1
	.globl	_i.i_dfu._chan.HandleDfuRequest.maxchanends
	.weak	_i.i_dfu._chan.HandleDfuRequest.maxchanends
.Ltmp5:
	.size	_i.i_dfu._chan.HandleDfuRequest, .Ltmp5-_i.i_dfu._chan.HandleDfuRequest
	.cfi_endproc

	.weak	_i.i_dfu._chan_yield.finish
	.align	4
	.type	_i.i_dfu._chan_yield.finish,@function
	.cc_top _i.i_dfu._chan_yield.finish.function,_i.i_dfu._chan_yield.finish
_i.i_dfu._chan_yield.finish:            # @_i.i_dfu._chan_yield.finish
	.cfi_startproc
	.issue_mode dual
# BB#0:                                 # %allocas
	{
		nop
		dualentsp 4
	}
.Ltmp6:
	.cfi_def_cfa_offset 16
.Ltmp7:
	.cfi_offset 15, 0
	{
		nop
		stw r4, sp[2]
	}
.Ltmp8:
	.cfi_offset 4, -8
	#DEBUG_VALUE: _i.i_dfu._chan_yield.finish:s <- R0
	{
		getr r4, 2
		ldw r1, r0[0]
	}
	{
		setd res[r4], r1
		add r1, r4, 1
	}
	{
		out res[r4], r1
		nop
	}
	{
		outct res[r4], 2
		ldw r2, r0[1]
	}
	{
		ldc r1, 0
		mov r0, r4
	}
	bl __interface_client_call_y
	{
		chkct res[r4], 1
		nop
	}
	{
		freer res[r4]
		ldw r4, sp[2]
	}
	{
		nop
		retsp 4
	}
	# RETURN_REG_HOLDER
	.cc_bottom _i.i_dfu._chan_yield.finish.function
	.set	_i.i_dfu._chan_yield.finish.nstackwords,((_i.i_dfu._client_call_y.max.nstackwords $M ($D __interface_client_call_y.nstackwords ? __interface_client_call_y.nstackwords $: _i.i_dfu._client_call_y.max.nstackwords)) + 4)
	.globl	_i.i_dfu._chan_yield.finish.nstackwords
	.weak	_i.i_dfu._chan_yield.finish.nstackwords
	.set	_i.i_dfu._chan_yield.finish.maxcores,($D __interface_client_call_y.maxcores ? __interface_client_call_y.maxcores $: _i.i_dfu._client_call_y.max.maxcores) $M 1
	.globl	_i.i_dfu._chan_yield.finish.maxcores
	.weak	_i.i_dfu._chan_yield.finish.maxcores
	.set	_i.i_dfu._chan_yield.finish.maxtimers,($D __interface_client_call_y.maxtimers ? __interface_client_call_y.maxtimers $: _i.i_dfu._client_call_y.max.maxtimers) $M 0
	.globl	_i.i_dfu._chan_yield.finish.maxtimers
	.weak	_i.i_dfu._chan_yield.finish.maxtimers
	.set	_i.i_dfu._chan_yield.finish.maxchanends,(1 + ($D __interface_client_call_y.maxchanends ? __interface_client_call_y.maxchanends $: _i.i_dfu._client_call_y.max.maxchanends)) $M 1
	.globl	_i.i_dfu._chan_yield.finish.maxchanends
	.weak	_i.i_dfu._chan_yield.finish.maxchanends
.Ltmp9:
	.size	_i.i_dfu._chan_yield.finish, .Ltmp9-_i.i_dfu._chan_yield.finish
	.cfi_endproc

	.weak	_i.i_dfu._chan_yield.HandleDfuRequest
	.align	4
	.type	_i.i_dfu._chan_yield.HandleDfuRequest,@function
	.cc_top _i.i_dfu._chan_yield.HandleDfuRequest.function,_i.i_dfu._chan_yield.HandleDfuRequest
_i.i_dfu._chan_yield.HandleDfuRequest:  # @_i.i_dfu._chan_yield.HandleDfuRequest
	.cfi_startproc
	.issue_mode dual
# BB#0:                                 # %allocas
	{
		nop
		dualentsp 8
	}
.Ltmp10:
	.cfi_def_cfa_offset 32
.Ltmp11:
	.cfi_offset 15, 0
	std r5, r4, sp[2]               # 4-byte Folded Spill
.Ltmp12:
	.cfi_offset 4, -16
.Ltmp13:
	.cfi_offset 5, -12
	{
		nop
		stw r6, sp[6]
	}
.Ltmp14:
	.cfi_offset 6, -8
	#DEBUG_VALUE: _i.i_dfu._chan_yield.HandleDfuRequest:s <- R0
	#DEBUG_VALUE: _i.i_dfu._chan_yield.HandleDfuRequest:param1 <- R1
	#DEBUG_VALUE: _i.i_dfu._chan_yield.HandleDfuRequest:param2 <- R2
	#DEBUG_VALUE: _i.i_dfu._chan_yield.HandleDfuRequest:param3 <- R3
	#DEBUG_VALUE: _i.i_dfu._chan_yield.HandleDfuRequest:param4 <- [SP+36]
	{
		nop
		ldw r11, sp[9]
	}
	{
		nop
		ldw r5, sp[10]
	}
	{
		getr r4, 2
		ldw r6, r0[0]
	}
	{
		setd res[r4], r6
		nop
	}
	{
		out res[r4], r4
		nop
	}
	{
		outct res[r4], 2
		nop
	}
	{
		chkct res[r4], 1
		stw r1, sp[2]
	}
	{
		out res[r4], r5
		stw r2, sp[3]
	}
	{
		out res[r4], r3
		nop
	}
	{
		out res[r4], r11
		nop
	}
	{
		outct res[r4], 2
		ldw r2, r0[1]
	}
	{
		ldaw r1, sp[2]
		mov r0, r4
	}
	bl __interface_client_call_y
	{
		in r0, res[r4]
		nop
	}
	{
		in r1, res[r4]
		nop
	}
	{
		in r2, res[r4]
		nop
	}
	{
		in r3, res[r4]
		nop
	}
	{
		in r11, res[r4]
		nop
	}
	{
		chkct res[r4], 1
		nop
	}
	{
		freer res[r4]
		stw r11, sp[11]
	}
	{
		nop
		ldw r6, sp[6]
	}
	ldd r5, r4, sp[2]               # 4-byte Folded Reload
	{
		nop
		retsp 8
	}
	# RETURN_REG_HOLDER
	.cc_bottom _i.i_dfu._chan_yield.HandleDfuRequest.function
	.set	_i.i_dfu._chan_yield.HandleDfuRequest.nstackwords,((_i.i_dfu._client_call_y.max.nstackwords $M ($D __interface_client_call_y.nstackwords ? __interface_client_call_y.nstackwords $: _i.i_dfu._client_call_y.max.nstackwords)) + 8)
	.globl	_i.i_dfu._chan_yield.HandleDfuRequest.nstackwords
	.weak	_i.i_dfu._chan_yield.HandleDfuRequest.nstackwords
	.set	_i.i_dfu._chan_yield.HandleDfuRequest.maxcores,($D __interface_client_call_y.maxcores ? __interface_client_call_y.maxcores $: _i.i_dfu._client_call_y.max.maxcores) $M 1
	.globl	_i.i_dfu._chan_yield.HandleDfuRequest.maxcores
	.weak	_i.i_dfu._chan_yield.HandleDfuRequest.maxcores
	.set	_i.i_dfu._chan_yield.HandleDfuRequest.maxtimers,($D __interface_client_call_y.maxtimers ? __interface_client_call_y.maxtimers $: _i.i_dfu._client_call_y.max.maxtimers) $M 0
	.globl	_i.i_dfu._chan_yield.HandleDfuRequest.maxtimers
	.weak	_i.i_dfu._chan_yield.HandleDfuRequest.maxtimers
	.set	_i.i_dfu._chan_yield.HandleDfuRequest.maxchanends,(1 + ($D __interface_client_call_y.maxchanends ? __interface_client_call_y.maxchanends $: _i.i_dfu._client_call_y.max.maxchanends)) $M 1
	.globl	_i.i_dfu._chan_yield.HandleDfuRequest.maxchanends
	.weak	_i.i_dfu._chan_yield.HandleDfuRequest.maxchanends
.Ltmp15:
	.size	_i.i_dfu._chan_yield.HandleDfuRequest, .Ltmp15-_i.i_dfu._chan_yield.HandleDfuRequest
	.cfi_endproc

	.section	.cp.rodata.cst4,"aMc",@progbits,4
	.cc_top .LCPI4_0.data,.LCPI4_0
	.align	4
	.type	.LCPI4_0,@object
	.size	.LCPI4_0, 4
.LCPI4_0:
	.long	2147483647              # 0x7fffffff
	.cc_bottom .LCPI4_0.data
	.cc_top .LCPI4_1.data,.LCPI4_1
	.align	4
	.type	.LCPI4_1,@object
	.size	.LCPI4_1, 4
.LCPI4_1:
	.long	2147483648              # 0x80000000
	.cc_bottom .LCPI4_1.data
	.text
	.align	4
	.type	deliver,@function
	.cc_top deliver.function,deliver
deliver:                                # @deliver
.Lfunc_begin4:
	.loc	1 448 0                 # /Users/rkn/Documents/xTIMEcomposer/workspace/module_usb_audio/audio.xc:448:0
	.cfi_startproc
	.issue_mode dual
# BB#0:                                 # %allocas
.Lxtalabel0:
	{
		nop
		dualentsp 18
	}
.Ltmp16:
	.cfi_def_cfa_offset 72
.Ltmp17:
	.cfi_offset 15, 0
	std r5, r4, sp[5]               # 4-byte Folded Spill
.Ltmp18:
	.cfi_offset 4, -32
.Ltmp19:
	.cfi_offset 5, -28
	std r7, r6, sp[6]               # 4-byte Folded Spill
.Ltmp20:
	.cfi_offset 6, -24
.Ltmp21:
	.cfi_offset 7, -20
	std r9, r8, sp[7]               # 4-byte Folded Spill
.Ltmp22:
	.cfi_offset 8, -16
.Ltmp23:
	.cfi_offset 9, -12
.Ltmp24:
	.cfi_offset 10, -8
.Ltmp25:
	#DEBUG_VALUE: DoSampleTransfer:underflowWord <- 0
	#DEBUG_VALUE: frameCount <- 0
	#DEBUG_VALUE: underflowWord <- 0
	#DEBUG_VALUE: readBuffNo <- 0
	#DEBUG_VALUE: deliver:curSamFreq <- 0
	#DEBUG_VALUE: deliver:divide <- 0
	{
		mov r1, r0
		stw r10, sp[16]
	}
	{
		ldc r2, 0
		nop
	}
	.loc	1 231 0 prologue_end    # /Users/rkn/Documents/xTIMEcomposer/workspace/module_usb_audio/audio.xc:231:0
.Ltmp26:
.Lxta.endpoint_labels0:
	{
		out res[r1], r2
		nop
	}
	.loc	1 234 5                 # /Users/rkn/Documents/xTIMEcomposer/workspace/module_usb_audio/audio.xc:234:5
	{
		testct r0, res[r1]
		nop
	}
	.loc	1 234 5                 # /Users/rkn/Documents/xTIMEcomposer/workspace/module_usb_audio/audio.xc:234:5
	bf r0, .LBB4_1
# BB#2:                                 # %iftrue.i
.Lxtalabel1:
	#DEBUG_VALUE: deliver:divide <- 0
	#DEBUG_VALUE: deliver:curSamFreq <- 0
	#DEBUG_VALUE: readBuffNo <- 0
	#DEBUG_VALUE: underflowWord <- 0
	#DEBUG_VALUE: frameCount <- 0
	#DEBUG_VALUE: DoSampleTransfer:underflowWord <- 0
	.loc	1 236 0                 # /Users/rkn/Documents/xTIMEcomposer/workspace/module_usb_audio/audio.xc:236:0
.Ltmp27:
.Lxta.endpoint_labels1:
	{
		inct r3, res[r1]
		nop
	}
	.loc	1 238 9                 # /Users/rkn/Documents/xTIMEcomposer/workspace/module_usb_audio/audio.xc:238:9
	ldw r0, dp[dsdMode]
	{
		nop
		stw r0, sp[4]
	}
	bt r0, .LBB4_4
# BB#3:                                 # %iftrue3.i
.Lxtalabel2:
	#DEBUG_VALUE: deliver:divide <- 0
	#DEBUG_VALUE: deliver:curSamFreq <- 0
	#DEBUG_VALUE: readBuffNo <- 0
	#DEBUG_VALUE: underflowWord <- 0
	#DEBUG_VALUE: frameCount <- 0
	#DEBUG_VALUE: DoSampleTransfer:underflowWord <- 0
	.loc	1 241 25                # /Users/rkn/Documents/xTIMEcomposer/workspace/module_usb_audio/audio.xc:241:25
	ldw r0, dp[p_lrclk]
	.loc	1 241 25                # /Users/rkn/Documents/xTIMEcomposer/workspace/module_usb_audio/audio.xc:241:25
.Lxta.endpoint_labels2:
	{
		out res[r0], r2
		nop
	}
	.loc	1 242 24                # /Users/rkn/Documents/xTIMEcomposer/workspace/module_usb_audio/audio.xc:242:24
	ldw r0, dp[p_bclk]
	.loc	1 242 24                # /Users/rkn/Documents/xTIMEcomposer/workspace/module_usb_audio/audio.xc:242:24
.Lxta.endpoint_labels3:
	{
		out res[r0], r2
		nop
	}
.Ltmp28:
.LBB4_4:                                # %DoSampleTransfer.exit
	#DEBUG_VALUE: deliver:divide <- 0
	#DEBUG_VALUE: deliver:curSamFreq <- 0
	#DEBUG_VALUE: readBuffNo <- 0
	#DEBUG_VALUE: underflowWord <- 0
	#DEBUG_VALUE: frameCount <- 0
	bt r3, .LBB4_23
	bu .LBB4_5
.LBB4_1:                                # %DoSampleTransfer.exit.thread
.Lxtalabel3:
	#DEBUG_VALUE: deliver:divide <- 0
	#DEBUG_VALUE: deliver:curSamFreq <- 0
	#DEBUG_VALUE: readBuffNo <- 0
	#DEBUG_VALUE: underflowWord <- 0
	#DEBUG_VALUE: frameCount <- 0
	#DEBUG_VALUE: DoSampleTransfer:underflowWord <- 0
	.loc	1 265 0                 # /Users/rkn/Documents/xTIMEcomposer/workspace/module_usb_audio/audio.xc:265:0
.Ltmp29:
.Lxta.endpoint_labels4:
	{
		in r0, res[r1]
		nop
	}
.Ltmp30:
	#DEBUG_VALUE: tmp <- R0
	.loc	1 266 0                 # /Users/rkn/Documents/xTIMEcomposer/workspace/module_usb_audio/audio.xc:266:0
	stw r0, dp[samplesOut]
.Ltmp31:
	#DEBUG_VALUE: i <- 1
	.loc	1 265 0                 # /Users/rkn/Documents/xTIMEcomposer/workspace/module_usb_audio/audio.xc:265:0
.Lxta.endpoint_labels5:
	{
		in r0, res[r1]
		nop
	}
.Ltmp32:
	.loc	1 266 0                 # /Users/rkn/Documents/xTIMEcomposer/workspace/module_usb_audio/audio.xc:266:0
	stw r0, dp[samplesOut+4]
	.loc	1 265 0                 # /Users/rkn/Documents/xTIMEcomposer/workspace/module_usb_audio/audio.xc:265:0
.Lxta.endpoint_labels6:
	{
		in r0, res[r1]
		nop
	}
	.loc	1 266 0                 # /Users/rkn/Documents/xTIMEcomposer/workspace/module_usb_audio/audio.xc:266:0
	stw r0, dp[samplesOut+8]
	.loc	1 265 0                 # /Users/rkn/Documents/xTIMEcomposer/workspace/module_usb_audio/audio.xc:265:0
.Lxta.endpoint_labels7:
	{
		in r0, res[r1]
		nop
	}
	.loc	1 266 0                 # /Users/rkn/Documents/xTIMEcomposer/workspace/module_usb_audio/audio.xc:266:0
	stw r0, dp[samplesOut+12]
	.loc	1 265 0                 # /Users/rkn/Documents/xTIMEcomposer/workspace/module_usb_audio/audio.xc:265:0
.Lxta.endpoint_labels8:
	{
		in r0, res[r1]
		nop
	}
	.loc	1 266 0                 # /Users/rkn/Documents/xTIMEcomposer/workspace/module_usb_audio/audio.xc:266:0
	stw r0, dp[samplesOut+16]
	.loc	1 265 0                 # /Users/rkn/Documents/xTIMEcomposer/workspace/module_usb_audio/audio.xc:265:0
.Lxta.endpoint_labels9:
	{
		in r0, res[r1]
		nop
	}
	.loc	1 266 0                 # /Users/rkn/Documents/xTIMEcomposer/workspace/module_usb_audio/audio.xc:266:0
	stw r0, dp[samplesOut+20]
	.loc	1 265 0                 # /Users/rkn/Documents/xTIMEcomposer/workspace/module_usb_audio/audio.xc:265:0
.Lxta.endpoint_labels10:
	{
		in r0, res[r1]
		nop
	}
	.loc	1 266 0                 # /Users/rkn/Documents/xTIMEcomposer/workspace/module_usb_audio/audio.xc:266:0
	stw r0, dp[samplesOut+24]
	.loc	1 265 0                 # /Users/rkn/Documents/xTIMEcomposer/workspace/module_usb_audio/audio.xc:265:0
.Lxta.endpoint_labels11:
	{
		in r0, res[r1]
		nop
	}
	.loc	1 266 0                 # /Users/rkn/Documents/xTIMEcomposer/workspace/module_usb_audio/audio.xc:266:0
	stw r0, dp[samplesOut+28]
	.loc	1 265 0                 # /Users/rkn/Documents/xTIMEcomposer/workspace/module_usb_audio/audio.xc:265:0
.Lxta.endpoint_labels12:
	{
		in r0, res[r1]
		nop
	}
	.loc	1 266 0                 # /Users/rkn/Documents/xTIMEcomposer/workspace/module_usb_audio/audio.xc:266:0
	stw r0, dp[samplesOut+32]
	.loc	1 265 0                 # /Users/rkn/Documents/xTIMEcomposer/workspace/module_usb_audio/audio.xc:265:0
.Lxta.endpoint_labels13:
	{
		in r0, res[r1]
		nop
	}
	.loc	1 266 0                 # /Users/rkn/Documents/xTIMEcomposer/workspace/module_usb_audio/audio.xc:266:0
	stw r0, dp[samplesOut+36]
	.loc	1 265 0                 # /Users/rkn/Documents/xTIMEcomposer/workspace/module_usb_audio/audio.xc:265:0
.Lxta.endpoint_labels14:
	{
		in r0, res[r1]
		nop
	}
	.loc	1 266 0                 # /Users/rkn/Documents/xTIMEcomposer/workspace/module_usb_audio/audio.xc:266:0
	stw r0, dp[samplesOut+40]
	.loc	1 265 0                 # /Users/rkn/Documents/xTIMEcomposer/workspace/module_usb_audio/audio.xc:265:0
.Lxta.endpoint_labels15:
	{
		in r0, res[r1]
		nop
	}
	.loc	1 266 0                 # /Users/rkn/Documents/xTIMEcomposer/workspace/module_usb_audio/audio.xc:266:0
	stw r0, dp[samplesOut+44]
	.loc	1 265 0                 # /Users/rkn/Documents/xTIMEcomposer/workspace/module_usb_audio/audio.xc:265:0
.Lxta.endpoint_labels16:
	{
		in r0, res[r1]
		nop
	}
	.loc	1 266 0                 # /Users/rkn/Documents/xTIMEcomposer/workspace/module_usb_audio/audio.xc:266:0
	stw r0, dp[samplesOut+48]
	.loc	1 265 0                 # /Users/rkn/Documents/xTIMEcomposer/workspace/module_usb_audio/audio.xc:265:0
.Lxta.endpoint_labels17:
	{
		in r0, res[r1]
		nop
	}
	.loc	1 266 0                 # /Users/rkn/Documents/xTIMEcomposer/workspace/module_usb_audio/audio.xc:266:0
	stw r0, dp[samplesOut+52]
	.loc	1 265 0                 # /Users/rkn/Documents/xTIMEcomposer/workspace/module_usb_audio/audio.xc:265:0
.Lxta.endpoint_labels18:
	{
		in r0, res[r1]
		nop
	}
	.loc	1 266 0                 # /Users/rkn/Documents/xTIMEcomposer/workspace/module_usb_audio/audio.xc:266:0
	stw r0, dp[samplesOut+56]
	.loc	1 265 0                 # /Users/rkn/Documents/xTIMEcomposer/workspace/module_usb_audio/audio.xc:265:0
.Lxta.endpoint_labels19:
	{
		in r0, res[r1]
		nop
	}
	.loc	1 266 0                 # /Users/rkn/Documents/xTIMEcomposer/workspace/module_usb_audio/audio.xc:266:0
	stw r0, dp[samplesOut+60]
	.loc	1 265 0                 # /Users/rkn/Documents/xTIMEcomposer/workspace/module_usb_audio/audio.xc:265:0
.Lxta.endpoint_labels20:
	{
		in r0, res[r1]
		nop
	}
	.loc	1 266 0                 # /Users/rkn/Documents/xTIMEcomposer/workspace/module_usb_audio/audio.xc:266:0
	stw r0, dp[samplesOut+64]
	.loc	1 265 0                 # /Users/rkn/Documents/xTIMEcomposer/workspace/module_usb_audio/audio.xc:265:0
.Lxta.endpoint_labels21:
	{
		in r0, res[r1]
		nop
	}
	.loc	1 266 0                 # /Users/rkn/Documents/xTIMEcomposer/workspace/module_usb_audio/audio.xc:266:0
	stw r0, dp[samplesOut+68]
	.loc	1 265 0                 # /Users/rkn/Documents/xTIMEcomposer/workspace/module_usb_audio/audio.xc:265:0
.Lxta.endpoint_labels22:
	{
		in r0, res[r1]
		nop
	}
	.loc	1 266 0                 # /Users/rkn/Documents/xTIMEcomposer/workspace/module_usb_audio/audio.xc:266:0
	stw r0, dp[samplesOut+72]
	.loc	1 265 0                 # /Users/rkn/Documents/xTIMEcomposer/workspace/module_usb_audio/audio.xc:265:0
.Lxta.endpoint_labels23:
	{
		in r0, res[r1]
		nop
	}
	.loc	1 266 0                 # /Users/rkn/Documents/xTIMEcomposer/workspace/module_usb_audio/audio.xc:266:0
	stw r0, dp[samplesOut+76]
	.loc	1 265 0                 # /Users/rkn/Documents/xTIMEcomposer/workspace/module_usb_audio/audio.xc:265:0
.Lxta.endpoint_labels24:
	{
		in r0, res[r1]
		nop
	}
	.loc	1 266 0                 # /Users/rkn/Documents/xTIMEcomposer/workspace/module_usb_audio/audio.xc:266:0
	stw r0, dp[samplesOut+80]
	.loc	1 265 0                 # /Users/rkn/Documents/xTIMEcomposer/workspace/module_usb_audio/audio.xc:265:0
.Lxta.endpoint_labels25:
	{
		in r0, res[r1]
		nop
	}
	.loc	1 266 0                 # /Users/rkn/Documents/xTIMEcomposer/workspace/module_usb_audio/audio.xc:266:0
	stw r0, dp[samplesOut+84]
	.loc	1 265 0                 # /Users/rkn/Documents/xTIMEcomposer/workspace/module_usb_audio/audio.xc:265:0
.Lxta.endpoint_labels26:
	{
		in r0, res[r1]
		nop
	}
	.loc	1 266 0                 # /Users/rkn/Documents/xTIMEcomposer/workspace/module_usb_audio/audio.xc:266:0
	stw r0, dp[samplesOut+88]
	.loc	1 265 0                 # /Users/rkn/Documents/xTIMEcomposer/workspace/module_usb_audio/audio.xc:265:0
.Lxta.endpoint_labels27:
	{
		in r0, res[r1]
		nop
	}
	.loc	1 266 0                 # /Users/rkn/Documents/xTIMEcomposer/workspace/module_usb_audio/audio.xc:266:0
	stw r0, dp[samplesOut+92]
	.loc	1 265 0                 # /Users/rkn/Documents/xTIMEcomposer/workspace/module_usb_audio/audio.xc:265:0
.Lxta.endpoint_labels28:
	{
		in r0, res[r1]
		nop
	}
	.loc	1 266 0                 # /Users/rkn/Documents/xTIMEcomposer/workspace/module_usb_audio/audio.xc:266:0
	stw r0, dp[samplesOut+96]
	.loc	1 265 0                 # /Users/rkn/Documents/xTIMEcomposer/workspace/module_usb_audio/audio.xc:265:0
.Lxta.endpoint_labels29:
	{
		in r0, res[r1]
		nop
	}
	.loc	1 266 0                 # /Users/rkn/Documents/xTIMEcomposer/workspace/module_usb_audio/audio.xc:266:0
	stw r0, dp[samplesOut+100]
	.loc	1 265 0                 # /Users/rkn/Documents/xTIMEcomposer/workspace/module_usb_audio/audio.xc:265:0
.Lxta.endpoint_labels30:
	{
		in r0, res[r1]
		nop
	}
	.loc	1 266 0                 # /Users/rkn/Documents/xTIMEcomposer/workspace/module_usb_audio/audio.xc:266:0
	stw r0, dp[samplesOut+104]
	.loc	1 265 0                 # /Users/rkn/Documents/xTIMEcomposer/workspace/module_usb_audio/audio.xc:265:0
.Lxta.endpoint_labels31:
	{
		in r0, res[r1]
		nop
	}
	.loc	1 266 0                 # /Users/rkn/Documents/xTIMEcomposer/workspace/module_usb_audio/audio.xc:266:0
	stw r0, dp[samplesOut+108]
	.loc	1 265 0                 # /Users/rkn/Documents/xTIMEcomposer/workspace/module_usb_audio/audio.xc:265:0
.Lxta.endpoint_labels32:
	{
		in r0, res[r1]
		nop
	}
	.loc	1 266 0                 # /Users/rkn/Documents/xTIMEcomposer/workspace/module_usb_audio/audio.xc:266:0
	stw r0, dp[samplesOut+112]
	.loc	1 265 0                 # /Users/rkn/Documents/xTIMEcomposer/workspace/module_usb_audio/audio.xc:265:0
.Lxta.endpoint_labels33:
	{
		in r0, res[r1]
		nop
	}
	.loc	1 266 0                 # /Users/rkn/Documents/xTIMEcomposer/workspace/module_usb_audio/audio.xc:266:0
	stw r0, dp[samplesOut+116]
	.loc	1 265 0                 # /Users/rkn/Documents/xTIMEcomposer/workspace/module_usb_audio/audio.xc:265:0
.Lxta.endpoint_labels34:
	{
		in r0, res[r1]
		nop
	}
	.loc	1 266 0                 # /Users/rkn/Documents/xTIMEcomposer/workspace/module_usb_audio/audio.xc:266:0
	stw r0, dp[samplesOut+120]
	.loc	1 265 0                 # /Users/rkn/Documents/xTIMEcomposer/workspace/module_usb_audio/audio.xc:265:0
.Lxta.endpoint_labels35:
	{
		in r0, res[r1]
		nop
	}
	.loc	1 266 0                 # /Users/rkn/Documents/xTIMEcomposer/workspace/module_usb_audio/audio.xc:266:0
	stw r0, dp[samplesOut+124]
.Ltmp33:
	.loc	1 282 0                 # /Users/rkn/Documents/xTIMEcomposer/workspace/module_usb_audio/audio.xc:282:0
	ldw r0, dp[samplesIn_0]
	.loc	1 282 0                 # /Users/rkn/Documents/xTIMEcomposer/workspace/module_usb_audio/audio.xc:282:0
.Lxta.endpoint_labels36:
	{
		out res[r1], r0
		nop
	}
.Ltmp34:
	#DEBUG_VALUE: i <- 1
	.loc	1 282 0                 # /Users/rkn/Documents/xTIMEcomposer/workspace/module_usb_audio/audio.xc:282:0
	ldw r0, dp[samplesIn_0+4]
	.loc	1 282 0                 # /Users/rkn/Documents/xTIMEcomposer/workspace/module_usb_audio/audio.xc:282:0
.Lxta.endpoint_labels37:
	{
		out res[r1], r0
		nop
	}
	.loc	1 282 0                 # /Users/rkn/Documents/xTIMEcomposer/workspace/module_usb_audio/audio.xc:282:0
	ldw r0, dp[samplesIn_0+8]
	.loc	1 282 0                 # /Users/rkn/Documents/xTIMEcomposer/workspace/module_usb_audio/audio.xc:282:0
.Lxta.endpoint_labels38:
	{
		out res[r1], r0
		nop
	}
	.loc	1 282 0                 # /Users/rkn/Documents/xTIMEcomposer/workspace/module_usb_audio/audio.xc:282:0
	ldw r0, dp[samplesIn_0+12]
	.loc	1 282 0                 # /Users/rkn/Documents/xTIMEcomposer/workspace/module_usb_audio/audio.xc:282:0
.Lxta.endpoint_labels39:
	{
		out res[r1], r0
		nop
	}
	.loc	1 282 0                 # /Users/rkn/Documents/xTIMEcomposer/workspace/module_usb_audio/audio.xc:282:0
	ldw r0, dp[samplesIn_0+16]
	.loc	1 282 0                 # /Users/rkn/Documents/xTIMEcomposer/workspace/module_usb_audio/audio.xc:282:0
.Lxta.endpoint_labels40:
	{
		out res[r1], r0
		nop
	}
	.loc	1 282 0                 # /Users/rkn/Documents/xTIMEcomposer/workspace/module_usb_audio/audio.xc:282:0
	ldw r0, dp[samplesIn_0+20]
	.loc	1 282 0                 # /Users/rkn/Documents/xTIMEcomposer/workspace/module_usb_audio/audio.xc:282:0
.Lxta.endpoint_labels41:
	{
		out res[r1], r0
		nop
	}
	.loc	1 282 0                 # /Users/rkn/Documents/xTIMEcomposer/workspace/module_usb_audio/audio.xc:282:0
	ldw r0, dp[samplesIn_0+24]
	.loc	1 282 0                 # /Users/rkn/Documents/xTIMEcomposer/workspace/module_usb_audio/audio.xc:282:0
.Lxta.endpoint_labels42:
	{
		out res[r1], r0
		nop
	}
	.loc	1 282 0                 # /Users/rkn/Documents/xTIMEcomposer/workspace/module_usb_audio/audio.xc:282:0
	ldw r0, dp[samplesIn_0+28]
	.loc	1 282 0                 # /Users/rkn/Documents/xTIMEcomposer/workspace/module_usb_audio/audio.xc:282:0
.Lxta.endpoint_labels43:
	{
		out res[r1], r0
		nop
	}
	.loc	1 282 0                 # /Users/rkn/Documents/xTIMEcomposer/workspace/module_usb_audio/audio.xc:282:0
	ldw r0, dp[samplesIn_0+32]
	.loc	1 282 0                 # /Users/rkn/Documents/xTIMEcomposer/workspace/module_usb_audio/audio.xc:282:0
.Lxta.endpoint_labels44:
	{
		out res[r1], r0
		nop
	}
	.loc	1 282 0                 # /Users/rkn/Documents/xTIMEcomposer/workspace/module_usb_audio/audio.xc:282:0
	ldw r0, dp[samplesIn_0+36]
	.loc	1 282 0                 # /Users/rkn/Documents/xTIMEcomposer/workspace/module_usb_audio/audio.xc:282:0
.Lxta.endpoint_labels45:
	{
		out res[r1], r0
		nop
	}
	.loc	1 282 0                 # /Users/rkn/Documents/xTIMEcomposer/workspace/module_usb_audio/audio.xc:282:0
	ldw r0, dp[samplesIn_0+40]
	.loc	1 282 0                 # /Users/rkn/Documents/xTIMEcomposer/workspace/module_usb_audio/audio.xc:282:0
.Lxta.endpoint_labels46:
	{
		out res[r1], r0
		nop
	}
	.loc	1 282 0                 # /Users/rkn/Documents/xTIMEcomposer/workspace/module_usb_audio/audio.xc:282:0
	ldw r0, dp[samplesIn_0+44]
	.loc	1 282 0                 # /Users/rkn/Documents/xTIMEcomposer/workspace/module_usb_audio/audio.xc:282:0
.Lxta.endpoint_labels47:
	{
		out res[r1], r0
		nop
	}
	.loc	1 282 0                 # /Users/rkn/Documents/xTIMEcomposer/workspace/module_usb_audio/audio.xc:282:0
	ldw r0, dp[samplesIn_0+48]
	.loc	1 282 0                 # /Users/rkn/Documents/xTIMEcomposer/workspace/module_usb_audio/audio.xc:282:0
.Lxta.endpoint_labels48:
	{
		out res[r1], r0
		nop
	}
	.loc	1 282 0                 # /Users/rkn/Documents/xTIMEcomposer/workspace/module_usb_audio/audio.xc:282:0
	ldw r0, dp[samplesIn_0+52]
	.loc	1 282 0                 # /Users/rkn/Documents/xTIMEcomposer/workspace/module_usb_audio/audio.xc:282:0
.Lxta.endpoint_labels49:
	{
		out res[r1], r0
		nop
	}
	.loc	1 282 0                 # /Users/rkn/Documents/xTIMEcomposer/workspace/module_usb_audio/audio.xc:282:0
	ldw r0, dp[samplesIn_0+56]
	.loc	1 282 0                 # /Users/rkn/Documents/xTIMEcomposer/workspace/module_usb_audio/audio.xc:282:0
.Lxta.endpoint_labels50:
	{
		out res[r1], r0
		nop
	}
	.loc	1 282 0                 # /Users/rkn/Documents/xTIMEcomposer/workspace/module_usb_audio/audio.xc:282:0
	ldw r0, dp[samplesIn_0+60]
	.loc	1 282 0                 # /Users/rkn/Documents/xTIMEcomposer/workspace/module_usb_audio/audio.xc:282:0
.Lxta.endpoint_labels51:
	{
		out res[r1], r0
		nop
	}
	.loc	1 282 0                 # /Users/rkn/Documents/xTIMEcomposer/workspace/module_usb_audio/audio.xc:282:0
	ldw r0, dp[samplesIn_0+64]
	.loc	1 282 0                 # /Users/rkn/Documents/xTIMEcomposer/workspace/module_usb_audio/audio.xc:282:0
.Lxta.endpoint_labels52:
	{
		out res[r1], r0
		nop
	}
	.loc	1 282 0                 # /Users/rkn/Documents/xTIMEcomposer/workspace/module_usb_audio/audio.xc:282:0
	ldw r0, dp[samplesIn_0+68]
	.loc	1 282 0                 # /Users/rkn/Documents/xTIMEcomposer/workspace/module_usb_audio/audio.xc:282:0
.Lxta.endpoint_labels53:
	{
		out res[r1], r0
		nop
	}
	.loc	1 282 0                 # /Users/rkn/Documents/xTIMEcomposer/workspace/module_usb_audio/audio.xc:282:0
	ldw r0, dp[samplesIn_0+72]
	.loc	1 282 0                 # /Users/rkn/Documents/xTIMEcomposer/workspace/module_usb_audio/audio.xc:282:0
.Lxta.endpoint_labels54:
	{
		out res[r1], r0
		nop
	}
	.loc	1 282 0                 # /Users/rkn/Documents/xTIMEcomposer/workspace/module_usb_audio/audio.xc:282:0
	ldw r0, dp[samplesIn_0+76]
	.loc	1 282 0                 # /Users/rkn/Documents/xTIMEcomposer/workspace/module_usb_audio/audio.xc:282:0
.Lxta.endpoint_labels55:
	{
		out res[r1], r0
		nop
	}
	.loc	1 282 0                 # /Users/rkn/Documents/xTIMEcomposer/workspace/module_usb_audio/audio.xc:282:0
	ldw r0, dp[samplesIn_0+80]
	.loc	1 282 0                 # /Users/rkn/Documents/xTIMEcomposer/workspace/module_usb_audio/audio.xc:282:0
.Lxta.endpoint_labels56:
	{
		out res[r1], r0
		nop
	}
	.loc	1 282 0                 # /Users/rkn/Documents/xTIMEcomposer/workspace/module_usb_audio/audio.xc:282:0
	ldw r0, dp[samplesIn_0+84]
	.loc	1 282 0                 # /Users/rkn/Documents/xTIMEcomposer/workspace/module_usb_audio/audio.xc:282:0
.Lxta.endpoint_labels57:
	{
		out res[r1], r0
		nop
	}
	.loc	1 282 0                 # /Users/rkn/Documents/xTIMEcomposer/workspace/module_usb_audio/audio.xc:282:0
	ldw r0, dp[samplesIn_0+88]
	.loc	1 282 0                 # /Users/rkn/Documents/xTIMEcomposer/workspace/module_usb_audio/audio.xc:282:0
.Lxta.endpoint_labels58:
	{
		out res[r1], r0
		nop
	}
	.loc	1 282 0                 # /Users/rkn/Documents/xTIMEcomposer/workspace/module_usb_audio/audio.xc:282:0
	ldw r0, dp[samplesIn_0+92]
	.loc	1 282 0                 # /Users/rkn/Documents/xTIMEcomposer/workspace/module_usb_audio/audio.xc:282:0
.Lxta.endpoint_labels59:
	{
		out res[r1], r0
		nop
	}
	.loc	1 282 0                 # /Users/rkn/Documents/xTIMEcomposer/workspace/module_usb_audio/audio.xc:282:0
	ldw r0, dp[samplesIn_0+96]
	.loc	1 282 0                 # /Users/rkn/Documents/xTIMEcomposer/workspace/module_usb_audio/audio.xc:282:0
.Lxta.endpoint_labels60:
	{
		out res[r1], r0
		nop
	}
	.loc	1 282 0                 # /Users/rkn/Documents/xTIMEcomposer/workspace/module_usb_audio/audio.xc:282:0
	ldw r0, dp[samplesIn_0+100]
	.loc	1 282 0                 # /Users/rkn/Documents/xTIMEcomposer/workspace/module_usb_audio/audio.xc:282:0
.Lxta.endpoint_labels61:
	{
		out res[r1], r0
		nop
	}
	.loc	1 282 0                 # /Users/rkn/Documents/xTIMEcomposer/workspace/module_usb_audio/audio.xc:282:0
	ldw r0, dp[samplesIn_0+104]
	.loc	1 282 0                 # /Users/rkn/Documents/xTIMEcomposer/workspace/module_usb_audio/audio.xc:282:0
.Lxta.endpoint_labels62:
	{
		out res[r1], r0
		nop
	}
	.loc	1 282 0                 # /Users/rkn/Documents/xTIMEcomposer/workspace/module_usb_audio/audio.xc:282:0
	ldw r0, dp[samplesIn_0+108]
	.loc	1 282 0                 # /Users/rkn/Documents/xTIMEcomposer/workspace/module_usb_audio/audio.xc:282:0
.Lxta.endpoint_labels63:
	{
		out res[r1], r0
		nop
	}
	.loc	1 282 0                 # /Users/rkn/Documents/xTIMEcomposer/workspace/module_usb_audio/audio.xc:282:0
	ldw r0, dp[samplesIn_0+112]
	.loc	1 282 0                 # /Users/rkn/Documents/xTIMEcomposer/workspace/module_usb_audio/audio.xc:282:0
.Lxta.endpoint_labels64:
	{
		out res[r1], r0
		nop
	}
	.loc	1 282 0                 # /Users/rkn/Documents/xTIMEcomposer/workspace/module_usb_audio/audio.xc:282:0
	ldw r0, dp[samplesIn_0+116]
	.loc	1 282 0                 # /Users/rkn/Documents/xTIMEcomposer/workspace/module_usb_audio/audio.xc:282:0
.Lxta.endpoint_labels65:
	{
		out res[r1], r0
		nop
	}
	.loc	1 282 0                 # /Users/rkn/Documents/xTIMEcomposer/workspace/module_usb_audio/audio.xc:282:0
	ldw r0, dp[samplesIn_0+120]
	.loc	1 282 0                 # /Users/rkn/Documents/xTIMEcomposer/workspace/module_usb_audio/audio.xc:282:0
.Lxta.endpoint_labels66:
	{
		out res[r1], r0
		nop
	}
	.loc	1 282 0                 # /Users/rkn/Documents/xTIMEcomposer/workspace/module_usb_audio/audio.xc:282:0
	ldw r0, dp[samplesIn_0+124]
	.loc	1 282 0                 # /Users/rkn/Documents/xTIMEcomposer/workspace/module_usb_audio/audio.xc:282:0
.Lxta.endpoint_labels67:
	{
		out res[r1], r0
		nop
	}
.Ltmp35:
	.loc	1 238 9                 # /Users/rkn/Documents/xTIMEcomposer/workspace/module_usb_audio/audio.xc:238:9
	ldw r0, dp[dsdMode]
	{
		nop
		stw r0, sp[4]
	}
.Ltmp36:
.LBB4_5:                                # %ifdone
.Lxtalabel4:
	#DEBUG_VALUE: deliver:divide <- 0
	#DEBUG_VALUE: deliver:curSamFreq <- 0
	#DEBUG_VALUE: readBuffNo <- 0
	#DEBUG_VALUE: underflowWord <- 0
	#DEBUG_VALUE: frameCount <- 0
	#DEBUG_VALUE: InitPorts:divide <- 0
	{
		nop
		stw r1, sp[5]
	}
	.loc	1 316 0                 # /Users/rkn/Documents/xTIMEcomposer/workspace/module_usb_audio/audio.xc:316:0
.Ltmp37:
	ldw r9, dp[p_lrclk]
	.loc	1 316 0                 # /Users/rkn/Documents/xTIMEcomposer/workspace/module_usb_audio/audio.xc:316:0
	{
		setc res[r9], 23
		nop
	}
.Ltmp38:
	#DEBUG_VALUE: i <- 0
	.loc	1 321 0                 # /Users/rkn/Documents/xTIMEcomposer/workspace/module_usb_audio/audio.xc:321:0
	ldw r3, dp[p_i2s_dac]
	.loc	1 321 0                 # /Users/rkn/Documents/xTIMEcomposer/workspace/module_usb_audio/audio.xc:321:0
	{
		setc res[r3], 23
		nop
	}
.Ltmp39:
	#DEBUG_VALUE: i <- 1
	.loc	1 321 0                 # /Users/rkn/Documents/xTIMEcomposer/workspace/module_usb_audio/audio.xc:321:0
	ldw r11, dp[p_i2s_dac+4]
	.loc	1 321 0                 # /Users/rkn/Documents/xTIMEcomposer/workspace/module_usb_audio/audio.xc:321:0
	{
		setc res[r11], 23
		nop
	}
	.loc	1 321 0                 # /Users/rkn/Documents/xTIMEcomposer/workspace/module_usb_audio/audio.xc:321:0
	ldw r4, dp[p_i2s_dac+8]
	.loc	1 321 0                 # /Users/rkn/Documents/xTIMEcomposer/workspace/module_usb_audio/audio.xc:321:0
	{
		setc res[r4], 23
		nop
	}
	.loc	1 321 0                 # /Users/rkn/Documents/xTIMEcomposer/workspace/module_usb_audio/audio.xc:321:0
	ldw r6, dp[p_i2s_dac+12]
	.loc	1 321 0                 # /Users/rkn/Documents/xTIMEcomposer/workspace/module_usb_audio/audio.xc:321:0
	{
		setc res[r6], 23
		nop
	}
.Ltmp40:
	.loc	1 328 0                 # /Users/rkn/Documents/xTIMEcomposer/workspace/module_usb_audio/audio.xc:328:0
	ldw r5, dp[p_i2s_adc]
	.loc	1 328 0                 # /Users/rkn/Documents/xTIMEcomposer/workspace/module_usb_audio/audio.xc:328:0
	{
		setc res[r5], 23
		nop
	}
.Ltmp41:
	#DEBUG_VALUE: i <- 1
	.loc	1 328 0                 # /Users/rkn/Documents/xTIMEcomposer/workspace/module_usb_audio/audio.xc:328:0
	ldw r7, dp[p_i2s_adc+4]
	.loc	1 328 0                 # /Users/rkn/Documents/xTIMEcomposer/workspace/module_usb_audio/audio.xc:328:0
	{
		setc res[r7], 23
		stw r7, sp[9]
	}
	.loc	1 328 0                 # /Users/rkn/Documents/xTIMEcomposer/workspace/module_usb_audio/audio.xc:328:0
	ldw r8, dp[p_i2s_adc+8]
	.loc	1 328 0                 # /Users/rkn/Documents/xTIMEcomposer/workspace/module_usb_audio/audio.xc:328:0
	{
		setc res[r8], 23
		stw r8, sp[8]
	}
	.loc	1 328 0                 # /Users/rkn/Documents/xTIMEcomposer/workspace/module_usb_audio/audio.xc:328:0
	ldw r10, dp[p_i2s_adc+12]
	.loc	1 328 0                 # /Users/rkn/Documents/xTIMEcomposer/workspace/module_usb_audio/audio.xc:328:0
	{
		setc res[r10], 23
		stw r10, sp[7]
	}
.Ltmp42:
	.loc	1 339 31                # /Users/rkn/Documents/xTIMEcomposer/workspace/module_usb_audio/audio.xc:339:31
.Lxta.endpoint_labels68:
	{
		out res[r9], r2
		nop
	}
	.loc	1 339 31                # /Users/rkn/Documents/xTIMEcomposer/workspace/module_usb_audio/audio.xc:339:31
	{
		syncr res[r9]
		nop
	}
	.loc	1 339 31                # /Users/rkn/Documents/xTIMEcomposer/workspace/module_usb_audio/audio.xc:339:31
	{
		getts r0, res[r9]
		nop
	}
.Ltmp43:
	#DEBUG_VALUE: tmp <- R0
	ldc r1, 100
	.loc	1 340 0                 # /Users/rkn/Documents/xTIMEcomposer/workspace/module_usb_audio/audio.xc:340:0
	{
		add r1, r0, r1
		nop
	}
.Ltmp44:
	#DEBUG_VALUE: i <- 0
	#DEBUG_VALUE: tmp <- R1
	.loc	1 347 40                # /Users/rkn/Documents/xTIMEcomposer/workspace/module_usb_audio/audio.xc:347:40
	{
		setpt res[r3], r1
		nop
	}
	.loc	1 347 40                # /Users/rkn/Documents/xTIMEcomposer/workspace/module_usb_audio/audio.xc:347:40
.Lxta.endpoint_labels69:
	{
		out res[r3], r2
		nop
	}
.Ltmp45:
	#DEBUG_VALUE: i <- 1
	.loc	1 347 40                # /Users/rkn/Documents/xTIMEcomposer/workspace/module_usb_audio/audio.xc:347:40
	{
		setpt res[r11], r1
		nop
	}
	.loc	1 347 40                # /Users/rkn/Documents/xTIMEcomposer/workspace/module_usb_audio/audio.xc:347:40
.Lxta.endpoint_labels70:
	{
		out res[r11], r2
		nop
	}
	.loc	1 347 40                # /Users/rkn/Documents/xTIMEcomposer/workspace/module_usb_audio/audio.xc:347:40
	{
		setpt res[r4], r1
		nop
	}
	.loc	1 347 40                # /Users/rkn/Documents/xTIMEcomposer/workspace/module_usb_audio/audio.xc:347:40
.Lxta.endpoint_labels71:
	{
		out res[r4], r2
		nop
	}
	.loc	1 347 40                # /Users/rkn/Documents/xTIMEcomposer/workspace/module_usb_audio/audio.xc:347:40
	{
		setpt res[r6], r1
		nop
	}
	.loc	1 347 40                # /Users/rkn/Documents/xTIMEcomposer/workspace/module_usb_audio/audio.xc:347:40
.Lxta.endpoint_labels72:
	{
		out res[r6], r2
		nop
	}
.Ltmp46:
	.loc	1 351 40                # /Users/rkn/Documents/xTIMEcomposer/workspace/module_usb_audio/audio.xc:351:40
	{
		setpt res[r9], r1
		nop
	}
	ldw r1, cp[.LCPI4_0]
.Ltmp47:
	.loc	1 351 40                # /Users/rkn/Documents/xTIMEcomposer/workspace/module_usb_audio/audio.xc:351:40
.Lxta.endpoint_labels73:
	{
		out res[r9], r1
		nop
	}
	ldc r1, 99
.Ltmp48:
	#DEBUG_VALUE: i <- 0
	.loc	1 356 0                 # /Users/rkn/Documents/xTIMEcomposer/workspace/module_usb_audio/audio.xc:356:0
	{
		add r0, r0, r1
		nop
	}
.Ltmp49:
	#DEBUG_VALUE: i <- 1
	.loc	1 356 0                 # /Users/rkn/Documents/xTIMEcomposer/workspace/module_usb_audio/audio.xc:356:0
	#APP
	setpt res[r5], r0
	#NO_APP
	.loc	1 356 0                 # /Users/rkn/Documents/xTIMEcomposer/workspace/module_usb_audio/audio.xc:356:0
	#APP
	setpt res[r7], r0
	#NO_APP
	.loc	1 356 0                 # /Users/rkn/Documents/xTIMEcomposer/workspace/module_usb_audio/audio.xc:356:0
	#APP
	setpt res[r8], r0
	#NO_APP
	.loc	1 356 0                 # /Users/rkn/Documents/xTIMEcomposer/workspace/module_usb_audio/audio.xc:356:0
	#APP
	setpt res[r10], r0
	#NO_APP
.Ltmp50:
	.loc	1 730 0                 # /Users/rkn/Documents/xTIMEcomposer/workspace/module_usb_audio/audio.xc:730:0
	ldaw r5, dp[samplesIn_1]
	bu .LBB4_6
.Ltmp51:
.LBB4_19:                               # %ifdone158
                                        #   in Loop: Header=BB4_6 Depth=1
.Lxtalabel5:
	#DEBUG_VALUE: deliver:divide <- 0
	#DEBUG_VALUE: deliver:curSamFreq <- 0
	#DEBUG_VALUE: readBuffNo <- 0
	#DEBUG_VALUE: underflowWord <- 0
	#DEBUG_VALUE: frameCount <- 0
	#DEBUG_VALUE: index <- 1
	{
		mkmsk r0, 1
		nop
	}
	.loc	1 843 0                 # /Users/rkn/Documents/xTIMEcomposer/workspace/module_usb_audio/audio.xc:843:0
.Ltmp52:
	xor r2, r2, r0
.Ltmp53:
	#DEBUG_VALUE: readBuffNo <- R2
.LBB4_6:                                # %LoopBody.outer
                                        # =>This Loop Header: Depth=1
                                        #     Child Loop BB4_7 Depth 2
	#DEBUG_VALUE: deliver:divide <- 0
	#DEBUG_VALUE: deliver:curSamFreq <- 0
	#DEBUG_VALUE: readBuffNo <- 0
	#DEBUG_VALUE: underflowWord <- 0
	#DEBUG_VALUE: frameCount <- 0
	.loc	1 617 0                 # /Users/rkn/Documents/xTIMEcomposer/workspace/module_usb_audio/audio.xc:617:0
	{
		eq r0, r2, 0
		stw r2, sp[6]
	}
	{
		ldc r1, 8
		ldc r2, 0
	}
	{
		mov r8, r2
		mov r4, r2
	}
.LBB4_7:                                # %LoopBody
                                        #   Parent Loop BB4_6 Depth=1
                                        # =>  This Inner Loop Header: Depth=2
.Lxtalabel6:
	#DEBUG_VALUE: deliver:divide <- 0
	#DEBUG_VALUE: deliver:curSamFreq <- 0
	#DEBUG_VALUE: readBuffNo <- 0
	#DEBUG_VALUE: underflowWord <- 0
	#DEBUG_VALUE: frameCount <- 0
.Ltmp54:
	#DEBUG_VALUE: index <- 0
	{
		mkmsk r2, 2
		nop
	}
	.loc	1 617 0                 # /Users/rkn/Documents/xTIMEcomposer/workspace/module_usb_audio/audio.xc:617:0
	{
		lsu r2, r4, r2
		mov r6, r0
	}
	bt r2, .LBB4_9
# BB#8:                                 # %LoopBody
                                        #   in Loop: Header=BB4_7 Depth=2
.Lxtalabel7:
	#DEBUG_VALUE: deliver:divide <- 0
	#DEBUG_VALUE: deliver:curSamFreq <- 0
	#DEBUG_VALUE: readBuffNo <- 0
	#DEBUG_VALUE: underflowWord <- 0
	#DEBUG_VALUE: frameCount <- 0
	#DEBUG_VALUE: index <- 0
	{
		nop
		ldw r6, sp[6]
	}
.LBB4_9:                                # %LoopBody
                                        #   in Loop: Header=BB4_7 Depth=2
.Lxtalabel8:
	#DEBUG_VALUE: deliver:divide <- 0
	#DEBUG_VALUE: deliver:curSamFreq <- 0
	#DEBUG_VALUE: readBuffNo <- 0
	#DEBUG_VALUE: underflowWord <- 0
	#DEBUG_VALUE: frameCount <- 0
	#DEBUG_VALUE: index <- 0
.Ltmp55:
	#DEBUG_VALUE: buffIndex <- R6
	#DEBUG_VALUE: i <- 0
	.loc	1 630 0                 # /Users/rkn/Documents/xTIMEcomposer/workspace/module_usb_audio/audio.xc:630:0
	{
		add r2, r4, 6
		ldc r11, 6
	}
	.loc	1 630 0                 # /Users/rkn/Documents/xTIMEcomposer/workspace/module_usb_audio/audio.xc:630:0
	{
		and r2, r2, r11
		nop
	}
.Ltmp56:
	#DEBUG_VALUE: index <- 1
	.loc	1 328 0                 # /Users/rkn/Documents/xTIMEcomposer/workspace/module_usb_audio/audio.xc:328:0
	ldw r11, dp[p_i2s_adc]
.Ltmp57:
	.loc	1 626 0                 # /Users/rkn/Documents/xTIMEcomposer/workspace/module_usb_audio/audio.xc:626:0
	#APP
	in r11, res[r11]
	#NO_APP
.Ltmp58:
	#DEBUG_VALUE: sample <- R11
	#DEBUG_VALUE: deliver:divide <- 0
	#DEBUG_VALUE: deliver:curSamFreq <- 0
	#DEBUG_VALUE: readBuffNo <- 0
	#DEBUG_VALUE: underflowWord <- 0
	#DEBUG_VALUE: frameCount <- 0
	#DEBUG_VALUE: index <- 1
	#DEBUG_VALUE: buffIndex <- R6
	#DEBUG_VALUE: i <- 0
	#DEBUG_VALUE: sample <- R11
	.loc	1 632 0                 # /Users/rkn/Documents/xTIMEcomposer/workspace/module_usb_audio/audio.xc:632:0
	{
		bitrev r11, r11
		nop
	}
.Ltmp59:
	bf r6, .LBB4_26
.Ltmp60:
# BB#10:                                # %LoopIncrement.3
                                        #   in Loop: Header=BB4_7 Depth=2
.Lxtalabel9:
	.loc	1 630 0                 # /Users/rkn/Documents/xTIMEcomposer/workspace/module_usb_audio/audio.xc:630:0
	stw r11, r5[r2]
.Ltmp61:
	#DEBUG_VALUE: i <- 8
	{
		nop
		ldw r11, sp[9]
	}
	.loc	1 626 0                 # /Users/rkn/Documents/xTIMEcomposer/workspace/module_usb_audio/audio.xc:626:0
	#APP
	in r11, res[r11]
	#NO_APP
	{
		ldc r7, 8
		nop
	}
	.loc	1 630 0                 # /Users/rkn/Documents/xTIMEcomposer/workspace/module_usb_audio/audio.xc:630:0
	{
		or r7, r2, r7
		bitrev r11, r11
	}
	.loc	1 630 0                 # /Users/rkn/Documents/xTIMEcomposer/workspace/module_usb_audio/audio.xc:630:0
	stw r11, r5[r7]
	{
		nop
		ldw r11, sp[8]
	}
	.loc	1 626 0                 # /Users/rkn/Documents/xTIMEcomposer/workspace/module_usb_audio/audio.xc:626:0
	#APP
	in r11, res[r11]
	#NO_APP
	{
		ldc r3, 16
		nop
	}
	.loc	1 630 0                 # /Users/rkn/Documents/xTIMEcomposer/workspace/module_usb_audio/audio.xc:630:0
	{
		or r7, r2, r3
		bitrev r11, r11
	}
	.loc	1 630 0                 # /Users/rkn/Documents/xTIMEcomposer/workspace/module_usb_audio/audio.xc:630:0
	stw r11, r5[r7]
	{
		nop
		ldw r3, sp[7]
	}
	.loc	1 626 0                 # /Users/rkn/Documents/xTIMEcomposer/workspace/module_usb_audio/audio.xc:626:0
	#APP
	in r11, res[r3]
	#NO_APP
	{
		ldc r3, 24
		nop
	}
	.loc	1 630 0                 # /Users/rkn/Documents/xTIMEcomposer/workspace/module_usb_audio/audio.xc:630:0
	{
		or r2, r2, r3
		bitrev r11, r11
	}
	.loc	1 630 0                 # /Users/rkn/Documents/xTIMEcomposer/workspace/module_usb_audio/audio.xc:630:0
	stw r11, r5[r2]
	bu .LBB4_27
.LBB4_26:                               # %LoopIncrement.us.3
                                        #   in Loop: Header=BB4_7 Depth=2
.Lxtalabel10:
	.loc	1 632 0                 # /Users/rkn/Documents/xTIMEcomposer/workspace/module_usb_audio/audio.xc:632:0
	ldaw r7, dp[samplesIn_0]
	{
		mov r10, r7
		nop
	}
	.loc	1 632 0                 # /Users/rkn/Documents/xTIMEcomposer/workspace/module_usb_audio/audio.xc:632:0
	stw r11, r10[r2]
	#DEBUG_VALUE: i <- 8
	{
		nop
		ldw r11, sp[9]
	}
	.loc	1 626 0                 # /Users/rkn/Documents/xTIMEcomposer/workspace/module_usb_audio/audio.xc:626:0
	#APP
	in r11, res[r11]
	#NO_APP
	{
		ldc r7, 8
		nop
	}
	.loc	1 630 0                 # /Users/rkn/Documents/xTIMEcomposer/workspace/module_usb_audio/audio.xc:630:0
	{
		or r7, r2, r7
		bitrev r11, r11
	}
	.loc	1 632 0                 # /Users/rkn/Documents/xTIMEcomposer/workspace/module_usb_audio/audio.xc:632:0
	stw r11, r10[r7]
	{
		nop
		ldw r11, sp[8]
	}
	.loc	1 626 0                 # /Users/rkn/Documents/xTIMEcomposer/workspace/module_usb_audio/audio.xc:626:0
	#APP
	in r11, res[r11]
	#NO_APP
	{
		ldc r3, 16
		nop
	}
	.loc	1 630 0                 # /Users/rkn/Documents/xTIMEcomposer/workspace/module_usb_audio/audio.xc:630:0
	{
		or r7, r2, r3
		bitrev r11, r11
	}
	.loc	1 632 0                 # /Users/rkn/Documents/xTIMEcomposer/workspace/module_usb_audio/audio.xc:632:0
	stw r11, r10[r7]
	{
		nop
		ldw r3, sp[7]
	}
	.loc	1 626 0                 # /Users/rkn/Documents/xTIMEcomposer/workspace/module_usb_audio/audio.xc:626:0
	#APP
	in r11, res[r3]
	#NO_APP
	{
		ldc r3, 24
		nop
	}
	.loc	1 630 0                 # /Users/rkn/Documents/xTIMEcomposer/workspace/module_usb_audio/audio.xc:630:0
	{
		or r2, r2, r3
		bitrev r11, r11
	}
	.loc	1 632 0                 # /Users/rkn/Documents/xTIMEcomposer/workspace/module_usb_audio/audio.xc:632:0
	stw r11, r10[r2]
.Ltmp62:
.LBB4_27:                               # %ifdone10
                                        #   in Loop: Header=BB4_7 Depth=2
.Lxtalabel11:
	#DEBUG_VALUE: deliver:divide <- 0
	#DEBUG_VALUE: deliver:curSamFreq <- 0
	#DEBUG_VALUE: readBuffNo <- 0
	#DEBUG_VALUE: underflowWord <- 0
	#DEBUG_VALUE: frameCount <- 0
	#DEBUG_VALUE: index <- 1
	#DEBUG_VALUE: buffIndex <- R6
	#DEBUG_VALUE: i <- 0
	{
		ldc r2, 0
		nop
	}
	.loc	1 644 34                # /Users/rkn/Documents/xTIMEcomposer/workspace/module_usb_audio/audio.xc:644:34
.Lxta.endpoint_labels74:
	{
		out res[r9], r2
		mov r10, r9
	}
	ldaw r2, dp[samplesOut]
	{
		mov r3, r2
		nop
	}
	ldaw r7, r3[r4]
	{
		nop
		ldw r2, r3[r4]
	}
	.loc	1 659 72                # /Users/rkn/Documents/xTIMEcomposer/workspace/module_usb_audio/audio.xc:659:72
.Ltmp63:
	{
		bitrev r2, r2
		nop
	}
.Ltmp64:
	.loc	1 321 0                 # /Users/rkn/Documents/xTIMEcomposer/workspace/module_usb_audio/audio.xc:321:0
	ldw r11, dp[p_i2s_dac]
.Ltmp65:
	#DEBUG_VALUE: i <- 8
	.loc	1 659 72                # /Users/rkn/Documents/xTIMEcomposer/workspace/module_usb_audio/audio.xc:659:72
.Lxta.endpoint_labels75:
	{
		out res[r11], r2
		ldw r2, r7[8]
	}
	.loc	1 659 72                # /Users/rkn/Documents/xTIMEcomposer/workspace/module_usb_audio/audio.xc:659:72
	{
		bitrev r2, r2
		nop
	}
.Ltmp66:
	.loc	1 321 0                 # /Users/rkn/Documents/xTIMEcomposer/workspace/module_usb_audio/audio.xc:321:0
	ldw r11, dp[p_i2s_dac+4]
.Ltmp67:
	.loc	1 659 72                # /Users/rkn/Documents/xTIMEcomposer/workspace/module_usb_audio/audio.xc:659:72
.Lxta.endpoint_labels76:
	{
		out res[r11], r2
		add r2, r3, r8
	}
	ldc r3, 64
	{
		add r11, r2, r3
		nop
	}
	{
		nop
		ldw r11, r11[0]
	}
	.loc	1 659 72                # /Users/rkn/Documents/xTIMEcomposer/workspace/module_usb_audio/audio.xc:659:72
	{
		bitrev r11, r11
		nop
	}
.Ltmp68:
	.loc	1 321 0                 # /Users/rkn/Documents/xTIMEcomposer/workspace/module_usb_audio/audio.xc:321:0
	ldw r9, dp[p_i2s_dac+8]
.Ltmp69:
	.loc	1 659 72                # /Users/rkn/Documents/xTIMEcomposer/workspace/module_usb_audio/audio.xc:659:72
.Lxta.endpoint_labels77:
	{
		out res[r9], r11
		nop
	}
	ldc r3, 96
	{
		add r11, r2, r3
		nop
	}
	{
		nop
		ldw r11, r11[0]
	}
	.loc	1 659 72                # /Users/rkn/Documents/xTIMEcomposer/workspace/module_usb_audio/audio.xc:659:72
	{
		bitrev r11, r11
		nop
	}
.Ltmp70:
	.loc	1 321 0                 # /Users/rkn/Documents/xTIMEcomposer/workspace/module_usb_audio/audio.xc:321:0
	ldw r9, dp[p_i2s_dac+12]
.Ltmp71:
	.loc	1 659 72                # /Users/rkn/Documents/xTIMEcomposer/workspace/module_usb_audio/audio.xc:659:72
.Lxta.endpoint_labels78:
	{
		out res[r9], r11
		add r11, r4, 7
	}
.Ltmp72:
	.loc	1 730 0                 # /Users/rkn/Documents/xTIMEcomposer/workspace/module_usb_audio/audio.xc:730:0
	{
		zext r11, 3
		nop
	}
.Ltmp73:
	.loc	1 328 0                 # /Users/rkn/Documents/xTIMEcomposer/workspace/module_usb_audio/audio.xc:328:0
	ldw r9, dp[p_i2s_adc]
.Ltmp74:
	.loc	1 727 0                 # /Users/rkn/Documents/xTIMEcomposer/workspace/module_usb_audio/audio.xc:727:0
	#APP
	in r9, res[r9]
	#NO_APP
.Ltmp75:
	#DEBUG_VALUE: sample <- R9
	bf r6, .LBB4_11
.Ltmp76:
# BB#28:                                # %LoopIncrement77.3
                                        #   in Loop: Header=BB4_7 Depth=2
.Lxtalabel12:
	#DEBUG_VALUE: deliver:divide <- 0
	#DEBUG_VALUE: deliver:curSamFreq <- 0
	#DEBUG_VALUE: readBuffNo <- 0
	#DEBUG_VALUE: underflowWord <- 0
	#DEBUG_VALUE: frameCount <- 0
	#DEBUG_VALUE: index <- 1
	#DEBUG_VALUE: sample <- R9
	.loc	1 730 0                 # /Users/rkn/Documents/xTIMEcomposer/workspace/module_usb_audio/audio.xc:730:0
	{
		bitrev r6, r9
		nop
	}
.Ltmp77:
	#DEBUG_VALUE: i <- 8
	.loc	1 730 0                 # /Users/rkn/Documents/xTIMEcomposer/workspace/module_usb_audio/audio.xc:730:0
	stw r6, r5[r11]
	{
		nop
		ldw r6, sp[9]
	}
	.loc	1 727 0                 # /Users/rkn/Documents/xTIMEcomposer/workspace/module_usb_audio/audio.xc:727:0
	#APP
	in r6, res[r6]
	#NO_APP
	{
		ldc r9, 8
		nop
	}
.Ltmp78:
	.loc	1 730 0                 # /Users/rkn/Documents/xTIMEcomposer/workspace/module_usb_audio/audio.xc:730:0
	{
		or r9, r11, r9
		bitrev r6, r6
	}
	.loc	1 730 0                 # /Users/rkn/Documents/xTIMEcomposer/workspace/module_usb_audio/audio.xc:730:0
	stw r6, r5[r9]
	{
		nop
		ldw r6, sp[8]
	}
	.loc	1 727 0                 # /Users/rkn/Documents/xTIMEcomposer/workspace/module_usb_audio/audio.xc:727:0
	#APP
	in r6, res[r6]
	#NO_APP
	{
		ldc r3, 16
		nop
	}
	.loc	1 730 0                 # /Users/rkn/Documents/xTIMEcomposer/workspace/module_usb_audio/audio.xc:730:0
	{
		or r9, r11, r3
		bitrev r6, r6
	}
	.loc	1 730 0                 # /Users/rkn/Documents/xTIMEcomposer/workspace/module_usb_audio/audio.xc:730:0
	stw r6, r5[r9]
	{
		nop
		ldw r3, sp[7]
	}
	.loc	1 727 0                 # /Users/rkn/Documents/xTIMEcomposer/workspace/module_usb_audio/audio.xc:727:0
	#APP
	in r6, res[r3]
	#NO_APP
	{
		ldc r3, 24
		nop
	}
	.loc	1 730 0                 # /Users/rkn/Documents/xTIMEcomposer/workspace/module_usb_audio/audio.xc:730:0
	{
		or r11, r11, r3
		bitrev r6, r6
	}
	.loc	1 730 0                 # /Users/rkn/Documents/xTIMEcomposer/workspace/module_usb_audio/audio.xc:730:0
	stw r6, r5[r11]
	bu .LBB4_12
.LBB4_11:                               # %LoopIncrement77.us.3
                                        #   in Loop: Header=BB4_7 Depth=2
.Lxtalabel13:
	#DEBUG_VALUE: deliver:divide <- 0
	#DEBUG_VALUE: deliver:curSamFreq <- 0
	#DEBUG_VALUE: readBuffNo <- 0
	#DEBUG_VALUE: underflowWord <- 0
	#DEBUG_VALUE: frameCount <- 0
	#DEBUG_VALUE: index <- 1
.Ltmp79:
	#DEBUG_VALUE: sample <- R9
	.loc	1 732 0                 # /Users/rkn/Documents/xTIMEcomposer/workspace/module_usb_audio/audio.xc:732:0
	{
		bitrev r6, r9
		nop
	}
	#DEBUG_VALUE: i <- 8
.Ltmp80:
	.loc	1 632 0                 # /Users/rkn/Documents/xTIMEcomposer/workspace/module_usb_audio/audio.xc:632:0
	ldaw r9, dp[samplesIn_0]
.Ltmp81:
	{
		mov r3, r9
		nop
	}
.Ltmp82:
	.loc	1 732 0                 # /Users/rkn/Documents/xTIMEcomposer/workspace/module_usb_audio/audio.xc:732:0
	stw r6, r3[r11]
	{
		nop
		ldw r6, sp[9]
	}
	.loc	1 727 0                 # /Users/rkn/Documents/xTIMEcomposer/workspace/module_usb_audio/audio.xc:727:0
	#APP
	in r6, res[r6]
	#NO_APP
	{
		ldc r9, 8
		nop
	}
	.loc	1 730 0                 # /Users/rkn/Documents/xTIMEcomposer/workspace/module_usb_audio/audio.xc:730:0
	{
		or r9, r11, r9
		bitrev r6, r6
	}
	.loc	1 732 0                 # /Users/rkn/Documents/xTIMEcomposer/workspace/module_usb_audio/audio.xc:732:0
	stw r6, r3[r9]
	{
		nop
		ldw r6, sp[8]
	}
	.loc	1 727 0                 # /Users/rkn/Documents/xTIMEcomposer/workspace/module_usb_audio/audio.xc:727:0
	#APP
	in r6, res[r6]
	#NO_APP
	{
		ldc r9, 16
		nop
	}
	.loc	1 730 0                 # /Users/rkn/Documents/xTIMEcomposer/workspace/module_usb_audio/audio.xc:730:0
	{
		or r9, r11, r9
		bitrev r6, r6
	}
	.loc	1 732 0                 # /Users/rkn/Documents/xTIMEcomposer/workspace/module_usb_audio/audio.xc:732:0
	stw r6, r3[r9]
	{
		nop
		ldw r6, sp[7]
	}
	.loc	1 727 0                 # /Users/rkn/Documents/xTIMEcomposer/workspace/module_usb_audio/audio.xc:727:0
	#APP
	in r6, res[r6]
	#NO_APP
	{
		ldc r9, 24
		nop
	}
	.loc	1 730 0                 # /Users/rkn/Documents/xTIMEcomposer/workspace/module_usb_audio/audio.xc:730:0
	{
		or r11, r11, r9
		bitrev r6, r6
	}
	.loc	1 732 0                 # /Users/rkn/Documents/xTIMEcomposer/workspace/module_usb_audio/audio.xc:732:0
	stw r6, r3[r11]
.Ltmp83:
.LBB4_12:                               # %ifdone70
                                        #   in Loop: Header=BB4_7 Depth=2
.Lxtalabel14:
	#DEBUG_VALUE: deliver:divide <- 0
	#DEBUG_VALUE: deliver:curSamFreq <- 0
	#DEBUG_VALUE: readBuffNo <- 0
	#DEBUG_VALUE: underflowWord <- 0
	#DEBUG_VALUE: frameCount <- 0
	#DEBUG_VALUE: index <- 1
	.loc	1 748 13                # /Users/rkn/Documents/xTIMEcomposer/workspace/module_usb_audio/audio.xc:748:13
	{
		eq r11, r1, 2
		mov r9, r10
	}
	bf r11, .LBB4_29
# BB#13:                                # %iftrue106
                                        #   in Loop: Header=BB4_7 Depth=2
.Lxtalabel15:
	#DEBUG_VALUE: deliver:divide <- 0
	#DEBUG_VALUE: deliver:curSamFreq <- 0
	#DEBUG_VALUE: readBuffNo <- 0
	#DEBUG_VALUE: underflowWord <- 0
	#DEBUG_VALUE: frameCount <- 0
	#DEBUG_VALUE: index <- 1
	ldw r3, cp[.LCPI4_1]
	.loc	1 749 38                # /Users/rkn/Documents/xTIMEcomposer/workspace/module_usb_audio/audio.xc:749:38
.Lxta.endpoint_labels79:
	{
		out res[r9], r3
		nop
	}
	bu .LBB4_14
.LBB4_29:                               # %iffalse112
                                        #   in Loop: Header=BB4_7 Depth=2
.Lxtalabel16:
	#DEBUG_VALUE: deliver:divide <- 0
	#DEBUG_VALUE: deliver:curSamFreq <- 0
	#DEBUG_VALUE: readBuffNo <- 0
	#DEBUG_VALUE: underflowWord <- 0
	#DEBUG_VALUE: frameCount <- 0
	#DEBUG_VALUE: index <- 1
	{
		ldc r11, 0
		nop
	}
	.loc	1 751 37                # /Users/rkn/Documents/xTIMEcomposer/workspace/module_usb_audio/audio.xc:751:37
.Lxta.endpoint_labels80:
	{
		out res[r9], r11
		nop
	}
.LBB4_14:                               # %LoopBody122.preheader
                                        #   in Loop: Header=BB4_7 Depth=2
.Lxtalabel17:
	#DEBUG_VALUE: deliver:divide <- 0
	#DEBUG_VALUE: deliver:curSamFreq <- 0
	#DEBUG_VALUE: readBuffNo <- 0
	#DEBUG_VALUE: underflowWord <- 0
	#DEBUG_VALUE: frameCount <- 0
	#DEBUG_VALUE: index <- 1
	{
		nop
		ldw r11, r7[1]
	}
	.loc	1 764 73                # /Users/rkn/Documents/xTIMEcomposer/workspace/module_usb_audio/audio.xc:764:73
.Ltmp84:
	{
		bitrev r11, r11
		nop
	}
.Ltmp85:
	.loc	1 321 0                 # /Users/rkn/Documents/xTIMEcomposer/workspace/module_usb_audio/audio.xc:321:0
	ldw r6, dp[p_i2s_dac]
.Ltmp86:
	#DEBUG_VALUE: i <- 9
	.loc	1 764 73                # /Users/rkn/Documents/xTIMEcomposer/workspace/module_usb_audio/audio.xc:764:73
.Lxta.endpoint_labels81:
	{
		out res[r6], r11
		ldw r11, r7[9]
	}
	.loc	1 764 73                # /Users/rkn/Documents/xTIMEcomposer/workspace/module_usb_audio/audio.xc:764:73
	{
		bitrev r11, r11
		nop
	}
.Ltmp87:
	.loc	1 321 0                 # /Users/rkn/Documents/xTIMEcomposer/workspace/module_usb_audio/audio.xc:321:0
	ldw r6, dp[p_i2s_dac+4]
.Ltmp88:
	.loc	1 764 73                # /Users/rkn/Documents/xTIMEcomposer/workspace/module_usb_audio/audio.xc:764:73
.Lxta.endpoint_labels82:
	{
		out res[r6], r11
		nop
	}
	ldc r3, 68
	{
		add r11, r2, r3
		nop
	}
	{
		nop
		ldw r11, r11[0]
	}
	.loc	1 764 73                # /Users/rkn/Documents/xTIMEcomposer/workspace/module_usb_audio/audio.xc:764:73
	{
		bitrev r11, r11
		nop
	}
.Ltmp89:
	.loc	1 321 0                 # /Users/rkn/Documents/xTIMEcomposer/workspace/module_usb_audio/audio.xc:321:0
	ldw r6, dp[p_i2s_dac+8]
.Ltmp90:
	.loc	1 764 73                # /Users/rkn/Documents/xTIMEcomposer/workspace/module_usb_audio/audio.xc:764:73
.Lxta.endpoint_labels83:
	{
		out res[r6], r11
		nop
	}
	ldc r11, 100
	{
		add r2, r2, r11
		nop
	}
	{
		nop
		ldw r2, r2[0]
	}
	.loc	1 764 73                # /Users/rkn/Documents/xTIMEcomposer/workspace/module_usb_audio/audio.xc:764:73
	{
		bitrev r2, r2
		nop
	}
.Ltmp91:
	.loc	1 321 0                 # /Users/rkn/Documents/xTIMEcomposer/workspace/module_usb_audio/audio.xc:321:0
	ldw r11, dp[p_i2s_dac+12]
.Ltmp92:
	#DEBUG_VALUE: frameCount <- R4
	.loc	1 764 73                # /Users/rkn/Documents/xTIMEcomposer/workspace/module_usb_audio/audio.xc:764:73
.Lxta.endpoint_labels84:
	{
		out res[r11], r2
		add r4, r4, 2
	}
.Ltmp93:
	.loc	1 824 9                 # /Users/rkn/Documents/xTIMEcomposer/workspace/module_usb_audio/audio.xc:824:9
	{
		add r8, r8, 8
		sub r1, r1, 2
	}
.xtaloop 4
	# LOOPMARKER 0
	bt r1, .LBB4_7
# BB#15:                                # %iftrue141
                                        #   in Loop: Header=BB4_6 Depth=1
.Lxtalabel18:
	#DEBUG_VALUE: deliver:divide <- 0
	#DEBUG_VALUE: deliver:curSamFreq <- 0
	#DEBUG_VALUE: readBuffNo <- 0
	#DEBUG_VALUE: underflowWord <- 0
	#DEBUG_VALUE: index <- 1
	{
		ldc r0, 0
		ldw r1, sp[5]
	}
	.loc	1 231 0                 # /Users/rkn/Documents/xTIMEcomposer/workspace/module_usb_audio/audio.xc:231:0
.Ltmp94:
	{
		out res[r1], r0
		nop
	}
	.loc	1 234 5                 # /Users/rkn/Documents/xTIMEcomposer/workspace/module_usb_audio/audio.xc:234:5
	{
		testct r0, res[r1]
		ldw r2, sp[6]
	}
.Ltmp95:
	.loc	1 830 13                # /Users/rkn/Documents/xTIMEcomposer/workspace/module_usb_audio/audio.xc:830:13
	bf r2, .LBB4_24
# BB#16:                                # %iftrue148
                                        #   in Loop: Header=BB4_6 Depth=1
.Lxtalabel19:
	#DEBUG_VALUE: deliver:divide <- 0
	#DEBUG_VALUE: deliver:curSamFreq <- 0
	#DEBUG_VALUE: readBuffNo <- 0
	#DEBUG_VALUE: underflowWord <- 0
	#DEBUG_VALUE: index <- 1
.Ltmp96:
	#DEBUG_VALUE: DoSampleTransfer:underflowWord <- 0
	bt r0, .LBB4_20
# BB#17:                                # %ifdone149.thread
                                        #   in Loop: Header=BB4_6 Depth=1
.Lxtalabel20:
	#DEBUG_VALUE: deliver:divide <- 0
	#DEBUG_VALUE: deliver:curSamFreq <- 0
	#DEBUG_VALUE: readBuffNo <- 0
	#DEBUG_VALUE: underflowWord <- 0
	#DEBUG_VALUE: index <- 1
	#DEBUG_VALUE: DoSampleTransfer:underflowWord <- 0
	.loc	1 265 0                 # /Users/rkn/Documents/xTIMEcomposer/workspace/module_usb_audio/audio.xc:265:0
.Ltmp97:
.Lxta.endpoint_labels85:
	{
		in r0, res[r1]
		nop
	}
.Ltmp98:
	#DEBUG_VALUE: tmp <- R0
	.loc	1 266 0                 # /Users/rkn/Documents/xTIMEcomposer/workspace/module_usb_audio/audio.xc:266:0
	stw r0, dp[samplesOut]
.Ltmp99:
	#DEBUG_VALUE: i <- 1
	.loc	1 265 0                 # /Users/rkn/Documents/xTIMEcomposer/workspace/module_usb_audio/audio.xc:265:0
.Lxta.endpoint_labels86:
	{
		in r0, res[r1]
		nop
	}
.Ltmp100:
	.loc	1 266 0                 # /Users/rkn/Documents/xTIMEcomposer/workspace/module_usb_audio/audio.xc:266:0
	stw r0, dp[samplesOut+4]
	.loc	1 265 0                 # /Users/rkn/Documents/xTIMEcomposer/workspace/module_usb_audio/audio.xc:265:0
.Lxta.endpoint_labels87:
	{
		in r0, res[r1]
		nop
	}
	.loc	1 266 0                 # /Users/rkn/Documents/xTIMEcomposer/workspace/module_usb_audio/audio.xc:266:0
	stw r0, dp[samplesOut+8]
	.loc	1 265 0                 # /Users/rkn/Documents/xTIMEcomposer/workspace/module_usb_audio/audio.xc:265:0
.Lxta.endpoint_labels88:
	{
		in r0, res[r1]
		nop
	}
	.loc	1 266 0                 # /Users/rkn/Documents/xTIMEcomposer/workspace/module_usb_audio/audio.xc:266:0
	stw r0, dp[samplesOut+12]
	.loc	1 265 0                 # /Users/rkn/Documents/xTIMEcomposer/workspace/module_usb_audio/audio.xc:265:0
.Lxta.endpoint_labels89:
	{
		in r0, res[r1]
		nop
	}
	.loc	1 266 0                 # /Users/rkn/Documents/xTIMEcomposer/workspace/module_usb_audio/audio.xc:266:0
	stw r0, dp[samplesOut+16]
	.loc	1 265 0                 # /Users/rkn/Documents/xTIMEcomposer/workspace/module_usb_audio/audio.xc:265:0
.Lxta.endpoint_labels90:
	{
		in r0, res[r1]
		nop
	}
	.loc	1 266 0                 # /Users/rkn/Documents/xTIMEcomposer/workspace/module_usb_audio/audio.xc:266:0
	stw r0, dp[samplesOut+20]
	.loc	1 265 0                 # /Users/rkn/Documents/xTIMEcomposer/workspace/module_usb_audio/audio.xc:265:0
.Lxta.endpoint_labels91:
	{
		in r0, res[r1]
		nop
	}
	.loc	1 266 0                 # /Users/rkn/Documents/xTIMEcomposer/workspace/module_usb_audio/audio.xc:266:0
	stw r0, dp[samplesOut+24]
	.loc	1 265 0                 # /Users/rkn/Documents/xTIMEcomposer/workspace/module_usb_audio/audio.xc:265:0
.Lxta.endpoint_labels92:
	{
		in r0, res[r1]
		nop
	}
	.loc	1 266 0                 # /Users/rkn/Documents/xTIMEcomposer/workspace/module_usb_audio/audio.xc:266:0
	stw r0, dp[samplesOut+28]
	.loc	1 265 0                 # /Users/rkn/Documents/xTIMEcomposer/workspace/module_usb_audio/audio.xc:265:0
.Lxta.endpoint_labels93:
	{
		in r0, res[r1]
		nop
	}
	.loc	1 266 0                 # /Users/rkn/Documents/xTIMEcomposer/workspace/module_usb_audio/audio.xc:266:0
	stw r0, dp[samplesOut+32]
	.loc	1 265 0                 # /Users/rkn/Documents/xTIMEcomposer/workspace/module_usb_audio/audio.xc:265:0
.Lxta.endpoint_labels94:
	{
		in r0, res[r1]
		nop
	}
	.loc	1 266 0                 # /Users/rkn/Documents/xTIMEcomposer/workspace/module_usb_audio/audio.xc:266:0
	stw r0, dp[samplesOut+36]
	.loc	1 265 0                 # /Users/rkn/Documents/xTIMEcomposer/workspace/module_usb_audio/audio.xc:265:0
.Lxta.endpoint_labels95:
	{
		in r0, res[r1]
		nop
	}
	.loc	1 266 0                 # /Users/rkn/Documents/xTIMEcomposer/workspace/module_usb_audio/audio.xc:266:0
	stw r0, dp[samplesOut+40]
	.loc	1 265 0                 # /Users/rkn/Documents/xTIMEcomposer/workspace/module_usb_audio/audio.xc:265:0
.Lxta.endpoint_labels96:
	{
		in r0, res[r1]
		nop
	}
	.loc	1 266 0                 # /Users/rkn/Documents/xTIMEcomposer/workspace/module_usb_audio/audio.xc:266:0
	stw r0, dp[samplesOut+44]
	.loc	1 265 0                 # /Users/rkn/Documents/xTIMEcomposer/workspace/module_usb_audio/audio.xc:265:0
.Lxta.endpoint_labels97:
	{
		in r0, res[r1]
		nop
	}
	.loc	1 266 0                 # /Users/rkn/Documents/xTIMEcomposer/workspace/module_usb_audio/audio.xc:266:0
	stw r0, dp[samplesOut+48]
	.loc	1 265 0                 # /Users/rkn/Documents/xTIMEcomposer/workspace/module_usb_audio/audio.xc:265:0
.Lxta.endpoint_labels98:
	{
		in r0, res[r1]
		nop
	}
	.loc	1 266 0                 # /Users/rkn/Documents/xTIMEcomposer/workspace/module_usb_audio/audio.xc:266:0
	stw r0, dp[samplesOut+52]
	.loc	1 265 0                 # /Users/rkn/Documents/xTIMEcomposer/workspace/module_usb_audio/audio.xc:265:0
.Lxta.endpoint_labels99:
	{
		in r0, res[r1]
		nop
	}
	.loc	1 266 0                 # /Users/rkn/Documents/xTIMEcomposer/workspace/module_usb_audio/audio.xc:266:0
	stw r0, dp[samplesOut+56]
	.loc	1 265 0                 # /Users/rkn/Documents/xTIMEcomposer/workspace/module_usb_audio/audio.xc:265:0
.Lxta.endpoint_labels100:
	{
		in r0, res[r1]
		nop
	}
	.loc	1 266 0                 # /Users/rkn/Documents/xTIMEcomposer/workspace/module_usb_audio/audio.xc:266:0
	stw r0, dp[samplesOut+60]
	.loc	1 265 0                 # /Users/rkn/Documents/xTIMEcomposer/workspace/module_usb_audio/audio.xc:265:0
.Lxta.endpoint_labels101:
	{
		in r0, res[r1]
		nop
	}
	.loc	1 266 0                 # /Users/rkn/Documents/xTIMEcomposer/workspace/module_usb_audio/audio.xc:266:0
	stw r0, dp[samplesOut+64]
	.loc	1 265 0                 # /Users/rkn/Documents/xTIMEcomposer/workspace/module_usb_audio/audio.xc:265:0
.Lxta.endpoint_labels102:
	{
		in r0, res[r1]
		nop
	}
	.loc	1 266 0                 # /Users/rkn/Documents/xTIMEcomposer/workspace/module_usb_audio/audio.xc:266:0
	stw r0, dp[samplesOut+68]
	.loc	1 265 0                 # /Users/rkn/Documents/xTIMEcomposer/workspace/module_usb_audio/audio.xc:265:0
.Lxta.endpoint_labels103:
	{
		in r0, res[r1]
		nop
	}
	.loc	1 266 0                 # /Users/rkn/Documents/xTIMEcomposer/workspace/module_usb_audio/audio.xc:266:0
	stw r0, dp[samplesOut+72]
	.loc	1 265 0                 # /Users/rkn/Documents/xTIMEcomposer/workspace/module_usb_audio/audio.xc:265:0
.Lxta.endpoint_labels104:
	{
		in r0, res[r1]
		nop
	}
	.loc	1 266 0                 # /Users/rkn/Documents/xTIMEcomposer/workspace/module_usb_audio/audio.xc:266:0
	stw r0, dp[samplesOut+76]
	.loc	1 265 0                 # /Users/rkn/Documents/xTIMEcomposer/workspace/module_usb_audio/audio.xc:265:0
.Lxta.endpoint_labels105:
	{
		in r0, res[r1]
		nop
	}
	.loc	1 266 0                 # /Users/rkn/Documents/xTIMEcomposer/workspace/module_usb_audio/audio.xc:266:0
	stw r0, dp[samplesOut+80]
	.loc	1 265 0                 # /Users/rkn/Documents/xTIMEcomposer/workspace/module_usb_audio/audio.xc:265:0
.Lxta.endpoint_labels106:
	{
		in r0, res[r1]
		nop
	}
	.loc	1 266 0                 # /Users/rkn/Documents/xTIMEcomposer/workspace/module_usb_audio/audio.xc:266:0
	stw r0, dp[samplesOut+84]
	.loc	1 265 0                 # /Users/rkn/Documents/xTIMEcomposer/workspace/module_usb_audio/audio.xc:265:0
.Lxta.endpoint_labels107:
	{
		in r0, res[r1]
		nop
	}
	.loc	1 266 0                 # /Users/rkn/Documents/xTIMEcomposer/workspace/module_usb_audio/audio.xc:266:0
	stw r0, dp[samplesOut+88]
	.loc	1 265 0                 # /Users/rkn/Documents/xTIMEcomposer/workspace/module_usb_audio/audio.xc:265:0
.Lxta.endpoint_labels108:
	{
		in r0, res[r1]
		nop
	}
	.loc	1 266 0                 # /Users/rkn/Documents/xTIMEcomposer/workspace/module_usb_audio/audio.xc:266:0
	stw r0, dp[samplesOut+92]
	.loc	1 265 0                 # /Users/rkn/Documents/xTIMEcomposer/workspace/module_usb_audio/audio.xc:265:0
.Lxta.endpoint_labels109:
	{
		in r0, res[r1]
		nop
	}
	.loc	1 266 0                 # /Users/rkn/Documents/xTIMEcomposer/workspace/module_usb_audio/audio.xc:266:0
	stw r0, dp[samplesOut+96]
	.loc	1 265 0                 # /Users/rkn/Documents/xTIMEcomposer/workspace/module_usb_audio/audio.xc:265:0
.Lxta.endpoint_labels110:
	{
		in r0, res[r1]
		nop
	}
	.loc	1 266 0                 # /Users/rkn/Documents/xTIMEcomposer/workspace/module_usb_audio/audio.xc:266:0
	stw r0, dp[samplesOut+100]
	.loc	1 265 0                 # /Users/rkn/Documents/xTIMEcomposer/workspace/module_usb_audio/audio.xc:265:0
.Lxta.endpoint_labels111:
	{
		in r0, res[r1]
		nop
	}
	.loc	1 266 0                 # /Users/rkn/Documents/xTIMEcomposer/workspace/module_usb_audio/audio.xc:266:0
	stw r0, dp[samplesOut+104]
	.loc	1 265 0                 # /Users/rkn/Documents/xTIMEcomposer/workspace/module_usb_audio/audio.xc:265:0
.Lxta.endpoint_labels112:
	{
		in r0, res[r1]
		nop
	}
	.loc	1 266 0                 # /Users/rkn/Documents/xTIMEcomposer/workspace/module_usb_audio/audio.xc:266:0
	stw r0, dp[samplesOut+108]
	.loc	1 265 0                 # /Users/rkn/Documents/xTIMEcomposer/workspace/module_usb_audio/audio.xc:265:0
.Lxta.endpoint_labels113:
	{
		in r0, res[r1]
		nop
	}
	.loc	1 266 0                 # /Users/rkn/Documents/xTIMEcomposer/workspace/module_usb_audio/audio.xc:266:0
	stw r0, dp[samplesOut+112]
	.loc	1 265 0                 # /Users/rkn/Documents/xTIMEcomposer/workspace/module_usb_audio/audio.xc:265:0
.Lxta.endpoint_labels114:
	{
		in r0, res[r1]
		nop
	}
	.loc	1 266 0                 # /Users/rkn/Documents/xTIMEcomposer/workspace/module_usb_audio/audio.xc:266:0
	stw r0, dp[samplesOut+116]
	.loc	1 265 0                 # /Users/rkn/Documents/xTIMEcomposer/workspace/module_usb_audio/audio.xc:265:0
.Lxta.endpoint_labels115:
	{
		in r0, res[r1]
		nop
	}
	.loc	1 266 0                 # /Users/rkn/Documents/xTIMEcomposer/workspace/module_usb_audio/audio.xc:266:0
	stw r0, dp[samplesOut+120]
	.loc	1 265 0                 # /Users/rkn/Documents/xTIMEcomposer/workspace/module_usb_audio/audio.xc:265:0
.Lxta.endpoint_labels116:
	{
		in r0, res[r1]
		nop
	}
	.loc	1 266 0                 # /Users/rkn/Documents/xTIMEcomposer/workspace/module_usb_audio/audio.xc:266:0
	stw r0, dp[samplesOut+124]
.Ltmp101:
	.loc	1 280 0                 # /Users/rkn/Documents/xTIMEcomposer/workspace/module_usb_audio/audio.xc:280:0
	ldw r0, dp[samplesIn_1]
	.loc	1 280 0                 # /Users/rkn/Documents/xTIMEcomposer/workspace/module_usb_audio/audio.xc:280:0
.Lxta.endpoint_labels117:
	{
		out res[r1], r0
		nop
	}
.Ltmp102:
	#DEBUG_VALUE: i <- 1
	.loc	1 280 0                 # /Users/rkn/Documents/xTIMEcomposer/workspace/module_usb_audio/audio.xc:280:0
	ldw r0, dp[samplesIn_1+4]
	.loc	1 280 0                 # /Users/rkn/Documents/xTIMEcomposer/workspace/module_usb_audio/audio.xc:280:0
.Lxta.endpoint_labels118:
	{
		out res[r1], r0
		nop
	}
	.loc	1 280 0                 # /Users/rkn/Documents/xTIMEcomposer/workspace/module_usb_audio/audio.xc:280:0
	ldw r0, dp[samplesIn_1+8]
	.loc	1 280 0                 # /Users/rkn/Documents/xTIMEcomposer/workspace/module_usb_audio/audio.xc:280:0
.Lxta.endpoint_labels119:
	{
		out res[r1], r0
		nop
	}
	.loc	1 280 0                 # /Users/rkn/Documents/xTIMEcomposer/workspace/module_usb_audio/audio.xc:280:0
	ldw r0, dp[samplesIn_1+12]
	.loc	1 280 0                 # /Users/rkn/Documents/xTIMEcomposer/workspace/module_usb_audio/audio.xc:280:0
.Lxta.endpoint_labels120:
	{
		out res[r1], r0
		nop
	}
	.loc	1 280 0                 # /Users/rkn/Documents/xTIMEcomposer/workspace/module_usb_audio/audio.xc:280:0
	ldw r0, dp[samplesIn_1+16]
	.loc	1 280 0                 # /Users/rkn/Documents/xTIMEcomposer/workspace/module_usb_audio/audio.xc:280:0
.Lxta.endpoint_labels121:
	{
		out res[r1], r0
		nop
	}
	.loc	1 280 0                 # /Users/rkn/Documents/xTIMEcomposer/workspace/module_usb_audio/audio.xc:280:0
	ldw r0, dp[samplesIn_1+20]
	.loc	1 280 0                 # /Users/rkn/Documents/xTIMEcomposer/workspace/module_usb_audio/audio.xc:280:0
.Lxta.endpoint_labels122:
	{
		out res[r1], r0
		nop
	}
	.loc	1 280 0                 # /Users/rkn/Documents/xTIMEcomposer/workspace/module_usb_audio/audio.xc:280:0
	ldw r0, dp[samplesIn_1+24]
	.loc	1 280 0                 # /Users/rkn/Documents/xTIMEcomposer/workspace/module_usb_audio/audio.xc:280:0
.Lxta.endpoint_labels123:
	{
		out res[r1], r0
		nop
	}
	.loc	1 280 0                 # /Users/rkn/Documents/xTIMEcomposer/workspace/module_usb_audio/audio.xc:280:0
	ldw r0, dp[samplesIn_1+28]
	.loc	1 280 0                 # /Users/rkn/Documents/xTIMEcomposer/workspace/module_usb_audio/audio.xc:280:0
.Lxta.endpoint_labels124:
	{
		out res[r1], r0
		nop
	}
	.loc	1 280 0                 # /Users/rkn/Documents/xTIMEcomposer/workspace/module_usb_audio/audio.xc:280:0
	ldw r0, dp[samplesIn_1+32]
	.loc	1 280 0                 # /Users/rkn/Documents/xTIMEcomposer/workspace/module_usb_audio/audio.xc:280:0
.Lxta.endpoint_labels125:
	{
		out res[r1], r0
		nop
	}
	.loc	1 280 0                 # /Users/rkn/Documents/xTIMEcomposer/workspace/module_usb_audio/audio.xc:280:0
	ldw r0, dp[samplesIn_1+36]
	.loc	1 280 0                 # /Users/rkn/Documents/xTIMEcomposer/workspace/module_usb_audio/audio.xc:280:0
.Lxta.endpoint_labels126:
	{
		out res[r1], r0
		nop
	}
	.loc	1 280 0                 # /Users/rkn/Documents/xTIMEcomposer/workspace/module_usb_audio/audio.xc:280:0
	ldw r0, dp[samplesIn_1+40]
	.loc	1 280 0                 # /Users/rkn/Documents/xTIMEcomposer/workspace/module_usb_audio/audio.xc:280:0
.Lxta.endpoint_labels127:
	{
		out res[r1], r0
		nop
	}
	.loc	1 280 0                 # /Users/rkn/Documents/xTIMEcomposer/workspace/module_usb_audio/audio.xc:280:0
	ldw r0, dp[samplesIn_1+44]
	.loc	1 280 0                 # /Users/rkn/Documents/xTIMEcomposer/workspace/module_usb_audio/audio.xc:280:0
.Lxta.endpoint_labels128:
	{
		out res[r1], r0
		nop
	}
	.loc	1 280 0                 # /Users/rkn/Documents/xTIMEcomposer/workspace/module_usb_audio/audio.xc:280:0
	ldw r0, dp[samplesIn_1+48]
	.loc	1 280 0                 # /Users/rkn/Documents/xTIMEcomposer/workspace/module_usb_audio/audio.xc:280:0
.Lxta.endpoint_labels129:
	{
		out res[r1], r0
		nop
	}
	.loc	1 280 0                 # /Users/rkn/Documents/xTIMEcomposer/workspace/module_usb_audio/audio.xc:280:0
	ldw r0, dp[samplesIn_1+52]
	.loc	1 280 0                 # /Users/rkn/Documents/xTIMEcomposer/workspace/module_usb_audio/audio.xc:280:0
.Lxta.endpoint_labels130:
	{
		out res[r1], r0
		nop
	}
	.loc	1 280 0                 # /Users/rkn/Documents/xTIMEcomposer/workspace/module_usb_audio/audio.xc:280:0
	ldw r0, dp[samplesIn_1+56]
	.loc	1 280 0                 # /Users/rkn/Documents/xTIMEcomposer/workspace/module_usb_audio/audio.xc:280:0
.Lxta.endpoint_labels131:
	{
		out res[r1], r0
		nop
	}
	.loc	1 280 0                 # /Users/rkn/Documents/xTIMEcomposer/workspace/module_usb_audio/audio.xc:280:0
	ldw r0, dp[samplesIn_1+60]
	.loc	1 280 0                 # /Users/rkn/Documents/xTIMEcomposer/workspace/module_usb_audio/audio.xc:280:0
.Lxta.endpoint_labels132:
	{
		out res[r1], r0
		nop
	}
	.loc	1 280 0                 # /Users/rkn/Documents/xTIMEcomposer/workspace/module_usb_audio/audio.xc:280:0
	ldw r0, dp[samplesIn_1+64]
	.loc	1 280 0                 # /Users/rkn/Documents/xTIMEcomposer/workspace/module_usb_audio/audio.xc:280:0
.Lxta.endpoint_labels133:
	{
		out res[r1], r0
		nop
	}
	.loc	1 280 0                 # /Users/rkn/Documents/xTIMEcomposer/workspace/module_usb_audio/audio.xc:280:0
	ldw r0, dp[samplesIn_1+68]
	.loc	1 280 0                 # /Users/rkn/Documents/xTIMEcomposer/workspace/module_usb_audio/audio.xc:280:0
.Lxta.endpoint_labels134:
	{
		out res[r1], r0
		nop
	}
	.loc	1 280 0                 # /Users/rkn/Documents/xTIMEcomposer/workspace/module_usb_audio/audio.xc:280:0
	ldw r0, dp[samplesIn_1+72]
	.loc	1 280 0                 # /Users/rkn/Documents/xTIMEcomposer/workspace/module_usb_audio/audio.xc:280:0
.Lxta.endpoint_labels135:
	{
		out res[r1], r0
		nop
	}
	.loc	1 280 0                 # /Users/rkn/Documents/xTIMEcomposer/workspace/module_usb_audio/audio.xc:280:0
	ldw r0, dp[samplesIn_1+76]
	.loc	1 280 0                 # /Users/rkn/Documents/xTIMEcomposer/workspace/module_usb_audio/audio.xc:280:0
.Lxta.endpoint_labels136:
	{
		out res[r1], r0
		nop
	}
	.loc	1 280 0                 # /Users/rkn/Documents/xTIMEcomposer/workspace/module_usb_audio/audio.xc:280:0
	ldw r0, dp[samplesIn_1+80]
	.loc	1 280 0                 # /Users/rkn/Documents/xTIMEcomposer/workspace/module_usb_audio/audio.xc:280:0
.Lxta.endpoint_labels137:
	{
		out res[r1], r0
		nop
	}
	.loc	1 280 0                 # /Users/rkn/Documents/xTIMEcomposer/workspace/module_usb_audio/audio.xc:280:0
	ldw r0, dp[samplesIn_1+84]
	.loc	1 280 0                 # /Users/rkn/Documents/xTIMEcomposer/workspace/module_usb_audio/audio.xc:280:0
.Lxta.endpoint_labels138:
	{
		out res[r1], r0
		nop
	}
	.loc	1 280 0                 # /Users/rkn/Documents/xTIMEcomposer/workspace/module_usb_audio/audio.xc:280:0
	ldw r0, dp[samplesIn_1+88]
	.loc	1 280 0                 # /Users/rkn/Documents/xTIMEcomposer/workspace/module_usb_audio/audio.xc:280:0
.Lxta.endpoint_labels139:
	{
		out res[r1], r0
		nop
	}
	.loc	1 280 0                 # /Users/rkn/Documents/xTIMEcomposer/workspace/module_usb_audio/audio.xc:280:0
	ldw r0, dp[samplesIn_1+92]
	.loc	1 280 0                 # /Users/rkn/Documents/xTIMEcomposer/workspace/module_usb_audio/audio.xc:280:0
.Lxta.endpoint_labels140:
	{
		out res[r1], r0
		nop
	}
	.loc	1 280 0                 # /Users/rkn/Documents/xTIMEcomposer/workspace/module_usb_audio/audio.xc:280:0
	ldw r0, dp[samplesIn_1+96]
	.loc	1 280 0                 # /Users/rkn/Documents/xTIMEcomposer/workspace/module_usb_audio/audio.xc:280:0
.Lxta.endpoint_labels141:
	{
		out res[r1], r0
		nop
	}
	.loc	1 280 0                 # /Users/rkn/Documents/xTIMEcomposer/workspace/module_usb_audio/audio.xc:280:0
	ldw r0, dp[samplesIn_1+100]
	.loc	1 280 0                 # /Users/rkn/Documents/xTIMEcomposer/workspace/module_usb_audio/audio.xc:280:0
.Lxta.endpoint_labels142:
	{
		out res[r1], r0
		nop
	}
	.loc	1 280 0                 # /Users/rkn/Documents/xTIMEcomposer/workspace/module_usb_audio/audio.xc:280:0
	ldw r0, dp[samplesIn_1+104]
	.loc	1 280 0                 # /Users/rkn/Documents/xTIMEcomposer/workspace/module_usb_audio/audio.xc:280:0
.Lxta.endpoint_labels143:
	{
		out res[r1], r0
		nop
	}
	.loc	1 280 0                 # /Users/rkn/Documents/xTIMEcomposer/workspace/module_usb_audio/audio.xc:280:0
	ldw r0, dp[samplesIn_1+108]
	.loc	1 280 0                 # /Users/rkn/Documents/xTIMEcomposer/workspace/module_usb_audio/audio.xc:280:0
.Lxta.endpoint_labels144:
	{
		out res[r1], r0
		nop
	}
	.loc	1 280 0                 # /Users/rkn/Documents/xTIMEcomposer/workspace/module_usb_audio/audio.xc:280:0
	ldw r0, dp[samplesIn_1+112]
	.loc	1 280 0                 # /Users/rkn/Documents/xTIMEcomposer/workspace/module_usb_audio/audio.xc:280:0
.Lxta.endpoint_labels145:
	{
		out res[r1], r0
		nop
	}
	.loc	1 280 0                 # /Users/rkn/Documents/xTIMEcomposer/workspace/module_usb_audio/audio.xc:280:0
	ldw r0, dp[samplesIn_1+116]
	.loc	1 280 0                 # /Users/rkn/Documents/xTIMEcomposer/workspace/module_usb_audio/audio.xc:280:0
.Lxta.endpoint_labels146:
	{
		out res[r1], r0
		nop
	}
	.loc	1 280 0                 # /Users/rkn/Documents/xTIMEcomposer/workspace/module_usb_audio/audio.xc:280:0
	ldw r0, dp[samplesIn_1+120]
	.loc	1 280 0                 # /Users/rkn/Documents/xTIMEcomposer/workspace/module_usb_audio/audio.xc:280:0
.Lxta.endpoint_labels147:
	{
		out res[r1], r0
		nop
	}
	.loc	1 280 0                 # /Users/rkn/Documents/xTIMEcomposer/workspace/module_usb_audio/audio.xc:280:0
	ldw r0, dp[samplesIn_1+124]
	bu .LBB4_18
.Ltmp103:
.LBB4_24:                               # %iffalse152
                                        #   in Loop: Header=BB4_6 Depth=1
.Lxtalabel21:
	#DEBUG_VALUE: deliver:divide <- 0
	#DEBUG_VALUE: deliver:curSamFreq <- 0
	#DEBUG_VALUE: readBuffNo <- 0
	#DEBUG_VALUE: underflowWord <- 0
	#DEBUG_VALUE: index <- 1
	#DEBUG_VALUE: DoSampleTransfer:underflowWord <- 0
	bf r0, .LBB4_25
.LBB4_20:                               # %iftrue.i49
                                        #   in Loop: Header=BB4_6 Depth=1
.Lxtalabel22:
	#DEBUG_VALUE: deliver:divide <- 0
	#DEBUG_VALUE: deliver:curSamFreq <- 0
	#DEBUG_VALUE: readBuffNo <- 0
	#DEBUG_VALUE: underflowWord <- 0
	#DEBUG_VALUE: index <- 1
	#DEBUG_VALUE: DoSampleTransfer:underflowWord <- 0
	.loc	1 236 0                 # /Users/rkn/Documents/xTIMEcomposer/workspace/module_usb_audio/audio.xc:236:0
.Ltmp104:
.Lxta.endpoint_labels148:
	{
		inct r3, res[r1]
		ldw r0, sp[4]
	}
	bt r0, .LBB4_22
# BB#21:                                # %iftrue3.i52
                                        #   in Loop: Header=BB4_6 Depth=1
.Lxtalabel23:
	#DEBUG_VALUE: deliver:divide <- 0
	#DEBUG_VALUE: deliver:curSamFreq <- 0
	#DEBUG_VALUE: readBuffNo <- 0
	#DEBUG_VALUE: underflowWord <- 0
	#DEBUG_VALUE: index <- 1
	#DEBUG_VALUE: DoSampleTransfer:underflowWord <- 0
	{
		ldc r0, 0
		nop
	}
	.loc	1 241 25                # /Users/rkn/Documents/xTIMEcomposer/workspace/module_usb_audio/audio.xc:241:25
.Lxta.endpoint_labels149:
	{
		out res[r9], r0
		nop
	}
.Ltmp105:
	.loc	1 242 24                # /Users/rkn/Documents/xTIMEcomposer/workspace/module_usb_audio/audio.xc:242:24
	ldw r1, dp[p_bclk]
.Ltmp106:
	.loc	1 242 24                # /Users/rkn/Documents/xTIMEcomposer/workspace/module_usb_audio/audio.xc:242:24
.Lxta.endpoint_labels150:
	{
		out res[r1], r0
		nop
	}
.Ltmp107:
.LBB4_22:                               # %ifdone149
                                        #   in Loop: Header=BB4_6 Depth=1
.Lxtalabel24:
	#DEBUG_VALUE: deliver:divide <- 0
	#DEBUG_VALUE: deliver:curSamFreq <- 0
	#DEBUG_VALUE: readBuffNo <- 0
	#DEBUG_VALUE: underflowWord <- 0
	#DEBUG_VALUE: index <- 1
	bf r3, .LBB4_19
	bu .LBB4_23
.LBB4_25:                               # %ifdone149.thread58
                                        #   in Loop: Header=BB4_6 Depth=1
.Lxtalabel25:
	#DEBUG_VALUE: deliver:divide <- 0
	#DEBUG_VALUE: deliver:curSamFreq <- 0
	#DEBUG_VALUE: readBuffNo <- 0
	#DEBUG_VALUE: underflowWord <- 0
	#DEBUG_VALUE: index <- 1
	#DEBUG_VALUE: DoSampleTransfer:underflowWord <- 0
	.loc	1 265 0                 # /Users/rkn/Documents/xTIMEcomposer/workspace/module_usb_audio/audio.xc:265:0
.Ltmp108:
.Lxta.endpoint_labels151:
	{
		in r0, res[r1]
		nop
	}
.Ltmp109:
	#DEBUG_VALUE: tmp <- R0
	.loc	1 266 0                 # /Users/rkn/Documents/xTIMEcomposer/workspace/module_usb_audio/audio.xc:266:0
	stw r0, dp[samplesOut]
.Ltmp110:
	#DEBUG_VALUE: i <- 1
	.loc	1 265 0                 # /Users/rkn/Documents/xTIMEcomposer/workspace/module_usb_audio/audio.xc:265:0
.Lxta.endpoint_labels152:
	{
		in r0, res[r1]
		nop
	}
.Ltmp111:
	.loc	1 266 0                 # /Users/rkn/Documents/xTIMEcomposer/workspace/module_usb_audio/audio.xc:266:0
	stw r0, dp[samplesOut+4]
	.loc	1 265 0                 # /Users/rkn/Documents/xTIMEcomposer/workspace/module_usb_audio/audio.xc:265:0
.Lxta.endpoint_labels153:
	{
		in r0, res[r1]
		nop
	}
	.loc	1 266 0                 # /Users/rkn/Documents/xTIMEcomposer/workspace/module_usb_audio/audio.xc:266:0
	stw r0, dp[samplesOut+8]
	.loc	1 265 0                 # /Users/rkn/Documents/xTIMEcomposer/workspace/module_usb_audio/audio.xc:265:0
.Lxta.endpoint_labels154:
	{
		in r0, res[r1]
		nop
	}
	.loc	1 266 0                 # /Users/rkn/Documents/xTIMEcomposer/workspace/module_usb_audio/audio.xc:266:0
	stw r0, dp[samplesOut+12]
	.loc	1 265 0                 # /Users/rkn/Documents/xTIMEcomposer/workspace/module_usb_audio/audio.xc:265:0
.Lxta.endpoint_labels155:
	{
		in r0, res[r1]
		nop
	}
	.loc	1 266 0                 # /Users/rkn/Documents/xTIMEcomposer/workspace/module_usb_audio/audio.xc:266:0
	stw r0, dp[samplesOut+16]
	.loc	1 265 0                 # /Users/rkn/Documents/xTIMEcomposer/workspace/module_usb_audio/audio.xc:265:0
.Lxta.endpoint_labels156:
	{
		in r0, res[r1]
		nop
	}
	.loc	1 266 0                 # /Users/rkn/Documents/xTIMEcomposer/workspace/module_usb_audio/audio.xc:266:0
	stw r0, dp[samplesOut+20]
	.loc	1 265 0                 # /Users/rkn/Documents/xTIMEcomposer/workspace/module_usb_audio/audio.xc:265:0
.Lxta.endpoint_labels157:
	{
		in r0, res[r1]
		nop
	}
	.loc	1 266 0                 # /Users/rkn/Documents/xTIMEcomposer/workspace/module_usb_audio/audio.xc:266:0
	stw r0, dp[samplesOut+24]
	.loc	1 265 0                 # /Users/rkn/Documents/xTIMEcomposer/workspace/module_usb_audio/audio.xc:265:0
.Lxta.endpoint_labels158:
	{
		in r0, res[r1]
		nop
	}
	.loc	1 266 0                 # /Users/rkn/Documents/xTIMEcomposer/workspace/module_usb_audio/audio.xc:266:0
	stw r0, dp[samplesOut+28]
	.loc	1 265 0                 # /Users/rkn/Documents/xTIMEcomposer/workspace/module_usb_audio/audio.xc:265:0
.Lxta.endpoint_labels159:
	{
		in r0, res[r1]
		nop
	}
	.loc	1 266 0                 # /Users/rkn/Documents/xTIMEcomposer/workspace/module_usb_audio/audio.xc:266:0
	stw r0, dp[samplesOut+32]
	.loc	1 265 0                 # /Users/rkn/Documents/xTIMEcomposer/workspace/module_usb_audio/audio.xc:265:0
.Lxta.endpoint_labels160:
	{
		in r0, res[r1]
		nop
	}
	.loc	1 266 0                 # /Users/rkn/Documents/xTIMEcomposer/workspace/module_usb_audio/audio.xc:266:0
	stw r0, dp[samplesOut+36]
	.loc	1 265 0                 # /Users/rkn/Documents/xTIMEcomposer/workspace/module_usb_audio/audio.xc:265:0
.Lxta.endpoint_labels161:
	{
		in r0, res[r1]
		nop
	}
	.loc	1 266 0                 # /Users/rkn/Documents/xTIMEcomposer/workspace/module_usb_audio/audio.xc:266:0
	stw r0, dp[samplesOut+40]
	.loc	1 265 0                 # /Users/rkn/Documents/xTIMEcomposer/workspace/module_usb_audio/audio.xc:265:0
.Lxta.endpoint_labels162:
	{
		in r0, res[r1]
		nop
	}
	.loc	1 266 0                 # /Users/rkn/Documents/xTIMEcomposer/workspace/module_usb_audio/audio.xc:266:0
	stw r0, dp[samplesOut+44]
	.loc	1 265 0                 # /Users/rkn/Documents/xTIMEcomposer/workspace/module_usb_audio/audio.xc:265:0
.Lxta.endpoint_labels163:
	{
		in r0, res[r1]
		nop
	}
	.loc	1 266 0                 # /Users/rkn/Documents/xTIMEcomposer/workspace/module_usb_audio/audio.xc:266:0
	stw r0, dp[samplesOut+48]
	.loc	1 265 0                 # /Users/rkn/Documents/xTIMEcomposer/workspace/module_usb_audio/audio.xc:265:0
.Lxta.endpoint_labels164:
	{
		in r0, res[r1]
		nop
	}
	.loc	1 266 0                 # /Users/rkn/Documents/xTIMEcomposer/workspace/module_usb_audio/audio.xc:266:0
	stw r0, dp[samplesOut+52]
	.loc	1 265 0                 # /Users/rkn/Documents/xTIMEcomposer/workspace/module_usb_audio/audio.xc:265:0
.Lxta.endpoint_labels165:
	{
		in r0, res[r1]
		nop
	}
	.loc	1 266 0                 # /Users/rkn/Documents/xTIMEcomposer/workspace/module_usb_audio/audio.xc:266:0
	stw r0, dp[samplesOut+56]
	.loc	1 265 0                 # /Users/rkn/Documents/xTIMEcomposer/workspace/module_usb_audio/audio.xc:265:0
.Lxta.endpoint_labels166:
	{
		in r0, res[r1]
		nop
	}
	.loc	1 266 0                 # /Users/rkn/Documents/xTIMEcomposer/workspace/module_usb_audio/audio.xc:266:0
	stw r0, dp[samplesOut+60]
	.loc	1 265 0                 # /Users/rkn/Documents/xTIMEcomposer/workspace/module_usb_audio/audio.xc:265:0
.Lxta.endpoint_labels167:
	{
		in r0, res[r1]
		nop
	}
	.loc	1 266 0                 # /Users/rkn/Documents/xTIMEcomposer/workspace/module_usb_audio/audio.xc:266:0
	stw r0, dp[samplesOut+64]
	.loc	1 265 0                 # /Users/rkn/Documents/xTIMEcomposer/workspace/module_usb_audio/audio.xc:265:0
.Lxta.endpoint_labels168:
	{
		in r0, res[r1]
		nop
	}
	.loc	1 266 0                 # /Users/rkn/Documents/xTIMEcomposer/workspace/module_usb_audio/audio.xc:266:0
	stw r0, dp[samplesOut+68]
	.loc	1 265 0                 # /Users/rkn/Documents/xTIMEcomposer/workspace/module_usb_audio/audio.xc:265:0
.Lxta.endpoint_labels169:
	{
		in r0, res[r1]
		nop
	}
	.loc	1 266 0                 # /Users/rkn/Documents/xTIMEcomposer/workspace/module_usb_audio/audio.xc:266:0
	stw r0, dp[samplesOut+72]
	.loc	1 265 0                 # /Users/rkn/Documents/xTIMEcomposer/workspace/module_usb_audio/audio.xc:265:0
.Lxta.endpoint_labels170:
	{
		in r0, res[r1]
		nop
	}
	.loc	1 266 0                 # /Users/rkn/Documents/xTIMEcomposer/workspace/module_usb_audio/audio.xc:266:0
	stw r0, dp[samplesOut+76]
	.loc	1 265 0                 # /Users/rkn/Documents/xTIMEcomposer/workspace/module_usb_audio/audio.xc:265:0
.Lxta.endpoint_labels171:
	{
		in r0, res[r1]
		nop
	}
	.loc	1 266 0                 # /Users/rkn/Documents/xTIMEcomposer/workspace/module_usb_audio/audio.xc:266:0
	stw r0, dp[samplesOut+80]
	.loc	1 265 0                 # /Users/rkn/Documents/xTIMEcomposer/workspace/module_usb_audio/audio.xc:265:0
.Lxta.endpoint_labels172:
	{
		in r0, res[r1]
		nop
	}
	.loc	1 266 0                 # /Users/rkn/Documents/xTIMEcomposer/workspace/module_usb_audio/audio.xc:266:0
	stw r0, dp[samplesOut+84]
	.loc	1 265 0                 # /Users/rkn/Documents/xTIMEcomposer/workspace/module_usb_audio/audio.xc:265:0
.Lxta.endpoint_labels173:
	{
		in r0, res[r1]
		nop
	}
	.loc	1 266 0                 # /Users/rkn/Documents/xTIMEcomposer/workspace/module_usb_audio/audio.xc:266:0
	stw r0, dp[samplesOut+88]
	.loc	1 265 0                 # /Users/rkn/Documents/xTIMEcomposer/workspace/module_usb_audio/audio.xc:265:0
.Lxta.endpoint_labels174:
	{
		in r0, res[r1]
		nop
	}
	.loc	1 266 0                 # /Users/rkn/Documents/xTIMEcomposer/workspace/module_usb_audio/audio.xc:266:0
	stw r0, dp[samplesOut+92]
	.loc	1 265 0                 # /Users/rkn/Documents/xTIMEcomposer/workspace/module_usb_audio/audio.xc:265:0
.Lxta.endpoint_labels175:
	{
		in r0, res[r1]
		nop
	}
	.loc	1 266 0                 # /Users/rkn/Documents/xTIMEcomposer/workspace/module_usb_audio/audio.xc:266:0
	stw r0, dp[samplesOut+96]
	.loc	1 265 0                 # /Users/rkn/Documents/xTIMEcomposer/workspace/module_usb_audio/audio.xc:265:0
.Lxta.endpoint_labels176:
	{
		in r0, res[r1]
		nop
	}
	.loc	1 266 0                 # /Users/rkn/Documents/xTIMEcomposer/workspace/module_usb_audio/audio.xc:266:0
	stw r0, dp[samplesOut+100]
	.loc	1 265 0                 # /Users/rkn/Documents/xTIMEcomposer/workspace/module_usb_audio/audio.xc:265:0
.Lxta.endpoint_labels177:
	{
		in r0, res[r1]
		nop
	}
	.loc	1 266 0                 # /Users/rkn/Documents/xTIMEcomposer/workspace/module_usb_audio/audio.xc:266:0
	stw r0, dp[samplesOut+104]
	.loc	1 265 0                 # /Users/rkn/Documents/xTIMEcomposer/workspace/module_usb_audio/audio.xc:265:0
.Lxta.endpoint_labels178:
	{
		in r0, res[r1]
		nop
	}
	.loc	1 266 0                 # /Users/rkn/Documents/xTIMEcomposer/workspace/module_usb_audio/audio.xc:266:0
	stw r0, dp[samplesOut+108]
	.loc	1 265 0                 # /Users/rkn/Documents/xTIMEcomposer/workspace/module_usb_audio/audio.xc:265:0
.Lxta.endpoint_labels179:
	{
		in r0, res[r1]
		nop
	}
	.loc	1 266 0                 # /Users/rkn/Documents/xTIMEcomposer/workspace/module_usb_audio/audio.xc:266:0
	stw r0, dp[samplesOut+112]
	.loc	1 265 0                 # /Users/rkn/Documents/xTIMEcomposer/workspace/module_usb_audio/audio.xc:265:0
.Lxta.endpoint_labels180:
	{
		in r0, res[r1]
		nop
	}
	.loc	1 266 0                 # /Users/rkn/Documents/xTIMEcomposer/workspace/module_usb_audio/audio.xc:266:0
	stw r0, dp[samplesOut+116]
	.loc	1 265 0                 # /Users/rkn/Documents/xTIMEcomposer/workspace/module_usb_audio/audio.xc:265:0
.Lxta.endpoint_labels181:
	{
		in r0, res[r1]
		nop
	}
	.loc	1 266 0                 # /Users/rkn/Documents/xTIMEcomposer/workspace/module_usb_audio/audio.xc:266:0
	stw r0, dp[samplesOut+120]
	.loc	1 265 0                 # /Users/rkn/Documents/xTIMEcomposer/workspace/module_usb_audio/audio.xc:265:0
.Lxta.endpoint_labels182:
	{
		in r0, res[r1]
		nop
	}
	.loc	1 266 0                 # /Users/rkn/Documents/xTIMEcomposer/workspace/module_usb_audio/audio.xc:266:0
	stw r0, dp[samplesOut+124]
.Ltmp112:
	.loc	1 282 0                 # /Users/rkn/Documents/xTIMEcomposer/workspace/module_usb_audio/audio.xc:282:0
	ldw r0, dp[samplesIn_0]
	.loc	1 282 0                 # /Users/rkn/Documents/xTIMEcomposer/workspace/module_usb_audio/audio.xc:282:0
.Lxta.endpoint_labels183:
	{
		out res[r1], r0
		nop
	}
.Ltmp113:
	#DEBUG_VALUE: i <- 1
	.loc	1 282 0                 # /Users/rkn/Documents/xTIMEcomposer/workspace/module_usb_audio/audio.xc:282:0
	ldw r0, dp[samplesIn_0+4]
	.loc	1 282 0                 # /Users/rkn/Documents/xTIMEcomposer/workspace/module_usb_audio/audio.xc:282:0
.Lxta.endpoint_labels184:
	{
		out res[r1], r0
		nop
	}
	.loc	1 282 0                 # /Users/rkn/Documents/xTIMEcomposer/workspace/module_usb_audio/audio.xc:282:0
	ldw r0, dp[samplesIn_0+8]
	.loc	1 282 0                 # /Users/rkn/Documents/xTIMEcomposer/workspace/module_usb_audio/audio.xc:282:0
.Lxta.endpoint_labels185:
	{
		out res[r1], r0
		nop
	}
	.loc	1 282 0                 # /Users/rkn/Documents/xTIMEcomposer/workspace/module_usb_audio/audio.xc:282:0
	ldw r0, dp[samplesIn_0+12]
	.loc	1 282 0                 # /Users/rkn/Documents/xTIMEcomposer/workspace/module_usb_audio/audio.xc:282:0
.Lxta.endpoint_labels186:
	{
		out res[r1], r0
		nop
	}
	.loc	1 282 0                 # /Users/rkn/Documents/xTIMEcomposer/workspace/module_usb_audio/audio.xc:282:0
	ldw r0, dp[samplesIn_0+16]
	.loc	1 282 0                 # /Users/rkn/Documents/xTIMEcomposer/workspace/module_usb_audio/audio.xc:282:0
.Lxta.endpoint_labels187:
	{
		out res[r1], r0
		nop
	}
	.loc	1 282 0                 # /Users/rkn/Documents/xTIMEcomposer/workspace/module_usb_audio/audio.xc:282:0
	ldw r0, dp[samplesIn_0+20]
	.loc	1 282 0                 # /Users/rkn/Documents/xTIMEcomposer/workspace/module_usb_audio/audio.xc:282:0
.Lxta.endpoint_labels188:
	{
		out res[r1], r0
		nop
	}
	.loc	1 282 0                 # /Users/rkn/Documents/xTIMEcomposer/workspace/module_usb_audio/audio.xc:282:0
	ldw r0, dp[samplesIn_0+24]
	.loc	1 282 0                 # /Users/rkn/Documents/xTIMEcomposer/workspace/module_usb_audio/audio.xc:282:0
.Lxta.endpoint_labels189:
	{
		out res[r1], r0
		nop
	}
	.loc	1 282 0                 # /Users/rkn/Documents/xTIMEcomposer/workspace/module_usb_audio/audio.xc:282:0
	ldw r0, dp[samplesIn_0+28]
	.loc	1 282 0                 # /Users/rkn/Documents/xTIMEcomposer/workspace/module_usb_audio/audio.xc:282:0
.Lxta.endpoint_labels190:
	{
		out res[r1], r0
		nop
	}
	.loc	1 282 0                 # /Users/rkn/Documents/xTIMEcomposer/workspace/module_usb_audio/audio.xc:282:0
	ldw r0, dp[samplesIn_0+32]
	.loc	1 282 0                 # /Users/rkn/Documents/xTIMEcomposer/workspace/module_usb_audio/audio.xc:282:0
.Lxta.endpoint_labels191:
	{
		out res[r1], r0
		nop
	}
	.loc	1 282 0                 # /Users/rkn/Documents/xTIMEcomposer/workspace/module_usb_audio/audio.xc:282:0
	ldw r0, dp[samplesIn_0+36]
	.loc	1 282 0                 # /Users/rkn/Documents/xTIMEcomposer/workspace/module_usb_audio/audio.xc:282:0
.Lxta.endpoint_labels192:
	{
		out res[r1], r0
		nop
	}
	.loc	1 282 0                 # /Users/rkn/Documents/xTIMEcomposer/workspace/module_usb_audio/audio.xc:282:0
	ldw r0, dp[samplesIn_0+40]
	.loc	1 282 0                 # /Users/rkn/Documents/xTIMEcomposer/workspace/module_usb_audio/audio.xc:282:0
.Lxta.endpoint_labels193:
	{
		out res[r1], r0
		nop
	}
	.loc	1 282 0                 # /Users/rkn/Documents/xTIMEcomposer/workspace/module_usb_audio/audio.xc:282:0
	ldw r0, dp[samplesIn_0+44]
	.loc	1 282 0                 # /Users/rkn/Documents/xTIMEcomposer/workspace/module_usb_audio/audio.xc:282:0
.Lxta.endpoint_labels194:
	{
		out res[r1], r0
		nop
	}
	.loc	1 282 0                 # /Users/rkn/Documents/xTIMEcomposer/workspace/module_usb_audio/audio.xc:282:0
	ldw r0, dp[samplesIn_0+48]
	.loc	1 282 0                 # /Users/rkn/Documents/xTIMEcomposer/workspace/module_usb_audio/audio.xc:282:0
.Lxta.endpoint_labels195:
	{
		out res[r1], r0
		nop
	}
	.loc	1 282 0                 # /Users/rkn/Documents/xTIMEcomposer/workspace/module_usb_audio/audio.xc:282:0
	ldw r0, dp[samplesIn_0+52]
	.loc	1 282 0                 # /Users/rkn/Documents/xTIMEcomposer/workspace/module_usb_audio/audio.xc:282:0
.Lxta.endpoint_labels196:
	{
		out res[r1], r0
		nop
	}
	.loc	1 282 0                 # /Users/rkn/Documents/xTIMEcomposer/workspace/module_usb_audio/audio.xc:282:0
	ldw r0, dp[samplesIn_0+56]
	.loc	1 282 0                 # /Users/rkn/Documents/xTIMEcomposer/workspace/module_usb_audio/audio.xc:282:0
.Lxta.endpoint_labels197:
	{
		out res[r1], r0
		nop
	}
	.loc	1 282 0                 # /Users/rkn/Documents/xTIMEcomposer/workspace/module_usb_audio/audio.xc:282:0
	ldw r0, dp[samplesIn_0+60]
	.loc	1 282 0                 # /Users/rkn/Documents/xTIMEcomposer/workspace/module_usb_audio/audio.xc:282:0
.Lxta.endpoint_labels198:
	{
		out res[r1], r0
		nop
	}
	.loc	1 282 0                 # /Users/rkn/Documents/xTIMEcomposer/workspace/module_usb_audio/audio.xc:282:0
	ldw r0, dp[samplesIn_0+64]
	.loc	1 282 0                 # /Users/rkn/Documents/xTIMEcomposer/workspace/module_usb_audio/audio.xc:282:0
.Lxta.endpoint_labels199:
	{
		out res[r1], r0
		nop
	}
	.loc	1 282 0                 # /Users/rkn/Documents/xTIMEcomposer/workspace/module_usb_audio/audio.xc:282:0
	ldw r0, dp[samplesIn_0+68]
	.loc	1 282 0                 # /Users/rkn/Documents/xTIMEcomposer/workspace/module_usb_audio/audio.xc:282:0
.Lxta.endpoint_labels200:
	{
		out res[r1], r0
		nop
	}
	.loc	1 282 0                 # /Users/rkn/Documents/xTIMEcomposer/workspace/module_usb_audio/audio.xc:282:0
	ldw r0, dp[samplesIn_0+72]
	.loc	1 282 0                 # /Users/rkn/Documents/xTIMEcomposer/workspace/module_usb_audio/audio.xc:282:0
.Lxta.endpoint_labels201:
	{
		out res[r1], r0
		nop
	}
	.loc	1 282 0                 # /Users/rkn/Documents/xTIMEcomposer/workspace/module_usb_audio/audio.xc:282:0
	ldw r0, dp[samplesIn_0+76]
	.loc	1 282 0                 # /Users/rkn/Documents/xTIMEcomposer/workspace/module_usb_audio/audio.xc:282:0
.Lxta.endpoint_labels202:
	{
		out res[r1], r0
		nop
	}
	.loc	1 282 0                 # /Users/rkn/Documents/xTIMEcomposer/workspace/module_usb_audio/audio.xc:282:0
	ldw r0, dp[samplesIn_0+80]
	.loc	1 282 0                 # /Users/rkn/Documents/xTIMEcomposer/workspace/module_usb_audio/audio.xc:282:0
.Lxta.endpoint_labels203:
	{
		out res[r1], r0
		nop
	}
	.loc	1 282 0                 # /Users/rkn/Documents/xTIMEcomposer/workspace/module_usb_audio/audio.xc:282:0
	ldw r0, dp[samplesIn_0+84]
	.loc	1 282 0                 # /Users/rkn/Documents/xTIMEcomposer/workspace/module_usb_audio/audio.xc:282:0
.Lxta.endpoint_labels204:
	{
		out res[r1], r0
		nop
	}
	.loc	1 282 0                 # /Users/rkn/Documents/xTIMEcomposer/workspace/module_usb_audio/audio.xc:282:0
	ldw r0, dp[samplesIn_0+88]
	.loc	1 282 0                 # /Users/rkn/Documents/xTIMEcomposer/workspace/module_usb_audio/audio.xc:282:0
.Lxta.endpoint_labels205:
	{
		out res[r1], r0
		nop
	}
	.loc	1 282 0                 # /Users/rkn/Documents/xTIMEcomposer/workspace/module_usb_audio/audio.xc:282:0
	ldw r0, dp[samplesIn_0+92]
	.loc	1 282 0                 # /Users/rkn/Documents/xTIMEcomposer/workspace/module_usb_audio/audio.xc:282:0
.Lxta.endpoint_labels206:
	{
		out res[r1], r0
		nop
	}
	.loc	1 282 0                 # /Users/rkn/Documents/xTIMEcomposer/workspace/module_usb_audio/audio.xc:282:0
	ldw r0, dp[samplesIn_0+96]
	.loc	1 282 0                 # /Users/rkn/Documents/xTIMEcomposer/workspace/module_usb_audio/audio.xc:282:0
.Lxta.endpoint_labels207:
	{
		out res[r1], r0
		nop
	}
	.loc	1 282 0                 # /Users/rkn/Documents/xTIMEcomposer/workspace/module_usb_audio/audio.xc:282:0
	ldw r0, dp[samplesIn_0+100]
	.loc	1 282 0                 # /Users/rkn/Documents/xTIMEcomposer/workspace/module_usb_audio/audio.xc:282:0
.Lxta.endpoint_labels208:
	{
		out res[r1], r0
		nop
	}
	.loc	1 282 0                 # /Users/rkn/Documents/xTIMEcomposer/workspace/module_usb_audio/audio.xc:282:0
	ldw r0, dp[samplesIn_0+104]
	.loc	1 282 0                 # /Users/rkn/Documents/xTIMEcomposer/workspace/module_usb_audio/audio.xc:282:0
.Lxta.endpoint_labels209:
	{
		out res[r1], r0
		nop
	}
	.loc	1 282 0                 # /Users/rkn/Documents/xTIMEcomposer/workspace/module_usb_audio/audio.xc:282:0
	ldw r0, dp[samplesIn_0+108]
	.loc	1 282 0                 # /Users/rkn/Documents/xTIMEcomposer/workspace/module_usb_audio/audio.xc:282:0
.Lxta.endpoint_labels210:
	{
		out res[r1], r0
		nop
	}
	.loc	1 282 0                 # /Users/rkn/Documents/xTIMEcomposer/workspace/module_usb_audio/audio.xc:282:0
	ldw r0, dp[samplesIn_0+112]
	.loc	1 282 0                 # /Users/rkn/Documents/xTIMEcomposer/workspace/module_usb_audio/audio.xc:282:0
.Lxta.endpoint_labels211:
	{
		out res[r1], r0
		nop
	}
	.loc	1 282 0                 # /Users/rkn/Documents/xTIMEcomposer/workspace/module_usb_audio/audio.xc:282:0
	ldw r0, dp[samplesIn_0+116]
	.loc	1 282 0                 # /Users/rkn/Documents/xTIMEcomposer/workspace/module_usb_audio/audio.xc:282:0
.Lxta.endpoint_labels212:
	{
		out res[r1], r0
		nop
	}
	.loc	1 282 0                 # /Users/rkn/Documents/xTIMEcomposer/workspace/module_usb_audio/audio.xc:282:0
	ldw r0, dp[samplesIn_0+120]
	.loc	1 282 0                 # /Users/rkn/Documents/xTIMEcomposer/workspace/module_usb_audio/audio.xc:282:0
.Lxta.endpoint_labels213:
	{
		out res[r1], r0
		nop
	}
	.loc	1 282 0                 # /Users/rkn/Documents/xTIMEcomposer/workspace/module_usb_audio/audio.xc:282:0
	ldw r0, dp[samplesIn_0+124]
.Ltmp114:
.LBB4_18:                               # %ifdone158
                                        #   in Loop: Header=BB4_6 Depth=1
.Lxtalabel26:
	.loc	1 280 0                 # /Users/rkn/Documents/xTIMEcomposer/workspace/module_usb_audio/audio.xc:280:0
.Lxta.endpoint_labels214:
	{
		out res[r1], r0
		nop
	}
	bu .LBB4_19
.Ltmp115:
.LBB4_23:                               # %return
	#DEBUG_VALUE: deliver:divide <- 0
	#DEBUG_VALUE: deliver:curSamFreq <- 0
	{
		mov r0, r3
		ldw r10, sp[16]
	}
	ldd r9, r8, sp[7]               # 4-byte Folded Reload
	ldd r7, r6, sp[6]               # 4-byte Folded Reload
	ldd r5, r4, sp[5]               # 4-byte Folded Reload
	{
		nop
		retsp 18
	}
	# RETURN_REG_HOLDER
	.cc_bottom deliver.function
	.set	deliver.nstackwords,18
	.set	deliver.maxcores,1
	.set	deliver.maxtimers,0
	.set	deliver.maxchanends,0
.Ltmp116:
	.size	deliver, .Ltmp116-deliver
.Lfunc_end4:
	.cfi_endproc

	.globl	testct_byref
	.align	4
	.type	testct_byref,@function
	.cc_top testct_byref.function,testct_byref
testct_byref:                           # @testct_byref
.Lfunc_begin5:
	.loc	1 880 0                 # /Users/rkn/Documents/xTIMEcomposer/workspace/module_usb_audio/audio.xc:880:0
	.cfi_startproc
	.issue_mode dual
# BB#0:                                 # %allocas
.Lxtalabel27:
	#DEBUG_VALUE: testct_byref:c <- R0
	#DEBUG_VALUE: testct_byref:returnVal <- R1
	{
		ldc r2, 0
		dualentsp 0
	}
	.loc	1 881 0 prologue_end    # /Users/rkn/Documents/xTIMEcomposer/workspace/module_usb_audio/audio.xc:881:0
.Ltmp117:
	{
		testct r0, res[r0]
		stw r2, r1[0]
	}
.Ltmp118:
	bf r0, .LBB5_2
.Ltmp119:
# BB#1:                                 # %iftrue
.Lxtalabel28:
	#DEBUG_VALUE: testct_byref:returnVal <- R1
	{
		mkmsk r0, 1
		nop
	}
	{
		nop
		stw r0, r1[0]
	}
.LBB5_2:                                # %return
.Lxtalabel29:
	{
		nop
		retsp 0
	}
	# RETURN_REG_HOLDER
	.cc_bottom testct_byref.function
	.set	testct_byref.nstackwords,0
	.globl	testct_byref.nstackwords
	.set	testct_byref.maxcores,1
	.globl	testct_byref.maxcores
	.set	testct_byref.maxtimers,0
	.globl	testct_byref.maxtimers
	.set	testct_byref.maxchanends,0
	.globl	testct_byref.maxchanends
.Ltmp120:
	.size	testct_byref, .Ltmp120-testct_byref
.Lfunc_end5:
	.cfi_endproc

	.align	4
	.type	dummy_deliver.init.1,@function
	.cc_top dummy_deliver.init.1.function,dummy_deliver.init.1
dummy_deliver.init.1:                   # @dummy_deliver.init.1
	.cfi_startproc
	.issue_mode dual
# BB#0:                                 # %allocas
	{
		nop
		dualentsp 0
	}
	#DEBUG_VALUE: dummy_deliver.init.1:dummy_deliver.init.1.state_ptr <- R0
	{
		nop
		ldw r1, r0[1]
	}
	bf r1, .LBB6_2
# BB#1:                                 # %iffalse
	#DEBUG_VALUE: dummy_deliver.init.1:dummy_deliver.init.1.state_ptr <- R0
	{
		ldc r1, 0
		nop
	}
	{
		mkmsk r1, 1
		stw r1, r0[1]
	}
	{
		nop
		stw r1, r0[0]
	}
.LBB6_2:                                # %return
	{
		nop
		retsp 0
	}
	# RETURN_REG_HOLDER
	.cc_bottom dummy_deliver.init.1.function
	.set	dummy_deliver.init.1.nstackwords,0
	.set	dummy_deliver.init.1.maxcores,1
	.set	dummy_deliver.init.1.maxtimers,0
	.set	dummy_deliver.init.1.maxchanends,0
.Ltmp121:
	.size	dummy_deliver.init.1, .Ltmp121-dummy_deliver.init.1
	.cfi_endproc

	.align	4
	.type	dummy_deliver.init.0,@function
	.cc_top dummy_deliver.init.0.function,dummy_deliver.init.0
dummy_deliver.init.0:                   # @dummy_deliver.init.0
	.cfi_startproc
	.issue_mode dual
# BB#0:                                 # %allocas
.Lxtalabel30:
	{
		nop
		dualentsp 0
	}
	#DEBUG_VALUE: dummy_deliver.init.0:dummy_deliver.init.0.state_ptr <- R0
	{
		nop
		stw r1, r0[2]
	}
	{
		ldc r1, 0
		stw r2, r0[3]
	}
	{
		nop
		stw r1, r0[0]
	}
	ldap r11, dummy_deliver.init.1
	{
		nop
		stw r11, r0[1]
	}
	{
		nop
		retsp 0
	}
	# RETURN_REG_HOLDER
	.cc_bottom dummy_deliver.init.0.function
	.set	dummy_deliver.init.0.nstackwords,0
	.set	dummy_deliver.init.0.maxcores,1
	.set	dummy_deliver.init.0.maxtimers,0
	.set	dummy_deliver.init.0.maxchanends,0
.Ltmp122:
	.size	dummy_deliver.init.0, .Ltmp122-dummy_deliver.init.0
	.cfi_endproc

	.align	4
	.type	dummy_deliver.select.yield.case.0,@function
	.cc_top dummy_deliver.select.yield.case.0.function,dummy_deliver.select.yield.case.0
dummy_deliver.select.yield.case.0:      # @dummy_deliver.select.yield.case.0
.Lfunc_begin8:
	.loc	1 897 0                 # /Users/rkn/Documents/xTIMEcomposer/workspace/module_usb_audio/audio.xc:897:0
	.cfi_startproc
	.issue_mode dual
# BB#0:                                 # %allocas
.Lxtalabel31:
	{
		get r11, ed
		dualentsp 0
	}
.Ltmp123:
	#DEBUG_VALUE: testct_byref:c <- R1
	.loc	1 897 0 prologue_end    # /Users/rkn/Documents/xTIMEcomposer/workspace/module_usb_audio/audio.xc:897:0
	{
		ldc r0, 0
		ldw r1, r11[2]
	}
.Ltmp124:
	.loc	1 881 0                 # /Users/rkn/Documents/xTIMEcomposer/workspace/module_usb_audio/audio.xc:881:0
	{
		testct r2, res[r1]
		stw r0, r11[4]
	}
	.loc	1 882 5                 # /Users/rkn/Documents/xTIMEcomposer/workspace/module_usb_audio/audio.xc:882:5
	bf r2, .LBB8_2
# BB#1:                                 # %iftrue
.Lxtalabel32:
.Ltmp125:
	#DEBUG_VALUE: testct_byref:c <- R1
	{
		mkmsk r2, 1
		nop
	}
	.loc	1 883 0                 # /Users/rkn/Documents/xTIMEcomposer/workspace/module_usb_audio/audio.xc:883:0
.Lxta.endpoint_labels215:
	{
		inct r1, res[r1]
		stw r2, r11[4]
	}
.Ltmp126:
	{
		nop
		stw r0, r11[0]
	}
	{
		nop
		retsp 0
	}
	# RETURN_REG_HOLDER
.Ltmp127:
.LBB8_2:                                # %afterboundcheck
.Lxtalabel33:
	.loc	1 910 0                 # /Users/rkn/Documents/xTIMEcomposer/workspace/module_usb_audio/audio.xc:910:0
.Lxta.endpoint_labels216:
	{
		in r1, res[r1]
		nop
	}
.Ltmp128:
	#DEBUG_VALUE: i <- 1
	#DEBUG_VALUE: tmp <- R1
	.loc	1 911 0                 # /Users/rkn/Documents/xTIMEcomposer/workspace/module_usb_audio/audio.xc:911:0
	stw r1, dp[samplesOut]
	{
		nop
		ldw r1, r11[2]
	}
.Ltmp129:
	.loc	1 910 0                 # /Users/rkn/Documents/xTIMEcomposer/workspace/module_usb_audio/audio.xc:910:0
.Lxta.endpoint_labels217:
	{
		in r1, res[r1]
		nop
	}
	.loc	1 911 0                 # /Users/rkn/Documents/xTIMEcomposer/workspace/module_usb_audio/audio.xc:911:0
	stw r1, dp[samplesOut+4]
	{
		nop
		ldw r1, r11[2]
	}
	.loc	1 910 0                 # /Users/rkn/Documents/xTIMEcomposer/workspace/module_usb_audio/audio.xc:910:0
.Lxta.endpoint_labels218:
	{
		in r1, res[r1]
		nop
	}
	.loc	1 911 0                 # /Users/rkn/Documents/xTIMEcomposer/workspace/module_usb_audio/audio.xc:911:0
	stw r1, dp[samplesOut+8]
	{
		nop
		ldw r1, r11[2]
	}
	.loc	1 910 0                 # /Users/rkn/Documents/xTIMEcomposer/workspace/module_usb_audio/audio.xc:910:0
.Lxta.endpoint_labels219:
	{
		in r1, res[r1]
		nop
	}
	.loc	1 911 0                 # /Users/rkn/Documents/xTIMEcomposer/workspace/module_usb_audio/audio.xc:911:0
	stw r1, dp[samplesOut+12]
	{
		nop
		ldw r1, r11[2]
	}
	.loc	1 910 0                 # /Users/rkn/Documents/xTIMEcomposer/workspace/module_usb_audio/audio.xc:910:0
.Lxta.endpoint_labels220:
	{
		in r1, res[r1]
		nop
	}
	.loc	1 911 0                 # /Users/rkn/Documents/xTIMEcomposer/workspace/module_usb_audio/audio.xc:911:0
	stw r1, dp[samplesOut+16]
	{
		nop
		ldw r1, r11[2]
	}
	.loc	1 910 0                 # /Users/rkn/Documents/xTIMEcomposer/workspace/module_usb_audio/audio.xc:910:0
.Lxta.endpoint_labels221:
	{
		in r1, res[r1]
		nop
	}
	.loc	1 911 0                 # /Users/rkn/Documents/xTIMEcomposer/workspace/module_usb_audio/audio.xc:911:0
	stw r1, dp[samplesOut+20]
	{
		nop
		ldw r1, r11[2]
	}
	.loc	1 910 0                 # /Users/rkn/Documents/xTIMEcomposer/workspace/module_usb_audio/audio.xc:910:0
.Lxta.endpoint_labels222:
	{
		in r1, res[r1]
		nop
	}
	.loc	1 911 0                 # /Users/rkn/Documents/xTIMEcomposer/workspace/module_usb_audio/audio.xc:911:0
	stw r1, dp[samplesOut+24]
	{
		nop
		ldw r1, r11[2]
	}
	.loc	1 910 0                 # /Users/rkn/Documents/xTIMEcomposer/workspace/module_usb_audio/audio.xc:910:0
.Lxta.endpoint_labels223:
	{
		in r1, res[r1]
		nop
	}
	.loc	1 911 0                 # /Users/rkn/Documents/xTIMEcomposer/workspace/module_usb_audio/audio.xc:911:0
	stw r1, dp[samplesOut+28]
	{
		nop
		ldw r1, r11[2]
	}
	.loc	1 910 0                 # /Users/rkn/Documents/xTIMEcomposer/workspace/module_usb_audio/audio.xc:910:0
.Lxta.endpoint_labels224:
	{
		in r1, res[r1]
		nop
	}
	.loc	1 911 0                 # /Users/rkn/Documents/xTIMEcomposer/workspace/module_usb_audio/audio.xc:911:0
	stw r1, dp[samplesOut+32]
	{
		nop
		ldw r1, r11[2]
	}
	.loc	1 910 0                 # /Users/rkn/Documents/xTIMEcomposer/workspace/module_usb_audio/audio.xc:910:0
.Lxta.endpoint_labels225:
	{
		in r1, res[r1]
		nop
	}
	.loc	1 911 0                 # /Users/rkn/Documents/xTIMEcomposer/workspace/module_usb_audio/audio.xc:911:0
	stw r1, dp[samplesOut+36]
	{
		nop
		ldw r1, r11[2]
	}
	.loc	1 910 0                 # /Users/rkn/Documents/xTIMEcomposer/workspace/module_usb_audio/audio.xc:910:0
.Lxta.endpoint_labels226:
	{
		in r1, res[r1]
		nop
	}
	.loc	1 911 0                 # /Users/rkn/Documents/xTIMEcomposer/workspace/module_usb_audio/audio.xc:911:0
	stw r1, dp[samplesOut+40]
	{
		nop
		ldw r1, r11[2]
	}
	.loc	1 910 0                 # /Users/rkn/Documents/xTIMEcomposer/workspace/module_usb_audio/audio.xc:910:0
.Lxta.endpoint_labels227:
	{
		in r1, res[r1]
		nop
	}
	.loc	1 911 0                 # /Users/rkn/Documents/xTIMEcomposer/workspace/module_usb_audio/audio.xc:911:0
	stw r1, dp[samplesOut+44]
	{
		nop
		ldw r1, r11[2]
	}
	.loc	1 910 0                 # /Users/rkn/Documents/xTIMEcomposer/workspace/module_usb_audio/audio.xc:910:0
.Lxta.endpoint_labels228:
	{
		in r1, res[r1]
		nop
	}
	.loc	1 911 0                 # /Users/rkn/Documents/xTIMEcomposer/workspace/module_usb_audio/audio.xc:911:0
	stw r1, dp[samplesOut+48]
	{
		nop
		ldw r1, r11[2]
	}
	.loc	1 910 0                 # /Users/rkn/Documents/xTIMEcomposer/workspace/module_usb_audio/audio.xc:910:0
.Lxta.endpoint_labels229:
	{
		in r1, res[r1]
		nop
	}
	.loc	1 911 0                 # /Users/rkn/Documents/xTIMEcomposer/workspace/module_usb_audio/audio.xc:911:0
	stw r1, dp[samplesOut+52]
	{
		nop
		ldw r1, r11[2]
	}
	.loc	1 910 0                 # /Users/rkn/Documents/xTIMEcomposer/workspace/module_usb_audio/audio.xc:910:0
.Lxta.endpoint_labels230:
	{
		in r1, res[r1]
		nop
	}
	.loc	1 911 0                 # /Users/rkn/Documents/xTIMEcomposer/workspace/module_usb_audio/audio.xc:911:0
	stw r1, dp[samplesOut+56]
	{
		nop
		ldw r1, r11[2]
	}
	.loc	1 910 0                 # /Users/rkn/Documents/xTIMEcomposer/workspace/module_usb_audio/audio.xc:910:0
.Lxta.endpoint_labels231:
	{
		in r1, res[r1]
		nop
	}
	.loc	1 911 0                 # /Users/rkn/Documents/xTIMEcomposer/workspace/module_usb_audio/audio.xc:911:0
	stw r1, dp[samplesOut+60]
	{
		nop
		ldw r1, r11[2]
	}
	.loc	1 910 0                 # /Users/rkn/Documents/xTIMEcomposer/workspace/module_usb_audio/audio.xc:910:0
.Lxta.endpoint_labels232:
	{
		in r1, res[r1]
		nop
	}
	.loc	1 911 0                 # /Users/rkn/Documents/xTIMEcomposer/workspace/module_usb_audio/audio.xc:911:0
	stw r1, dp[samplesOut+64]
	{
		nop
		ldw r1, r11[2]
	}
	.loc	1 910 0                 # /Users/rkn/Documents/xTIMEcomposer/workspace/module_usb_audio/audio.xc:910:0
.Lxta.endpoint_labels233:
	{
		in r1, res[r1]
		nop
	}
	.loc	1 911 0                 # /Users/rkn/Documents/xTIMEcomposer/workspace/module_usb_audio/audio.xc:911:0
	stw r1, dp[samplesOut+68]
	{
		nop
		ldw r1, r11[2]
	}
	.loc	1 910 0                 # /Users/rkn/Documents/xTIMEcomposer/workspace/module_usb_audio/audio.xc:910:0
.Lxta.endpoint_labels234:
	{
		in r1, res[r1]
		nop
	}
	.loc	1 911 0                 # /Users/rkn/Documents/xTIMEcomposer/workspace/module_usb_audio/audio.xc:911:0
	stw r1, dp[samplesOut+72]
	{
		nop
		ldw r1, r11[2]
	}
	.loc	1 910 0                 # /Users/rkn/Documents/xTIMEcomposer/workspace/module_usb_audio/audio.xc:910:0
.Lxta.endpoint_labels235:
	{
		in r1, res[r1]
		nop
	}
	.loc	1 911 0                 # /Users/rkn/Documents/xTIMEcomposer/workspace/module_usb_audio/audio.xc:911:0
	stw r1, dp[samplesOut+76]
	{
		nop
		ldw r1, r11[2]
	}
	.loc	1 910 0                 # /Users/rkn/Documents/xTIMEcomposer/workspace/module_usb_audio/audio.xc:910:0
.Lxta.endpoint_labels236:
	{
		in r1, res[r1]
		nop
	}
	.loc	1 911 0                 # /Users/rkn/Documents/xTIMEcomposer/workspace/module_usb_audio/audio.xc:911:0
	stw r1, dp[samplesOut+80]
	{
		nop
		ldw r1, r11[2]
	}
	.loc	1 910 0                 # /Users/rkn/Documents/xTIMEcomposer/workspace/module_usb_audio/audio.xc:910:0
.Lxta.endpoint_labels237:
	{
		in r1, res[r1]
		nop
	}
	.loc	1 911 0                 # /Users/rkn/Documents/xTIMEcomposer/workspace/module_usb_audio/audio.xc:911:0
	stw r1, dp[samplesOut+84]
	{
		nop
		ldw r1, r11[2]
	}
	.loc	1 910 0                 # /Users/rkn/Documents/xTIMEcomposer/workspace/module_usb_audio/audio.xc:910:0
.Lxta.endpoint_labels238:
	{
		in r1, res[r1]
		nop
	}
	.loc	1 911 0                 # /Users/rkn/Documents/xTIMEcomposer/workspace/module_usb_audio/audio.xc:911:0
	stw r1, dp[samplesOut+88]
	{
		nop
		ldw r1, r11[2]
	}
	.loc	1 910 0                 # /Users/rkn/Documents/xTIMEcomposer/workspace/module_usb_audio/audio.xc:910:0
.Lxta.endpoint_labels239:
	{
		in r1, res[r1]
		nop
	}
	.loc	1 911 0                 # /Users/rkn/Documents/xTIMEcomposer/workspace/module_usb_audio/audio.xc:911:0
	stw r1, dp[samplesOut+92]
	{
		nop
		ldw r1, r11[2]
	}
	.loc	1 910 0                 # /Users/rkn/Documents/xTIMEcomposer/workspace/module_usb_audio/audio.xc:910:0
.Lxta.endpoint_labels240:
	{
		in r1, res[r1]
		nop
	}
	.loc	1 911 0                 # /Users/rkn/Documents/xTIMEcomposer/workspace/module_usb_audio/audio.xc:911:0
	stw r1, dp[samplesOut+96]
	{
		nop
		ldw r1, r11[2]
	}
	.loc	1 910 0                 # /Users/rkn/Documents/xTIMEcomposer/workspace/module_usb_audio/audio.xc:910:0
.Lxta.endpoint_labels241:
	{
		in r1, res[r1]
		nop
	}
	.loc	1 911 0                 # /Users/rkn/Documents/xTIMEcomposer/workspace/module_usb_audio/audio.xc:911:0
	stw r1, dp[samplesOut+100]
	{
		nop
		ldw r1, r11[2]
	}
	.loc	1 910 0                 # /Users/rkn/Documents/xTIMEcomposer/workspace/module_usb_audio/audio.xc:910:0
.Lxta.endpoint_labels242:
	{
		in r1, res[r1]
		nop
	}
	.loc	1 911 0                 # /Users/rkn/Documents/xTIMEcomposer/workspace/module_usb_audio/audio.xc:911:0
	stw r1, dp[samplesOut+104]
	{
		nop
		ldw r1, r11[2]
	}
	.loc	1 910 0                 # /Users/rkn/Documents/xTIMEcomposer/workspace/module_usb_audio/audio.xc:910:0
.Lxta.endpoint_labels243:
	{
		in r1, res[r1]
		nop
	}
	.loc	1 911 0                 # /Users/rkn/Documents/xTIMEcomposer/workspace/module_usb_audio/audio.xc:911:0
	stw r1, dp[samplesOut+108]
	{
		nop
		ldw r1, r11[2]
	}
	.loc	1 910 0                 # /Users/rkn/Documents/xTIMEcomposer/workspace/module_usb_audio/audio.xc:910:0
.Lxta.endpoint_labels244:
	{
		in r1, res[r1]
		nop
	}
	.loc	1 911 0                 # /Users/rkn/Documents/xTIMEcomposer/workspace/module_usb_audio/audio.xc:911:0
	stw r1, dp[samplesOut+112]
	{
		nop
		ldw r1, r11[2]
	}
	.loc	1 910 0                 # /Users/rkn/Documents/xTIMEcomposer/workspace/module_usb_audio/audio.xc:910:0
.Lxta.endpoint_labels245:
	{
		in r1, res[r1]
		nop
	}
	.loc	1 911 0                 # /Users/rkn/Documents/xTIMEcomposer/workspace/module_usb_audio/audio.xc:911:0
	stw r1, dp[samplesOut+116]
	{
		nop
		ldw r1, r11[2]
	}
	.loc	1 910 0                 # /Users/rkn/Documents/xTIMEcomposer/workspace/module_usb_audio/audio.xc:910:0
.Lxta.endpoint_labels246:
	{
		in r1, res[r1]
		nop
	}
	.loc	1 911 0                 # /Users/rkn/Documents/xTIMEcomposer/workspace/module_usb_audio/audio.xc:911:0
	stw r1, dp[samplesOut+120]
	{
		nop
		ldw r1, r11[2]
	}
	.loc	1 910 0                 # /Users/rkn/Documents/xTIMEcomposer/workspace/module_usb_audio/audio.xc:910:0
.Lxta.endpoint_labels247:
	{
		in r1, res[r1]
		nop
	}
	.loc	1 911 0                 # /Users/rkn/Documents/xTIMEcomposer/workspace/module_usb_audio/audio.xc:911:0
	stw r1, dp[samplesOut+124]
	{
		nop
		ldw r1, r11[2]
	}
.Ltmp130:
	.loc	1 921 0                 # /Users/rkn/Documents/xTIMEcomposer/workspace/module_usb_audio/audio.xc:921:0
.Lxta.endpoint_labels248:
	{
		out res[r1], r0
		nop
	}
.Ltmp131:
	#DEBUG_VALUE: i <- 1
	.loc	1 921 0                 # /Users/rkn/Documents/xTIMEcomposer/workspace/module_usb_audio/audio.xc:921:0
.Lxta.endpoint_labels249:
	{
		out res[r1], r0
		nop
	}
	.loc	1 921 0                 # /Users/rkn/Documents/xTIMEcomposer/workspace/module_usb_audio/audio.xc:921:0
.Lxta.endpoint_labels250:
	{
		out res[r1], r0
		nop
	}
	.loc	1 921 0                 # /Users/rkn/Documents/xTIMEcomposer/workspace/module_usb_audio/audio.xc:921:0
.Lxta.endpoint_labels251:
	{
		out res[r1], r0
		nop
	}
	.loc	1 921 0                 # /Users/rkn/Documents/xTIMEcomposer/workspace/module_usb_audio/audio.xc:921:0
.Lxta.endpoint_labels252:
	{
		out res[r1], r0
		nop
	}
	.loc	1 921 0                 # /Users/rkn/Documents/xTIMEcomposer/workspace/module_usb_audio/audio.xc:921:0
.Lxta.endpoint_labels253:
	{
		out res[r1], r0
		nop
	}
	.loc	1 921 0                 # /Users/rkn/Documents/xTIMEcomposer/workspace/module_usb_audio/audio.xc:921:0
.Lxta.endpoint_labels254:
	{
		out res[r1], r0
		nop
	}
	.loc	1 921 0                 # /Users/rkn/Documents/xTIMEcomposer/workspace/module_usb_audio/audio.xc:921:0
.Lxta.endpoint_labels255:
	{
		out res[r1], r0
		nop
	}
	.loc	1 921 0                 # /Users/rkn/Documents/xTIMEcomposer/workspace/module_usb_audio/audio.xc:921:0
.Lxta.endpoint_labels256:
	{
		out res[r1], r0
		nop
	}
	.loc	1 921 0                 # /Users/rkn/Documents/xTIMEcomposer/workspace/module_usb_audio/audio.xc:921:0
.Lxta.endpoint_labels257:
	{
		out res[r1], r0
		nop
	}
	.loc	1 921 0                 # /Users/rkn/Documents/xTIMEcomposer/workspace/module_usb_audio/audio.xc:921:0
.Lxta.endpoint_labels258:
	{
		out res[r1], r0
		nop
	}
	.loc	1 921 0                 # /Users/rkn/Documents/xTIMEcomposer/workspace/module_usb_audio/audio.xc:921:0
.Lxta.endpoint_labels259:
	{
		out res[r1], r0
		nop
	}
	.loc	1 921 0                 # /Users/rkn/Documents/xTIMEcomposer/workspace/module_usb_audio/audio.xc:921:0
.Lxta.endpoint_labels260:
	{
		out res[r1], r0
		nop
	}
	.loc	1 921 0                 # /Users/rkn/Documents/xTIMEcomposer/workspace/module_usb_audio/audio.xc:921:0
.Lxta.endpoint_labels261:
	{
		out res[r1], r0
		nop
	}
	.loc	1 921 0                 # /Users/rkn/Documents/xTIMEcomposer/workspace/module_usb_audio/audio.xc:921:0
.Lxta.endpoint_labels262:
	{
		out res[r1], r0
		nop
	}
	.loc	1 921 0                 # /Users/rkn/Documents/xTIMEcomposer/workspace/module_usb_audio/audio.xc:921:0
.Lxta.endpoint_labels263:
	{
		out res[r1], r0
		nop
	}
	.loc	1 921 0                 # /Users/rkn/Documents/xTIMEcomposer/workspace/module_usb_audio/audio.xc:921:0
.Lxta.endpoint_labels264:
	{
		out res[r1], r0
		nop
	}
	.loc	1 921 0                 # /Users/rkn/Documents/xTIMEcomposer/workspace/module_usb_audio/audio.xc:921:0
.Lxta.endpoint_labels265:
	{
		out res[r1], r0
		nop
	}
	.loc	1 921 0                 # /Users/rkn/Documents/xTIMEcomposer/workspace/module_usb_audio/audio.xc:921:0
.Lxta.endpoint_labels266:
	{
		out res[r1], r0
		nop
	}
	.loc	1 921 0                 # /Users/rkn/Documents/xTIMEcomposer/workspace/module_usb_audio/audio.xc:921:0
.Lxta.endpoint_labels267:
	{
		out res[r1], r0
		nop
	}
	.loc	1 921 0                 # /Users/rkn/Documents/xTIMEcomposer/workspace/module_usb_audio/audio.xc:921:0
.Lxta.endpoint_labels268:
	{
		out res[r1], r0
		nop
	}
	.loc	1 921 0                 # /Users/rkn/Documents/xTIMEcomposer/workspace/module_usb_audio/audio.xc:921:0
.Lxta.endpoint_labels269:
	{
		out res[r1], r0
		nop
	}
	.loc	1 921 0                 # /Users/rkn/Documents/xTIMEcomposer/workspace/module_usb_audio/audio.xc:921:0
.Lxta.endpoint_labels270:
	{
		out res[r1], r0
		nop
	}
	.loc	1 921 0                 # /Users/rkn/Documents/xTIMEcomposer/workspace/module_usb_audio/audio.xc:921:0
.Lxta.endpoint_labels271:
	{
		out res[r1], r0
		nop
	}
	.loc	1 921 0                 # /Users/rkn/Documents/xTIMEcomposer/workspace/module_usb_audio/audio.xc:921:0
.Lxta.endpoint_labels272:
	{
		out res[r1], r0
		nop
	}
	.loc	1 921 0                 # /Users/rkn/Documents/xTIMEcomposer/workspace/module_usb_audio/audio.xc:921:0
.Lxta.endpoint_labels273:
	{
		out res[r1], r0
		nop
	}
	.loc	1 921 0                 # /Users/rkn/Documents/xTIMEcomposer/workspace/module_usb_audio/audio.xc:921:0
.Lxta.endpoint_labels274:
	{
		out res[r1], r0
		nop
	}
	.loc	1 921 0                 # /Users/rkn/Documents/xTIMEcomposer/workspace/module_usb_audio/audio.xc:921:0
.Lxta.endpoint_labels275:
	{
		out res[r1], r0
		nop
	}
	.loc	1 921 0                 # /Users/rkn/Documents/xTIMEcomposer/workspace/module_usb_audio/audio.xc:921:0
.Lxta.endpoint_labels276:
	{
		out res[r1], r0
		nop
	}
	.loc	1 921 0                 # /Users/rkn/Documents/xTIMEcomposer/workspace/module_usb_audio/audio.xc:921:0
.Lxta.endpoint_labels277:
	{
		out res[r1], r0
		nop
	}
	.loc	1 921 0                 # /Users/rkn/Documents/xTIMEcomposer/workspace/module_usb_audio/audio.xc:921:0
.Lxta.endpoint_labels278:
	{
		out res[r1], r0
		nop
	}
	.loc	1 921 0                 # /Users/rkn/Documents/xTIMEcomposer/workspace/module_usb_audio/audio.xc:921:0
.Lxta.endpoint_labels279:
	{
		out res[r1], r0
		nop
	}
.Ltmp132:
	.loc	1 926 0                 # /Users/rkn/Documents/xTIMEcomposer/workspace/module_usb_audio/audio.xc:926:0
.Lxta.endpoint_labels280:
	{
		out res[r1], r0
		retsp 0
	}
	# RETURN_REG_HOLDER
.Ltmp133:
	.cc_bottom dummy_deliver.select.yield.case.0.function
	.set	dummy_deliver.select.yield.case.0.nstackwords,0
	.set	dummy_deliver.select.yield.case.0.maxcores,1
	.set	dummy_deliver.select.yield.case.0.maxtimers,0
	.set	dummy_deliver.select.yield.case.0.maxchanends,0
.Ltmp134:
	.size	dummy_deliver.select.yield.case.0, .Ltmp134-dummy_deliver.select.yield.case.0
.Lfunc_end8:
	.cfi_endproc

	.align	4
	.type	dummy_deliver.select.case.0,@function
	.cc_top dummy_deliver.select.case.0.function,dummy_deliver.select.case.0
dummy_deliver.select.case.0:            # @dummy_deliver.select.case.0
.Lfunc_begin9:
	.loc	1 897 0                 # /Users/rkn/Documents/xTIMEcomposer/workspace/module_usb_audio/audio.xc:897:0
	.cfi_startproc
	.issue_mode dual
# BB#0:                                 # %allocas
.Lxtalabel34:
	{
		get r11, ed
		dualentsp 0
	}
.Ltmp135:
	#DEBUG_VALUE: testct_byref:c <- R1
	.loc	1 897 0 prologue_end    # /Users/rkn/Documents/xTIMEcomposer/workspace/module_usb_audio/audio.xc:897:0
	{
		ldc r0, 0
		ldw r1, r11[2]
	}
.Ltmp136:
	.loc	1 881 0                 # /Users/rkn/Documents/xTIMEcomposer/workspace/module_usb_audio/audio.xc:881:0
	{
		testct r2, res[r1]
		stw r0, r11[4]
	}
	.loc	1 882 5                 # /Users/rkn/Documents/xTIMEcomposer/workspace/module_usb_audio/audio.xc:882:5
	bf r2, .LBB9_2
# BB#1:                                 # %iftrue
.Lxtalabel35:
.Ltmp137:
	#DEBUG_VALUE: testct_byref:c <- R1
	{
		mkmsk r2, 1
		nop
	}
	.loc	1 883 0                 # /Users/rkn/Documents/xTIMEcomposer/workspace/module_usb_audio/audio.xc:883:0
.Lxta.endpoint_labels281:
	{
		inct r1, res[r1]
		stw r2, r11[4]
	}
.Ltmp138:
	{
		nop
		stw r0, r11[0]
	}
	{
		nop
		retsp 0
	}
	# RETURN_REG_HOLDER
.Ltmp139:
.LBB9_2:                                # %afterboundcheck
.Lxtalabel36:
	.loc	1 910 0                 # /Users/rkn/Documents/xTIMEcomposer/workspace/module_usb_audio/audio.xc:910:0
.Lxta.endpoint_labels282:
	{
		in r1, res[r1]
		nop
	}
.Ltmp140:
	#DEBUG_VALUE: i <- 1
	#DEBUG_VALUE: tmp <- R1
	.loc	1 911 0                 # /Users/rkn/Documents/xTIMEcomposer/workspace/module_usb_audio/audio.xc:911:0
	stw r1, dp[samplesOut]
	{
		nop
		ldw r1, r11[2]
	}
.Ltmp141:
	.loc	1 910 0                 # /Users/rkn/Documents/xTIMEcomposer/workspace/module_usb_audio/audio.xc:910:0
.Lxta.endpoint_labels283:
	{
		in r1, res[r1]
		nop
	}
	.loc	1 911 0                 # /Users/rkn/Documents/xTIMEcomposer/workspace/module_usb_audio/audio.xc:911:0
	stw r1, dp[samplesOut+4]
	{
		nop
		ldw r1, r11[2]
	}
	.loc	1 910 0                 # /Users/rkn/Documents/xTIMEcomposer/workspace/module_usb_audio/audio.xc:910:0
.Lxta.endpoint_labels284:
	{
		in r1, res[r1]
		nop
	}
	.loc	1 911 0                 # /Users/rkn/Documents/xTIMEcomposer/workspace/module_usb_audio/audio.xc:911:0
	stw r1, dp[samplesOut+8]
	{
		nop
		ldw r1, r11[2]
	}
	.loc	1 910 0                 # /Users/rkn/Documents/xTIMEcomposer/workspace/module_usb_audio/audio.xc:910:0
.Lxta.endpoint_labels285:
	{
		in r1, res[r1]
		nop
	}
	.loc	1 911 0                 # /Users/rkn/Documents/xTIMEcomposer/workspace/module_usb_audio/audio.xc:911:0
	stw r1, dp[samplesOut+12]
	{
		nop
		ldw r1, r11[2]
	}
	.loc	1 910 0                 # /Users/rkn/Documents/xTIMEcomposer/workspace/module_usb_audio/audio.xc:910:0
.Lxta.endpoint_labels286:
	{
		in r1, res[r1]
		nop
	}
	.loc	1 911 0                 # /Users/rkn/Documents/xTIMEcomposer/workspace/module_usb_audio/audio.xc:911:0
	stw r1, dp[samplesOut+16]
	{
		nop
		ldw r1, r11[2]
	}
	.loc	1 910 0                 # /Users/rkn/Documents/xTIMEcomposer/workspace/module_usb_audio/audio.xc:910:0
.Lxta.endpoint_labels287:
	{
		in r1, res[r1]
		nop
	}
	.loc	1 911 0                 # /Users/rkn/Documents/xTIMEcomposer/workspace/module_usb_audio/audio.xc:911:0
	stw r1, dp[samplesOut+20]
	{
		nop
		ldw r1, r11[2]
	}
	.loc	1 910 0                 # /Users/rkn/Documents/xTIMEcomposer/workspace/module_usb_audio/audio.xc:910:0
.Lxta.endpoint_labels288:
	{
		in r1, res[r1]
		nop
	}
	.loc	1 911 0                 # /Users/rkn/Documents/xTIMEcomposer/workspace/module_usb_audio/audio.xc:911:0
	stw r1, dp[samplesOut+24]
	{
		nop
		ldw r1, r11[2]
	}
	.loc	1 910 0                 # /Users/rkn/Documents/xTIMEcomposer/workspace/module_usb_audio/audio.xc:910:0
.Lxta.endpoint_labels289:
	{
		in r1, res[r1]
		nop
	}
	.loc	1 911 0                 # /Users/rkn/Documents/xTIMEcomposer/workspace/module_usb_audio/audio.xc:911:0
	stw r1, dp[samplesOut+28]
	{
		nop
		ldw r1, r11[2]
	}
	.loc	1 910 0                 # /Users/rkn/Documents/xTIMEcomposer/workspace/module_usb_audio/audio.xc:910:0
.Lxta.endpoint_labels290:
	{
		in r1, res[r1]
		nop
	}
	.loc	1 911 0                 # /Users/rkn/Documents/xTIMEcomposer/workspace/module_usb_audio/audio.xc:911:0
	stw r1, dp[samplesOut+32]
	{
		nop
		ldw r1, r11[2]
	}
	.loc	1 910 0                 # /Users/rkn/Documents/xTIMEcomposer/workspace/module_usb_audio/audio.xc:910:0
.Lxta.endpoint_labels291:
	{
		in r1, res[r1]
		nop
	}
	.loc	1 911 0                 # /Users/rkn/Documents/xTIMEcomposer/workspace/module_usb_audio/audio.xc:911:0
	stw r1, dp[samplesOut+36]
	{
		nop
		ldw r1, r11[2]
	}
	.loc	1 910 0                 # /Users/rkn/Documents/xTIMEcomposer/workspace/module_usb_audio/audio.xc:910:0
.Lxta.endpoint_labels292:
	{
		in r1, res[r1]
		nop
	}
	.loc	1 911 0                 # /Users/rkn/Documents/xTIMEcomposer/workspace/module_usb_audio/audio.xc:911:0
	stw r1, dp[samplesOut+40]
	{
		nop
		ldw r1, r11[2]
	}
	.loc	1 910 0                 # /Users/rkn/Documents/xTIMEcomposer/workspace/module_usb_audio/audio.xc:910:0
.Lxta.endpoint_labels293:
	{
		in r1, res[r1]
		nop
	}
	.loc	1 911 0                 # /Users/rkn/Documents/xTIMEcomposer/workspace/module_usb_audio/audio.xc:911:0
	stw r1, dp[samplesOut+44]
	{
		nop
		ldw r1, r11[2]
	}
	.loc	1 910 0                 # /Users/rkn/Documents/xTIMEcomposer/workspace/module_usb_audio/audio.xc:910:0
.Lxta.endpoint_labels294:
	{
		in r1, res[r1]
		nop
	}
	.loc	1 911 0                 # /Users/rkn/Documents/xTIMEcomposer/workspace/module_usb_audio/audio.xc:911:0
	stw r1, dp[samplesOut+48]
	{
		nop
		ldw r1, r11[2]
	}
	.loc	1 910 0                 # /Users/rkn/Documents/xTIMEcomposer/workspace/module_usb_audio/audio.xc:910:0
.Lxta.endpoint_labels295:
	{
		in r1, res[r1]
		nop
	}
	.loc	1 911 0                 # /Users/rkn/Documents/xTIMEcomposer/workspace/module_usb_audio/audio.xc:911:0
	stw r1, dp[samplesOut+52]
	{
		nop
		ldw r1, r11[2]
	}
	.loc	1 910 0                 # /Users/rkn/Documents/xTIMEcomposer/workspace/module_usb_audio/audio.xc:910:0
.Lxta.endpoint_labels296:
	{
		in r1, res[r1]
		nop
	}
	.loc	1 911 0                 # /Users/rkn/Documents/xTIMEcomposer/workspace/module_usb_audio/audio.xc:911:0
	stw r1, dp[samplesOut+56]
	{
		nop
		ldw r1, r11[2]
	}
	.loc	1 910 0                 # /Users/rkn/Documents/xTIMEcomposer/workspace/module_usb_audio/audio.xc:910:0
.Lxta.endpoint_labels297:
	{
		in r1, res[r1]
		nop
	}
	.loc	1 911 0                 # /Users/rkn/Documents/xTIMEcomposer/workspace/module_usb_audio/audio.xc:911:0
	stw r1, dp[samplesOut+60]
	{
		nop
		ldw r1, r11[2]
	}
	.loc	1 910 0                 # /Users/rkn/Documents/xTIMEcomposer/workspace/module_usb_audio/audio.xc:910:0
.Lxta.endpoint_labels298:
	{
		in r1, res[r1]
		nop
	}
	.loc	1 911 0                 # /Users/rkn/Documents/xTIMEcomposer/workspace/module_usb_audio/audio.xc:911:0
	stw r1, dp[samplesOut+64]
	{
		nop
		ldw r1, r11[2]
	}
	.loc	1 910 0                 # /Users/rkn/Documents/xTIMEcomposer/workspace/module_usb_audio/audio.xc:910:0
.Lxta.endpoint_labels299:
	{
		in r1, res[r1]
		nop
	}
	.loc	1 911 0                 # /Users/rkn/Documents/xTIMEcomposer/workspace/module_usb_audio/audio.xc:911:0
	stw r1, dp[samplesOut+68]
	{
		nop
		ldw r1, r11[2]
	}
	.loc	1 910 0                 # /Users/rkn/Documents/xTIMEcomposer/workspace/module_usb_audio/audio.xc:910:0
.Lxta.endpoint_labels300:
	{
		in r1, res[r1]
		nop
	}
	.loc	1 911 0                 # /Users/rkn/Documents/xTIMEcomposer/workspace/module_usb_audio/audio.xc:911:0
	stw r1, dp[samplesOut+72]
	{
		nop
		ldw r1, r11[2]
	}
	.loc	1 910 0                 # /Users/rkn/Documents/xTIMEcomposer/workspace/module_usb_audio/audio.xc:910:0
.Lxta.endpoint_labels301:
	{
		in r1, res[r1]
		nop
	}
	.loc	1 911 0                 # /Users/rkn/Documents/xTIMEcomposer/workspace/module_usb_audio/audio.xc:911:0
	stw r1, dp[samplesOut+76]
	{
		nop
		ldw r1, r11[2]
	}
	.loc	1 910 0                 # /Users/rkn/Documents/xTIMEcomposer/workspace/module_usb_audio/audio.xc:910:0
.Lxta.endpoint_labels302:
	{
		in r1, res[r1]
		nop
	}
	.loc	1 911 0                 # /Users/rkn/Documents/xTIMEcomposer/workspace/module_usb_audio/audio.xc:911:0
	stw r1, dp[samplesOut+80]
	{
		nop
		ldw r1, r11[2]
	}
	.loc	1 910 0                 # /Users/rkn/Documents/xTIMEcomposer/workspace/module_usb_audio/audio.xc:910:0
.Lxta.endpoint_labels303:
	{
		in r1, res[r1]
		nop
	}
	.loc	1 911 0                 # /Users/rkn/Documents/xTIMEcomposer/workspace/module_usb_audio/audio.xc:911:0
	stw r1, dp[samplesOut+84]
	{
		nop
		ldw r1, r11[2]
	}
	.loc	1 910 0                 # /Users/rkn/Documents/xTIMEcomposer/workspace/module_usb_audio/audio.xc:910:0
.Lxta.endpoint_labels304:
	{
		in r1, res[r1]
		nop
	}
	.loc	1 911 0                 # /Users/rkn/Documents/xTIMEcomposer/workspace/module_usb_audio/audio.xc:911:0
	stw r1, dp[samplesOut+88]
	{
		nop
		ldw r1, r11[2]
	}
	.loc	1 910 0                 # /Users/rkn/Documents/xTIMEcomposer/workspace/module_usb_audio/audio.xc:910:0
.Lxta.endpoint_labels305:
	{
		in r1, res[r1]
		nop
	}
	.loc	1 911 0                 # /Users/rkn/Documents/xTIMEcomposer/workspace/module_usb_audio/audio.xc:911:0
	stw r1, dp[samplesOut+92]
	{
		nop
		ldw r1, r11[2]
	}
	.loc	1 910 0                 # /Users/rkn/Documents/xTIMEcomposer/workspace/module_usb_audio/audio.xc:910:0
.Lxta.endpoint_labels306:
	{
		in r1, res[r1]
		nop
	}
	.loc	1 911 0                 # /Users/rkn/Documents/xTIMEcomposer/workspace/module_usb_audio/audio.xc:911:0
	stw r1, dp[samplesOut+96]
	{
		nop
		ldw r1, r11[2]
	}
	.loc	1 910 0                 # /Users/rkn/Documents/xTIMEcomposer/workspace/module_usb_audio/audio.xc:910:0
.Lxta.endpoint_labels307:
	{
		in r1, res[r1]
		nop
	}
	.loc	1 911 0                 # /Users/rkn/Documents/xTIMEcomposer/workspace/module_usb_audio/audio.xc:911:0
	stw r1, dp[samplesOut+100]
	{
		nop
		ldw r1, r11[2]
	}
	.loc	1 910 0                 # /Users/rkn/Documents/xTIMEcomposer/workspace/module_usb_audio/audio.xc:910:0
.Lxta.endpoint_labels308:
	{
		in r1, res[r1]
		nop
	}
	.loc	1 911 0                 # /Users/rkn/Documents/xTIMEcomposer/workspace/module_usb_audio/audio.xc:911:0
	stw r1, dp[samplesOut+104]
	{
		nop
		ldw r1, r11[2]
	}
	.loc	1 910 0                 # /Users/rkn/Documents/xTIMEcomposer/workspace/module_usb_audio/audio.xc:910:0
.Lxta.endpoint_labels309:
	{
		in r1, res[r1]
		nop
	}
	.loc	1 911 0                 # /Users/rkn/Documents/xTIMEcomposer/workspace/module_usb_audio/audio.xc:911:0
	stw r1, dp[samplesOut+108]
	{
		nop
		ldw r1, r11[2]
	}
	.loc	1 910 0                 # /Users/rkn/Documents/xTIMEcomposer/workspace/module_usb_audio/audio.xc:910:0
.Lxta.endpoint_labels310:
	{
		in r1, res[r1]
		nop
	}
	.loc	1 911 0                 # /Users/rkn/Documents/xTIMEcomposer/workspace/module_usb_audio/audio.xc:911:0
	stw r1, dp[samplesOut+112]
	{
		nop
		ldw r1, r11[2]
	}
	.loc	1 910 0                 # /Users/rkn/Documents/xTIMEcomposer/workspace/module_usb_audio/audio.xc:910:0
.Lxta.endpoint_labels311:
	{
		in r1, res[r1]
		nop
	}
	.loc	1 911 0                 # /Users/rkn/Documents/xTIMEcomposer/workspace/module_usb_audio/audio.xc:911:0
	stw r1, dp[samplesOut+116]
	{
		nop
		ldw r1, r11[2]
	}
	.loc	1 910 0                 # /Users/rkn/Documents/xTIMEcomposer/workspace/module_usb_audio/audio.xc:910:0
.Lxta.endpoint_labels312:
	{
		in r1, res[r1]
		nop
	}
	.loc	1 911 0                 # /Users/rkn/Documents/xTIMEcomposer/workspace/module_usb_audio/audio.xc:911:0
	stw r1, dp[samplesOut+120]
	{
		nop
		ldw r1, r11[2]
	}
	.loc	1 910 0                 # /Users/rkn/Documents/xTIMEcomposer/workspace/module_usb_audio/audio.xc:910:0
.Lxta.endpoint_labels313:
	{
		in r1, res[r1]
		nop
	}
	.loc	1 911 0                 # /Users/rkn/Documents/xTIMEcomposer/workspace/module_usb_audio/audio.xc:911:0
	stw r1, dp[samplesOut+124]
	{
		nop
		ldw r1, r11[2]
	}
.Ltmp142:
	.loc	1 921 0                 # /Users/rkn/Documents/xTIMEcomposer/workspace/module_usb_audio/audio.xc:921:0
.Lxta.endpoint_labels314:
	{
		out res[r1], r0
		nop
	}
.Ltmp143:
	#DEBUG_VALUE: i <- 1
	.loc	1 921 0                 # /Users/rkn/Documents/xTIMEcomposer/workspace/module_usb_audio/audio.xc:921:0
.Lxta.endpoint_labels315:
	{
		out res[r1], r0
		nop
	}
	.loc	1 921 0                 # /Users/rkn/Documents/xTIMEcomposer/workspace/module_usb_audio/audio.xc:921:0
.Lxta.endpoint_labels316:
	{
		out res[r1], r0
		nop
	}
	.loc	1 921 0                 # /Users/rkn/Documents/xTIMEcomposer/workspace/module_usb_audio/audio.xc:921:0
.Lxta.endpoint_labels317:
	{
		out res[r1], r0
		nop
	}
	.loc	1 921 0                 # /Users/rkn/Documents/xTIMEcomposer/workspace/module_usb_audio/audio.xc:921:0
.Lxta.endpoint_labels318:
	{
		out res[r1], r0
		nop
	}
	.loc	1 921 0                 # /Users/rkn/Documents/xTIMEcomposer/workspace/module_usb_audio/audio.xc:921:0
.Lxta.endpoint_labels319:
	{
		out res[r1], r0
		nop
	}
	.loc	1 921 0                 # /Users/rkn/Documents/xTIMEcomposer/workspace/module_usb_audio/audio.xc:921:0
.Lxta.endpoint_labels320:
	{
		out res[r1], r0
		nop
	}
	.loc	1 921 0                 # /Users/rkn/Documents/xTIMEcomposer/workspace/module_usb_audio/audio.xc:921:0
.Lxta.endpoint_labels321:
	{
		out res[r1], r0
		nop
	}
	.loc	1 921 0                 # /Users/rkn/Documents/xTIMEcomposer/workspace/module_usb_audio/audio.xc:921:0
.Lxta.endpoint_labels322:
	{
		out res[r1], r0
		nop
	}
	.loc	1 921 0                 # /Users/rkn/Documents/xTIMEcomposer/workspace/module_usb_audio/audio.xc:921:0
.Lxta.endpoint_labels323:
	{
		out res[r1], r0
		nop
	}
	.loc	1 921 0                 # /Users/rkn/Documents/xTIMEcomposer/workspace/module_usb_audio/audio.xc:921:0
.Lxta.endpoint_labels324:
	{
		out res[r1], r0
		nop
	}
	.loc	1 921 0                 # /Users/rkn/Documents/xTIMEcomposer/workspace/module_usb_audio/audio.xc:921:0
.Lxta.endpoint_labels325:
	{
		out res[r1], r0
		nop
	}
	.loc	1 921 0                 # /Users/rkn/Documents/xTIMEcomposer/workspace/module_usb_audio/audio.xc:921:0
.Lxta.endpoint_labels326:
	{
		out res[r1], r0
		nop
	}
	.loc	1 921 0                 # /Users/rkn/Documents/xTIMEcomposer/workspace/module_usb_audio/audio.xc:921:0
.Lxta.endpoint_labels327:
	{
		out res[r1], r0
		nop
	}
	.loc	1 921 0                 # /Users/rkn/Documents/xTIMEcomposer/workspace/module_usb_audio/audio.xc:921:0
.Lxta.endpoint_labels328:
	{
		out res[r1], r0
		nop
	}
	.loc	1 921 0                 # /Users/rkn/Documents/xTIMEcomposer/workspace/module_usb_audio/audio.xc:921:0
.Lxta.endpoint_labels329:
	{
		out res[r1], r0
		nop
	}
	.loc	1 921 0                 # /Users/rkn/Documents/xTIMEcomposer/workspace/module_usb_audio/audio.xc:921:0
.Lxta.endpoint_labels330:
	{
		out res[r1], r0
		nop
	}
	.loc	1 921 0                 # /Users/rkn/Documents/xTIMEcomposer/workspace/module_usb_audio/audio.xc:921:0
.Lxta.endpoint_labels331:
	{
		out res[r1], r0
		nop
	}
	.loc	1 921 0                 # /Users/rkn/Documents/xTIMEcomposer/workspace/module_usb_audio/audio.xc:921:0
.Lxta.endpoint_labels332:
	{
		out res[r1], r0
		nop
	}
	.loc	1 921 0                 # /Users/rkn/Documents/xTIMEcomposer/workspace/module_usb_audio/audio.xc:921:0
.Lxta.endpoint_labels333:
	{
		out res[r1], r0
		nop
	}
	.loc	1 921 0                 # /Users/rkn/Documents/xTIMEcomposer/workspace/module_usb_audio/audio.xc:921:0
.Lxta.endpoint_labels334:
	{
		out res[r1], r0
		nop
	}
	.loc	1 921 0                 # /Users/rkn/Documents/xTIMEcomposer/workspace/module_usb_audio/audio.xc:921:0
.Lxta.endpoint_labels335:
	{
		out res[r1], r0
		nop
	}
	.loc	1 921 0                 # /Users/rkn/Documents/xTIMEcomposer/workspace/module_usb_audio/audio.xc:921:0
.Lxta.endpoint_labels336:
	{
		out res[r1], r0
		nop
	}
	.loc	1 921 0                 # /Users/rkn/Documents/xTIMEcomposer/workspace/module_usb_audio/audio.xc:921:0
.Lxta.endpoint_labels337:
	{
		out res[r1], r0
		nop
	}
	.loc	1 921 0                 # /Users/rkn/Documents/xTIMEcomposer/workspace/module_usb_audio/audio.xc:921:0
.Lxta.endpoint_labels338:
	{
		out res[r1], r0
		nop
	}
	.loc	1 921 0                 # /Users/rkn/Documents/xTIMEcomposer/workspace/module_usb_audio/audio.xc:921:0
.Lxta.endpoint_labels339:
	{
		out res[r1], r0
		nop
	}
	.loc	1 921 0                 # /Users/rkn/Documents/xTIMEcomposer/workspace/module_usb_audio/audio.xc:921:0
.Lxta.endpoint_labels340:
	{
		out res[r1], r0
		nop
	}
	.loc	1 921 0                 # /Users/rkn/Documents/xTIMEcomposer/workspace/module_usb_audio/audio.xc:921:0
.Lxta.endpoint_labels341:
	{
		out res[r1], r0
		nop
	}
	.loc	1 921 0                 # /Users/rkn/Documents/xTIMEcomposer/workspace/module_usb_audio/audio.xc:921:0
.Lxta.endpoint_labels342:
	{
		out res[r1], r0
		nop
	}
	.loc	1 921 0                 # /Users/rkn/Documents/xTIMEcomposer/workspace/module_usb_audio/audio.xc:921:0
.Lxta.endpoint_labels343:
	{
		out res[r1], r0
		nop
	}
	.loc	1 921 0                 # /Users/rkn/Documents/xTIMEcomposer/workspace/module_usb_audio/audio.xc:921:0
.Lxta.endpoint_labels344:
	{
		out res[r1], r0
		nop
	}
	.loc	1 921 0                 # /Users/rkn/Documents/xTIMEcomposer/workspace/module_usb_audio/audio.xc:921:0
.Lxta.endpoint_labels345:
	{
		out res[r1], r0
		nop
	}
.Ltmp144:
	.loc	1 926 0                 # /Users/rkn/Documents/xTIMEcomposer/workspace/module_usb_audio/audio.xc:926:0
.Lxta.endpoint_labels346:
	{
		out res[r1], r0
		retsp 0
	}
	# RETURN_REG_HOLDER
.Ltmp145:
	.cc_bottom dummy_deliver.select.case.0.function
	.set	dummy_deliver.select.case.0.nstackwords,0
	.set	dummy_deliver.select.case.0.maxcores,1
	.set	dummy_deliver.select.case.0.maxtimers,0
	.set	dummy_deliver.select.case.0.maxchanends,0
.Ltmp146:
	.size	dummy_deliver.select.case.0, .Ltmp146-dummy_deliver.select.case.0
.Lfunc_end9:
	.cfi_endproc

	.section	.cp.rodata.cst4,"aMc",@progbits,4
	.cc_top .LCPI10_0.data,.LCPI10_0
	.align	4
	.type	.LCPI10_0,@object
	.size	.LCPI10_0, 4
.LCPI10_0:
	.long	22579200                # 0x1588800
	.cc_bottom .LCPI10_0.data
	.cc_top .LCPI10_1.data,.LCPI10_1
	.align	4
	.type	.LCPI10_1,@object
	.size	.LCPI10_1, 4
.LCPI10_1:
	.long	24576000                # 0x1770000
	.cc_bottom .LCPI10_1.data
	.cc_top .LCPI10_2.data,.LCPI10_2
	.align	4
	.type	.LCPI10_2,@object
	.size	.LCPI10_2, 4
.LCPI10_2:
	.long	2779096485              # 0xa5a5a5a5
	.cc_bottom .LCPI10_2.data
	.cc_top .LCPI10_3.data,.LCPI10_3
	.align	4
	.type	.LCPI10_3,@object
	.size	.LCPI10_3, 4
.LCPI10_3:
	.long	305419896               # 0x12345678
	.cc_bottom .LCPI10_3.data
	.text
	.globl	audio
	.align	4
	.type	audio,@function
	.cc_top audio.function,audio
audio:                                  # @audio
.Lfunc_begin10:
	.loc	1 952 0                 # /Users/rkn/Documents/xTIMEcomposer/workspace/module_usb_audio/audio.xc:952:0
	.cfi_startproc
	.issue_mode dual
# BB#0:                                 # %allocas
.Lxtalabel37:
	{
		nop
		dualentsp 24
	}
.Ltmp147:
	.cfi_def_cfa_offset 96
.Ltmp148:
	.cfi_offset 15, 0
	std r5, r4, sp[8]               # 4-byte Folded Spill
.Ltmp149:
	.cfi_offset 4, -32
.Ltmp150:
	.cfi_offset 5, -28
	std r7, r6, sp[9]               # 4-byte Folded Spill
.Ltmp151:
	.cfi_offset 6, -24
.Ltmp152:
	.cfi_offset 7, -20
	std r9, r8, sp[10]              # 4-byte Folded Spill
.Ltmp153:
	.cfi_offset 8, -16
.Ltmp154:
	.cfi_offset 9, -12
.Ltmp155:
	.cfi_offset 10, -8
	#DEBUG_VALUE: audio:c_config <- R1
.Ltmp156:
	#DEBUG_VALUE: audio:c_config <- R4
	{
		mov r4, r1
		stw r10, sp[22]
	}
.Ltmp157:
	{
		nop
		stw r0, sp[9]
	}
	{
		nop
		stw r2, sp[10]
	}
	{
		nop
		stw r3, sp[11]
	}
	ldc r5, 48000
	.loc	1 962 0 prologue_end    # /Users/rkn/Documents/xTIMEcomposer/workspace/module_usb_audio/audio.xc:962:0
.Ltmp158:
	{
		ldc r9, 24
		stw r5, sp[12]
	}
	{
		nop
		stw r9, sp[13]
	}
.Ltmp159:
	#DEBUG_VALUE: firstRun <- 1
	#DEBUG_VALUE: curSamRes_ADC <- 24
	.loc	1 1004 0                # /Users/rkn/Documents/xTIMEcomposer/workspace/module_usb_audio/audio.xc:1004:0
	ldw r6, dp[clk_audio_mclk]
	.loc	1 1004 0                # /Users/rkn/Documents/xTIMEcomposer/workspace/module_usb_audio/audio.xc:1004:0
	ldw r1, dp[p_mclk_in]
	.loc	1 1004 0                # /Users/rkn/Documents/xTIMEcomposer/workspace/module_usb_audio/audio.xc:1004:0
	{
		mov r0, r6
		nop
	}
.Lxta.call_labels0:
	bl configure_clock_src
	.loc	1 1006 0                # /Users/rkn/Documents/xTIMEcomposer/workspace/module_usb_audio/audio.xc:1006:0
	{
		setc res[r6], 15
		mov r0, r4
	}
	.loc	1 1031 0                # /Users/rkn/Documents/xTIMEcomposer/workspace/module_usb_audio/audio.xc:1031:0
.Lxta.call_labels1:
	bl AudioHwInit
	{
		mkmsk r8, 1
		nop
	}
	ldw r7, cp[.LCPI10_0]
	{
		ldc r6, 4
		nop
	}
                                        # implicit-def: R10
	bu .LBB10_1
.LBB10_5:                               # %ifdone24
                                        #   in Loop: Header=BB10_1 Depth=1
.Lxtalabel38:
.Ltmp160:
	#DEBUG_VALUE: audio:c_config <- R4
	#DEBUG_VALUE: curSamRes_ADC <- 24
	#DEBUG_VALUE: firstRun <- 0
	{
		ldaw r0, sp[9]
		nop
	}
	bl audio.task.0
	.loc	1 1036 9                # /Users/rkn/Documents/xTIMEcomposer/workspace/module_usb_audio/audio.xc:1036:9
	{
		ldc r8, 0
		ldw r5, sp[12]
	}
.Ltmp161:
.LBB10_1:                               # %LoopBody
                                        # =>This Inner Loop Header: Depth=1
.Lxtalabel39:
	#DEBUG_VALUE: audio:c_config <- R4
	#DEBUG_VALUE: curSamRes_ADC <- 24
	#DEBUG_VALUE: firstRun <- 1
	#DEBUG_VALUE: curFreq <- R5
	.loc	1 1036 9                # /Users/rkn/Documents/xTIMEcomposer/workspace/module_usb_audio/audio.xc:1036:9
	remu r1, r7, r5
	{
		mov r0, r7
		nop
	}
	bf r1, .LBB10_2
.Ltmp162:
# BB#6:                                 # %iffalse
                                        #   in Loop: Header=BB10_1 Depth=1
.Lxtalabel40:
	#DEBUG_VALUE: audio:c_config <- R4
	#DEBUG_VALUE: curSamRes_ADC <- 24
	#DEBUG_VALUE: firstRun <- 1
	#DEBUG_VALUE: mClk <- 24576000
	ldw r0, cp[.LCPI10_1]
	.loc	1 1045 14               # /Users/rkn/Documents/xTIMEcomposer/workspace/module_usb_audio/audio.xc:1045:14
	remu r0, r0, r5
	bt r0, .LBB10_8
.Ltmp163:
# BB#7:                                 # %iffalse
                                        #   in Loop: Header=BB10_1 Depth=1
.Lxtalabel41:
	#DEBUG_VALUE: audio:c_config <- R4
	#DEBUG_VALUE: curSamRes_ADC <- 24
	#DEBUG_VALUE: firstRun <- 1
	#DEBUG_VALUE: mClk <- 24576000
	ldw r10, cp[.LCPI10_1]
.Ltmp164:
.LBB10_8:                               # %iffalse
                                        #   in Loop: Header=BB10_1 Depth=1
.Lxtalabel42:
	#DEBUG_VALUE: audio:c_config <- R4
	#DEBUG_VALUE: curSamRes_ADC <- 24
	#DEBUG_VALUE: firstRun <- 1
	#DEBUG_VALUE: mClk <- 24576000
	{
		mov r0, r10
		nop
	}
.Ltmp165:
.LBB10_2:                               # %ifdone3
                                        #   in Loop: Header=BB10_1 Depth=1
.Lxtalabel43:
	#DEBUG_VALUE: audio:c_config <- R4
	#DEBUG_VALUE: curSamRes_ADC <- 24
	#DEBUG_VALUE: firstRun <- 1
	#DEBUG_VALUE: curFreq <- R5
	#DEBUG_VALUE: numBits <- 256
	{
		mov r10, r0
		shl r0, r5, 8
	}
	.loc	1 1078 0                # /Users/rkn/Documents/xTIMEcomposer/workspace/module_usb_audio/audio.xc:1078:0
.Ltmp166:
	divu r0, r10, r0
	{
		nop
		stw r0, sp[15]
	}
.Ltmp167:
	.loc	1 1107 0                # /Users/rkn/Documents/xTIMEcomposer/workspace/module_usb_audio/audio.xc:1107:0
	ldw r1, dp[dsdMode]
	.loc	1 1107 0                # /Users/rkn/Documents/xTIMEcomposer/workspace/module_usb_audio/audio.xc:1107:0
	std r1, r5, sp[2]
	.loc	1 1107 0                # /Users/rkn/Documents/xTIMEcomposer/workspace/module_usb_audio/audio.xc:1107:0
	ldw r1, dp[p_bclk]
	.loc	1 1107 0                # /Users/rkn/Documents/xTIMEcomposer/workspace/module_usb_audio/audio.xc:1107:0
	std r0, r1, sp[1]
	std r6, r6, sp[3]
	.loc	1 1107 0                # /Users/rkn/Documents/xTIMEcomposer/workspace/module_usb_audio/audio.xc:1107:0
	ldw r0, dp[p_lrclk]
	{
		nop
		stw r0, sp[1]
	}
	.loc	1 1107 0                # /Users/rkn/Documents/xTIMEcomposer/workspace/module_usb_audio/audio.xc:1107:0
	ldaw r0, dp[p_i2s_dac]
	{
		mov r1, r6
		nop
	}
	ldaw r2, dp[p_i2s_adc]
	{
		mov r3, r6
		nop
	}
.Lxta.call_labels2:
	bl ConfigAudioPortsWrapper
	.loc	1 1143 0                # /Users/rkn/Documents/xTIMEcomposer/workspace/module_usb_audio/audio.xc:1143:0
.Ltmp168:
	ldw r3, dp[dsdMode]
	{
		nop
		ldw r0, sp[13]
	}
	{
		nop
		stw r9, sp[2]
	}
	.loc	1 1143 0                # /Users/rkn/Documents/xTIMEcomposer/workspace/module_usb_audio/audio.xc:1143:0
	{
		mov r0, r5
		stw r0, sp[1]
	}
	{
		mov r1, r10
		mov r2, r4
	}
.Lxta.call_labels3:
	bl AudioHwConfig
	bt r8, .LBB10_5
.Ltmp169:
# BB#3:                                 # %iftrue23
                                        #   in Loop: Header=BB10_1 Depth=1
.Lxtalabel44:
	#DEBUG_VALUE: audio:c_config <- R4
	#DEBUG_VALUE: curSamRes_ADC <- 24
	#DEBUG_VALUE: firstRun <- 1
	ldw r0, cp[.LCPI10_2]
	.loc	1 1150 13               # /Users/rkn/Documents/xTIMEcomposer/workspace/module_usb_audio/audio.xc:1150:13
	{
		eq r0, r5, r0
		nop
	}
	bt r0, .LBB10_5
.Ltmp170:
# BB#4:                                 # %iftrue23
                                        #   in Loop: Header=BB10_1 Depth=1
.Lxtalabel45:
	#DEBUG_VALUE: audio:c_config <- R4
	ldw r0, cp[.LCPI10_3]
	{
		eq r0, r5, r0
		nop
	}
	bt r0, .LBB10_5
.Ltmp171:
# BB#9:                                 # %lhsfalse41
                                        #   in Loop: Header=BB10_1 Depth=1
	#DEBUG_VALUE: audio:c_config <- R4
	{
		nop
		ldw r0, sp[14]
	}
	bf r0, .LBB10_5
.Ltmp172:
# BB#10:                                # %iftrue28
                                        #   in Loop: Header=BB10_1 Depth=1
.Lxtalabel46:
	#DEBUG_VALUE: audio:c_config <- R4
	{
		nop
		ldw r0, sp[9]
	}
	.loc	1 1163 0                # /Users/rkn/Documents/xTIMEcomposer/workspace/module_usb_audio/audio.xc:1163:0
.Lxta.endpoint_labels347:
	{
		outct res[r0], 1
		nop
	}
	bu .LBB10_5
.Ltmp173:
	.cc_bottom audio.function
	.set	audio.nstackwords,((configure_clock_src.nstackwords $M AudioHwInit.nstackwords $M ConfigAudioPortsWrapper.nstackwords $M AudioHwConfig.nstackwords $M audio.task.0.nstackwords) + 24)
	.globl	audio.nstackwords
	.set	audio.maxcores,AudioHwConfig.maxcores $M AudioHwInit.maxcores $M ConfigAudioPortsWrapper.maxcores $M audio.task.0.maxcores $M configure_clock_src.maxcores $M 1
	.globl	audio.maxcores
	.set	audio.maxtimers,AudioHwConfig.maxtimers $M AudioHwInit.maxtimers $M ConfigAudioPortsWrapper.maxtimers $M audio.task.0.maxtimers $M configure_clock_src.maxtimers $M 0
	.globl	audio.maxtimers
	.set	audio.maxchanends,AudioHwConfig.maxchanends $M AudioHwInit.maxchanends $M ConfigAudioPortsWrapper.maxchanends $M audio.task.0.maxchanends $M configure_clock_src.maxchanends $M 0
	.globl	audio.maxchanends
.Ltmp174:
	.size	audio, .Ltmp174-audio
.Lfunc_end10:
	.cfi_endproc

	.section	.cp.rodata.cst4,"aMc",@progbits,4
	.cc_top .LCPI11_0.data,.LCPI11_0
	.align	4
	.type	.LCPI11_0,@object
	.size	.LCPI11_0, 4
.LCPI11_0:
	.long	4294967288              # 0xfffffff8
	.cc_bottom .LCPI11_0.data
	.cc_top .LCPI11_1.data,.LCPI11_1
	.align	4
	.type	.LCPI11_1,@object
	.size	.LCPI11_1, 4
.LCPI11_1:
	.long	305419896               # 0x12345678
	.cc_bottom .LCPI11_1.data
	.cc_top .LCPI11_2.data,.LCPI11_2
	.align	4
	.type	.LCPI11_2,@object
	.size	.LCPI11_2, 4
.LCPI11_2:
	.long	2147483647              # 0x7fffffff
	.cc_bottom .LCPI11_2.data
	.cc_top .LCPI11_3.data,.LCPI11_3
	.align	4
	.type	.LCPI11_3,@object
	.size	.LCPI11_3, 4
.LCPI11_3:
	.long	2271560481              # 0x87654321
	.cc_bottom .LCPI11_3.data
	.text
	.align	4
	.type	audio.task.0,@function
	.cc_top audio.task.0.function,audio.task.0
audio.task.0:                           # @audio.task.0
.Lfunc_begin11:
	.loc	1 1184 0                # /Users/rkn/Documents/xTIMEcomposer/workspace/module_usb_audio/audio.xc:1184:0
	.cfi_startproc
	.issue_mode dual
# BB#0:                                 # %allocas
	{
		nop
		dualentsp 22
	}
.Ltmp175:
	.cfi_def_cfa_offset 88
.Ltmp176:
	.cfi_offset 15, 0
.Ltmp177:
	.cfi_offset 10, -84
.Ltmp178:
	.cfi_def_cfa_register 10
	{
		ldaw r10, sp[0]
		stw r10, sp[1]
	}
	std r5, r4, r10[8]              # 4-byte Folded Spill
.Ltmp179:
	.cfi_offset 4, -24
.Ltmp180:
	.cfi_offset 5, -20
	std r7, r6, r10[9]              # 4-byte Folded Spill
.Ltmp181:
	.cfi_offset 6, -16
.Ltmp182:
	.cfi_offset 7, -12
	std r9, r8, r10[10]             # 4-byte Folded Spill
.Ltmp183:
	.cfi_offset 8, -8
.Ltmp184:
	.cfi_offset 9, -4
	#DEBUG_VALUE: audio.task.0:frame <- R0
	{
		mov r8, r0
		nop
	}
.Ltmp185:
	#DEBUG_VALUE: audio.task.0:frame <- R8
	{
		nop
		stw r8, r10[4]
	}
	ldc r0, _SDFUHandler_0.init.0.savedstate
	{
		mkmsk r1, 4
		nop
	}
	ldaw r0, r1[r0]
	ldw r1, cp[.LCPI11_0]
	{
		and r0, r0, r1
		ldaw r1, sp[0]
	}
	{
		sub r0, r1, r0
		nop
	}
	# ALLOCA 0
	{
		add r0, r0, 8
		set sp, r0
	}
	{
		nop
		stw r0, r10[3]
	}
	.loc	1 1209 0 prologue_end   # /Users/rkn/Documents/xTIMEcomposer/workspace/module_usb_audio/audio.xc:1209:0
.Ltmp186:
	ldaw r0, r8[5]
	{
		nop
		stw r0, r10[2]
	}
	.loc	1 1209 0                # /Users/rkn/Documents/xTIMEcomposer/workspace/module_usb_audio/audio.xc:1209:0
	# STACKUP 
	# ALLOCA 1
	.loc	1 1209 0                # /Users/rkn/Documents/xTIMEcomposer/workspace/module_usb_audio/audio.xc:1209:0
	{
		extsp 2
		ldw r5, r8[0]
	}
	.loc	1 1209 0                # /Users/rkn/Documents/xTIMEcomposer/workspace/module_usb_audio/audio.xc:1209:0
	{
		mov r0, r5
		nop
	}
.Lxta.call_labels4:
	bl deliver
	# STACKDOWN
	{
		ldaw sp, sp[2]
		stw r0, r8[5]
	}
	.loc	1 1228 17               # /Users/rkn/Documents/xTIMEcomposer/workspace/module_usb_audio/audio.xc:1228:17
	{
		eq r1, r0, 8
		nop
	}
	bf r1, .LBB11_1
.Ltmp187:
# BB#3:                                 # %iftrue11
.Lxtalabel47:
	#DEBUG_VALUE: audio.task.0:frame <- R8
	.loc	1 1238 0                # /Users/rkn/Documents/xTIMEcomposer/workspace/module_usb_audio/audio.xc:1238:0
.Lxta.endpoint_labels348:
	{
		in r0, res[r5]
		nop
	}
	.loc	1 1238 0                # /Users/rkn/Documents/xTIMEcomposer/workspace/module_usb_audio/audio.xc:1238:0
	stw r0, dp[dsdMode]
	.loc	1 1239 0                # /Users/rkn/Documents/xTIMEcomposer/workspace/module_usb_audio/audio.xc:1239:0
.Lxta.endpoint_labels349:
	{
		in r0, res[r5]
		nop
	}
	{
		nop
		stw r0, r8[4]
	}
	bu .LBB11_4
.Ltmp188:
.LBB11_1:                               # %allocas
	#DEBUG_VALUE: audio.task.0:frame <- R8
	{
		eq r0, r0, 4
		nop
	}
	bf r0, .LBB11_4
.Ltmp189:
# BB#2:                                 # %iftrue
.Lxtalabel48:
	#DEBUG_VALUE: audio.task.0:frame <- R8
	.loc	1 1230 0                # /Users/rkn/Documents/xTIMEcomposer/workspace/module_usb_audio/audio.xc:1230:0
.Lxta.endpoint_labels350:
	{
		in r0, res[r5]
		nop
	}
	{
		nop
		stw r0, r8[3]
	}
	bu .LBB11_5
.Ltmp190:
.LBB11_4:                               # %ifdonethread-pre-split
	#DEBUG_VALUE: audio.task.0:frame <- R8
	{
		nop
		ldw r0, r8[3]
	}
.Ltmp191:
.LBB11_5:                               # %ifdone
.Lxtalabel49:
	#DEBUG_VALUE: audio.task.0:frame <- R8
	ldw r1, cp[.LCPI11_1]
	.loc	1 1243 17               # /Users/rkn/Documents/xTIMEcomposer/workspace/module_usb_audio/audio.xc:1243:17
	{
		eq r0, r0, r1
		nop
	}
	bf r0, .LBB11_15
.Ltmp192:
# BB#6:                                 # %iftrue23
.Lxtalabel50:
	#DEBUG_VALUE: audio.task.0:frame <- R8
	.loc	1 1245 0                # /Users/rkn/Documents/xTIMEcomposer/workspace/module_usb_audio/audio.xc:1245:0
.Lxta.endpoint_labels351:
	{
		outct res[r5], 1
		ldc r4, 0
	}
	.loc	1 1247 0                # /Users/rkn/Documents/xTIMEcomposer/workspace/module_usb_audio/audio.xc:1247:0
.Lxta.endpoint_labels352:
	{
		out res[r5], r4
		stw r5, r10[5]
	}
	{
		get r11, id
		nop
	}
	ldaw r0, dp[__timers]
	{
		mkmsk r0, 4
		ldw r5, r0[r11]
	}
	ldaw r1, r10[r0]
	{
		ldc r0, 14
		nop
	}
	ldaw r2, r10[r0]
	ldw r6, cp[.LCPI11_2]
	ldaw r9, dp[__timer_base]
	bu .LBB11_7
.Ltmp193:
.LBB11_12:                              # %cleanup41
                                        #   in Loop: Header=BB11_7 Depth=1
	#DEBUG_VALUE: audio.task.0:frame <- R8
	{
		ldc r0, 14
		stw r2, r10[5]
	}
	ldaw r2, r10[r0]
	#completed deallocation
	{
		mkmsk r0, 4
		nop
	}
	ldaw r1, r10[r0]
	#completed deallocation
.Ltmp194:
.LBB11_7:                               # %LoopBody
                                        # =>This Loop Header: Depth=1
                                        #     Child Loop BB11_8 Depth 2
.Lxtalabel51:
	#DEBUG_VALUE: audio.task.0:frame <- R8
	{
		mkmsk r3, 4
		ldw r0, r10[3]
	}
	stw r0, r10[r3]
	#init allocation
	ldaw r0, r10[8]
	{
		ldc r3, 14
		nop
	}
	stw r0, r10[r3]
	#init allocation
	{
		mkmsk r2, 4
		nop
	}
	{
		nop
		ldw r7, r10[r2]
	}
.Ltmp195:
	#DEBUG_VALUE: audio.task.0:frame <- [R10+16]
	# STACKUP 
	# ALLOCA 2
	{
		extsp 2
		ldw r1, r8[2]
	}
	{
		mov r0, r7
		nop
	}
.Lxta.call_labels5:
	bl _SDFUHandler_0.init.0
	# STACKDOWN
	{
		ldaw sp, sp[2]
		ldc r3, 14
	}
	# STACKUP 
	# ALLOCA 3
	{
		extsp 2
		ldw r8, r10[r3]
	}
	{
		mov r0, r8
		ldw r1, r10[5]
	}
	{
		nop
		ldw r2, r10[2]
	}
.Lxta.call_labels6:
	bl dummy_deliver.init.0
	{
		ldaw sp, sp[2]
		nop
	}
	# STACKDOWN
	# STACKUP 
	# ALLOCA 4
	{
		extsp 2
		mov r0, r7
	}
	bl _SDFUHandler_0.init.1
	{
		ldaw sp, sp[2]
		nop
	}
	# STACKDOWN
	# STACKUP 
	# ALLOCA 5
	{
		extsp 2
		mov r0, r8
	}
	bl dummy_deliver.init.1
	{
		ldaw sp, sp[2]
		nop
	}
	# STACKDOWN
	bu .LBB11_8
.Ltmp196:
.LBB11_13:                              # %selectok
                                        #   in Loop: Header=BB11_8 Depth=2
	#DEBUG_VALUE: audio.task.0:frame <- [R10+16]
	bl __wait_nonlocal
	bu .Ltmp197
.Ltmp198:
.Ltmp197:                               # Block address taken
.LBB11_8:                               # %LoopBody54
                                        #   Parent Loop BB11_7 Depth=1
                                        # =>  This Inner Loop Header: Depth=2
	#DEBUG_VALUE: audio.task.0:frame <- [R10+16]
	{
		clre
		get r11, id
	}
	ldaw r0, dp[__timer_delta]
	stw r6, r0[r11]
	{
		setc res[r5], 1
		nop
	}
	{
		in r0, res[r5]
		nop
	}
	stw r0, r9[r11]
	# STACKUP 
	# ALLOCA 7
	{
		extsp 2
		mov r0, r7
	}
	bl _SDFUHandler_0.select.enable
	# STACKDOWN
	{
		ldaw sp, sp[2]
		ldw r2, r8[0]
	}
	{
		mov r1, r4
		nop
	}
	bf r2, .LBB11_10
.Ltmp199:
# BB#9:                                 # %iftrue.i
                                        #   in Loop: Header=BB11_8 Depth=2
	#DEBUG_VALUE: audio.task.0:frame <- [R10+16]
	{
		nop
		ldw r1, r8[2]
	}
	.file	2 "<synthesized>"
	.loc	2 894 9                 # <synthesized>:894:9
	ldap r11, dummy_deliver.select.case.0
	{
		setv res[r1], r11
		mov r11, r8
	}
	.loc	2 894 9                 # <synthesized>:894:9
	{
		setev res[r1], r11
		nop
	}
	.loc	2 894 9                 # <synthesized>:894:9
	{
		eeu res[r1]
		mkmsk r1, 1
	}
.Ltmp200:
.LBB11_10:                              # %dummy_deliver.select.enable.exit
                                        #   in Loop: Header=BB11_8 Depth=2
	#DEBUG_VALUE: audio.task.0:frame <- [R10+16]
	{
		or r0, r1, r0
		nop
	}
	bt r0, .LBB11_13
.Ltmp201:
# BB#11:                                # %ifdone51
                                        #   in Loop: Header=BB11_7 Depth=1
.Lxtalabel52:
	#DEBUG_VALUE: audio.task.0:frame <- [R10+16]
	# STACKUP 
	# ALLOCA 6
	{
		extsp 2
		mov r0, r7
	}
	bl _SDFUHandler_0.fini
	# STACKDOWN
.Ltmp202:
	#DEBUG_VALUE: audio.task.0:frame <- R8
	{
		ldaw sp, sp[2]
		ldw r8, r10[4]
	}
.Ltmp203:
	{
		nop
		ldw r2, r8[0]
	}
	.loc	1 1261 0                # /Users/rkn/Documents/xTIMEcomposer/workspace/module_usb_audio/audio.xc:1261:0
.Ltmp204:
.Lxta.endpoint_labels353:
	{
		in r0, res[r2]
		nop
	}
	{
		nop
		stw r0, r8[3]
	}
	ldw r1, cp[.LCPI11_3]
	.loc	1 1263 22               # /Users/rkn/Documents/xTIMEcomposer/workspace/module_usb_audio/audio.xc:1263:22
	{
		eq r0, r0, r1
		nop
	}
	.loc	1 1263 22               # /Users/rkn/Documents/xTIMEcomposer/workspace/module_usb_audio/audio.xc:1263:22
	bf r0, .LBB11_12
# BB#14:                                # %iftrue71
.Lxtalabel53:
	.loc	1 1265 0                # /Users/rkn/Documents/xTIMEcomposer/workspace/module_usb_audio/audio.xc:1265:0
.Lxta.endpoint_labels354:
	{
		outct res[r2], 1
		ldc r1, 14
	}
	ldaw r0, r10[r1]
	#completed deallocation
	{
		mkmsk r1, 4
		nop
	}
	ldaw r0, r10[r1]
	#completed deallocation
.Ltmp205:
.LBB11_15:                              # %return
.Lxtalabel54:
	ldd r9, r8, r10[10]             # 4-byte Folded Reload
	ldd r7, r6, r10[9]              # 4-byte Folded Reload
	ldd r5, r4, r10[8]              # 4-byte Folded Reload
	{
		nop
		set sp, r10
	}
	{
		nop
		ldw r10, sp[1]
	}
	{
		nop
		retsp 22
	}
	# RETURN_REG_HOLDER
	.cc_bottom audio.task.0.function
	.set	audio.task.0.nstackwords,((((((_SDFUHandler_0.init.0.savedstate << 2) + 15) & -8) >> 2) + ((2 + deliver.nstackwords) $M (2 + _SDFUHandler_0.init.0.nstackwords) $M (2 + dummy_deliver.init.0.nstackwords) $M (2 + _SDFUHandler_0.init.1.nstackwords) $M (2 + dummy_deliver.init.1.nstackwords) $M (2 + _SDFUHandler_0.select.enable.nstackwords) $M (2 + _SDFUHandler_0.fini.nstackwords) $M _SDFUHandler_0.select.enable.cases.nstackwords $M dummy_deliver.select.enable.cases.nstackwords)) + 22)
	.set	audio.task.0.maxcores,((1 * _SDFUHandler_0.dynalloc_maxcores) + ((1 * dummy_deliver.dynalloc_maxcores) + _SDFUHandler_0.fini.maxcores)) $M ((1 * _SDFUHandler_0.dynalloc_maxcores) + ((1 * dummy_deliver.dynalloc_maxcores) + _SDFUHandler_0.init.0.maxcores)) $M ((1 * _SDFUHandler_0.dynalloc_maxcores) + ((1 * dummy_deliver.dynalloc_maxcores) + _SDFUHandler_0.init.1.maxcores)) $M ((1 * _SDFUHandler_0.dynalloc_maxcores) + ((1 * dummy_deliver.dynalloc_maxcores) + _SDFUHandler_0.select.enable.maxcores)) $M ((1 * _SDFUHandler_0.dynalloc_maxcores) + ((1 * dummy_deliver.dynalloc_maxcores) + _SDFUHandler_0.select.enable.cases.maxcores)) $M deliver.maxcores $M ((1 * _SDFUHandler_0.dynalloc_maxcores) + ((1 * dummy_deliver.dynalloc_maxcores) + dummy_deliver.init.0.maxcores)) $M ((1 * _SDFUHandler_0.dynalloc_maxcores) + ((1 * dummy_deliver.dynalloc_maxcores) + dummy_deliver.init.1.maxcores)) $M ((1 * _SDFUHandler_0.dynalloc_maxcores) + ((1 * dummy_deliver.dynalloc_maxcores) + dummy_deliver.select.enable.cases.maxcores)) $M ((1 * _SDFUHandler_0.dynalloc_maxcores) + ((1 * dummy_deliver.dynalloc_maxcores) + 1))
	.set	audio.task.0.maxtimers,((1 * _SDFUHandler_0.dynalloc_maxtimers) + ((1 * dummy_deliver.dynalloc_maxtimers) + _SDFUHandler_0.fini.maxtimers)) $M ((1 * _SDFUHandler_0.dynalloc_maxtimers) + ((1 * dummy_deliver.dynalloc_maxtimers) + _SDFUHandler_0.init.0.maxtimers)) $M ((1 * _SDFUHandler_0.dynalloc_maxtimers) + ((1 * dummy_deliver.dynalloc_maxtimers) + _SDFUHandler_0.init.1.maxtimers)) $M ((1 * _SDFUHandler_0.dynalloc_maxtimers) + ((1 * dummy_deliver.dynalloc_maxtimers) + _SDFUHandler_0.select.enable.maxtimers)) $M ((1 * _SDFUHandler_0.dynalloc_maxtimers) + ((1 * dummy_deliver.dynalloc_maxtimers) + _SDFUHandler_0.select.enable.cases.maxtimers)) $M deliver.maxtimers $M ((1 * _SDFUHandler_0.dynalloc_maxtimers) + ((1 * dummy_deliver.dynalloc_maxtimers) + dummy_deliver.init.0.maxtimers)) $M ((1 * _SDFUHandler_0.dynalloc_maxtimers) + ((1 * dummy_deliver.dynalloc_maxtimers) + dummy_deliver.init.1.maxtimers)) $M ((1 * _SDFUHandler_0.dynalloc_maxtimers) + ((1 * dummy_deliver.dynalloc_maxtimers) + dummy_deliver.select.enable.cases.maxtimers)) $M ((1 * _SDFUHandler_0.dynalloc_maxtimers) + ((1 * dummy_deliver.dynalloc_maxtimers) + 0))
	.set	audio.task.0.maxchanends,((1 * _SDFUHandler_0.dynalloc_maxchanends) + ((1 * dummy_deliver.dynalloc_maxchanends) + _SDFUHandler_0.fini.maxchanends)) $M ((1 * _SDFUHandler_0.dynalloc_maxchanends) + ((1 * dummy_deliver.dynalloc_maxchanends) + _SDFUHandler_0.init.0.maxchanends)) $M ((1 * _SDFUHandler_0.dynalloc_maxchanends) + ((1 * dummy_deliver.dynalloc_maxchanends) + _SDFUHandler_0.init.1.maxchanends)) $M ((1 * _SDFUHandler_0.dynalloc_maxchanends) + ((1 * dummy_deliver.dynalloc_maxchanends) + _SDFUHandler_0.select.enable.maxchanends)) $M ((1 * _SDFUHandler_0.dynalloc_maxchanends) + ((1 * dummy_deliver.dynalloc_maxchanends) + _SDFUHandler_0.select.enable.cases.maxchanends)) $M deliver.maxchanends $M ((1 * _SDFUHandler_0.dynalloc_maxchanends) + ((1 * dummy_deliver.dynalloc_maxchanends) + dummy_deliver.init.0.maxchanends)) $M ((1 * _SDFUHandler_0.dynalloc_maxchanends) + ((1 * dummy_deliver.dynalloc_maxchanends) + dummy_deliver.init.1.maxchanends)) $M ((1 * _SDFUHandler_0.dynalloc_maxchanends) + ((1 * dummy_deliver.dynalloc_maxchanends) + dummy_deliver.select.enable.cases.maxchanends)) $M ((1 * _SDFUHandler_0.dynalloc_maxchanends) + ((1 * dummy_deliver.dynalloc_maxchanends) + 0))
.Ltmp206:
	.size	audio.task.0, .Ltmp206-audio.task.0
.Lfunc_end11:
	.cfi_endproc

	.section	.cp.rodata.cst4,"aMc",@progbits,4
	.cc_top .LCPI12_0.data,.LCPI12_0
	.align	4
	.type	.LCPI12_0,@object
	.size	.LCPI12_0, 4
.LCPI12_0:
	.long	22579200                # 0x1588800
	.cc_bottom .LCPI12_0.data
	.cc_top .LCPI12_1.data,.LCPI12_1
	.align	4
	.type	.LCPI12_1,@object
	.size	.LCPI12_1, 4
.LCPI12_1:
	.long	24576000                # 0x1770000
	.cc_bottom .LCPI12_1.data
	.cc_top .LCPI12_2.data,.LCPI12_2
	.align	4
	.type	.LCPI12_2,@object
	.size	.LCPI12_2, 4
.LCPI12_2:
	.long	2779096485              # 0xa5a5a5a5
	.cc_bottom .LCPI12_2.data
	.cc_top .LCPI12_3.data,.LCPI12_3
	.align	4
	.type	.LCPI12_3,@object
	.size	.LCPI12_3, 4
.LCPI12_3:
	.long	305419896               # 0x12345678
	.cc_bottom .LCPI12_3.data
	.text
	.globl	_Saudio_0
	.align	4
	.type	_Saudio_0,@function
	.cc_top _Saudio_0.function,_Saudio_0
_Saudio_0:                              # @_Saudio_0
.Lfunc_begin12:
	.loc	1 952 0                 # /Users/rkn/Documents/xTIMEcomposer/workspace/module_usb_audio/audio.xc:952:0
	.cfi_startproc
	.issue_mode dual
# BB#0:                                 # %allocas
.Lxtalabel55:
	{
		nop
		dualentsp 24
	}
.Ltmp207:
	.cfi_def_cfa_offset 96
.Ltmp208:
	.cfi_offset 15, 0
	std r5, r4, sp[8]               # 4-byte Folded Spill
.Ltmp209:
	.cfi_offset 4, -32
.Ltmp210:
	.cfi_offset 5, -28
	std r7, r6, sp[9]               # 4-byte Folded Spill
.Ltmp211:
	.cfi_offset 6, -24
.Ltmp212:
	.cfi_offset 7, -20
	std r9, r8, sp[10]              # 4-byte Folded Spill
.Ltmp213:
	.cfi_offset 8, -16
.Ltmp214:
	.cfi_offset 9, -12
	{
		nop
		stw r10, sp[22]
	}
.Ltmp215:
	.cfi_offset 10, -8
	{
		nop
		stw r0, sp[9]
	}
.Ltmp216:
	#DEBUG_VALUE: c_config <- R8
	{
		ldc r8, 0
		stw r1, sp[10]
	}
.Ltmp217:
	{
		nop
		stw r8, sp[11]
	}
	ldc r5, 48000
	.loc	1 962 0 prologue_end    # /Users/rkn/Documents/xTIMEcomposer/workspace/module_usb_audio/audio.xc:962:0
.Ltmp218:
	{
		ldc r9, 24
		stw r5, sp[12]
	}
	{
		nop
		stw r9, sp[13]
	}
.Ltmp219:
	#DEBUG_VALUE: firstRun <- 1
	#DEBUG_VALUE: curSamRes_ADC <- 24
	.loc	1 1004 0                # /Users/rkn/Documents/xTIMEcomposer/workspace/module_usb_audio/audio.xc:1004:0
	ldw r6, dp[clk_audio_mclk]
	.loc	1 1004 0                # /Users/rkn/Documents/xTIMEcomposer/workspace/module_usb_audio/audio.xc:1004:0
	ldw r1, dp[p_mclk_in]
	.loc	1 1004 0                # /Users/rkn/Documents/xTIMEcomposer/workspace/module_usb_audio/audio.xc:1004:0
	{
		mov r0, r6
		nop
	}
.Lxta.call_labels7:
	bl configure_clock_src
	.loc	1 1006 0                # /Users/rkn/Documents/xTIMEcomposer/workspace/module_usb_audio/audio.xc:1006:0
	{
		setc res[r6], 15
		mov r0, r8
	}
	.loc	1 1031 0                # /Users/rkn/Documents/xTIMEcomposer/workspace/module_usb_audio/audio.xc:1031:0
.Lxta.call_labels8:
	bl AudioHwInit
	{
		mkmsk r4, 1
		nop
	}
	ldw r7, cp[.LCPI12_0]
	{
		ldc r6, 4
		nop
	}
                                        # implicit-def: R10
	bu .LBB12_1
.LBB12_5:                               # %ifdone24
                                        #   in Loop: Header=BB12_1 Depth=1
.Lxtalabel56:
.Ltmp220:
	#DEBUG_VALUE: c_config <- R8
	#DEBUG_VALUE: curSamRes_ADC <- 24
	#DEBUG_VALUE: firstRun <- 0
	{
		ldaw r0, sp[9]
		nop
	}
	bl _Saudio_0.task.0
	.loc	1 1036 9                # /Users/rkn/Documents/xTIMEcomposer/workspace/module_usb_audio/audio.xc:1036:9
	{
		mov r4, r8
		ldw r5, sp[12]
	}
.Ltmp221:
.LBB12_1:                               # %LoopBody
                                        # =>This Inner Loop Header: Depth=1
.Lxtalabel57:
	#DEBUG_VALUE: c_config <- R8
	#DEBUG_VALUE: curSamRes_ADC <- 24
	#DEBUG_VALUE: firstRun <- 1
	#DEBUG_VALUE: curFreq <- R5
	.loc	1 1036 9                # /Users/rkn/Documents/xTIMEcomposer/workspace/module_usb_audio/audio.xc:1036:9
	remu r1, r7, r5
	{
		mov r0, r7
		nop
	}
	bf r1, .LBB12_2
.Ltmp222:
# BB#6:                                 # %iffalse
                                        #   in Loop: Header=BB12_1 Depth=1
.Lxtalabel58:
	#DEBUG_VALUE: c_config <- R8
	#DEBUG_VALUE: curSamRes_ADC <- 24
	#DEBUG_VALUE: firstRun <- 1
	#DEBUG_VALUE: mClk <- 24576000
	ldw r0, cp[.LCPI12_1]
	.loc	1 1045 14               # /Users/rkn/Documents/xTIMEcomposer/workspace/module_usb_audio/audio.xc:1045:14
	remu r0, r0, r5
	bt r0, .LBB12_8
.Ltmp223:
# BB#7:                                 # %iffalse
                                        #   in Loop: Header=BB12_1 Depth=1
.Lxtalabel59:
	#DEBUG_VALUE: c_config <- R8
	#DEBUG_VALUE: curSamRes_ADC <- 24
	#DEBUG_VALUE: firstRun <- 1
	#DEBUG_VALUE: mClk <- 24576000
	ldw r10, cp[.LCPI12_1]
.Ltmp224:
.LBB12_8:                               # %iffalse
                                        #   in Loop: Header=BB12_1 Depth=1
.Lxtalabel60:
	#DEBUG_VALUE: c_config <- R8
	#DEBUG_VALUE: curSamRes_ADC <- 24
	#DEBUG_VALUE: firstRun <- 1
	#DEBUG_VALUE: mClk <- 24576000
	{
		mov r0, r10
		nop
	}
.Ltmp225:
.LBB12_2:                               # %ifdone3
                                        #   in Loop: Header=BB12_1 Depth=1
.Lxtalabel61:
	#DEBUG_VALUE: c_config <- R8
	#DEBUG_VALUE: curSamRes_ADC <- 24
	#DEBUG_VALUE: firstRun <- 1
	#DEBUG_VALUE: curFreq <- R5
	#DEBUG_VALUE: numBits <- 256
	{
		mov r10, r0
		shl r0, r5, 8
	}
	.loc	1 1078 0                # /Users/rkn/Documents/xTIMEcomposer/workspace/module_usb_audio/audio.xc:1078:0
.Ltmp226:
	divu r0, r10, r0
	{
		nop
		stw r0, sp[15]
	}
.Ltmp227:
	.loc	1 1107 0                # /Users/rkn/Documents/xTIMEcomposer/workspace/module_usb_audio/audio.xc:1107:0
	ldw r1, dp[dsdMode]
	.loc	1 1107 0                # /Users/rkn/Documents/xTIMEcomposer/workspace/module_usb_audio/audio.xc:1107:0
	std r1, r5, sp[2]
	.loc	1 1107 0                # /Users/rkn/Documents/xTIMEcomposer/workspace/module_usb_audio/audio.xc:1107:0
	ldw r1, dp[p_bclk]
	.loc	1 1107 0                # /Users/rkn/Documents/xTIMEcomposer/workspace/module_usb_audio/audio.xc:1107:0
	std r0, r1, sp[1]
	std r6, r6, sp[3]
	.loc	1 1107 0                # /Users/rkn/Documents/xTIMEcomposer/workspace/module_usb_audio/audio.xc:1107:0
	ldw r0, dp[p_lrclk]
	{
		nop
		stw r0, sp[1]
	}
	.loc	1 1107 0                # /Users/rkn/Documents/xTIMEcomposer/workspace/module_usb_audio/audio.xc:1107:0
	ldaw r0, dp[p_i2s_dac]
	{
		mov r1, r6
		nop
	}
	ldaw r2, dp[p_i2s_adc]
	{
		mov r3, r6
		nop
	}
.Lxta.call_labels9:
	bl ConfigAudioPortsWrapper
	.loc	1 1143 0                # /Users/rkn/Documents/xTIMEcomposer/workspace/module_usb_audio/audio.xc:1143:0
.Ltmp228:
	ldw r3, dp[dsdMode]
	{
		nop
		ldw r0, sp[13]
	}
	{
		nop
		stw r9, sp[2]
	}
	.loc	1 1143 0                # /Users/rkn/Documents/xTIMEcomposer/workspace/module_usb_audio/audio.xc:1143:0
	{
		mov r0, r5
		stw r0, sp[1]
	}
	{
		mov r1, r10
		mov r2, r8
	}
.Lxta.call_labels10:
	bl AudioHwConfig
	bt r4, .LBB12_5
.Ltmp229:
# BB#3:                                 # %iftrue23
                                        #   in Loop: Header=BB12_1 Depth=1
.Lxtalabel62:
	#DEBUG_VALUE: c_config <- R8
	#DEBUG_VALUE: curSamRes_ADC <- 24
	#DEBUG_VALUE: firstRun <- 1
	ldw r0, cp[.LCPI12_2]
	.loc	1 1150 13               # /Users/rkn/Documents/xTIMEcomposer/workspace/module_usb_audio/audio.xc:1150:13
	{
		eq r0, r5, r0
		nop
	}
	bt r0, .LBB12_5
.Ltmp230:
# BB#4:                                 # %iftrue23
                                        #   in Loop: Header=BB12_1 Depth=1
.Lxtalabel63:
	ldw r0, cp[.LCPI12_3]
	{
		eq r0, r5, r0
		nop
	}
	bt r0, .LBB12_5
# BB#9:                                 # %lhsfalse41
                                        #   in Loop: Header=BB12_1 Depth=1
	{
		nop
		ldw r0, sp[14]
	}
	bf r0, .LBB12_5
# BB#10:                                # %iftrue28
                                        #   in Loop: Header=BB12_1 Depth=1
.Lxtalabel64:
	{
		nop
		ldw r0, sp[9]
	}
	.loc	1 1163 0                # /Users/rkn/Documents/xTIMEcomposer/workspace/module_usb_audio/audio.xc:1163:0
.Lxta.endpoint_labels355:
	{
		outct res[r0], 1
		nop
	}
	bu .LBB12_5
.Ltmp231:
	.cc_bottom _Saudio_0.function
	.set	_Saudio_0.nstackwords,((configure_clock_src.nstackwords $M AudioHwInit.nstackwords $M ConfigAudioPortsWrapper.nstackwords $M AudioHwConfig.nstackwords $M _Saudio_0.task.0.nstackwords) + 24)
	.globl	_Saudio_0.nstackwords
	.set	_Saudio_0.maxcores,AudioHwConfig.maxcores $M AudioHwInit.maxcores $M ConfigAudioPortsWrapper.maxcores $M _Saudio_0.task.0.maxcores $M configure_clock_src.maxcores $M 1
	.globl	_Saudio_0.maxcores
	.set	_Saudio_0.maxtimers,AudioHwConfig.maxtimers $M AudioHwInit.maxtimers $M ConfigAudioPortsWrapper.maxtimers $M _Saudio_0.task.0.maxtimers $M configure_clock_src.maxtimers $M 0
	.globl	_Saudio_0.maxtimers
	.set	_Saudio_0.maxchanends,AudioHwConfig.maxchanends $M AudioHwInit.maxchanends $M ConfigAudioPortsWrapper.maxchanends $M _Saudio_0.task.0.maxchanends $M configure_clock_src.maxchanends $M 0
	.globl	_Saudio_0.maxchanends
.Ltmp232:
	.size	_Saudio_0, .Ltmp232-_Saudio_0
.Lfunc_end12:
	.cfi_endproc

	.section	.cp.rodata.cst4,"aMc",@progbits,4
	.cc_top .LCPI13_0.data,.LCPI13_0
	.align	4
	.type	.LCPI13_0,@object
	.size	.LCPI13_0, 4
.LCPI13_0:
	.long	4294967288              # 0xfffffff8
	.cc_bottom .LCPI13_0.data
	.cc_top .LCPI13_1.data,.LCPI13_1
	.align	4
	.type	.LCPI13_1,@object
	.size	.LCPI13_1, 4
.LCPI13_1:
	.long	305419896               # 0x12345678
	.cc_bottom .LCPI13_1.data
	.cc_top .LCPI13_2.data,.LCPI13_2
	.align	4
	.type	.LCPI13_2,@object
	.size	.LCPI13_2, 4
.LCPI13_2:
	.long	2147483647              # 0x7fffffff
	.cc_bottom .LCPI13_2.data
	.cc_top .LCPI13_3.data,.LCPI13_3
	.align	4
	.type	.LCPI13_3,@object
	.size	.LCPI13_3, 4
.LCPI13_3:
	.long	2271560481              # 0x87654321
	.cc_bottom .LCPI13_3.data
	.text
	.align	4
	.type	_Saudio_0.task.0,@function
	.cc_top _Saudio_0.task.0.function,_Saudio_0.task.0
_Saudio_0.task.0:                       # @_Saudio_0.task.0
.Lfunc_begin13:
	.loc	1 1184 0                # /Users/rkn/Documents/xTIMEcomposer/workspace/module_usb_audio/audio.xc:1184:0
	.cfi_startproc
	.issue_mode dual
# BB#0:                                 # %allocas
	{
		nop
		dualentsp 22
	}
.Ltmp233:
	.cfi_def_cfa_offset 88
.Ltmp234:
	.cfi_offset 15, 0
.Ltmp235:
	.cfi_offset 10, -84
.Ltmp236:
	.cfi_def_cfa_register 10
	{
		ldaw r10, sp[0]
		stw r10, sp[1]
	}
	std r5, r4, r10[8]              # 4-byte Folded Spill
.Ltmp237:
	.cfi_offset 4, -24
.Ltmp238:
	.cfi_offset 5, -20
	std r7, r6, r10[9]              # 4-byte Folded Spill
.Ltmp239:
	.cfi_offset 6, -16
.Ltmp240:
	.cfi_offset 7, -12
	std r9, r8, r10[10]             # 4-byte Folded Spill
.Ltmp241:
	.cfi_offset 8, -8
.Ltmp242:
	.cfi_offset 9, -4
	#DEBUG_VALUE: _Saudio_0.task.0:frame <- R0
	{
		mov r8, r0
		nop
	}
.Ltmp243:
	#DEBUG_VALUE: _Saudio_0.task.0:frame <- R8
	{
		nop
		stw r8, r10[4]
	}
	ldc r0, _SDFUHandler_0.init.0.savedstate
	{
		mkmsk r1, 4
		nop
	}
	ldaw r0, r1[r0]
	ldw r1, cp[.LCPI13_0]
	{
		and r0, r0, r1
		ldaw r1, sp[0]
	}
	{
		sub r0, r1, r0
		nop
	}
	# ALLOCA 0
	{
		add r0, r0, 8
		set sp, r0
	}
	{
		nop
		stw r0, r10[3]
	}
	.loc	1 1209 0 prologue_end   # /Users/rkn/Documents/xTIMEcomposer/workspace/module_usb_audio/audio.xc:1209:0
.Ltmp244:
	ldaw r0, r8[5]
	{
		nop
		stw r0, r10[2]
	}
	.loc	1 1209 0                # /Users/rkn/Documents/xTIMEcomposer/workspace/module_usb_audio/audio.xc:1209:0
	# STACKUP 
	# ALLOCA 1
	.loc	1 1209 0                # /Users/rkn/Documents/xTIMEcomposer/workspace/module_usb_audio/audio.xc:1209:0
	{
		extsp 2
		ldw r5, r8[0]
	}
	.loc	1 1209 0                # /Users/rkn/Documents/xTIMEcomposer/workspace/module_usb_audio/audio.xc:1209:0
	{
		mov r0, r5
		nop
	}
.Lxta.call_labels11:
	bl deliver
	# STACKDOWN
	{
		ldaw sp, sp[2]
		stw r0, r8[5]
	}
	.loc	1 1228 17               # /Users/rkn/Documents/xTIMEcomposer/workspace/module_usb_audio/audio.xc:1228:17
	{
		eq r1, r0, 8
		nop
	}
	bf r1, .LBB13_1
.Ltmp245:
# BB#3:                                 # %iftrue11
.Lxtalabel65:
	#DEBUG_VALUE: _Saudio_0.task.0:frame <- R8
	.loc	1 1238 0                # /Users/rkn/Documents/xTIMEcomposer/workspace/module_usb_audio/audio.xc:1238:0
.Lxta.endpoint_labels356:
	{
		in r0, res[r5]
		nop
	}
	.loc	1 1238 0                # /Users/rkn/Documents/xTIMEcomposer/workspace/module_usb_audio/audio.xc:1238:0
	stw r0, dp[dsdMode]
	.loc	1 1239 0                # /Users/rkn/Documents/xTIMEcomposer/workspace/module_usb_audio/audio.xc:1239:0
.Lxta.endpoint_labels357:
	{
		in r0, res[r5]
		nop
	}
	{
		nop
		stw r0, r8[4]
	}
	bu .LBB13_4
.Ltmp246:
.LBB13_1:                               # %allocas
	#DEBUG_VALUE: _Saudio_0.task.0:frame <- R8
	{
		eq r0, r0, 4
		nop
	}
	bf r0, .LBB13_4
.Ltmp247:
# BB#2:                                 # %iftrue
.Lxtalabel66:
	#DEBUG_VALUE: _Saudio_0.task.0:frame <- R8
	.loc	1 1230 0                # /Users/rkn/Documents/xTIMEcomposer/workspace/module_usb_audio/audio.xc:1230:0
.Lxta.endpoint_labels358:
	{
		in r0, res[r5]
		nop
	}
	{
		nop
		stw r0, r8[3]
	}
	bu .LBB13_5
.Ltmp248:
.LBB13_4:                               # %ifdonethread-pre-split
	#DEBUG_VALUE: _Saudio_0.task.0:frame <- R8
	{
		nop
		ldw r0, r8[3]
	}
.Ltmp249:
.LBB13_5:                               # %ifdone
.Lxtalabel67:
	#DEBUG_VALUE: _Saudio_0.task.0:frame <- R8
	ldw r1, cp[.LCPI13_1]
	.loc	1 1243 17               # /Users/rkn/Documents/xTIMEcomposer/workspace/module_usb_audio/audio.xc:1243:17
	{
		eq r0, r0, r1
		nop
	}
	bf r0, .LBB13_15
.Ltmp250:
# BB#6:                                 # %iftrue23
.Lxtalabel68:
	#DEBUG_VALUE: _Saudio_0.task.0:frame <- R8
	.loc	1 1245 0                # /Users/rkn/Documents/xTIMEcomposer/workspace/module_usb_audio/audio.xc:1245:0
.Lxta.endpoint_labels359:
	{
		outct res[r5], 1
		ldc r4, 0
	}
	.loc	1 1247 0                # /Users/rkn/Documents/xTIMEcomposer/workspace/module_usb_audio/audio.xc:1247:0
.Lxta.endpoint_labels360:
	{
		out res[r5], r4
		stw r5, r10[5]
	}
	{
		get r11, id
		nop
	}
	ldaw r0, dp[__timers]
	{
		mkmsk r0, 4
		ldw r5, r0[r11]
	}
	ldaw r1, r10[r0]
	{
		ldc r0, 14
		nop
	}
	ldaw r2, r10[r0]
	ldw r6, cp[.LCPI13_2]
	ldaw r9, dp[__timer_base]
	bu .LBB13_7
.Ltmp251:
.LBB13_12:                              # %cleanup41
                                        #   in Loop: Header=BB13_7 Depth=1
	#DEBUG_VALUE: _Saudio_0.task.0:frame <- R8
	{
		ldc r0, 14
		stw r2, r10[5]
	}
	ldaw r2, r10[r0]
	#completed deallocation
	{
		mkmsk r0, 4
		nop
	}
	ldaw r1, r10[r0]
	#completed deallocation
.Ltmp252:
.LBB13_7:                               # %LoopBody
                                        # =>This Loop Header: Depth=1
                                        #     Child Loop BB13_8 Depth 2
.Lxtalabel69:
	#DEBUG_VALUE: _Saudio_0.task.0:frame <- R8
	{
		mkmsk r3, 4
		ldw r0, r10[3]
	}
	stw r0, r10[r3]
	#init allocation
	ldaw r0, r10[8]
	{
		ldc r3, 14
		nop
	}
	stw r0, r10[r3]
	#init allocation
	{
		mkmsk r2, 4
		nop
	}
	{
		nop
		ldw r7, r10[r2]
	}
.Ltmp253:
	#DEBUG_VALUE: _Saudio_0.task.0:frame <- [R10+16]
	# STACKUP 
	# ALLOCA 2
	{
		extsp 2
		ldw r1, r8[1]
	}
	{
		mov r0, r7
		nop
	}
.Lxta.call_labels12:
	bl _SDFUHandler_0.init.0
	# STACKDOWN
	{
		ldaw sp, sp[2]
		ldc r3, 14
	}
	# STACKUP 
	# ALLOCA 3
	{
		extsp 2
		ldw r8, r10[r3]
	}
	{
		mov r0, r8
		ldw r1, r10[5]
	}
	{
		nop
		ldw r2, r10[2]
	}
.Lxta.call_labels13:
	bl dummy_deliver.init.0
	{
		ldaw sp, sp[2]
		nop
	}
	# STACKDOWN
	# STACKUP 
	# ALLOCA 4
	{
		extsp 2
		mov r0, r7
	}
	bl _SDFUHandler_0.init.1
	{
		ldaw sp, sp[2]
		nop
	}
	# STACKDOWN
	# STACKUP 
	# ALLOCA 5
	{
		extsp 2
		mov r0, r8
	}
	bl dummy_deliver.init.1
	{
		ldaw sp, sp[2]
		nop
	}
	# STACKDOWN
	bu .LBB13_8
.Ltmp254:
.LBB13_13:                              # %selectok
                                        #   in Loop: Header=BB13_8 Depth=2
	#DEBUG_VALUE: _Saudio_0.task.0:frame <- [R10+16]
	bl __wait_nonlocal
	bu .Ltmp255
.Ltmp256:
.Ltmp255:                               # Block address taken
.LBB13_8:                               # %LoopBody54
                                        #   Parent Loop BB13_7 Depth=1
                                        # =>  This Inner Loop Header: Depth=2
	#DEBUG_VALUE: _Saudio_0.task.0:frame <- [R10+16]
	{
		clre
		get r11, id
	}
	ldaw r0, dp[__timer_delta]
	stw r6, r0[r11]
	{
		setc res[r5], 1
		nop
	}
	{
		in r0, res[r5]
		nop
	}
	stw r0, r9[r11]
	# STACKUP 
	# ALLOCA 7
	{
		extsp 2
		mov r0, r7
	}
	bl _SDFUHandler_0.select.enable
	# STACKDOWN
	{
		ldaw sp, sp[2]
		ldw r2, r8[0]
	}
	{
		mov r1, r4
		nop
	}
	bf r2, .LBB13_10
.Ltmp257:
# BB#9:                                 # %iftrue.i
                                        #   in Loop: Header=BB13_8 Depth=2
	#DEBUG_VALUE: _Saudio_0.task.0:frame <- [R10+16]
	{
		nop
		ldw r1, r8[2]
	}
	.loc	2 894 9                 # <synthesized>:894:9
	ldap r11, dummy_deliver.select.case.0
	{
		setv res[r1], r11
		mov r11, r8
	}
	.loc	2 894 9                 # <synthesized>:894:9
	{
		setev res[r1], r11
		nop
	}
	.loc	2 894 9                 # <synthesized>:894:9
	{
		eeu res[r1]
		mkmsk r1, 1
	}
.Ltmp258:
.LBB13_10:                              # %dummy_deliver.select.enable.exit
                                        #   in Loop: Header=BB13_8 Depth=2
	#DEBUG_VALUE: _Saudio_0.task.0:frame <- [R10+16]
	{
		or r0, r1, r0
		nop
	}
	bt r0, .LBB13_13
.Ltmp259:
# BB#11:                                # %ifdone51
                                        #   in Loop: Header=BB13_7 Depth=1
.Lxtalabel70:
	#DEBUG_VALUE: _Saudio_0.task.0:frame <- [R10+16]
	# STACKUP 
	# ALLOCA 6
	{
		extsp 2
		mov r0, r7
	}
	bl _SDFUHandler_0.fini
	# STACKDOWN
.Ltmp260:
	#DEBUG_VALUE: _Saudio_0.task.0:frame <- R8
	{
		ldaw sp, sp[2]
		ldw r8, r10[4]
	}
.Ltmp261:
	{
		nop
		ldw r2, r8[0]
	}
	.loc	1 1261 0                # /Users/rkn/Documents/xTIMEcomposer/workspace/module_usb_audio/audio.xc:1261:0
.Ltmp262:
.Lxta.endpoint_labels361:
	{
		in r0, res[r2]
		nop
	}
	{
		nop
		stw r0, r8[3]
	}
	ldw r1, cp[.LCPI13_3]
	.loc	1 1263 22               # /Users/rkn/Documents/xTIMEcomposer/workspace/module_usb_audio/audio.xc:1263:22
	{
		eq r0, r0, r1
		nop
	}
	.loc	1 1263 22               # /Users/rkn/Documents/xTIMEcomposer/workspace/module_usb_audio/audio.xc:1263:22
	bf r0, .LBB13_12
# BB#14:                                # %iftrue71
.Lxtalabel71:
	.loc	1 1265 0                # /Users/rkn/Documents/xTIMEcomposer/workspace/module_usb_audio/audio.xc:1265:0
.Lxta.endpoint_labels362:
	{
		outct res[r2], 1
		ldc r1, 14
	}
	ldaw r0, r10[r1]
	#completed deallocation
	{
		mkmsk r1, 4
		nop
	}
	ldaw r0, r10[r1]
	#completed deallocation
.Ltmp263:
.LBB13_15:                              # %return
.Lxtalabel72:
	ldd r9, r8, r10[10]             # 4-byte Folded Reload
	ldd r7, r6, r10[9]              # 4-byte Folded Reload
	ldd r5, r4, r10[8]              # 4-byte Folded Reload
	{
		nop
		set sp, r10
	}
	{
		nop
		ldw r10, sp[1]
	}
	{
		nop
		retsp 22
	}
	# RETURN_REG_HOLDER
	.cc_bottom _Saudio_0.task.0.function
	.set	_Saudio_0.task.0.nstackwords,((((((_SDFUHandler_0.init.0.savedstate << 2) + 15) & -8) >> 2) + ((2 + deliver.nstackwords) $M (2 + _SDFUHandler_0.init.0.nstackwords) $M (2 + dummy_deliver.init.0.nstackwords) $M (2 + _SDFUHandler_0.init.1.nstackwords) $M (2 + dummy_deliver.init.1.nstackwords) $M (2 + _SDFUHandler_0.select.enable.nstackwords) $M (2 + _SDFUHandler_0.fini.nstackwords) $M _SDFUHandler_0.select.enable.cases.nstackwords $M dummy_deliver.select.enable.cases.nstackwords)) + 22)
	.set	_Saudio_0.task.0.maxcores,((1 * _SDFUHandler_0.dynalloc_maxcores) + ((1 * dummy_deliver.dynalloc_maxcores) + _SDFUHandler_0.fini.maxcores)) $M ((1 * _SDFUHandler_0.dynalloc_maxcores) + ((1 * dummy_deliver.dynalloc_maxcores) + _SDFUHandler_0.init.0.maxcores)) $M ((1 * _SDFUHandler_0.dynalloc_maxcores) + ((1 * dummy_deliver.dynalloc_maxcores) + _SDFUHandler_0.init.1.maxcores)) $M ((1 * _SDFUHandler_0.dynalloc_maxcores) + ((1 * dummy_deliver.dynalloc_maxcores) + _SDFUHandler_0.select.enable.maxcores)) $M ((1 * _SDFUHandler_0.dynalloc_maxcores) + ((1 * dummy_deliver.dynalloc_maxcores) + _SDFUHandler_0.select.enable.cases.maxcores)) $M deliver.maxcores $M ((1 * _SDFUHandler_0.dynalloc_maxcores) + ((1 * dummy_deliver.dynalloc_maxcores) + dummy_deliver.init.0.maxcores)) $M ((1 * _SDFUHandler_0.dynalloc_maxcores) + ((1 * dummy_deliver.dynalloc_maxcores) + dummy_deliver.init.1.maxcores)) $M ((1 * _SDFUHandler_0.dynalloc_maxcores) + ((1 * dummy_deliver.dynalloc_maxcores) + dummy_deliver.select.enable.cases.maxcores)) $M ((1 * _SDFUHandler_0.dynalloc_maxcores) + ((1 * dummy_deliver.dynalloc_maxcores) + 1))
	.set	_Saudio_0.task.0.maxtimers,((1 * _SDFUHandler_0.dynalloc_maxtimers) + ((1 * dummy_deliver.dynalloc_maxtimers) + _SDFUHandler_0.fini.maxtimers)) $M ((1 * _SDFUHandler_0.dynalloc_maxtimers) + ((1 * dummy_deliver.dynalloc_maxtimers) + _SDFUHandler_0.init.0.maxtimers)) $M ((1 * _SDFUHandler_0.dynalloc_maxtimers) + ((1 * dummy_deliver.dynalloc_maxtimers) + _SDFUHandler_0.init.1.maxtimers)) $M ((1 * _SDFUHandler_0.dynalloc_maxtimers) + ((1 * dummy_deliver.dynalloc_maxtimers) + _SDFUHandler_0.select.enable.maxtimers)) $M ((1 * _SDFUHandler_0.dynalloc_maxtimers) + ((1 * dummy_deliver.dynalloc_maxtimers) + _SDFUHandler_0.select.enable.cases.maxtimers)) $M deliver.maxtimers $M ((1 * _SDFUHandler_0.dynalloc_maxtimers) + ((1 * dummy_deliver.dynalloc_maxtimers) + dummy_deliver.init.0.maxtimers)) $M ((1 * _SDFUHandler_0.dynalloc_maxtimers) + ((1 * dummy_deliver.dynalloc_maxtimers) + dummy_deliver.init.1.maxtimers)) $M ((1 * _SDFUHandler_0.dynalloc_maxtimers) + ((1 * dummy_deliver.dynalloc_maxtimers) + dummy_deliver.select.enable.cases.maxtimers)) $M ((1 * _SDFUHandler_0.dynalloc_maxtimers) + ((1 * dummy_deliver.dynalloc_maxtimers) + 0))
	.set	_Saudio_0.task.0.maxchanends,((1 * _SDFUHandler_0.dynalloc_maxchanends) + ((1 * dummy_deliver.dynalloc_maxchanends) + _SDFUHandler_0.fini.maxchanends)) $M ((1 * _SDFUHandler_0.dynalloc_maxchanends) + ((1 * dummy_deliver.dynalloc_maxchanends) + _SDFUHandler_0.init.0.maxchanends)) $M ((1 * _SDFUHandler_0.dynalloc_maxchanends) + ((1 * dummy_deliver.dynalloc_maxchanends) + _SDFUHandler_0.init.1.maxchanends)) $M ((1 * _SDFUHandler_0.dynalloc_maxchanends) + ((1 * dummy_deliver.dynalloc_maxchanends) + _SDFUHandler_0.select.enable.maxchanends)) $M ((1 * _SDFUHandler_0.dynalloc_maxchanends) + ((1 * dummy_deliver.dynalloc_maxchanends) + _SDFUHandler_0.select.enable.cases.maxchanends)) $M deliver.maxchanends $M ((1 * _SDFUHandler_0.dynalloc_maxchanends) + ((1 * dummy_deliver.dynalloc_maxchanends) + dummy_deliver.init.0.maxchanends)) $M ((1 * _SDFUHandler_0.dynalloc_maxchanends) + ((1 * dummy_deliver.dynalloc_maxchanends) + dummy_deliver.init.1.maxchanends)) $M ((1 * _SDFUHandler_0.dynalloc_maxchanends) + ((1 * dummy_deliver.dynalloc_maxchanends) + dummy_deliver.select.enable.cases.maxchanends)) $M ((1 * _SDFUHandler_0.dynalloc_maxchanends) + ((1 * dummy_deliver.dynalloc_maxchanends) + 0))
.Ltmp264:
	.size	_Saudio_0.task.0, .Ltmp264-_Saudio_0.task.0
.Lfunc_end13:
	.cfi_endproc

	.section	.dp.bss.4,"awd",@nobits
	.cc_top samplesOut.data,samplesOut
	.align	4
	.type	samplesOut,@object
	.size	samplesOut, 128
samplesOut:
	.space	128
	.cc_bottom samplesOut.data
	.cc_top samplesIn_0.data,samplesIn_0
	.align	4
	.type	samplesIn_0,@object
	.size	samplesIn_0, 128
samplesIn_0:
	.space	128
	.cc_bottom samplesIn_0.data
	.cc_top samplesIn_1.data,samplesIn_1
	.align	4
	.type	samplesIn_1,@object
	.size	samplesIn_1, 128
samplesIn_1:
	.space	128
	.cc_bottom samplesIn_1.data
	.cc_top g_adcVal.data,g_adcVal
	.globl	g_adcVal
	.align	4
	.type	g_adcVal,@object
	.size	g_adcVal, 4
g_adcVal:
	.long	0                       # 0x0
	.cc_bottom g_adcVal.data
	.cc_top dsdMode.data,dsdMode
	.globl	dsdMode
	.align	4
	.type	dsdMode,@object
	.size	dsdMode, 4
dsdMode:
	.long	0                       # 0x0
	.cc_bottom dsdMode.data
.Ldebug_end0:
	.text
.Ldebug_end1:
	.file	3 "/Applications/XMOS_xTIMEcomposer_Community_14.3.2/target/include/timer.h"
	.file	4 "/Users/rkn/Documents/xTIMEcomposer/workspace/module_usb_audio/usb_buffer/xc_ptr.h"
	.section	.xtacalltable,"",@progbits
.Lentries_start0:
	.long	.Lentries_end1-.Lentries_start0
	.long	0
	.ascii	"/Users/rkn/Documents/xTIMEcomposer/workspace/app_usb_aud_xk_216_mc/.build_2i32o32xxxxx_tdm8"
	.byte	0
.cc_top cc_0,.Lxta.call_labels0
	.ascii	"/Users/rkn/Documents/xTIMEcomposer/workspace/module_usb_audio/audio.xc"
	.byte	0
	.long	1004
	.long	.Lxta.call_labels0
.cc_bottom cc_0
.cc_top cc_1,.Lxta.call_labels7
	.ascii	"/Users/rkn/Documents/xTIMEcomposer/workspace/module_usb_audio/audio.xc"
	.byte	0
	.long	1004
	.long	.Lxta.call_labels7
.cc_bottom cc_1
.cc_top cc_2,.Lxta.call_labels8
	.ascii	"/Users/rkn/Documents/xTIMEcomposer/workspace/module_usb_audio/audio.xc"
	.byte	0
	.long	1031
	.long	.Lxta.call_labels8
.cc_bottom cc_2
.cc_top cc_3,.Lxta.call_labels1
	.ascii	"/Users/rkn/Documents/xTIMEcomposer/workspace/module_usb_audio/audio.xc"
	.byte	0
	.long	1031
	.long	.Lxta.call_labels1
.cc_bottom cc_3
.cc_top cc_4,.Lxta.call_labels2
	.ascii	"/Users/rkn/Documents/xTIMEcomposer/workspace/module_usb_audio/audio.xc"
	.byte	0
	.long	1107
	.long	.Lxta.call_labels2
.cc_bottom cc_4
.cc_top cc_5,.Lxta.call_labels9
	.ascii	"/Users/rkn/Documents/xTIMEcomposer/workspace/module_usb_audio/audio.xc"
	.byte	0
	.long	1107
	.long	.Lxta.call_labels9
.cc_bottom cc_5
.cc_top cc_6,.Lxta.call_labels3
	.ascii	"/Users/rkn/Documents/xTIMEcomposer/workspace/module_usb_audio/audio.xc"
	.byte	0
	.long	1143
	.long	.Lxta.call_labels3
.cc_bottom cc_6
.cc_top cc_7,.Lxta.call_labels10
	.ascii	"/Users/rkn/Documents/xTIMEcomposer/workspace/module_usb_audio/audio.xc"
	.byte	0
	.long	1143
	.long	.Lxta.call_labels10
.cc_bottom cc_7
.cc_top cc_8,.Lxta.call_labels11
	.ascii	"/Users/rkn/Documents/xTIMEcomposer/workspace/module_usb_audio/audio.xc"
	.byte	0
	.long	1209
	.long	.Lxta.call_labels11
.cc_bottom cc_8
.cc_top cc_9,.Lxta.call_labels4
	.ascii	"/Users/rkn/Documents/xTIMEcomposer/workspace/module_usb_audio/audio.xc"
	.byte	0
	.long	1209
	.long	.Lxta.call_labels4
.cc_bottom cc_9
.cc_top cc_10,.Lxta.call_labels5
	.ascii	"/Users/rkn/Documents/xTIMEcomposer/workspace/module_usb_audio/audio.xc"
	.byte	0
	.long	1255
	.long	.Lxta.call_labels5
.cc_bottom cc_10
.cc_top cc_11,.Lxta.call_labels12
	.ascii	"/Users/rkn/Documents/xTIMEcomposer/workspace/module_usb_audio/audio.xc"
	.byte	0
	.long	1255
	.long	.Lxta.call_labels12
.cc_bottom cc_11
.cc_top cc_12,.Lxta.call_labels6
	.ascii	"/Users/rkn/Documents/xTIMEcomposer/workspace/module_usb_audio/audio.xc"
	.byte	0
	.long	1256
	.long	.Lxta.call_labels6
.cc_bottom cc_12
.cc_top cc_13,.Lxta.call_labels13
	.ascii	"/Users/rkn/Documents/xTIMEcomposer/workspace/module_usb_audio/audio.xc"
	.byte	0
	.long	1256
	.long	.Lxta.call_labels13
.cc_bottom cc_13
.Lentries_end1:
	.section	.xtaendpoint,"",@progbits
.Lentries_start2:
	.long	.Lentries_end3-.Lentries_start2
	.long	1
	.ascii	"/Users/rkn/Documents/xTIMEcomposer/workspace/app_usb_aud_xk_216_mc/.build_2i32o32xxxxx_tdm8"
	.byte	0
	.ascii	"deliver_return"
	.byte	0
	.ascii	"/Users/rkn/Documents/xTIMEcomposer/workspace/module_usb_audio/audio.xc"
	.byte	0
	.long	847
	.long	0
	.ascii	"divide_1"
	.byte	0
	.ascii	"/Users/rkn/Documents/xTIMEcomposer/workspace/module_usb_audio/audio.xc"
	.byte	0
	.long	338
	.long	.Laddr_end1-.Laddr_start0
.Laddr_start0:
.cc_top cc_14,.Lxta.endpoint_labels68
	.long	.Lxta.endpoint_labels68
	.ascii	"InitPorts,"
	.byte	0
.cc_bottom cc_14
.Laddr_end1:
	.ascii	"i2s_output_l"
	.byte	0
	.ascii	"/Users/rkn/Documents/xTIMEcomposer/workspace/module_usb_audio/audio.xc"
	.byte	0
	.long	651
	.long	.Laddr_end3-.Laddr_start2
.Laddr_start2:
.cc_top cc_15,.Lxta.endpoint_labels75
	.long	.Lxta.endpoint_labels75
	.byte	0
.cc_bottom cc_15
.cc_top cc_16,.Lxta.endpoint_labels76
	.long	.Lxta.endpoint_labels76
	.byte	0
.cc_bottom cc_16
.cc_top cc_17,.Lxta.endpoint_labels77
	.long	.Lxta.endpoint_labels77
	.byte	0
.cc_bottom cc_17
.cc_top cc_18,.Lxta.endpoint_labels78
	.long	.Lxta.endpoint_labels78
	.byte	0
.cc_bottom cc_18
.Laddr_end3:
	.ascii	"i2s_output_r"
	.byte	0
	.ascii	"/Users/rkn/Documents/xTIMEcomposer/workspace/module_usb_audio/audio.xc"
	.byte	0
	.long	758
	.long	.Laddr_end5-.Laddr_start4
.Laddr_start4:
.cc_top cc_19,.Lxta.endpoint_labels81
	.long	.Lxta.endpoint_labels81
	.byte	0
.cc_bottom cc_19
.cc_top cc_20,.Lxta.endpoint_labels82
	.long	.Lxta.endpoint_labels82
	.byte	0
.cc_bottom cc_20
.cc_top cc_21,.Lxta.endpoint_labels84
	.long	.Lxta.endpoint_labels84
	.byte	0
.cc_bottom cc_21
.cc_top cc_22,.Lxta.endpoint_labels83
	.long	.Lxta.endpoint_labels83
	.byte	0
.cc_bottom cc_22
.Laddr_end5:
	.ascii	"received_command"
	.byte	0
	.ascii	"/Users/rkn/Documents/xTIMEcomposer/workspace/module_usb_audio/audio.xc"
	.byte	0
	.long	256
	.long	.Laddr_end7-.Laddr_start6
.Laddr_start6:
.cc_top cc_23,.Lxta.endpoint_labels19
	.long	.Lxta.endpoint_labels19
	.ascii	"DoSampleTransfer,"
	.byte	0
.cc_bottom cc_23
.cc_top cc_24,.Lxta.endpoint_labels20
	.long	.Lxta.endpoint_labels20
	.ascii	"DoSampleTransfer,"
	.byte	0
.cc_bottom cc_24
.cc_top cc_25,.Lxta.endpoint_labels21
	.long	.Lxta.endpoint_labels21
	.ascii	"DoSampleTransfer,"
	.byte	0
.cc_bottom cc_25
.cc_top cc_26,.Lxta.endpoint_labels22
	.long	.Lxta.endpoint_labels22
	.ascii	"DoSampleTransfer,"
	.byte	0
.cc_bottom cc_26
.cc_top cc_27,.Lxta.endpoint_labels23
	.long	.Lxta.endpoint_labels23
	.ascii	"DoSampleTransfer,"
	.byte	0
.cc_bottom cc_27
.cc_top cc_28,.Lxta.endpoint_labels24
	.long	.Lxta.endpoint_labels24
	.ascii	"DoSampleTransfer,"
	.byte	0
.cc_bottom cc_28
.cc_top cc_29,.Lxta.endpoint_labels25
	.long	.Lxta.endpoint_labels25
	.ascii	"DoSampleTransfer,"
	.byte	0
.cc_bottom cc_29
.cc_top cc_30,.Lxta.endpoint_labels26
	.long	.Lxta.endpoint_labels26
	.ascii	"DoSampleTransfer,"
	.byte	0
.cc_bottom cc_30
.cc_top cc_31,.Lxta.endpoint_labels27
	.long	.Lxta.endpoint_labels27
	.ascii	"DoSampleTransfer,"
	.byte	0
.cc_bottom cc_31
.cc_top cc_32,.Lxta.endpoint_labels28
	.long	.Lxta.endpoint_labels28
	.ascii	"DoSampleTransfer,"
	.byte	0
.cc_bottom cc_32
.cc_top cc_33,.Lxta.endpoint_labels29
	.long	.Lxta.endpoint_labels29
	.ascii	"DoSampleTransfer,"
	.byte	0
.cc_bottom cc_33
.cc_top cc_34,.Lxta.endpoint_labels30
	.long	.Lxta.endpoint_labels30
	.ascii	"DoSampleTransfer,"
	.byte	0
.cc_bottom cc_34
.cc_top cc_35,.Lxta.endpoint_labels31
	.long	.Lxta.endpoint_labels31
	.ascii	"DoSampleTransfer,"
	.byte	0
.cc_bottom cc_35
.cc_top cc_36,.Lxta.endpoint_labels32
	.long	.Lxta.endpoint_labels32
	.ascii	"DoSampleTransfer,"
	.byte	0
.cc_bottom cc_36
.cc_top cc_37,.Lxta.endpoint_labels33
	.long	.Lxta.endpoint_labels33
	.ascii	"DoSampleTransfer,"
	.byte	0
.cc_bottom cc_37
.cc_top cc_38,.Lxta.endpoint_labels34
	.long	.Lxta.endpoint_labels34
	.ascii	"DoSampleTransfer,"
	.byte	0
.cc_bottom cc_38
.cc_top cc_39,.Lxta.endpoint_labels35
	.long	.Lxta.endpoint_labels35
	.ascii	"DoSampleTransfer,"
	.byte	0
.cc_bottom cc_39
.cc_top cc_40,.Lxta.endpoint_labels18
	.long	.Lxta.endpoint_labels18
	.ascii	"DoSampleTransfer,"
	.byte	0
.cc_bottom cc_40
.cc_top cc_41,.Lxta.endpoint_labels17
	.long	.Lxta.endpoint_labels17
	.ascii	"DoSampleTransfer,"
	.byte	0
.cc_bottom cc_41
.cc_top cc_42,.Lxta.endpoint_labels16
	.long	.Lxta.endpoint_labels16
	.ascii	"DoSampleTransfer,"
	.byte	0
.cc_bottom cc_42
.cc_top cc_43,.Lxta.endpoint_labels15
	.long	.Lxta.endpoint_labels15
	.ascii	"DoSampleTransfer,"
	.byte	0
.cc_bottom cc_43
.cc_top cc_44,.Lxta.endpoint_labels14
	.long	.Lxta.endpoint_labels14
	.ascii	"DoSampleTransfer,"
	.byte	0
.cc_bottom cc_44
.cc_top cc_45,.Lxta.endpoint_labels13
	.long	.Lxta.endpoint_labels13
	.ascii	"DoSampleTransfer,"
	.byte	0
.cc_bottom cc_45
.cc_top cc_46,.Lxta.endpoint_labels12
	.long	.Lxta.endpoint_labels12
	.ascii	"DoSampleTransfer,"
	.byte	0
.cc_bottom cc_46
.cc_top cc_47,.Lxta.endpoint_labels11
	.long	.Lxta.endpoint_labels11
	.ascii	"DoSampleTransfer,"
	.byte	0
.cc_bottom cc_47
.cc_top cc_48,.Lxta.endpoint_labels10
	.long	.Lxta.endpoint_labels10
	.ascii	"DoSampleTransfer,"
	.byte	0
.cc_bottom cc_48
.cc_top cc_49,.Lxta.endpoint_labels85
	.long	.Lxta.endpoint_labels85
	.ascii	"DoSampleTransfer,"
	.byte	0
.cc_bottom cc_49
.cc_top cc_50,.Lxta.endpoint_labels86
	.long	.Lxta.endpoint_labels86
	.ascii	"DoSampleTransfer,"
	.byte	0
.cc_bottom cc_50
.cc_top cc_51,.Lxta.endpoint_labels87
	.long	.Lxta.endpoint_labels87
	.ascii	"DoSampleTransfer,"
	.byte	0
.cc_bottom cc_51
.cc_top cc_52,.Lxta.endpoint_labels88
	.long	.Lxta.endpoint_labels88
	.ascii	"DoSampleTransfer,"
	.byte	0
.cc_bottom cc_52
.cc_top cc_53,.Lxta.endpoint_labels89
	.long	.Lxta.endpoint_labels89
	.ascii	"DoSampleTransfer,"
	.byte	0
.cc_bottom cc_53
.cc_top cc_54,.Lxta.endpoint_labels90
	.long	.Lxta.endpoint_labels90
	.ascii	"DoSampleTransfer,"
	.byte	0
.cc_bottom cc_54
.cc_top cc_55,.Lxta.endpoint_labels91
	.long	.Lxta.endpoint_labels91
	.ascii	"DoSampleTransfer,"
	.byte	0
.cc_bottom cc_55
.cc_top cc_56,.Lxta.endpoint_labels92
	.long	.Lxta.endpoint_labels92
	.ascii	"DoSampleTransfer,"
	.byte	0
.cc_bottom cc_56
.cc_top cc_57,.Lxta.endpoint_labels93
	.long	.Lxta.endpoint_labels93
	.ascii	"DoSampleTransfer,"
	.byte	0
.cc_bottom cc_57
.cc_top cc_58,.Lxta.endpoint_labels94
	.long	.Lxta.endpoint_labels94
	.ascii	"DoSampleTransfer,"
	.byte	0
.cc_bottom cc_58
.cc_top cc_59,.Lxta.endpoint_labels95
	.long	.Lxta.endpoint_labels95
	.ascii	"DoSampleTransfer,"
	.byte	0
.cc_bottom cc_59
.cc_top cc_60,.Lxta.endpoint_labels96
	.long	.Lxta.endpoint_labels96
	.ascii	"DoSampleTransfer,"
	.byte	0
.cc_bottom cc_60
.cc_top cc_61,.Lxta.endpoint_labels97
	.long	.Lxta.endpoint_labels97
	.ascii	"DoSampleTransfer,"
	.byte	0
.cc_bottom cc_61
.cc_top cc_62,.Lxta.endpoint_labels98
	.long	.Lxta.endpoint_labels98
	.ascii	"DoSampleTransfer,"
	.byte	0
.cc_bottom cc_62
.cc_top cc_63,.Lxta.endpoint_labels99
	.long	.Lxta.endpoint_labels99
	.ascii	"DoSampleTransfer,"
	.byte	0
.cc_bottom cc_63
.cc_top cc_64,.Lxta.endpoint_labels4
	.long	.Lxta.endpoint_labels4
	.ascii	"DoSampleTransfer,"
	.byte	0
.cc_bottom cc_64
.cc_top cc_65,.Lxta.endpoint_labels101
	.long	.Lxta.endpoint_labels101
	.ascii	"DoSampleTransfer,"
	.byte	0
.cc_bottom cc_65
.cc_top cc_66,.Lxta.endpoint_labels102
	.long	.Lxta.endpoint_labels102
	.ascii	"DoSampleTransfer,"
	.byte	0
.cc_bottom cc_66
.cc_top cc_67,.Lxta.endpoint_labels103
	.long	.Lxta.endpoint_labels103
	.ascii	"DoSampleTransfer,"
	.byte	0
.cc_bottom cc_67
.cc_top cc_68,.Lxta.endpoint_labels104
	.long	.Lxta.endpoint_labels104
	.ascii	"DoSampleTransfer,"
	.byte	0
.cc_bottom cc_68
.cc_top cc_69,.Lxta.endpoint_labels105
	.long	.Lxta.endpoint_labels105
	.ascii	"DoSampleTransfer,"
	.byte	0
.cc_bottom cc_69
.cc_top cc_70,.Lxta.endpoint_labels106
	.long	.Lxta.endpoint_labels106
	.ascii	"DoSampleTransfer,"
	.byte	0
.cc_bottom cc_70
.cc_top cc_71,.Lxta.endpoint_labels107
	.long	.Lxta.endpoint_labels107
	.ascii	"DoSampleTransfer,"
	.byte	0
.cc_bottom cc_71
.cc_top cc_72,.Lxta.endpoint_labels108
	.long	.Lxta.endpoint_labels108
	.ascii	"DoSampleTransfer,"
	.byte	0
.cc_bottom cc_72
.cc_top cc_73,.Lxta.endpoint_labels109
	.long	.Lxta.endpoint_labels109
	.ascii	"DoSampleTransfer,"
	.byte	0
.cc_bottom cc_73
.cc_top cc_74,.Lxta.endpoint_labels110
	.long	.Lxta.endpoint_labels110
	.ascii	"DoSampleTransfer,"
	.byte	0
.cc_bottom cc_74
.cc_top cc_75,.Lxta.endpoint_labels111
	.long	.Lxta.endpoint_labels111
	.ascii	"DoSampleTransfer,"
	.byte	0
.cc_bottom cc_75
.cc_top cc_76,.Lxta.endpoint_labels112
	.long	.Lxta.endpoint_labels112
	.ascii	"DoSampleTransfer,"
	.byte	0
.cc_bottom cc_76
.cc_top cc_77,.Lxta.endpoint_labels113
	.long	.Lxta.endpoint_labels113
	.ascii	"DoSampleTransfer,"
	.byte	0
.cc_bottom cc_77
.cc_top cc_78,.Lxta.endpoint_labels114
	.long	.Lxta.endpoint_labels114
	.ascii	"DoSampleTransfer,"
	.byte	0
.cc_bottom cc_78
.cc_top cc_79,.Lxta.endpoint_labels115
	.long	.Lxta.endpoint_labels115
	.ascii	"DoSampleTransfer,"
	.byte	0
.cc_bottom cc_79
.cc_top cc_80,.Lxta.endpoint_labels116
	.long	.Lxta.endpoint_labels116
	.ascii	"DoSampleTransfer,"
	.byte	0
.cc_bottom cc_80
.cc_top cc_81,.Lxta.endpoint_labels151
	.long	.Lxta.endpoint_labels151
	.ascii	"DoSampleTransfer,"
	.byte	0
.cc_bottom cc_81
.cc_top cc_82,.Lxta.endpoint_labels152
	.long	.Lxta.endpoint_labels152
	.ascii	"DoSampleTransfer,"
	.byte	0
.cc_bottom cc_82
.cc_top cc_83,.Lxta.endpoint_labels153
	.long	.Lxta.endpoint_labels153
	.ascii	"DoSampleTransfer,"
	.byte	0
.cc_bottom cc_83
.cc_top cc_84,.Lxta.endpoint_labels154
	.long	.Lxta.endpoint_labels154
	.ascii	"DoSampleTransfer,"
	.byte	0
.cc_bottom cc_84
.cc_top cc_85,.Lxta.endpoint_labels155
	.long	.Lxta.endpoint_labels155
	.ascii	"DoSampleTransfer,"
	.byte	0
.cc_bottom cc_85
.cc_top cc_86,.Lxta.endpoint_labels156
	.long	.Lxta.endpoint_labels156
	.ascii	"DoSampleTransfer,"
	.byte	0
.cc_bottom cc_86
.cc_top cc_87,.Lxta.endpoint_labels157
	.long	.Lxta.endpoint_labels157
	.ascii	"DoSampleTransfer,"
	.byte	0
.cc_bottom cc_87
.cc_top cc_88,.Lxta.endpoint_labels158
	.long	.Lxta.endpoint_labels158
	.ascii	"DoSampleTransfer,"
	.byte	0
.cc_bottom cc_88
.cc_top cc_89,.Lxta.endpoint_labels159
	.long	.Lxta.endpoint_labels159
	.ascii	"DoSampleTransfer,"
	.byte	0
.cc_bottom cc_89
.cc_top cc_90,.Lxta.endpoint_labels160
	.long	.Lxta.endpoint_labels160
	.ascii	"DoSampleTransfer,"
	.byte	0
.cc_bottom cc_90
.cc_top cc_91,.Lxta.endpoint_labels161
	.long	.Lxta.endpoint_labels161
	.ascii	"DoSampleTransfer,"
	.byte	0
.cc_bottom cc_91
.cc_top cc_92,.Lxta.endpoint_labels162
	.long	.Lxta.endpoint_labels162
	.ascii	"DoSampleTransfer,"
	.byte	0
.cc_bottom cc_92
.cc_top cc_93,.Lxta.endpoint_labels163
	.long	.Lxta.endpoint_labels163
	.ascii	"DoSampleTransfer,"
	.byte	0
.cc_bottom cc_93
.cc_top cc_94,.Lxta.endpoint_labels164
	.long	.Lxta.endpoint_labels164
	.ascii	"DoSampleTransfer,"
	.byte	0
.cc_bottom cc_94
.cc_top cc_95,.Lxta.endpoint_labels165
	.long	.Lxta.endpoint_labels165
	.ascii	"DoSampleTransfer,"
	.byte	0
.cc_bottom cc_95
.cc_top cc_96,.Lxta.endpoint_labels166
	.long	.Lxta.endpoint_labels166
	.ascii	"DoSampleTransfer,"
	.byte	0
.cc_bottom cc_96
.cc_top cc_97,.Lxta.endpoint_labels167
	.long	.Lxta.endpoint_labels167
	.ascii	"DoSampleTransfer,"
	.byte	0
.cc_bottom cc_97
.cc_top cc_98,.Lxta.endpoint_labels168
	.long	.Lxta.endpoint_labels168
	.ascii	"DoSampleTransfer,"
	.byte	0
.cc_bottom cc_98
.cc_top cc_99,.Lxta.endpoint_labels169
	.long	.Lxta.endpoint_labels169
	.ascii	"DoSampleTransfer,"
	.byte	0
.cc_bottom cc_99
.cc_top cc_100,.Lxta.endpoint_labels170
	.long	.Lxta.endpoint_labels170
	.ascii	"DoSampleTransfer,"
	.byte	0
.cc_bottom cc_100
.cc_top cc_101,.Lxta.endpoint_labels171
	.long	.Lxta.endpoint_labels171
	.ascii	"DoSampleTransfer,"
	.byte	0
.cc_bottom cc_101
.cc_top cc_102,.Lxta.endpoint_labels172
	.long	.Lxta.endpoint_labels172
	.ascii	"DoSampleTransfer,"
	.byte	0
.cc_bottom cc_102
.cc_top cc_103,.Lxta.endpoint_labels173
	.long	.Lxta.endpoint_labels173
	.ascii	"DoSampleTransfer,"
	.byte	0
.cc_bottom cc_103
.cc_top cc_104,.Lxta.endpoint_labels174
	.long	.Lxta.endpoint_labels174
	.ascii	"DoSampleTransfer,"
	.byte	0
.cc_bottom cc_104
.cc_top cc_105,.Lxta.endpoint_labels175
	.long	.Lxta.endpoint_labels175
	.ascii	"DoSampleTransfer,"
	.byte	0
.cc_bottom cc_105
.cc_top cc_106,.Lxta.endpoint_labels176
	.long	.Lxta.endpoint_labels176
	.ascii	"DoSampleTransfer,"
	.byte	0
.cc_bottom cc_106
.cc_top cc_107,.Lxta.endpoint_labels177
	.long	.Lxta.endpoint_labels177
	.ascii	"DoSampleTransfer,"
	.byte	0
.cc_bottom cc_107
.cc_top cc_108,.Lxta.endpoint_labels178
	.long	.Lxta.endpoint_labels178
	.ascii	"DoSampleTransfer,"
	.byte	0
.cc_bottom cc_108
.cc_top cc_109,.Lxta.endpoint_labels179
	.long	.Lxta.endpoint_labels179
	.ascii	"DoSampleTransfer,"
	.byte	0
.cc_bottom cc_109
.cc_top cc_110,.Lxta.endpoint_labels180
	.long	.Lxta.endpoint_labels180
	.ascii	"DoSampleTransfer,"
	.byte	0
.cc_bottom cc_110
.cc_top cc_111,.Lxta.endpoint_labels181
	.long	.Lxta.endpoint_labels181
	.ascii	"DoSampleTransfer,"
	.byte	0
.cc_bottom cc_111
.cc_top cc_112,.Lxta.endpoint_labels182
	.long	.Lxta.endpoint_labels182
	.ascii	"DoSampleTransfer,"
	.byte	0
.cc_bottom cc_112
.cc_top cc_113,.Lxta.endpoint_labels9
	.long	.Lxta.endpoint_labels9
	.ascii	"DoSampleTransfer,"
	.byte	0
.cc_bottom cc_113
.cc_top cc_114,.Lxta.endpoint_labels8
	.long	.Lxta.endpoint_labels8
	.ascii	"DoSampleTransfer,"
	.byte	0
.cc_bottom cc_114
.cc_top cc_115,.Lxta.endpoint_labels7
	.long	.Lxta.endpoint_labels7
	.ascii	"DoSampleTransfer,"
	.byte	0
.cc_bottom cc_115
.cc_top cc_116,.Lxta.endpoint_labels6
	.long	.Lxta.endpoint_labels6
	.ascii	"DoSampleTransfer,"
	.byte	0
.cc_bottom cc_116
.cc_top cc_117,.Lxta.endpoint_labels5
	.long	.Lxta.endpoint_labels5
	.ascii	"DoSampleTransfer,"
	.byte	0
.cc_bottom cc_117
.cc_top cc_118,.Lxta.endpoint_labels100
	.long	.Lxta.endpoint_labels100
	.ascii	"DoSampleTransfer,"
	.byte	0
.cc_bottom cc_118
.Laddr_end7:
.Lentries_end3:
	.section	.xtaendpointtable,"",@progbits
.Lentries_start4:
	.long	.Lentries_end5-.Lentries_start4
	.long	0
	.ascii	"/Users/rkn/Documents/xTIMEcomposer/workspace/app_usb_aud_xk_216_mc/.build_2i32o32xxxxx_tdm8"
	.byte	0
.cc_top cc_119,.Lxta.endpoint_labels0
	.ascii	"/Users/rkn/Documents/xTIMEcomposer/workspace/module_usb_audio/audio.xc"
	.byte	0
	.long	231
	.long	.Lxta.endpoint_labels0
.cc_bottom cc_119
.cc_top cc_120,.Lxta.endpoint_labels1
	.ascii	"/Users/rkn/Documents/xTIMEcomposer/workspace/module_usb_audio/audio.xc"
	.byte	0
	.long	236
	.long	.Lxta.endpoint_labels1
.cc_bottom cc_120
.cc_top cc_121,.Lxta.endpoint_labels148
	.ascii	"/Users/rkn/Documents/xTIMEcomposer/workspace/module_usb_audio/audio.xc"
	.byte	0
	.long	236
	.long	.Lxta.endpoint_labels148
.cc_bottom cc_121
.cc_top cc_122,.Lxta.endpoint_labels2
	.ascii	"/Users/rkn/Documents/xTIMEcomposer/workspace/module_usb_audio/audio.xc"
	.byte	0
	.long	241
	.long	.Lxta.endpoint_labels2
.cc_bottom cc_122
.cc_top cc_123,.Lxta.endpoint_labels149
	.ascii	"/Users/rkn/Documents/xTIMEcomposer/workspace/module_usb_audio/audio.xc"
	.byte	0
	.long	241
	.long	.Lxta.endpoint_labels149
.cc_bottom cc_123
.cc_top cc_124,.Lxta.endpoint_labels150
	.ascii	"/Users/rkn/Documents/xTIMEcomposer/workspace/module_usb_audio/audio.xc"
	.byte	0
	.long	242
	.long	.Lxta.endpoint_labels150
.cc_bottom cc_124
.cc_top cc_125,.Lxta.endpoint_labels3
	.ascii	"/Users/rkn/Documents/xTIMEcomposer/workspace/module_usb_audio/audio.xc"
	.byte	0
	.long	242
	.long	.Lxta.endpoint_labels3
.cc_bottom cc_125
.cc_top cc_126,.Lxta.endpoint_labels7
	.ascii	"/Users/rkn/Documents/xTIMEcomposer/workspace/module_usb_audio/audio.xc"
	.byte	0
	.long	265
	.long	.Lxta.endpoint_labels7
.cc_bottom cc_126
.cc_top cc_127,.Lxta.endpoint_labels8
	.ascii	"/Users/rkn/Documents/xTIMEcomposer/workspace/module_usb_audio/audio.xc"
	.byte	0
	.long	265
	.long	.Lxta.endpoint_labels8
.cc_bottom cc_127
.cc_top cc_128,.Lxta.endpoint_labels9
	.ascii	"/Users/rkn/Documents/xTIMEcomposer/workspace/module_usb_audio/audio.xc"
	.byte	0
	.long	265
	.long	.Lxta.endpoint_labels9
.cc_bottom cc_128
.cc_top cc_129,.Lxta.endpoint_labels10
	.ascii	"/Users/rkn/Documents/xTIMEcomposer/workspace/module_usb_audio/audio.xc"
	.byte	0
	.long	265
	.long	.Lxta.endpoint_labels10
.cc_bottom cc_129
.cc_top cc_130,.Lxta.endpoint_labels11
	.ascii	"/Users/rkn/Documents/xTIMEcomposer/workspace/module_usb_audio/audio.xc"
	.byte	0
	.long	265
	.long	.Lxta.endpoint_labels11
.cc_bottom cc_130
.cc_top cc_131,.Lxta.endpoint_labels12
	.ascii	"/Users/rkn/Documents/xTIMEcomposer/workspace/module_usb_audio/audio.xc"
	.byte	0
	.long	265
	.long	.Lxta.endpoint_labels12
.cc_bottom cc_131
.cc_top cc_132,.Lxta.endpoint_labels13
	.ascii	"/Users/rkn/Documents/xTIMEcomposer/workspace/module_usb_audio/audio.xc"
	.byte	0
	.long	265
	.long	.Lxta.endpoint_labels13
.cc_bottom cc_132
.cc_top cc_133,.Lxta.endpoint_labels14
	.ascii	"/Users/rkn/Documents/xTIMEcomposer/workspace/module_usb_audio/audio.xc"
	.byte	0
	.long	265
	.long	.Lxta.endpoint_labels14
.cc_bottom cc_133
.cc_top cc_134,.Lxta.endpoint_labels15
	.ascii	"/Users/rkn/Documents/xTIMEcomposer/workspace/module_usb_audio/audio.xc"
	.byte	0
	.long	265
	.long	.Lxta.endpoint_labels15
.cc_bottom cc_134
.cc_top cc_135,.Lxta.endpoint_labels16
	.ascii	"/Users/rkn/Documents/xTIMEcomposer/workspace/module_usb_audio/audio.xc"
	.byte	0
	.long	265
	.long	.Lxta.endpoint_labels16
.cc_bottom cc_135
.cc_top cc_136,.Lxta.endpoint_labels17
	.ascii	"/Users/rkn/Documents/xTIMEcomposer/workspace/module_usb_audio/audio.xc"
	.byte	0
	.long	265
	.long	.Lxta.endpoint_labels17
.cc_bottom cc_136
.cc_top cc_137,.Lxta.endpoint_labels18
	.ascii	"/Users/rkn/Documents/xTIMEcomposer/workspace/module_usb_audio/audio.xc"
	.byte	0
	.long	265
	.long	.Lxta.endpoint_labels18
.cc_bottom cc_137
.cc_top cc_138,.Lxta.endpoint_labels19
	.ascii	"/Users/rkn/Documents/xTIMEcomposer/workspace/module_usb_audio/audio.xc"
	.byte	0
	.long	265
	.long	.Lxta.endpoint_labels19
.cc_bottom cc_138
.cc_top cc_139,.Lxta.endpoint_labels20
	.ascii	"/Users/rkn/Documents/xTIMEcomposer/workspace/module_usb_audio/audio.xc"
	.byte	0
	.long	265
	.long	.Lxta.endpoint_labels20
.cc_bottom cc_139
.cc_top cc_140,.Lxta.endpoint_labels21
	.ascii	"/Users/rkn/Documents/xTIMEcomposer/workspace/module_usb_audio/audio.xc"
	.byte	0
	.long	265
	.long	.Lxta.endpoint_labels21
.cc_bottom cc_140
.cc_top cc_141,.Lxta.endpoint_labels22
	.ascii	"/Users/rkn/Documents/xTIMEcomposer/workspace/module_usb_audio/audio.xc"
	.byte	0
	.long	265
	.long	.Lxta.endpoint_labels22
.cc_bottom cc_141
.cc_top cc_142,.Lxta.endpoint_labels23
	.ascii	"/Users/rkn/Documents/xTIMEcomposer/workspace/module_usb_audio/audio.xc"
	.byte	0
	.long	265
	.long	.Lxta.endpoint_labels23
.cc_bottom cc_142
.cc_top cc_143,.Lxta.endpoint_labels24
	.ascii	"/Users/rkn/Documents/xTIMEcomposer/workspace/module_usb_audio/audio.xc"
	.byte	0
	.long	265
	.long	.Lxta.endpoint_labels24
.cc_bottom cc_143
.cc_top cc_144,.Lxta.endpoint_labels25
	.ascii	"/Users/rkn/Documents/xTIMEcomposer/workspace/module_usb_audio/audio.xc"
	.byte	0
	.long	265
	.long	.Lxta.endpoint_labels25
.cc_bottom cc_144
.cc_top cc_145,.Lxta.endpoint_labels26
	.ascii	"/Users/rkn/Documents/xTIMEcomposer/workspace/module_usb_audio/audio.xc"
	.byte	0
	.long	265
	.long	.Lxta.endpoint_labels26
.cc_bottom cc_145
.cc_top cc_146,.Lxta.endpoint_labels27
	.ascii	"/Users/rkn/Documents/xTIMEcomposer/workspace/module_usb_audio/audio.xc"
	.byte	0
	.long	265
	.long	.Lxta.endpoint_labels27
.cc_bottom cc_146
.cc_top cc_147,.Lxta.endpoint_labels28
	.ascii	"/Users/rkn/Documents/xTIMEcomposer/workspace/module_usb_audio/audio.xc"
	.byte	0
	.long	265
	.long	.Lxta.endpoint_labels28
.cc_bottom cc_147
.cc_top cc_148,.Lxta.endpoint_labels29
	.ascii	"/Users/rkn/Documents/xTIMEcomposer/workspace/module_usb_audio/audio.xc"
	.byte	0
	.long	265
	.long	.Lxta.endpoint_labels29
.cc_bottom cc_148
.cc_top cc_149,.Lxta.endpoint_labels30
	.ascii	"/Users/rkn/Documents/xTIMEcomposer/workspace/module_usb_audio/audio.xc"
	.byte	0
	.long	265
	.long	.Lxta.endpoint_labels30
.cc_bottom cc_149
.cc_top cc_150,.Lxta.endpoint_labels31
	.ascii	"/Users/rkn/Documents/xTIMEcomposer/workspace/module_usb_audio/audio.xc"
	.byte	0
	.long	265
	.long	.Lxta.endpoint_labels31
.cc_bottom cc_150
.cc_top cc_151,.Lxta.endpoint_labels32
	.ascii	"/Users/rkn/Documents/xTIMEcomposer/workspace/module_usb_audio/audio.xc"
	.byte	0
	.long	265
	.long	.Lxta.endpoint_labels32
.cc_bottom cc_151
.cc_top cc_152,.Lxta.endpoint_labels33
	.ascii	"/Users/rkn/Documents/xTIMEcomposer/workspace/module_usb_audio/audio.xc"
	.byte	0
	.long	265
	.long	.Lxta.endpoint_labels33
.cc_bottom cc_152
.cc_top cc_153,.Lxta.endpoint_labels34
	.ascii	"/Users/rkn/Documents/xTIMEcomposer/workspace/module_usb_audio/audio.xc"
	.byte	0
	.long	265
	.long	.Lxta.endpoint_labels34
.cc_bottom cc_153
.cc_top cc_154,.Lxta.endpoint_labels35
	.ascii	"/Users/rkn/Documents/xTIMEcomposer/workspace/module_usb_audio/audio.xc"
	.byte	0
	.long	265
	.long	.Lxta.endpoint_labels35
.cc_bottom cc_154
.cc_top cc_155,.Lxta.endpoint_labels116
	.ascii	"/Users/rkn/Documents/xTIMEcomposer/workspace/module_usb_audio/audio.xc"
	.byte	0
	.long	265
	.long	.Lxta.endpoint_labels116
.cc_bottom cc_155
.cc_top cc_156,.Lxta.endpoint_labels182
	.ascii	"/Users/rkn/Documents/xTIMEcomposer/workspace/module_usb_audio/audio.xc"
	.byte	0
	.long	265
	.long	.Lxta.endpoint_labels182
.cc_bottom cc_156
.cc_top cc_157,.Lxta.endpoint_labels181
	.ascii	"/Users/rkn/Documents/xTIMEcomposer/workspace/module_usb_audio/audio.xc"
	.byte	0
	.long	265
	.long	.Lxta.endpoint_labels181
.cc_bottom cc_157
.cc_top cc_158,.Lxta.endpoint_labels180
	.ascii	"/Users/rkn/Documents/xTIMEcomposer/workspace/module_usb_audio/audio.xc"
	.byte	0
	.long	265
	.long	.Lxta.endpoint_labels180
.cc_bottom cc_158
.cc_top cc_159,.Lxta.endpoint_labels179
	.ascii	"/Users/rkn/Documents/xTIMEcomposer/workspace/module_usb_audio/audio.xc"
	.byte	0
	.long	265
	.long	.Lxta.endpoint_labels179
.cc_bottom cc_159
.cc_top cc_160,.Lxta.endpoint_labels178
	.ascii	"/Users/rkn/Documents/xTIMEcomposer/workspace/module_usb_audio/audio.xc"
	.byte	0
	.long	265
	.long	.Lxta.endpoint_labels178
.cc_bottom cc_160
.cc_top cc_161,.Lxta.endpoint_labels177
	.ascii	"/Users/rkn/Documents/xTIMEcomposer/workspace/module_usb_audio/audio.xc"
	.byte	0
	.long	265
	.long	.Lxta.endpoint_labels177
.cc_bottom cc_161
.cc_top cc_162,.Lxta.endpoint_labels176
	.ascii	"/Users/rkn/Documents/xTIMEcomposer/workspace/module_usb_audio/audio.xc"
	.byte	0
	.long	265
	.long	.Lxta.endpoint_labels176
.cc_bottom cc_162
.cc_top cc_163,.Lxta.endpoint_labels175
	.ascii	"/Users/rkn/Documents/xTIMEcomposer/workspace/module_usb_audio/audio.xc"
	.byte	0
	.long	265
	.long	.Lxta.endpoint_labels175
.cc_bottom cc_163
.cc_top cc_164,.Lxta.endpoint_labels174
	.ascii	"/Users/rkn/Documents/xTIMEcomposer/workspace/module_usb_audio/audio.xc"
	.byte	0
	.long	265
	.long	.Lxta.endpoint_labels174
.cc_bottom cc_164
.cc_top cc_165,.Lxta.endpoint_labels173
	.ascii	"/Users/rkn/Documents/xTIMEcomposer/workspace/module_usb_audio/audio.xc"
	.byte	0
	.long	265
	.long	.Lxta.endpoint_labels173
.cc_bottom cc_165
.cc_top cc_166,.Lxta.endpoint_labels172
	.ascii	"/Users/rkn/Documents/xTIMEcomposer/workspace/module_usb_audio/audio.xc"
	.byte	0
	.long	265
	.long	.Lxta.endpoint_labels172
.cc_bottom cc_166
.cc_top cc_167,.Lxta.endpoint_labels171
	.ascii	"/Users/rkn/Documents/xTIMEcomposer/workspace/module_usb_audio/audio.xc"
	.byte	0
	.long	265
	.long	.Lxta.endpoint_labels171
.cc_bottom cc_167
.cc_top cc_168,.Lxta.endpoint_labels170
	.ascii	"/Users/rkn/Documents/xTIMEcomposer/workspace/module_usb_audio/audio.xc"
	.byte	0
	.long	265
	.long	.Lxta.endpoint_labels170
.cc_bottom cc_168
.cc_top cc_169,.Lxta.endpoint_labels169
	.ascii	"/Users/rkn/Documents/xTIMEcomposer/workspace/module_usb_audio/audio.xc"
	.byte	0
	.long	265
	.long	.Lxta.endpoint_labels169
.cc_bottom cc_169
.cc_top cc_170,.Lxta.endpoint_labels168
	.ascii	"/Users/rkn/Documents/xTIMEcomposer/workspace/module_usb_audio/audio.xc"
	.byte	0
	.long	265
	.long	.Lxta.endpoint_labels168
.cc_bottom cc_170
.cc_top cc_171,.Lxta.endpoint_labels167
	.ascii	"/Users/rkn/Documents/xTIMEcomposer/workspace/module_usb_audio/audio.xc"
	.byte	0
	.long	265
	.long	.Lxta.endpoint_labels167
.cc_bottom cc_171
.cc_top cc_172,.Lxta.endpoint_labels166
	.ascii	"/Users/rkn/Documents/xTIMEcomposer/workspace/module_usb_audio/audio.xc"
	.byte	0
	.long	265
	.long	.Lxta.endpoint_labels166
.cc_bottom cc_172
.cc_top cc_173,.Lxta.endpoint_labels165
	.ascii	"/Users/rkn/Documents/xTIMEcomposer/workspace/module_usb_audio/audio.xc"
	.byte	0
	.long	265
	.long	.Lxta.endpoint_labels165
.cc_bottom cc_173
.cc_top cc_174,.Lxta.endpoint_labels164
	.ascii	"/Users/rkn/Documents/xTIMEcomposer/workspace/module_usb_audio/audio.xc"
	.byte	0
	.long	265
	.long	.Lxta.endpoint_labels164
.cc_bottom cc_174
.cc_top cc_175,.Lxta.endpoint_labels163
	.ascii	"/Users/rkn/Documents/xTIMEcomposer/workspace/module_usb_audio/audio.xc"
	.byte	0
	.long	265
	.long	.Lxta.endpoint_labels163
.cc_bottom cc_175
.cc_top cc_176,.Lxta.endpoint_labels162
	.ascii	"/Users/rkn/Documents/xTIMEcomposer/workspace/module_usb_audio/audio.xc"
	.byte	0
	.long	265
	.long	.Lxta.endpoint_labels162
.cc_bottom cc_176
.cc_top cc_177,.Lxta.endpoint_labels161
	.ascii	"/Users/rkn/Documents/xTIMEcomposer/workspace/module_usb_audio/audio.xc"
	.byte	0
	.long	265
	.long	.Lxta.endpoint_labels161
.cc_bottom cc_177
.cc_top cc_178,.Lxta.endpoint_labels160
	.ascii	"/Users/rkn/Documents/xTIMEcomposer/workspace/module_usb_audio/audio.xc"
	.byte	0
	.long	265
	.long	.Lxta.endpoint_labels160
.cc_bottom cc_178
.cc_top cc_179,.Lxta.endpoint_labels159
	.ascii	"/Users/rkn/Documents/xTIMEcomposer/workspace/module_usb_audio/audio.xc"
	.byte	0
	.long	265
	.long	.Lxta.endpoint_labels159
.cc_bottom cc_179
.cc_top cc_180,.Lxta.endpoint_labels158
	.ascii	"/Users/rkn/Documents/xTIMEcomposer/workspace/module_usb_audio/audio.xc"
	.byte	0
	.long	265
	.long	.Lxta.endpoint_labels158
.cc_bottom cc_180
.cc_top cc_181,.Lxta.endpoint_labels157
	.ascii	"/Users/rkn/Documents/xTIMEcomposer/workspace/module_usb_audio/audio.xc"
	.byte	0
	.long	265
	.long	.Lxta.endpoint_labels157
.cc_bottom cc_181
.cc_top cc_182,.Lxta.endpoint_labels156
	.ascii	"/Users/rkn/Documents/xTIMEcomposer/workspace/module_usb_audio/audio.xc"
	.byte	0
	.long	265
	.long	.Lxta.endpoint_labels156
.cc_bottom cc_182
.cc_top cc_183,.Lxta.endpoint_labels155
	.ascii	"/Users/rkn/Documents/xTIMEcomposer/workspace/module_usb_audio/audio.xc"
	.byte	0
	.long	265
	.long	.Lxta.endpoint_labels155
.cc_bottom cc_183
.cc_top cc_184,.Lxta.endpoint_labels154
	.ascii	"/Users/rkn/Documents/xTIMEcomposer/workspace/module_usb_audio/audio.xc"
	.byte	0
	.long	265
	.long	.Lxta.endpoint_labels154
.cc_bottom cc_184
.cc_top cc_185,.Lxta.endpoint_labels153
	.ascii	"/Users/rkn/Documents/xTIMEcomposer/workspace/module_usb_audio/audio.xc"
	.byte	0
	.long	265
	.long	.Lxta.endpoint_labels153
.cc_bottom cc_185
.cc_top cc_186,.Lxta.endpoint_labels152
	.ascii	"/Users/rkn/Documents/xTIMEcomposer/workspace/module_usb_audio/audio.xc"
	.byte	0
	.long	265
	.long	.Lxta.endpoint_labels152
.cc_bottom cc_186
.cc_top cc_187,.Lxta.endpoint_labels151
	.ascii	"/Users/rkn/Documents/xTIMEcomposer/workspace/module_usb_audio/audio.xc"
	.byte	0
	.long	265
	.long	.Lxta.endpoint_labels151
.cc_bottom cc_187
.cc_top cc_188,.Lxta.endpoint_labels4
	.ascii	"/Users/rkn/Documents/xTIMEcomposer/workspace/module_usb_audio/audio.xc"
	.byte	0
	.long	265
	.long	.Lxta.endpoint_labels4
.cc_bottom cc_188
.cc_top cc_189,.Lxta.endpoint_labels5
	.ascii	"/Users/rkn/Documents/xTIMEcomposer/workspace/module_usb_audio/audio.xc"
	.byte	0
	.long	265
	.long	.Lxta.endpoint_labels5
.cc_bottom cc_189
.cc_top cc_190,.Lxta.endpoint_labels6
	.ascii	"/Users/rkn/Documents/xTIMEcomposer/workspace/module_usb_audio/audio.xc"
	.byte	0
	.long	265
	.long	.Lxta.endpoint_labels6
.cc_bottom cc_190
.cc_top cc_191,.Lxta.endpoint_labels115
	.ascii	"/Users/rkn/Documents/xTIMEcomposer/workspace/module_usb_audio/audio.xc"
	.byte	0
	.long	265
	.long	.Lxta.endpoint_labels115
.cc_bottom cc_191
.cc_top cc_192,.Lxta.endpoint_labels114
	.ascii	"/Users/rkn/Documents/xTIMEcomposer/workspace/module_usb_audio/audio.xc"
	.byte	0
	.long	265
	.long	.Lxta.endpoint_labels114
.cc_bottom cc_192
.cc_top cc_193,.Lxta.endpoint_labels113
	.ascii	"/Users/rkn/Documents/xTIMEcomposer/workspace/module_usb_audio/audio.xc"
	.byte	0
	.long	265
	.long	.Lxta.endpoint_labels113
.cc_bottom cc_193
.cc_top cc_194,.Lxta.endpoint_labels112
	.ascii	"/Users/rkn/Documents/xTIMEcomposer/workspace/module_usb_audio/audio.xc"
	.byte	0
	.long	265
	.long	.Lxta.endpoint_labels112
.cc_bottom cc_194
.cc_top cc_195,.Lxta.endpoint_labels111
	.ascii	"/Users/rkn/Documents/xTIMEcomposer/workspace/module_usb_audio/audio.xc"
	.byte	0
	.long	265
	.long	.Lxta.endpoint_labels111
.cc_bottom cc_195
.cc_top cc_196,.Lxta.endpoint_labels110
	.ascii	"/Users/rkn/Documents/xTIMEcomposer/workspace/module_usb_audio/audio.xc"
	.byte	0
	.long	265
	.long	.Lxta.endpoint_labels110
.cc_bottom cc_196
.cc_top cc_197,.Lxta.endpoint_labels109
	.ascii	"/Users/rkn/Documents/xTIMEcomposer/workspace/module_usb_audio/audio.xc"
	.byte	0
	.long	265
	.long	.Lxta.endpoint_labels109
.cc_bottom cc_197
.cc_top cc_198,.Lxta.endpoint_labels108
	.ascii	"/Users/rkn/Documents/xTIMEcomposer/workspace/module_usb_audio/audio.xc"
	.byte	0
	.long	265
	.long	.Lxta.endpoint_labels108
.cc_bottom cc_198
.cc_top cc_199,.Lxta.endpoint_labels107
	.ascii	"/Users/rkn/Documents/xTIMEcomposer/workspace/module_usb_audio/audio.xc"
	.byte	0
	.long	265
	.long	.Lxta.endpoint_labels107
.cc_bottom cc_199
.cc_top cc_200,.Lxta.endpoint_labels106
	.ascii	"/Users/rkn/Documents/xTIMEcomposer/workspace/module_usb_audio/audio.xc"
	.byte	0
	.long	265
	.long	.Lxta.endpoint_labels106
.cc_bottom cc_200
.cc_top cc_201,.Lxta.endpoint_labels105
	.ascii	"/Users/rkn/Documents/xTIMEcomposer/workspace/module_usb_audio/audio.xc"
	.byte	0
	.long	265
	.long	.Lxta.endpoint_labels105
.cc_bottom cc_201
.cc_top cc_202,.Lxta.endpoint_labels104
	.ascii	"/Users/rkn/Documents/xTIMEcomposer/workspace/module_usb_audio/audio.xc"
	.byte	0
	.long	265
	.long	.Lxta.endpoint_labels104
.cc_bottom cc_202
.cc_top cc_203,.Lxta.endpoint_labels103
	.ascii	"/Users/rkn/Documents/xTIMEcomposer/workspace/module_usb_audio/audio.xc"
	.byte	0
	.long	265
	.long	.Lxta.endpoint_labels103
.cc_bottom cc_203
.cc_top cc_204,.Lxta.endpoint_labels85
	.ascii	"/Users/rkn/Documents/xTIMEcomposer/workspace/module_usb_audio/audio.xc"
	.byte	0
	.long	265
	.long	.Lxta.endpoint_labels85
.cc_bottom cc_204
.cc_top cc_205,.Lxta.endpoint_labels86
	.ascii	"/Users/rkn/Documents/xTIMEcomposer/workspace/module_usb_audio/audio.xc"
	.byte	0
	.long	265
	.long	.Lxta.endpoint_labels86
.cc_bottom cc_205
.cc_top cc_206,.Lxta.endpoint_labels87
	.ascii	"/Users/rkn/Documents/xTIMEcomposer/workspace/module_usb_audio/audio.xc"
	.byte	0
	.long	265
	.long	.Lxta.endpoint_labels87
.cc_bottom cc_206
.cc_top cc_207,.Lxta.endpoint_labels88
	.ascii	"/Users/rkn/Documents/xTIMEcomposer/workspace/module_usb_audio/audio.xc"
	.byte	0
	.long	265
	.long	.Lxta.endpoint_labels88
.cc_bottom cc_207
.cc_top cc_208,.Lxta.endpoint_labels89
	.ascii	"/Users/rkn/Documents/xTIMEcomposer/workspace/module_usb_audio/audio.xc"
	.byte	0
	.long	265
	.long	.Lxta.endpoint_labels89
.cc_bottom cc_208
.cc_top cc_209,.Lxta.endpoint_labels90
	.ascii	"/Users/rkn/Documents/xTIMEcomposer/workspace/module_usb_audio/audio.xc"
	.byte	0
	.long	265
	.long	.Lxta.endpoint_labels90
.cc_bottom cc_209
.cc_top cc_210,.Lxta.endpoint_labels91
	.ascii	"/Users/rkn/Documents/xTIMEcomposer/workspace/module_usb_audio/audio.xc"
	.byte	0
	.long	265
	.long	.Lxta.endpoint_labels91
.cc_bottom cc_210
.cc_top cc_211,.Lxta.endpoint_labels92
	.ascii	"/Users/rkn/Documents/xTIMEcomposer/workspace/module_usb_audio/audio.xc"
	.byte	0
	.long	265
	.long	.Lxta.endpoint_labels92
.cc_bottom cc_211
.cc_top cc_212,.Lxta.endpoint_labels93
	.ascii	"/Users/rkn/Documents/xTIMEcomposer/workspace/module_usb_audio/audio.xc"
	.byte	0
	.long	265
	.long	.Lxta.endpoint_labels93
.cc_bottom cc_212
.cc_top cc_213,.Lxta.endpoint_labels94
	.ascii	"/Users/rkn/Documents/xTIMEcomposer/workspace/module_usb_audio/audio.xc"
	.byte	0
	.long	265
	.long	.Lxta.endpoint_labels94
.cc_bottom cc_213
.cc_top cc_214,.Lxta.endpoint_labels95
	.ascii	"/Users/rkn/Documents/xTIMEcomposer/workspace/module_usb_audio/audio.xc"
	.byte	0
	.long	265
	.long	.Lxta.endpoint_labels95
.cc_bottom cc_214
.cc_top cc_215,.Lxta.endpoint_labels96
	.ascii	"/Users/rkn/Documents/xTIMEcomposer/workspace/module_usb_audio/audio.xc"
	.byte	0
	.long	265
	.long	.Lxta.endpoint_labels96
.cc_bottom cc_215
.cc_top cc_216,.Lxta.endpoint_labels97
	.ascii	"/Users/rkn/Documents/xTIMEcomposer/workspace/module_usb_audio/audio.xc"
	.byte	0
	.long	265
	.long	.Lxta.endpoint_labels97
.cc_bottom cc_216
.cc_top cc_217,.Lxta.endpoint_labels98
	.ascii	"/Users/rkn/Documents/xTIMEcomposer/workspace/module_usb_audio/audio.xc"
	.byte	0
	.long	265
	.long	.Lxta.endpoint_labels98
.cc_bottom cc_217
.cc_top cc_218,.Lxta.endpoint_labels99
	.ascii	"/Users/rkn/Documents/xTIMEcomposer/workspace/module_usb_audio/audio.xc"
	.byte	0
	.long	265
	.long	.Lxta.endpoint_labels99
.cc_bottom cc_218
.cc_top cc_219,.Lxta.endpoint_labels100
	.ascii	"/Users/rkn/Documents/xTIMEcomposer/workspace/module_usb_audio/audio.xc"
	.byte	0
	.long	265
	.long	.Lxta.endpoint_labels100
.cc_bottom cc_219
.cc_top cc_220,.Lxta.endpoint_labels101
	.ascii	"/Users/rkn/Documents/xTIMEcomposer/workspace/module_usb_audio/audio.xc"
	.byte	0
	.long	265
	.long	.Lxta.endpoint_labels101
.cc_bottom cc_220
.cc_top cc_221,.Lxta.endpoint_labels102
	.ascii	"/Users/rkn/Documents/xTIMEcomposer/workspace/module_usb_audio/audio.xc"
	.byte	0
	.long	265
	.long	.Lxta.endpoint_labels102
.cc_bottom cc_221
.cc_top cc_222,.Lxta.endpoint_labels135
	.ascii	"/Users/rkn/Documents/xTIMEcomposer/workspace/module_usb_audio/audio.xc"
	.byte	0
	.long	280
	.long	.Lxta.endpoint_labels135
.cc_bottom cc_222
.cc_top cc_223,.Lxta.endpoint_labels136
	.ascii	"/Users/rkn/Documents/xTIMEcomposer/workspace/module_usb_audio/audio.xc"
	.byte	0
	.long	280
	.long	.Lxta.endpoint_labels136
.cc_bottom cc_223
.cc_top cc_224,.Lxta.endpoint_labels137
	.ascii	"/Users/rkn/Documents/xTIMEcomposer/workspace/module_usb_audio/audio.xc"
	.byte	0
	.long	280
	.long	.Lxta.endpoint_labels137
.cc_bottom cc_224
.cc_top cc_225,.Lxta.endpoint_labels138
	.ascii	"/Users/rkn/Documents/xTIMEcomposer/workspace/module_usb_audio/audio.xc"
	.byte	0
	.long	280
	.long	.Lxta.endpoint_labels138
.cc_bottom cc_225
.cc_top cc_226,.Lxta.endpoint_labels139
	.ascii	"/Users/rkn/Documents/xTIMEcomposer/workspace/module_usb_audio/audio.xc"
	.byte	0
	.long	280
	.long	.Lxta.endpoint_labels139
.cc_bottom cc_226
.cc_top cc_227,.Lxta.endpoint_labels140
	.ascii	"/Users/rkn/Documents/xTIMEcomposer/workspace/module_usb_audio/audio.xc"
	.byte	0
	.long	280
	.long	.Lxta.endpoint_labels140
.cc_bottom cc_227
.cc_top cc_228,.Lxta.endpoint_labels141
	.ascii	"/Users/rkn/Documents/xTIMEcomposer/workspace/module_usb_audio/audio.xc"
	.byte	0
	.long	280
	.long	.Lxta.endpoint_labels141
.cc_bottom cc_228
.cc_top cc_229,.Lxta.endpoint_labels142
	.ascii	"/Users/rkn/Documents/xTIMEcomposer/workspace/module_usb_audio/audio.xc"
	.byte	0
	.long	280
	.long	.Lxta.endpoint_labels142
.cc_bottom cc_229
.cc_top cc_230,.Lxta.endpoint_labels143
	.ascii	"/Users/rkn/Documents/xTIMEcomposer/workspace/module_usb_audio/audio.xc"
	.byte	0
	.long	280
	.long	.Lxta.endpoint_labels143
.cc_bottom cc_230
.cc_top cc_231,.Lxta.endpoint_labels144
	.ascii	"/Users/rkn/Documents/xTIMEcomposer/workspace/module_usb_audio/audio.xc"
	.byte	0
	.long	280
	.long	.Lxta.endpoint_labels144
.cc_bottom cc_231
.cc_top cc_232,.Lxta.endpoint_labels145
	.ascii	"/Users/rkn/Documents/xTIMEcomposer/workspace/module_usb_audio/audio.xc"
	.byte	0
	.long	280
	.long	.Lxta.endpoint_labels145
.cc_bottom cc_232
.cc_top cc_233,.Lxta.endpoint_labels146
	.ascii	"/Users/rkn/Documents/xTIMEcomposer/workspace/module_usb_audio/audio.xc"
	.byte	0
	.long	280
	.long	.Lxta.endpoint_labels146
.cc_bottom cc_233
.cc_top cc_234,.Lxta.endpoint_labels147
	.ascii	"/Users/rkn/Documents/xTIMEcomposer/workspace/module_usb_audio/audio.xc"
	.byte	0
	.long	280
	.long	.Lxta.endpoint_labels147
.cc_bottom cc_234
.cc_top cc_235,.Lxta.endpoint_labels214
	.ascii	"/Users/rkn/Documents/xTIMEcomposer/workspace/module_usb_audio/audio.xc"
	.byte	0
	.long	280
	.long	.Lxta.endpoint_labels214
.cc_bottom cc_235
.cc_top cc_236,.Lxta.endpoint_labels117
	.ascii	"/Users/rkn/Documents/xTIMEcomposer/workspace/module_usb_audio/audio.xc"
	.byte	0
	.long	280
	.long	.Lxta.endpoint_labels117
.cc_bottom cc_236
.cc_top cc_237,.Lxta.endpoint_labels118
	.ascii	"/Users/rkn/Documents/xTIMEcomposer/workspace/module_usb_audio/audio.xc"
	.byte	0
	.long	280
	.long	.Lxta.endpoint_labels118
.cc_bottom cc_237
.cc_top cc_238,.Lxta.endpoint_labels119
	.ascii	"/Users/rkn/Documents/xTIMEcomposer/workspace/module_usb_audio/audio.xc"
	.byte	0
	.long	280
	.long	.Lxta.endpoint_labels119
.cc_bottom cc_238
.cc_top cc_239,.Lxta.endpoint_labels120
	.ascii	"/Users/rkn/Documents/xTIMEcomposer/workspace/module_usb_audio/audio.xc"
	.byte	0
	.long	280
	.long	.Lxta.endpoint_labels120
.cc_bottom cc_239
.cc_top cc_240,.Lxta.endpoint_labels121
	.ascii	"/Users/rkn/Documents/xTIMEcomposer/workspace/module_usb_audio/audio.xc"
	.byte	0
	.long	280
	.long	.Lxta.endpoint_labels121
.cc_bottom cc_240
.cc_top cc_241,.Lxta.endpoint_labels122
	.ascii	"/Users/rkn/Documents/xTIMEcomposer/workspace/module_usb_audio/audio.xc"
	.byte	0
	.long	280
	.long	.Lxta.endpoint_labels122
.cc_bottom cc_241
.cc_top cc_242,.Lxta.endpoint_labels123
	.ascii	"/Users/rkn/Documents/xTIMEcomposer/workspace/module_usb_audio/audio.xc"
	.byte	0
	.long	280
	.long	.Lxta.endpoint_labels123
.cc_bottom cc_242
.cc_top cc_243,.Lxta.endpoint_labels124
	.ascii	"/Users/rkn/Documents/xTIMEcomposer/workspace/module_usb_audio/audio.xc"
	.byte	0
	.long	280
	.long	.Lxta.endpoint_labels124
.cc_bottom cc_243
.cc_top cc_244,.Lxta.endpoint_labels125
	.ascii	"/Users/rkn/Documents/xTIMEcomposer/workspace/module_usb_audio/audio.xc"
	.byte	0
	.long	280
	.long	.Lxta.endpoint_labels125
.cc_bottom cc_244
.cc_top cc_245,.Lxta.endpoint_labels126
	.ascii	"/Users/rkn/Documents/xTIMEcomposer/workspace/module_usb_audio/audio.xc"
	.byte	0
	.long	280
	.long	.Lxta.endpoint_labels126
.cc_bottom cc_245
.cc_top cc_246,.Lxta.endpoint_labels127
	.ascii	"/Users/rkn/Documents/xTIMEcomposer/workspace/module_usb_audio/audio.xc"
	.byte	0
	.long	280
	.long	.Lxta.endpoint_labels127
.cc_bottom cc_246
.cc_top cc_247,.Lxta.endpoint_labels128
	.ascii	"/Users/rkn/Documents/xTIMEcomposer/workspace/module_usb_audio/audio.xc"
	.byte	0
	.long	280
	.long	.Lxta.endpoint_labels128
.cc_bottom cc_247
.cc_top cc_248,.Lxta.endpoint_labels129
	.ascii	"/Users/rkn/Documents/xTIMEcomposer/workspace/module_usb_audio/audio.xc"
	.byte	0
	.long	280
	.long	.Lxta.endpoint_labels129
.cc_bottom cc_248
.cc_top cc_249,.Lxta.endpoint_labels130
	.ascii	"/Users/rkn/Documents/xTIMEcomposer/workspace/module_usb_audio/audio.xc"
	.byte	0
	.long	280
	.long	.Lxta.endpoint_labels130
.cc_bottom cc_249
.cc_top cc_250,.Lxta.endpoint_labels131
	.ascii	"/Users/rkn/Documents/xTIMEcomposer/workspace/module_usb_audio/audio.xc"
	.byte	0
	.long	280
	.long	.Lxta.endpoint_labels131
.cc_bottom cc_250
.cc_top cc_251,.Lxta.endpoint_labels132
	.ascii	"/Users/rkn/Documents/xTIMEcomposer/workspace/module_usb_audio/audio.xc"
	.byte	0
	.long	280
	.long	.Lxta.endpoint_labels132
.cc_bottom cc_251
.cc_top cc_252,.Lxta.endpoint_labels133
	.ascii	"/Users/rkn/Documents/xTIMEcomposer/workspace/module_usb_audio/audio.xc"
	.byte	0
	.long	280
	.long	.Lxta.endpoint_labels133
.cc_bottom cc_252
.cc_top cc_253,.Lxta.endpoint_labels134
	.ascii	"/Users/rkn/Documents/xTIMEcomposer/workspace/module_usb_audio/audio.xc"
	.byte	0
	.long	280
	.long	.Lxta.endpoint_labels134
.cc_bottom cc_253
.cc_top cc_254,.Lxta.endpoint_labels185
	.ascii	"/Users/rkn/Documents/xTIMEcomposer/workspace/module_usb_audio/audio.xc"
	.byte	0
	.long	282
	.long	.Lxta.endpoint_labels185
.cc_bottom cc_254
.cc_top cc_255,.Lxta.endpoint_labels208
	.ascii	"/Users/rkn/Documents/xTIMEcomposer/workspace/module_usb_audio/audio.xc"
	.byte	0
	.long	282
	.long	.Lxta.endpoint_labels208
.cc_bottom cc_255
.cc_top cc_256,.Lxta.endpoint_labels36
	.ascii	"/Users/rkn/Documents/xTIMEcomposer/workspace/module_usb_audio/audio.xc"
	.byte	0
	.long	282
	.long	.Lxta.endpoint_labels36
.cc_bottom cc_256
.cc_top cc_257,.Lxta.endpoint_labels213
	.ascii	"/Users/rkn/Documents/xTIMEcomposer/workspace/module_usb_audio/audio.xc"
	.byte	0
	.long	282
	.long	.Lxta.endpoint_labels213
.cc_bottom cc_257
.cc_top cc_258,.Lxta.endpoint_labels210
	.ascii	"/Users/rkn/Documents/xTIMEcomposer/workspace/module_usb_audio/audio.xc"
	.byte	0
	.long	282
	.long	.Lxta.endpoint_labels210
.cc_bottom cc_258
.cc_top cc_259,.Lxta.endpoint_labels209
	.ascii	"/Users/rkn/Documents/xTIMEcomposer/workspace/module_usb_audio/audio.xc"
	.byte	0
	.long	282
	.long	.Lxta.endpoint_labels209
.cc_bottom cc_259
.cc_top cc_260,.Lxta.endpoint_labels211
	.ascii	"/Users/rkn/Documents/xTIMEcomposer/workspace/module_usb_audio/audio.xc"
	.byte	0
	.long	282
	.long	.Lxta.endpoint_labels211
.cc_bottom cc_260
.cc_top cc_261,.Lxta.endpoint_labels207
	.ascii	"/Users/rkn/Documents/xTIMEcomposer/workspace/module_usb_audio/audio.xc"
	.byte	0
	.long	282
	.long	.Lxta.endpoint_labels207
.cc_bottom cc_261
.cc_top cc_262,.Lxta.endpoint_labels206
	.ascii	"/Users/rkn/Documents/xTIMEcomposer/workspace/module_usb_audio/audio.xc"
	.byte	0
	.long	282
	.long	.Lxta.endpoint_labels206
.cc_bottom cc_262
.cc_top cc_263,.Lxta.endpoint_labels205
	.ascii	"/Users/rkn/Documents/xTIMEcomposer/workspace/module_usb_audio/audio.xc"
	.byte	0
	.long	282
	.long	.Lxta.endpoint_labels205
.cc_bottom cc_263
.cc_top cc_264,.Lxta.endpoint_labels204
	.ascii	"/Users/rkn/Documents/xTIMEcomposer/workspace/module_usb_audio/audio.xc"
	.byte	0
	.long	282
	.long	.Lxta.endpoint_labels204
.cc_bottom cc_264
.cc_top cc_265,.Lxta.endpoint_labels203
	.ascii	"/Users/rkn/Documents/xTIMEcomposer/workspace/module_usb_audio/audio.xc"
	.byte	0
	.long	282
	.long	.Lxta.endpoint_labels203
.cc_bottom cc_265
.cc_top cc_266,.Lxta.endpoint_labels202
	.ascii	"/Users/rkn/Documents/xTIMEcomposer/workspace/module_usb_audio/audio.xc"
	.byte	0
	.long	282
	.long	.Lxta.endpoint_labels202
.cc_bottom cc_266
.cc_top cc_267,.Lxta.endpoint_labels201
	.ascii	"/Users/rkn/Documents/xTIMEcomposer/workspace/module_usb_audio/audio.xc"
	.byte	0
	.long	282
	.long	.Lxta.endpoint_labels201
.cc_bottom cc_267
.cc_top cc_268,.Lxta.endpoint_labels200
	.ascii	"/Users/rkn/Documents/xTIMEcomposer/workspace/module_usb_audio/audio.xc"
	.byte	0
	.long	282
	.long	.Lxta.endpoint_labels200
.cc_bottom cc_268
.cc_top cc_269,.Lxta.endpoint_labels199
	.ascii	"/Users/rkn/Documents/xTIMEcomposer/workspace/module_usb_audio/audio.xc"
	.byte	0
	.long	282
	.long	.Lxta.endpoint_labels199
.cc_bottom cc_269
.cc_top cc_270,.Lxta.endpoint_labels198
	.ascii	"/Users/rkn/Documents/xTIMEcomposer/workspace/module_usb_audio/audio.xc"
	.byte	0
	.long	282
	.long	.Lxta.endpoint_labels198
.cc_bottom cc_270
.cc_top cc_271,.Lxta.endpoint_labels67
	.ascii	"/Users/rkn/Documents/xTIMEcomposer/workspace/module_usb_audio/audio.xc"
	.byte	0
	.long	282
	.long	.Lxta.endpoint_labels67
.cc_bottom cc_271
.cc_top cc_272,.Lxta.endpoint_labels66
	.ascii	"/Users/rkn/Documents/xTIMEcomposer/workspace/module_usb_audio/audio.xc"
	.byte	0
	.long	282
	.long	.Lxta.endpoint_labels66
.cc_bottom cc_272
.cc_top cc_273,.Lxta.endpoint_labels65
	.ascii	"/Users/rkn/Documents/xTIMEcomposer/workspace/module_usb_audio/audio.xc"
	.byte	0
	.long	282
	.long	.Lxta.endpoint_labels65
.cc_bottom cc_273
.cc_top cc_274,.Lxta.endpoint_labels64
	.ascii	"/Users/rkn/Documents/xTIMEcomposer/workspace/module_usb_audio/audio.xc"
	.byte	0
	.long	282
	.long	.Lxta.endpoint_labels64
.cc_bottom cc_274
.cc_top cc_275,.Lxta.endpoint_labels63
	.ascii	"/Users/rkn/Documents/xTIMEcomposer/workspace/module_usb_audio/audio.xc"
	.byte	0
	.long	282
	.long	.Lxta.endpoint_labels63
.cc_bottom cc_275
.cc_top cc_276,.Lxta.endpoint_labels62
	.ascii	"/Users/rkn/Documents/xTIMEcomposer/workspace/module_usb_audio/audio.xc"
	.byte	0
	.long	282
	.long	.Lxta.endpoint_labels62
.cc_bottom cc_276
.cc_top cc_277,.Lxta.endpoint_labels61
	.ascii	"/Users/rkn/Documents/xTIMEcomposer/workspace/module_usb_audio/audio.xc"
	.byte	0
	.long	282
	.long	.Lxta.endpoint_labels61
.cc_bottom cc_277
.cc_top cc_278,.Lxta.endpoint_labels60
	.ascii	"/Users/rkn/Documents/xTIMEcomposer/workspace/module_usb_audio/audio.xc"
	.byte	0
	.long	282
	.long	.Lxta.endpoint_labels60
.cc_bottom cc_278
.cc_top cc_279,.Lxta.endpoint_labels59
	.ascii	"/Users/rkn/Documents/xTIMEcomposer/workspace/module_usb_audio/audio.xc"
	.byte	0
	.long	282
	.long	.Lxta.endpoint_labels59
.cc_bottom cc_279
.cc_top cc_280,.Lxta.endpoint_labels58
	.ascii	"/Users/rkn/Documents/xTIMEcomposer/workspace/module_usb_audio/audio.xc"
	.byte	0
	.long	282
	.long	.Lxta.endpoint_labels58
.cc_bottom cc_280
.cc_top cc_281,.Lxta.endpoint_labels57
	.ascii	"/Users/rkn/Documents/xTIMEcomposer/workspace/module_usb_audio/audio.xc"
	.byte	0
	.long	282
	.long	.Lxta.endpoint_labels57
