	.text
	.file	"/Users/rkn/Documents/xTIMEcomposer/workspace/module_usb_audio/clocking/clockgen.xc"
                                        # Start of file scope inline assembly
	.inline_definition delay_seconds
	.inline_definition delay_milliseconds
	.inline_definition delay_microseconds
	.set usage.anon.0,0
	.set usage.anon.1,0
	.set usage.anon.2,0
	.set usage.anon.3,0
	.set usage.anon.4,0
	.set usage.anon.5,0
	.set usage.anon.6,0
	.globwrite clockGen,usage.anon.6,"/Users/rkn/Documents/xTIMEcomposer/workspace/module_usb_audio/clocking/clockgen.xc:267:5: note: object used here\n    clockId[CLOCK_INTERNAL_INDEX] = ID_CLKSRC_INT;\n    ^~~~~~~~~~~~~~~~~~~~~~~~~~~~~"
	.globwrite clockGen,usage.anon.5,"/Users/rkn/Documents/xTIMEcomposer/workspace/module_usb_audio/clocking/clockgen.xc:269:5: note: object used here\n    clockInt[CLOCK_INTERNAL_INDEX] = 0;\n    ^~~~~~~~~~~~~~~~~~~~~~~~~~~~~~"
	.globwrite clockGen,usage.anon.4,"/Users/rkn/Documents/xTIMEcomposer/workspace/module_usb_audio/clocking/clockgen.xc:268:5: note: object used here\n    clockValid[CLOCK_INTERNAL_INDEX] = 0;\n    ^~~~~~~~~~~~~~~~~~~~~~~~~~~~~~~~"
	.globwrite clockGen,usage.anon.3,"/Users/rkn/Documents/xTIMEcomposer/workspace/module_usb_audio/clocking/clockgen.xc:266:5: note: object used here\n    clockFreq[CLOCK_INTERNAL_INDEX] = 0;\n    ^~~~~~~~~~~~~~~~~~~~~~~~~~~~~~~"
	.globwrite clockGen,g_digData,"/Users/rkn/Documents/xTIMEcomposer/workspace/module_usb_audio/clocking/clockgen.xc:256:8: note: object used here\n       g_digData[i] = 0;\n       ^~~~~~~~~~~~"
	.call clockGen,printstrln
	.call usage.anon.2,delay_ticks_longlong
	.call usage.anon.1,delay_ticks_longlong
	.call usage.anon.0,delay_ticks_longlong
	.set clockGen.locnoside, 0
	.set clockGen.locnoglobalaccess, 0

                                        # End of file scope inline assembly
	.section	.cp.rodata.cst4,"aMc",@progbits,4
	.cc_top .LCPI0_0.data,.LCPI0_0
	.align	4
	.type	.LCPI0_0,@object
	.size	.LCPI0_0, 4
.LCPI0_0:
	.long	166667                  # 0x28b0b
	.cc_bottom .LCPI0_0.data
	.text
	.globl	clockGen
	.align	4
	.type	clockGen,@function
	.cc_top clockGen.function,clockGen
clockGen:                               # @clockGen
.Lfunc_begin0:
	.loc	1 204 0                 # /Users/rkn/Documents/xTIMEcomposer/workspace/module_usb_audio/clocking/clockgen.xc:204:0
	.cfi_startproc
	.issue_mode dual
# BB#0:                                 # %allocas
.Lxtalabel0:
	{
		nop
		dualentsp 10
	}
.Ltmp0:
	.cfi_def_cfa_offset 40
.Ltmp1:
	.cfi_offset 15, 0
	std r5, r4, sp[1]               # 4-byte Folded Spill
.Ltmp2:
	.cfi_offset 4, -32
.Ltmp3:
	.cfi_offset 5, -28
	std r7, r6, sp[2]               # 4-byte Folded Spill
.Ltmp4:
	.cfi_offset 6, -24
.Ltmp5:
	.cfi_offset 7, -20
	std r9, r8, sp[3]               # 4-byte Folded Spill
.Ltmp6:
	.cfi_offset 8, -16
.Ltmp7:
	.cfi_offset 9, -12
.Ltmp8:
	.cfi_offset 10, -8
	#DEBUG_VALUE: clockGen:c_spdif_rx <- R0
	#DEBUG_VALUE: clockGen:c_adat_rx <- R1
	#DEBUG_VALUE: clockGen:p <- R2
	#DEBUG_VALUE: clockGen:c_dig_rx <- R3
	#DEBUG_VALUE: clockGen:c_clk_int <- [SP+48]
.Ltmp9:
	#DEBUG_VALUE: i <- 0
	#DEBUG_VALUE: smux <- 0
	#DEBUG_VALUE: clkMode <- 1
	#DEBUG_VALUE: pinVal <- 0
	#DEBUG_VALUE: clockGen:p <- R4
	{
		mov r4, r2
		stw r10, sp[8]
	}
.Ltmp10:
	{
		nop
		ldw r6, sp[11]
	}
	#DEBUG_VALUE: clockGen:c_clk_ctl <- R6
	.loc	1 256 0 prologue_end    # /Users/rkn/Documents/xTIMEcomposer/workspace/module_usb_audio/clocking/clockgen.xc:256:0
.Ltmp11:
	ldaw r0, dp[g_digData]
.Ltmp12:
	{
		ldc r5, 0
		ldc r2, 40
	}
	{
		mov r1, r5
		nop
	}
.Ltmp13:
	bl memset
.Ltmp14:
	.loc	1 266 0                 # /Users/rkn/Documents/xTIMEcomposer/workspace/module_usb_audio/clocking/clockgen.xc:266:0
	stw r5, dp[clockFreq]
	.loc	1 268 0                 # /Users/rkn/Documents/xTIMEcomposer/workspace/module_usb_audio/clocking/clockgen.xc:268:0
	stw r5, dp[clockValid]
.Ltmp15:
	#DEBUG_VALUE: timeLastEdge <- R0
	#DEBUG_VALUE: timeNextEdge <- R0
	.loc	1 295 0                 # /Users/rkn/Documents/xTIMEcomposer/workspace/module_usb_audio/clocking/clockgen.xc:295:0
.Lxta.endpoint_labels0:
	{
		out res[r4], r5
		gettime r0
	}
.Ltmp16:
	.loc	1 311 26                # /Users/rkn/Documents/xTIMEcomposer/workspace/module_usb_audio/clocking/clockgen.xc:311:26
	{
		syncr res[r4]
		nop
	}
	.loc	1 311 26                # /Users/rkn/Documents/xTIMEcomposer/workspace/module_usb_audio/clocking/clockgen.xc:311:26
	{
		getts r1, res[r4]
		nop
	}
	ldc r2, 17798
	.loc	1 312 0                 # /Users/rkn/Documents/xTIMEcomposer/workspace/module_usb_audio/clocking/clockgen.xc:312:0
	{
		add r9, r1, r2
		nop
	}
	.loc	1 313 26                # /Users/rkn/Documents/xTIMEcomposer/workspace/module_usb_audio/clocking/clockgen.xc:313:26
	{
		setpt res[r4], r9
		nop
	}
	.loc	1 313 26                # /Users/rkn/Documents/xTIMEcomposer/workspace/module_usb_audio/clocking/clockgen.xc:313:26
.Lxta.endpoint_labels1:
	{
		out res[r4], r5
		get r11, id
	}
	.loc	1 317 9                 # /Users/rkn/Documents/xTIMEcomposer/workspace/module_usb_audio/clocking/clockgen.xc:317:9
	ldaw r1, dp[__timers]
	{
		nop
		ldw r7, r1[r11]
	}
	ldap r11, .Ltmp17
	.loc	1 317 9                 # /Users/rkn/Documents/xTIMEcomposer/workspace/module_usb_audio/clocking/clockgen.xc:317:9
	{
		setv res[r6], r11
		mkmsk r8, 1
	}
	ldw r1, cp[.LCPI0_0]
.Ltmp18:
	#DEBUG_VALUE: timeLastEdge <- R10
	.loc	1 447 0                 # /Users/rkn/Documents/xTIMEcomposer/workspace/module_usb_audio/clocking/clockgen.xc:447:0
	{
		clre
		add r10, r0, r1
	}
.Ltmp19:
	.loc	1 317 9                 # /Users/rkn/Documents/xTIMEcomposer/workspace/module_usb_audio/clocking/clockgen.xc:317:9
	{
		eeu res[r6]
		nop
	}
	.loc	1 317 9                 # /Users/rkn/Documents/xTIMEcomposer/workspace/module_usb_audio/clocking/clockgen.xc:317:9
	{
		setd res[r7], r10
		nop
	}
	.loc	1 317 9                 # /Users/rkn/Documents/xTIMEcomposer/workspace/module_usb_audio/clocking/clockgen.xc:317:9
	{
		setc res[r7], 9
		nop
	}
	ldap r11, .Ltmp20
	.loc	1 317 9                 # /Users/rkn/Documents/xTIMEcomposer/workspace/module_usb_audio/clocking/clockgen.xc:317:9
	{
		setv res[r7], r11
		nop
	}
	.loc	1 317 9                 # /Users/rkn/Documents/xTIMEcomposer/workspace/module_usb_audio/clocking/clockgen.xc:317:9
	{
		eeu res[r7]
		nop
	}
	.loc	1 472 0                 # /Users/rkn/Documents/xTIMEcomposer/workspace/module_usb_audio/clocking/clockgen.xc:472:0

	.xtabranch .LBB0_1, .LBB0_3
	{
		waiteu
		nop
	}
.Ltmp21:
.Ltmp17:                                # Block address taken
.LBB0_1:                                # %selectcase
                                        # =>This Inner Loop Header: Depth=1
.Lxtalabel1:
	#DEBUG_VALUE: clockGen:c_spdif_rx <- R0
	#DEBUG_VALUE: clockGen:c_adat_rx <- R1
	#DEBUG_VALUE: clockGen:p <- R4
	#DEBUG_VALUE: clockGen:c_dig_rx <- R3
	#DEBUG_VALUE: clockGen:c_clk_int <- [SP+48]
	#DEBUG_VALUE: pinVal <- 0
	#DEBUG_VALUE: clkMode <- 1
	#DEBUG_VALUE: smux <- 0
	#DEBUG_VALUE: clockGen:c_clk_ctl <- R6
	#DEBUG_VALUE: tmp <- R0
	.loc	1 357 0                 # /Users/rkn/Documents/xTIMEcomposer/workspace/module_usb_audio/clocking/clockgen.xc:357:0
.Lxta.endpoint_labels2:
	{
		in r0, res[r6]
		mkmsk r1, 3
	}
.Ltmp22:
	.loc	1 358 0                 # /Users/rkn/Documents/xTIMEcomposer/workspace/module_usb_audio/clocking/clockgen.xc:358:0
	{
		lsu r1, r1, r0
		nop
	}
	bt r1, .LBB0_4
.Ltmp23:
# BB#2:                                 # %selectcase
                                        #   in Loop: Header=BB0_1 Depth=1
.Lxtalabel2:
	#DEBUG_VALUE: clockGen:c_spdif_rx <- R0
	#DEBUG_VALUE: clockGen:c_adat_rx <- R1
	#DEBUG_VALUE: clockGen:p <- R4
	#DEBUG_VALUE: clockGen:c_dig_rx <- R3
	#DEBUG_VALUE: clockGen:c_clk_int <- [SP+48]
	#DEBUG_VALUE: clockGen:c_clk_ctl <- R6

	.xtabranch .Ljumptable0+4,.Ljumptable0+8,.Ljumptable0+12,.Ljumptable0+16,.Ljumptable0+20,.Ljumptable0+24,.Ljumptable0+28,.Ljumptable0+32
.Ljumptable0:
		
	{
		nop
		bru r0
	}
	.jmptable32 .LBB0_5,.LBB0_6,.LBB0_10,.LBB0_9,.LBB0_4,.LBB0_4,.LBB0_4,.LBB0_11
.Ltmp24:
.LBB0_5:                                # %switchcase
                                        #   in Loop: Header=BB0_1 Depth=1
.Lxtalabel3:
	#DEBUG_VALUE: clockGen:c_spdif_rx <- R0
	#DEBUG_VALUE: clockGen:c_adat_rx <- R1
	#DEBUG_VALUE: clockGen:p <- R4
	#DEBUG_VALUE: clockGen:c_dig_rx <- R3
	#DEBUG_VALUE: clockGen:c_clk_int <- [SP+48]
	#DEBUG_VALUE: clockGen:c_clk_ctl <- R6
	.loc	1 361 0                 # /Users/rkn/Documents/xTIMEcomposer/workspace/module_usb_audio/clocking/clockgen.xc:361:0
	{
		chkct res[r6], 1
		nop
	}
	.loc	1 364 0                 # /Users/rkn/Documents/xTIMEcomposer/workspace/module_usb_audio/clocking/clockgen.xc:364:0
.Lxta.endpoint_labels3:
	{
		out res[r6], r8
		nop
	}
	.loc	1 365 0                 # /Users/rkn/Documents/xTIMEcomposer/workspace/module_usb_audio/clocking/clockgen.xc:365:0
.Lxta.endpoint_labels4:
	{
		outct res[r6], 1
		nop
	}
	.loc	1 317 9                 # /Users/rkn/Documents/xTIMEcomposer/workspace/module_usb_audio/clocking/clockgen.xc:317:9
	{
		clre
		nop
	}
	.loc	1 317 9                 # /Users/rkn/Documents/xTIMEcomposer/workspace/module_usb_audio/clocking/clockgen.xc:317:9
	{
		eeu res[r6]
		nop
	}
	.loc	1 317 9                 # /Users/rkn/Documents/xTIMEcomposer/workspace/module_usb_audio/clocking/clockgen.xc:317:9
	{
		setd res[r7], r10
		nop
	}
	.loc	1 317 9                 # /Users/rkn/Documents/xTIMEcomposer/workspace/module_usb_audio/clocking/clockgen.xc:317:9
	{
		setc res[r7], 9
		nop
	}
	ldap r11, .Ltmp20
	.loc	1 317 9                 # /Users/rkn/Documents/xTIMEcomposer/workspace/module_usb_audio/clocking/clockgen.xc:317:9
	{
		setv res[r7], r11
		nop
	}
	.loc	1 317 9                 # /Users/rkn/Documents/xTIMEcomposer/workspace/module_usb_audio/clocking/clockgen.xc:317:9
	{
		eeu res[r7]
		nop
	}
	.loc	1 472 0                 # /Users/rkn/Documents/xTIMEcomposer/workspace/module_usb_audio/clocking/clockgen.xc:472:0

	.xtabranch .LBB0_1, .LBB0_3
	{
		waiteu
		nop
	}
.Ltmp25:
.LBB0_4:                                # %switchdefault
                                        #   in Loop: Header=BB0_1 Depth=1
.Lxtalabel4:
	#DEBUG_VALUE: clockGen:c_spdif_rx <- R0
	#DEBUG_VALUE: clockGen:c_adat_rx <- R1
	#DEBUG_VALUE: clockGen:p <- R4
	#DEBUG_VALUE: clockGen:c_dig_rx <- R3
	#DEBUG_VALUE: clockGen:c_clk_int <- [SP+48]
	#DEBUG_VALUE: pinVal <- 0
	#DEBUG_VALUE: clkMode <- 1
	#DEBUG_VALUE: smux <- 0
	#DEBUG_VALUE: clockGen:c_clk_ctl <- R6
	.loc	1 427 0                 # /Users/rkn/Documents/xTIMEcomposer/workspace/module_usb_audio/clocking/clockgen.xc:427:0
	ldaw r11, cp[.str]
	{
		ldc r1, 26
		mov r0, r11
	}
.Ltmp26:
.Lxta.call_labels0:
	bl printstrln
.Ltmp27:
	.loc	1 317 9                 # /Users/rkn/Documents/xTIMEcomposer/workspace/module_usb_audio/clocking/clockgen.xc:317:9
	{
		clre
		nop
	}
	.loc	1 317 9                 # /Users/rkn/Documents/xTIMEcomposer/workspace/module_usb_audio/clocking/clockgen.xc:317:9
	{
		eeu res[r6]
		nop
	}
	.loc	1 317 9                 # /Users/rkn/Documents/xTIMEcomposer/workspace/module_usb_audio/clocking/clockgen.xc:317:9
	{
		setd res[r7], r10
		nop
	}
	.loc	1 317 9                 # /Users/rkn/Documents/xTIMEcomposer/workspace/module_usb_audio/clocking/clockgen.xc:317:9
	{
		setc res[r7], 9
		nop
	}
	ldap r11, .Ltmp20
	.loc	1 317 9                 # /Users/rkn/Documents/xTIMEcomposer/workspace/module_usb_audio/clocking/clockgen.xc:317:9
	{
		setv res[r7], r11
		nop
	}
	.loc	1 317 9                 # /Users/rkn/Documents/xTIMEcomposer/workspace/module_usb_audio/clocking/clockgen.xc:317:9
	{
		eeu res[r7]
		nop
	}
	.loc	1 472 0                 # /Users/rkn/Documents/xTIMEcomposer/workspace/module_usb_audio/clocking/clockgen.xc:472:0

	.xtabranch .LBB0_1, .LBB0_3
	{
		waiteu
		nop
	}
.Ltmp28:
.LBB0_10:                               # %switchcase45
                                        #   in Loop: Header=BB0_1 Depth=1
.Lxtalabel5:
	#DEBUG_VALUE: clockGen:c_spdif_rx <- R0
	#DEBUG_VALUE: clockGen:c_adat_rx <- R1
	#DEBUG_VALUE: clockGen:p <- R4
	#DEBUG_VALUE: clockGen:c_dig_rx <- R3
	#DEBUG_VALUE: clockGen:c_clk_int <- [SP+48]
	#DEBUG_VALUE: clockGen:c_clk_ctl <- R6
	.loc	1 407 0                 # /Users/rkn/Documents/xTIMEcomposer/workspace/module_usb_audio/clocking/clockgen.xc:407:0
.Lxta.endpoint_labels5:
	{
		in r0, res[r6]
		nop
	}
.Ltmp29:
	#DEBUG_VALUE: tmp <- R0
	.loc	1 408 0                 # /Users/rkn/Documents/xTIMEcomposer/workspace/module_usb_audio/clocking/clockgen.xc:408:0
	{
		chkct res[r6], 1
		nop
	}
	.loc	1 409 0                 # /Users/rkn/Documents/xTIMEcomposer/workspace/module_usb_audio/clocking/clockgen.xc:409:0
	ldaw r1, dp[clockFreq]
.Ltmp30:
	{
		nop
		ldw r0, r1[r0]
	}
.Ltmp31:
	.loc	1 409 0                 # /Users/rkn/Documents/xTIMEcomposer/workspace/module_usb_audio/clocking/clockgen.xc:409:0
.Lxta.endpoint_labels6:
	{
		out res[r6], r0
		nop
	}
	.loc	1 410 0                 # /Users/rkn/Documents/xTIMEcomposer/workspace/module_usb_audio/clocking/clockgen.xc:410:0
.Lxta.endpoint_labels7:
	{
		outct res[r6], 1
		nop
	}
	.loc	1 317 9                 # /Users/rkn/Documents/xTIMEcomposer/workspace/module_usb_audio/clocking/clockgen.xc:317:9
	{
		clre
		nop
	}
	.loc	1 317 9                 # /Users/rkn/Documents/xTIMEcomposer/workspace/module_usb_audio/clocking/clockgen.xc:317:9
	{
		eeu res[r6]
		nop
	}
	.loc	1 317 9                 # /Users/rkn/Documents/xTIMEcomposer/workspace/module_usb_audio/clocking/clockgen.xc:317:9
	{
		setd res[r7], r10
		nop
	}
	.loc	1 317 9                 # /Users/rkn/Documents/xTIMEcomposer/workspace/module_usb_audio/clocking/clockgen.xc:317:9
	{
		setc res[r7], 9
		nop
	}
	ldap r11, .Ltmp20
	.loc	1 317 9                 # /Users/rkn/Documents/xTIMEcomposer/workspace/module_usb_audio/clocking/clockgen.xc:317:9
	{
		setv res[r7], r11
		nop
	}
	.loc	1 317 9                 # /Users/rkn/Documents/xTIMEcomposer/workspace/module_usb_audio/clocking/clockgen.xc:317:9
	{
		eeu res[r7]
		nop
	}
	.loc	1 472 0                 # /Users/rkn/Documents/xTIMEcomposer/workspace/module_usb_audio/clocking/clockgen.xc:472:0

	.xtabranch .LBB0_1, .LBB0_3
	{
		waiteu
		nop
	}
.Ltmp32:
.LBB0_9:                                # %switchcase34
                                        #   in Loop: Header=BB0_1 Depth=1
.Lxtalabel6:
	#DEBUG_VALUE: clockGen:c_spdif_rx <- R0
	#DEBUG_VALUE: clockGen:c_adat_rx <- R1
	#DEBUG_VALUE: clockGen:p <- R4
	#DEBUG_VALUE: clockGen:c_dig_rx <- R3
	#DEBUG_VALUE: clockGen:c_clk_int <- [SP+48]
	#DEBUG_VALUE: clockGen:c_clk_ctl <- R6
	.loc	1 400 0                 # /Users/rkn/Documents/xTIMEcomposer/workspace/module_usb_audio/clocking/clockgen.xc:400:0
.Lxta.endpoint_labels8:
	{
		in r0, res[r6]
		nop
	}
.Ltmp33:
	#DEBUG_VALUE: tmp <- R0
	.loc	1 401 0                 # /Users/rkn/Documents/xTIMEcomposer/workspace/module_usb_audio/clocking/clockgen.xc:401:0
	{
		chkct res[r6], 1
		nop
	}
	.loc	1 402 0                 # /Users/rkn/Documents/xTIMEcomposer/workspace/module_usb_audio/clocking/clockgen.xc:402:0
	ldaw r1, dp[clockValid]
.Ltmp34:
	{
		nop
		ldw r0, r1[r0]
	}
.Ltmp35:
	.loc	1 402 0                 # /Users/rkn/Documents/xTIMEcomposer/workspace/module_usb_audio/clocking/clockgen.xc:402:0
.Lxta.endpoint_labels9:
	{
		out res[r6], r0
		nop
	}
	.loc	1 403 0                 # /Users/rkn/Documents/xTIMEcomposer/workspace/module_usb_audio/clocking/clockgen.xc:403:0
.Lxta.endpoint_labels10:
	{
		outct res[r6], 1
		nop
	}
	.loc	1 317 9                 # /Users/rkn/Documents/xTIMEcomposer/workspace/module_usb_audio/clocking/clockgen.xc:317:9
	{
		clre
		nop
	}
	.loc	1 317 9                 # /Users/rkn/Documents/xTIMEcomposer/workspace/module_usb_audio/clocking/clockgen.xc:317:9
	{
		eeu res[r6]
		nop
	}
	.loc	1 317 9                 # /Users/rkn/Documents/xTIMEcomposer/workspace/module_usb_audio/clocking/clockgen.xc:317:9
	{
		setd res[r7], r10
		nop
	}
	.loc	1 317 9                 # /Users/rkn/Documents/xTIMEcomposer/workspace/module_usb_audio/clocking/clockgen.xc:317:9
	{
		setc res[r7], 9
		nop
	}
	ldap r11, .Ltmp20
	.loc	1 317 9                 # /Users/rkn/Documents/xTIMEcomposer/workspace/module_usb_audio/clocking/clockgen.xc:317:9
	{
		setv res[r7], r11
		nop
	}
	.loc	1 317 9                 # /Users/rkn/Documents/xTIMEcomposer/workspace/module_usb_audio/clocking/clockgen.xc:317:9
	{
		eeu res[r7]
		nop
	}
	.loc	1 472 0                 # /Users/rkn/Documents/xTIMEcomposer/workspace/module_usb_audio/clocking/clockgen.xc:472:0

	.xtabranch .LBB0_1, .LBB0_3
	{
		waiteu
		nop
	}
.Ltmp36:
.LBB0_11:                               # %switchcase53
                                        #   in Loop: Header=BB0_1 Depth=1
.Lxtalabel7:
	#DEBUG_VALUE: clockGen:c_spdif_rx <- R0
	#DEBUG_VALUE: clockGen:c_adat_rx <- R1
	#DEBUG_VALUE: clockGen:p <- R4
	#DEBUG_VALUE: clockGen:c_dig_rx <- R3
	#DEBUG_VALUE: clockGen:c_clk_int <- [SP+48]
	#DEBUG_VALUE: clockGen:c_clk_ctl <- R6
	.loc	1 414 0                 # /Users/rkn/Documents/xTIMEcomposer/workspace/module_usb_audio/clocking/clockgen.xc:414:0
.Lxta.endpoint_labels11:
	{
		in r0, res[r6]
		nop
	}
.Ltmp37:
	#DEBUG_VALUE: smux <- R0
	.loc	1 420 0                 # /Users/rkn/Documents/xTIMEcomposer/workspace/module_usb_audio/clocking/clockgen.xc:420:0
	{
		chkct res[r6], 1
		nop
	}
	.loc	1 317 9                 # /Users/rkn/Documents/xTIMEcomposer/workspace/module_usb_audio/clocking/clockgen.xc:317:9
	{
		clre
		nop
	}
	.loc	1 317 9                 # /Users/rkn/Documents/xTIMEcomposer/workspace/module_usb_audio/clocking/clockgen.xc:317:9
	{
		eeu res[r6]
		nop
	}
	.loc	1 317 9                 # /Users/rkn/Documents/xTIMEcomposer/workspace/module_usb_audio/clocking/clockgen.xc:317:9
	{
		setd res[r7], r10
		nop
	}
	.loc	1 317 9                 # /Users/rkn/Documents/xTIMEcomposer/workspace/module_usb_audio/clocking/clockgen.xc:317:9
	{
		setc res[r7], 9
		nop
	}
	ldap r11, .Ltmp20
	.loc	1 317 9                 # /Users/rkn/Documents/xTIMEcomposer/workspace/module_usb_audio/clocking/clockgen.xc:317:9
	{
		setv res[r7], r11
		nop
	}
	.loc	1 317 9                 # /Users/rkn/Documents/xTIMEcomposer/workspace/module_usb_audio/clocking/clockgen.xc:317:9
	{
		eeu res[r7]
		nop
	}
	.loc	1 472 0                 # /Users/rkn/Documents/xTIMEcomposer/workspace/module_usb_audio/clocking/clockgen.xc:472:0

	.xtabranch .LBB0_1, .LBB0_3
	{
		waiteu
		nop
	}
.Ltmp38:
.LBB0_6:                                # %switchcase30
                                        #   in Loop: Header=BB0_1 Depth=1
.Lxtalabel8:
	#DEBUG_VALUE: clockGen:c_spdif_rx <- R0
	#DEBUG_VALUE: clockGen:c_adat_rx <- R1
	#DEBUG_VALUE: clockGen:p <- R4
	#DEBUG_VALUE: clockGen:c_dig_rx <- R3
	#DEBUG_VALUE: clockGen:c_clk_int <- [SP+48]
	#DEBUG_VALUE: clockGen:c_clk_ctl <- R6
	.loc	1 371 0                 # /Users/rkn/Documents/xTIMEcomposer/workspace/module_usb_audio/clocking/clockgen.xc:371:0
.Lxta.endpoint_labels12:
	{
		in r0, res[r6]
		nop
	}
.Ltmp39:
	#DEBUG_VALUE: tmp <- R0
	#DEBUG_VALUE: clkMode <- R0
	.loc	1 372 0                 # /Users/rkn/Documents/xTIMEcomposer/workspace/module_usb_audio/clocking/clockgen.xc:372:0
	{
		chkct res[r6], 1
		nop
	}
	bt r0, .LBB0_8
.Ltmp40:
# BB#7:                                 # %switchcase30
                                        #   in Loop: Header=BB0_1 Depth=1
.Lxtalabel9:
	#DEBUG_VALUE: clockGen:c_spdif_rx <- R0
	#DEBUG_VALUE: clockGen:c_adat_rx <- R1
	#DEBUG_VALUE: clockGen:p <- R4
	#DEBUG_VALUE: clockGen:c_dig_rx <- R3
	#DEBUG_VALUE: clockGen:c_clk_int <- [SP+48]
	#DEBUG_VALUE: clockGen:c_clk_ctl <- R6
	.loc	1 374 25                # /Users/rkn/Documents/xTIMEcomposer/workspace/module_usb_audio/clocking/clockgen.xc:374:25
	{
		mov r0, r8
		nop
	}
.Ltmp41:
.LBB0_8:                                # %switchcase30
                                        #   in Loop: Header=BB0_1 Depth=1
.Lxtalabel10:
	#DEBUG_VALUE: clockGen:c_spdif_rx <- R0
	#DEBUG_VALUE: clockGen:c_adat_rx <- R1
	#DEBUG_VALUE: clockGen:p <- R4
	#DEBUG_VALUE: clockGen:c_dig_rx <- R3
	#DEBUG_VALUE: clockGen:c_clk_int <- [SP+48]
	#DEBUG_VALUE: clockGen:c_clk_ctl <- R6
	.loc	1 317 9                 # /Users/rkn/Documents/xTIMEcomposer/workspace/module_usb_audio/clocking/clockgen.xc:317:9
	{
		clre
		nop
	}
	.loc	1 317 9                 # /Users/rkn/Documents/xTIMEcomposer/workspace/module_usb_audio/clocking/clockgen.xc:317:9
	{
		eeu res[r6]
		nop
	}
	.loc	1 317 9                 # /Users/rkn/Documents/xTIMEcomposer/workspace/module_usb_audio/clocking/clockgen.xc:317:9
	{
		setd res[r7], r10
		nop
	}
	.loc	1 317 9                 # /Users/rkn/Documents/xTIMEcomposer/workspace/module_usb_audio/clocking/clockgen.xc:317:9
	{
		setc res[r7], 9
		nop
	}
	ldap r11, .Ltmp20
	.loc	1 317 9                 # /Users/rkn/Documents/xTIMEcomposer/workspace/module_usb_audio/clocking/clockgen.xc:317:9
	{
		setv res[r7], r11
		nop
	}
	.loc	1 317 9                 # /Users/rkn/Documents/xTIMEcomposer/workspace/module_usb_audio/clocking/clockgen.xc:317:9
	{
		eeu res[r7]
		mov r8, r0
	}
	.loc	1 472 0                 # /Users/rkn/Documents/xTIMEcomposer/workspace/module_usb_audio/clocking/clockgen.xc:472:0

	.xtabranch .LBB0_1, .LBB0_3
	{
		waiteu
		nop
	}
.Ltmp42:
.Ltmp20:                                # Block address taken
.LBB0_3:                                # %selectcase24
                                        # =>This Inner Loop Header: Depth=1
.Lxtalabel11:
	#DEBUG_VALUE: clockGen:c_spdif_rx <- R0
	#DEBUG_VALUE: clockGen:c_adat_rx <- R1
	#DEBUG_VALUE: clockGen:p <- R4
	#DEBUG_VALUE: clockGen:c_dig_rx <- R3
	#DEBUG_VALUE: clockGen:c_clk_int <- [SP+48]
	#DEBUG_VALUE: pinVal <- 0
	#DEBUG_VALUE: clkMode <- 1
	#DEBUG_VALUE: smux <- 0
	#DEBUG_VALUE: clockGen:c_clk_ctl <- R6
	.loc	1 434 0                 # /Users/rkn/Documents/xTIMEcomposer/workspace/module_usb_audio/clocking/clockgen.xc:434:0
.Lxta.endpoint_labels13:
	{
		in r0, res[r7]
		nop
	}
.Ltmp43:
	.loc	1 438 0                 # /Users/rkn/Documents/xTIMEcomposer/workspace/module_usb_audio/clocking/clockgen.xc:438:0
	{
		mov r0, r9
		nop
	}
	{
		zext r0, 16
		nop
	}
	ldc r1, 35595
.Ltmp44:
	.loc	1 438 0                 # /Users/rkn/Documents/xTIMEcomposer/workspace/module_usb_audio/clocking/clockgen.xc:438:0
	{
		add r0, r0, r1
		mkmsk r2, 1
	}
	.loc	1 439 0                 # /Users/rkn/Documents/xTIMEcomposer/workspace/module_usb_audio/clocking/clockgen.xc:439:0
	xor r5, r5, r2
.Ltmp45:
	#DEBUG_VALUE: pinVal <- R5
	.loc	1 440 38                # /Users/rkn/Documents/xTIMEcomposer/workspace/module_usb_audio/clocking/clockgen.xc:440:38
	{
		add r1, r9, r1
		nop
	}
	.loc	1 440 38                # /Users/rkn/Documents/xTIMEcomposer/workspace/module_usb_audio/clocking/clockgen.xc:440:38
	{
		setpt res[r4], r1
		nop
	}
	.loc	1 440 38                # /Users/rkn/Documents/xTIMEcomposer/workspace/module_usb_audio/clocking/clockgen.xc:440:38
.Lxta.endpoint_labels14:
	{
		out res[r4], r5
		nop
	}
	ldw r1, cp[.LCPI0_0]
.Ltmp46:
	#DEBUG_VALUE: timeLastEdge <- R10
	.loc	1 447 0                 # /Users/rkn/Documents/xTIMEcomposer/workspace/module_usb_audio/clocking/clockgen.xc:447:0
	{
		clre
		add r10, r10, r1
	}
.Ltmp47:
	.loc	1 317 9                 # /Users/rkn/Documents/xTIMEcomposer/workspace/module_usb_audio/clocking/clockgen.xc:317:9
	{
		eeu res[r6]
		nop
	}
	.loc	1 317 9                 # /Users/rkn/Documents/xTIMEcomposer/workspace/module_usb_audio/clocking/clockgen.xc:317:9
	{
		setd res[r7], r10
		nop
	}
	.loc	1 317 9                 # /Users/rkn/Documents/xTIMEcomposer/workspace/module_usb_audio/clocking/clockgen.xc:317:9
	{
		setc res[r7], 9
		nop
	}
	ldap r11, .Ltmp20
	.loc	1 317 9                 # /Users/rkn/Documents/xTIMEcomposer/workspace/module_usb_audio/clocking/clockgen.xc:317:9
	{
		setv res[r7], r11
		nop
	}
	.loc	1 317 9                 # /Users/rkn/Documents/xTIMEcomposer/workspace/module_usb_audio/clocking/clockgen.xc:317:9
	{
		eeu res[r7]
		mov r9, r0
	}
	.loc	1 472 0                 # /Users/rkn/Documents/xTIMEcomposer/workspace/module_usb_audio/clocking/clockgen.xc:472:0

	.xtabranch .LBB0_1, .LBB0_3
	{
		waiteu
		nop
	}
.Ltmp48:
	.cc_bottom clockGen.function
	.set	clockGen.nstackwords,((memset.nstackwords $M printstrln.nstackwords) + 10)
	.globl	clockGen.nstackwords
	.set	clockGen.maxcores,printstrln.maxcores $M 1
	.globl	clockGen.maxcores
	.set	clockGen.maxtimers,printstrln.maxtimers $M 0
	.globl	clockGen.maxtimers
	.set	clockGen.maxchanends,printstrln.maxchanends $M 0
	.globl	clockGen.maxchanends
.Ltmp49:
	.size	clockGen, .Ltmp49-clockGen
.Lfunc_end0:
	.cfi_endproc

	.section	.dp.bss,"awd",@nobits
	.cc_top g_digData.data,g_digData
	.globl	g_digData.globound
g_digData.globound = 10
	.globl	g_digData
	.align	8
	.type	g_digData,@object
	.size	g_digData, 40
g_digData:
	.space	40
	.cc_bottom g_digData.data
	.section	.dp.bss.4,"awd",@nobits
	.cc_top clockFreq.data,clockFreq
	.align	4
	.type	clockFreq,@object
	.size	clockFreq, 4
clockFreq:
	.space	4
	.cc_bottom clockFreq.data
	.cc_top clockValid.data,clockValid
	.align	4
	.type	clockValid,@object
	.size	clockValid, 4
clockValid:
	.space	4
	.cc_bottom clockValid.data
	.section	.cp.rodata.4,"ac",@progbits
	.cc_top .str.data,.str
	.align	4
	.type	.str,@object
	.size	.str, 26
.str:
.asciiz"ERR: Bad req in clockgen\n"
	.cc_bottom .str.data
	.section	.dp.bss.4,"awd",@nobits
.Ldebug_end0:
	.section	.dp.bss,"awd",@nobits
.Ldebug_end1:
	.text
.Ldebug_end2:
	.file	2 "/Applications/XMOS_xTIMEcomposer_Community_14.3.2/target/include/timer.h"
	.section	.xtacalltable,"",@progbits
.Lentries_start0:
	.long	.Lentries_end1-.Lentries_start0
	.long	0
	.ascii	"/Users/rkn/Documents/xTIMEcomposer/workspace/app_usb_aud_xk_216_mc/.build_2i32o32xxxxx_tdm8"
	.byte	0
.cc_top cc_0,.Lxta.call_labels0
	.ascii	"/Users/rkn/Documents/xTIMEcomposer/workspace/module_usb_audio/clocking/clockgen.xc"
	.byte	0
	.long	427
	.long	.Lxta.call_labels0
.cc_bottom cc_0
.Lentries_end1:
	.section	.xtaendpointtable,"",@progbits
.Lentries_start2:
	.long	.Lentries_end3-.Lentries_start2
	.long	0
	.ascii	"/Users/rkn/Documents/xTIMEcomposer/workspace/app_usb_aud_xk_216_mc/.build_2i32o32xxxxx_tdm8"
	.byte	0
.cc_top cc_1,.Lxta.endpoint_labels0
	.ascii	"/Users/rkn/Documents/xTIMEcomposer/workspace/module_usb_audio/clocking/clockgen.xc"
	.byte	0
	.long	311
	.long	.Lxta.endpoint_labels0
.cc_bottom cc_1
.cc_top cc_2,.Lxta.endpoint_labels1
	.ascii	"/Users/rkn/Documents/xTIMEcomposer/workspace/module_usb_audio/clocking/clockgen.xc"
	.byte	0
	.long	313
	.long	.Lxta.endpoint_labels1
.cc_bottom cc_2
.cc_top cc_3,.Lxta.endpoint_labels13
	.ascii	"/Users/rkn/Documents/xTIMEcomposer/workspace/module_usb_audio/clocking/clockgen.xc"
	.byte	0
	.long	317
	.long	.Lxta.endpoint_labels13
.cc_bottom cc_3
.cc_top cc_4,.Lxta.endpoint_labels2
	.ascii	"/Users/rkn/Documents/xTIMEcomposer/workspace/module_usb_audio/clocking/clockgen.xc"
	.byte	0
	.long	357
	.long	.Lxta.endpoint_labels2
.cc_bottom cc_4
.cc_top cc_5,.Lxta.endpoint_labels3
	.ascii	"/Users/rkn/Documents/xTIMEcomposer/workspace/module_usb_audio/clocking/clockgen.xc"
	.byte	0
	.long	364
	.long	.Lxta.endpoint_labels3
.cc_bottom cc_5
.cc_top cc_6,.Lxta.endpoint_labels4
	.ascii	"/Users/rkn/Documents/xTIMEcomposer/workspace/module_usb_audio/clocking/clockgen.xc"
	.byte	0
	.long	365
	.long	.Lxta.endpoint_labels4
.cc_bottom cc_6
.cc_top cc_7,.Lxta.endpoint_labels12
	.ascii	"/Users/rkn/Documents/xTIMEcomposer/workspace/module_usb_audio/clocking/clockgen.xc"
	.byte	0
	.long	371
	.long	.Lxta.endpoint_labels12
.cc_bottom cc_7
.cc_top cc_8,.Lxta.endpoint_labels8
	.ascii	"/Users/rkn/Documents/xTIMEcomposer/workspace/module_usb_audio/clocking/clockgen.xc"
	.byte	0
	.long	400
	.long	.Lxta.endpoint_labels8
.cc_bottom cc_8
.cc_top cc_9,.Lxta.endpoint_labels9
	.ascii	"/Users/rkn/Documents/xTIMEcomposer/workspace/module_usb_audio/clocking/clockgen.xc"
	.byte	0
	.long	402
	.long	.Lxta.endpoint_labels9
.cc_bottom cc_9
.cc_top cc_10,.Lxta.endpoint_labels10
	.ascii	"/Users/rkn/Documents/xTIMEcomposer/workspace/module_usb_audio/clocking/clockgen.xc"
	.byte	0
	.long	403
	.long	.Lxta.endpoint_labels10
.cc_bottom cc_10
.cc_top cc_11,.Lxta.endpoint_labels5
	.ascii	"/Users/rkn/Documents/xTIMEcomposer/workspace/module_usb_audio/clocking/clockgen.xc"
	.byte	0
	.long	407
	.long	.Lxta.endpoint_labels5
.cc_bottom cc_11
.cc_top cc_12,.Lxta.endpoint_labels6
	.ascii	"/Users/rkn/Documents/xTIMEcomposer/workspace/module_usb_audio/clocking/clockgen.xc"
	.byte	0
	.long	409
	.long	.Lxta.endpoint_labels6
.cc_bottom cc_12
.cc_top cc_13,.Lxta.endpoint_labels7
	.ascii	"/Users/rkn/Documents/xTIMEcomposer/workspace/module_usb_audio/clocking/clockgen.xc"
	.byte	0
	.long	410
	.long	.Lxta.endpoint_labels7
.cc_bottom cc_13
.cc_top cc_14,.Lxta.endpoint_labels11
	.ascii	"/Users/rkn/Documents/xTIMEcomposer/workspace/module_usb_audio/clocking/clockgen.xc"
	.byte	0
	.long	414
	.long	.Lxta.endpoint_labels11
.cc_bottom cc_14
.cc_top cc_15,.Lxta.endpoint_labels14
	.ascii	"/Users/rkn/Documents/xTIMEcomposer/workspace/module_usb_audio/clocking/clockgen.xc"
	.byte	0
	.long	440
	.long	.Lxta.endpoint_labels14
.cc_bottom cc_15
.Lentries_end3:
	.section	.xtalabeltable,"",@progbits
.Lentries_start4:
	.long	.Lentries_end5-.Lentries_start4
	.long	0
	.ascii	"/Users/rkn/Documents/xTIMEcomposer/workspace/app_usb_aud_xk_216_mc/.build_2i32o32xxxxx_tdm8"
	.byte	0
.cc_top cc_16,.Lxtalabel0
	.ascii	"/Users/rkn/Documents/xTIMEcomposer/workspace/module_usb_audio/clocking/clockgen.xc"
	.byte	0
	.long	204
	.long	210
	.long	.Lxtalabel0
.cc_bottom cc_16
.cc_top cc_17,.Lxtalabel0
	.ascii	"/Users/rkn/Documents/xTIMEcomposer/workspace/module_usb_audio/clocking/clockgen.xc"
	.byte	0
	.long	213
	.long	213
	.long	.Lxtalabel0
.cc_bottom cc_17
.cc_top cc_18,.Lxtalabel0
	.ascii	"/Users/rkn/Documents/xTIMEcomposer/workspace/module_usb_audio/clocking/clockgen.xc"
	.byte	0
	.long	254
	.long	254
	.long	.Lxtalabel0
.cc_bottom cc_18
.cc_top cc_19,.Lxtalabel0
	.ascii	"/Users/rkn/Documents/xTIMEcomposer/workspace/module_usb_audio/clocking/clockgen.xc"
	.byte	0
	.long	266
	.long	269
	.long	.Lxtalabel0
.cc_bottom cc_19
.cc_top cc_20,.Lxtalabel0
	.ascii	"/Users/rkn/Documents/xTIMEcomposer/workspace/module_usb_audio/clocking/clockgen.xc"
	.byte	0
	.long	295
	.long	298
	.long	.Lxtalabel0
.cc_bottom cc_20
.cc_top cc_21,.Lxtalabel0
	.ascii	"/Users/rkn/Documents/xTIMEcomposer/workspace/module_usb_audio/clocking/clockgen.xc"
	.byte	0
	.long	311
	.long	313
	.long	.Lxtalabel0
.cc_bottom cc_21
.cc_top cc_22,.Lxtalabel0
	.ascii	"/Users/rkn/Documents/xTIMEcomposer/workspace/module_usb_audio/clocking/clockgen.xc"
	.byte	0
	.long	315
	.long	315
	.long	.Lxtalabel0
.cc_bottom cc_22
.cc_top cc_23,.Lxtalabel1
	.ascii	"/Users/rkn/Documents/xTIMEcomposer/workspace/module_usb_audio/clocking/clockgen.xc"
	.byte	0
	.long	358
	.long	360
	.long	.Lxtalabel1
.cc_bottom cc_23
.cc_top cc_24,.Lxtalabel2
	.ascii	"/Users/rkn/Documents/xTIMEcomposer/workspace/module_usb_audio/clocking/clockgen.xc"
	.byte	0
	.long	358
	.long	360
	.long	.Lxtalabel2
.cc_bottom cc_24
.cc_top cc_25,.Lxtalabel3
	.ascii	"/Users/rkn/Documents/xTIMEcomposer/workspace/module_usb_audio/clocking/clockgen.xc"
	.byte	0
	.long	361
	.long	361
	.long	.Lxtalabel3
.cc_bottom cc_25
.cc_top cc_26,.Lxtalabel3
	.ascii	"/Users/rkn/Documents/xTIMEcomposer/workspace/module_usb_audio/clocking/clockgen.xc"
	.byte	0
	.long	364
	.long	364
	.long	.Lxtalabel3
.cc_bottom cc_26
.cc_top cc_27,.Lxtalabel3
	.ascii	"/Users/rkn/Documents/xTIMEcomposer/workspace/module_usb_audio/clocking/clockgen.xc"
	.byte	0
	.long	365
	.long	365
	.long	.Lxtalabel3
.cc_bottom cc_27
.cc_top cc_28,.Lxtalabel3
	.ascii	"/Users/rkn/Documents/xTIMEcomposer/workspace/module_usb_audio/clocking/clockgen.xc"
	.byte	0
	.long	367
	.long	367
	.long	.Lxtalabel3
.cc_bottom cc_28
.cc_top cc_29,.Lxtalabel3
	.ascii	"/Users/rkn/Documents/xTIMEcomposer/workspace/module_usb_audio/clocking/clockgen.xc"
	.byte	0
	.long	369
	.long	369
	.long	.Lxtalabel3
.cc_bottom cc_29
.cc_top cc_30,.Lxtalabel10
	.ascii	"/Users/rkn/Documents/xTIMEcomposer/workspace/module_usb_audio/clocking/clockgen.xc"
	.byte	0
	.long	371
	.long	371
	.long	.Lxtalabel10
.cc_bottom cc_30
.cc_top cc_31,.Lxtalabel8
	.ascii	"/Users/rkn/Documents/xTIMEcomposer/workspace/module_usb_audio/clocking/clockgen.xc"
	.byte	0
	.long	371
	.long	371
	.long	.Lxtalabel8
.cc_bottom cc_31
.cc_top cc_32,.Lxtalabel9
	.ascii	"/Users/rkn/Documents/xTIMEcomposer/workspace/module_usb_audio/clocking/clockgen.xc"
	.byte	0
	.long	371
	.long	371
	.long	.Lxtalabel9
.cc_bottom cc_32
.cc_top cc_33,.Lxtalabel10
	.ascii	"/Users/rkn/Documents/xTIMEcomposer/workspace/module_usb_audio/clocking/clockgen.xc"
	.byte	0
	.long	372
	.long	372
	.long	.Lxtalabel10
.cc_bottom cc_33
.cc_top cc_34,.Lxtalabel8
	.ascii	"/Users/rkn/Documents/xTIMEcomposer/workspace/module_usb_audio/clocking/clockgen.xc"
	.byte	0
	.long	372
	.long	372
	.long	.Lxtalabel8
.cc_bottom cc_34
.cc_top cc_35,.Lxtalabel9
	.ascii	"/Users/rkn/Documents/xTIMEcomposer/workspace/module_usb_audio/clocking/clockgen.xc"
	.byte	0
	.long	372
	.long	372
	.long	.Lxtalabel9
.cc_bottom cc_35
.cc_top cc_36,.Lxtalabel9
	.ascii	"/Users/rkn/Documents/xTIMEcomposer/workspace/module_usb_audio/clocking/clockgen.xc"
	.byte	0
	.long	374
	.long	374
	.long	.Lxtalabel9
.cc_bottom cc_36
.cc_top cc_37,.Lxtalabel8
	.ascii	"/Users/rkn/Documents/xTIMEcomposer/workspace/module_usb_audio/clocking/clockgen.xc"
	.byte	0
	.long	374
	.long	374
	.long	.Lxtalabel8
.cc_bottom cc_37
.cc_top cc_38,.Lxtalabel10
	.ascii	"/Users/rkn/Documents/xTIMEcomposer/workspace/module_usb_audio/clocking/clockgen.xc"
	.byte	0
	.long	374
	.long	374
	.long	.Lxtalabel10
.cc_bottom cc_38
.cc_top cc_39,.Lxtalabel9
	.ascii	"/Users/rkn/Documents/xTIMEcomposer/workspace/module_usb_audio/clocking/clockgen.xc"
	.byte	0
	.long	375
	.long	377
	.long	.Lxtalabel9
.cc_bottom cc_39
.cc_top cc_40,.Lxtalabel10
	.ascii	"/Users/rkn/Documents/xTIMEcomposer/workspace/module_usb_audio/clocking/clockgen.xc"
	.byte	0
	.long	375
	.long	377
	.long	.Lxtalabel10
.cc_bottom cc_40
.cc_top cc_41,.Lxtalabel8
	.ascii	"/Users/rkn/Documents/xTIMEcomposer/workspace/module_usb_audio/clocking/clockgen.xc"
	.byte	0
	.long	375
	.long	377
	.long	.Lxtalabel8
.cc_bottom cc_41
.cc_top cc_42,.Lxtalabel6
	.ascii	"/Users/rkn/Documents/xTIMEcomposer/workspace/module_usb_audio/clocking/clockgen.xc"
	.byte	0
	.long	400
	.long	400
	.long	.Lxtalabel6
.cc_bottom cc_42
.cc_top cc_43,.Lxtalabel6
	.ascii	"/Users/rkn/Documents/xTIMEcomposer/workspace/module_usb_audio/clocking/clockgen.xc"
	.byte	0
	.long	401
	.long	401
	.long	.Lxtalabel6
.cc_bottom cc_43
.cc_top cc_44,.Lxtalabel6
	.ascii	"/Users/rkn/Documents/xTIMEcomposer/workspace/module_usb_audio/clocking/clockgen.xc"
	.byte	0
	.long	402
	.long	402
	.long	.Lxtalabel6
.cc_bottom cc_44
.cc_top cc_45,.Lxtalabel6
	.ascii	"/Users/rkn/Documents/xTIMEcomposer/workspace/module_usb_audio/clocking/clockgen.xc"
	.byte	0
	.long	403
	.long	403
	.long	.Lxtalabel6
.cc_bottom cc_45
.cc_top cc_46,.Lxtalabel6
	.ascii	"/Users/rkn/Documents/xTIMEcomposer/workspace/module_usb_audio/clocking/clockgen.xc"
	.byte	0
	.long	404
	.long	404
	.long	.Lxtalabel6
.cc_bottom cc_46
.cc_top cc_47,.Lxtalabel6
	.ascii	"/Users/rkn/Documents/xTIMEcomposer/workspace/module_usb_audio/clocking/clockgen.xc"
	.byte	0
	.long	406
	.long	406
	.long	.Lxtalabel6
.cc_bottom cc_47
.cc_top cc_48,.Lxtalabel5
	.ascii	"/Users/rkn/Documents/xTIMEcomposer/workspace/module_usb_audio/clocking/clockgen.xc"
	.byte	0
	.long	407
	.long	407
	.long	.Lxtalabel5
.cc_bottom cc_48
.cc_top cc_49,.Lxtalabel5
	.ascii	"/Users/rkn/Documents/xTIMEcomposer/workspace/module_usb_audio/clocking/clockgen.xc"
	.byte	0
	.long	408
	.long	408
	.long	.Lxtalabel5
.cc_bottom cc_49
.cc_top cc_50,.Lxtalabel5
	.ascii	"/Users/rkn/Documents/xTIMEcomposer/workspace/module_usb_audio/clocking/clockgen.xc"
	.byte	0
	.long	409
	.long	409
	.long	.Lxtalabel5
.cc_bottom cc_50
.cc_top cc_51,.Lxtalabel5
	.ascii	"/Users/rkn/Documents/xTIMEcomposer/workspace/module_usb_audio/clocking/clockgen.xc"
	.byte	0
	.long	410
	.long	410
	.long	.Lxtalabel5
.cc_bottom cc_51
.cc_top cc_52,.Lxtalabel5
	.ascii	"/Users/rkn/Documents/xTIMEcomposer/workspace/module_usb_audio/clocking/clockgen.xc"
	.byte	0
	.long	411
	.long	411
	.long	.Lxtalabel5
.cc_bottom cc_52
.cc_top cc_53,.Lxtalabel5
	.ascii	"/Users/rkn/Documents/xTIMEcomposer/workspace/module_usb_audio/clocking/clockgen.xc"
	.byte	0
	.long	413
	.long	413
	.long	.Lxtalabel5
.cc_bottom cc_53
.cc_top cc_54,.Lxtalabel7
	.ascii	"/Users/rkn/Documents/xTIMEcomposer/workspace/module_usb_audio/clocking/clockgen.xc"
	.byte	0
	.long	414
	.long	414
	.long	.Lxtalabel7
.cc_bottom cc_54
.cc_top cc_55,.Lxtalabel7
	.ascii	"/Users/rkn/Documents/xTIMEcomposer/workspace/module_usb_audio/clocking/clockgen.xc"
	.byte	0
	.long	420
	.long	420
	.long	.Lxtalabel7
.cc_bottom cc_55
.cc_top cc_56,.Lxtalabel7
	.ascii	"/Users/rkn/Documents/xTIMEcomposer/workspace/module_usb_audio/clocking/clockgen.xc"
	.byte	0
	.long	421
	.long	421
	.long	.Lxtalabel7
.cc_bottom cc_56
.cc_top cc_57,.Lxtalabel7
	.ascii	"/Users/rkn/Documents/xTIMEcomposer/workspace/module_usb_audio/clocking/clockgen.xc"
	.byte	0
	.long	423
	.long	423
	.long	.Lxtalabel7
.cc_bottom cc_57
.cc_top cc_58,.Lxtalabel4
	.ascii	"/Users/rkn/Documents/xTIMEcomposer/workspace/module_usb_audio/clocking/clockgen.xc"
	.byte	0
	.long	427
	.long	429
	.long	.Lxtalabel4
.cc_bottom cc_58
.cc_top cc_59,.Lxtalabel11
	.ascii	"/Users/rkn/Documents/xTIMEcomposer/workspace/module_usb_audio/clocking/clockgen.xc"
	.byte	0
	.long	438
	.long	440
	.long	.Lxtalabel11
.cc_bottom cc_59
.cc_top cc_60,.Lxtalabel11
	.ascii	"/Users/rkn/Documents/xTIMEcomposer/workspace/module_usb_audio/clocking/clockgen.xc"
	.byte	0
	.long	443
	.long	443
	.long	.Lxtalabel11
.cc_bottom cc_60
.cc_top cc_61,.Lxtalabel11
	.ascii	"/Users/rkn/Documents/xTIMEcomposer/workspace/module_usb_audio/clocking/clockgen.xc"
	.byte	0
	.long	446
	.long	447
	.long	.Lxtalabel11
.cc_bottom cc_61
.cc_top cc_62,.Lxtalabel11
	.ascii	"/Users/rkn/Documents/xTIMEcomposer/workspace/module_usb_audio/clocking/clockgen.xc"
	.byte	0
	.long	472
	.long	472
	.long	.Lxtalabel11
.cc_bottom cc_62
.cc_top cc_63,.Lxtalabel11
	.ascii	"/Users/rkn/Documents/xTIMEcomposer/workspace/module_usb_audio/clocking/clockgen.xc"
	.byte	0
	.long	824
	.long	824
	.long	.Lxtalabel11
.cc_bottom cc_63
.Lentries_end5:
	.section	.trap_info,"",@progbits
.Ltrap_info_entries_start0:
	.long	.Ltrap_info_entries_end0-.Ltrap_info_entries_start0
	.long	1
.Ltrap_info_entries_end0: