	.text
	.file	"endpoint0.c"
	.section	.cp.rodata.cst4,"aMc",@progbits,4
	.cc_top .LCPI0_0.data,.LCPI0_0
	.align	4
	.type	.LCPI0_0,@object
	.size	.LCPI0_0, 4
.LCPI0_0:
	.long	305419896
	.cc_bottom .LCPI0_0.data
	.cc_top .LCPI0_1.data,.LCPI0_1
	.align	4
	.type	.LCPI0_1,@object
	.size	.LCPI0_1, 4
.LCPI0_1:
	.long	50000000
	.cc_bottom .LCPI0_1.data
	.cc_top .LCPI0_2.data,.LCPI0_2
	.align	4
	.type	.LCPI0_2,@object
	.size	.LCPI0_2, 4
.LCPI0_2:
	.long	5000000
	.cc_bottom .LCPI0_2.data
	.text
	.globl	Endpoint0
	.align	4
	.type	Endpoint0,@function
	.cc_top Endpoint0.function,Endpoint0
Endpoint0:
.Lfunc_begin0:
	.loc	6 208 0
	.cfi_startproc
	.issue_mode dual
	{
		nop
		dualentsp 38
	}
.Ltmp0:
	.cfi_def_cfa_offset 152
.Ltmp1:
	.cfi_offset 15, 0
	{
		nop
		stw r4, sp[30]
	}
	{
		nop
		stw r5, sp[31]
	}
.Ltmp2:
	.cfi_offset 4, -32
.Ltmp3:
	.cfi_offset 5, -28
	{
		nop
		stw r6, sp[32]
	}
	{
		nop
		stw r7, sp[33]
	}
.Ltmp4:
	.cfi_offset 6, -24
.Ltmp5:
	.cfi_offset 7, -20
	{
		nop
		stw r8, sp[34]
	}
	{
		nop
		stw r9, sp[35]
	}
.Ltmp6:
	.cfi_offset 8, -16
.Ltmp7:
	.cfi_offset 9, -12
	{
		nop
		stw r10, sp[36]
	}
.Ltmp8:
	.cfi_offset 10, -8
.Ltmp9:
	{
		mov r9, r2
		stw r3, sp[20]
	}
.Ltmp10:
	{
		mov r4, r1
		stw r9, sp[23]
	}
.Ltmp11:
	{
		nop
		ldw r1, sp[40]
	}
	{
		nop
		ldw r2, sp[41]
	}
	{
		nop
		stw r2, sp[19]
	}
	.loc	6 210 22 prologue_end
.Ltmp12:
	bl XUD_InitEp
.Ltmp13:
	{
		mov r6, r0
		nop
	}
.Ltmp14:
	.loc	6 211 22
	{
		mov r0, r4
		stw r6, sp[22]
	}
.Ltmp15:
	bl XUD_InitEp
	{
		mov r10, r0
		nop
	}
.Ltmp16:
	{
		nop
		stw r10, sp[26]
	}
.Ltmp17:
	.loc	6 216 9
	ldaw r0, dp[volsOut]
	{
		ldc r4, 0
		nop
	}
	ldc r7, 132
	{
		mov r1, r4
		mov r2, r7
	}
	bl memset
	.loc	6 217 9
	ldaw r0, dp[mutesOut]
	{
		mov r1, r4
		mov r2, r7
	}
	bl memset
.Ltmp18:
	.loc	6 222 9
	ldaw r0, dp[volsIn]
	{
		mov r1, r4
		mov r2, r7
	}
	bl memset
	.loc	6 223 9
	ldaw r0, dp[mutesIn]
	{
		mov r1, r4
		mov r2, r7
	}
	bl memset
	ldc r0, 144
	ldaw r1, dp[mixer1Weights]
	ldc r2, 32769
.Ltmp19:
.LBB0_1:
	.loc	6 230 9
	st16 r2, r1[r4]
.Ltmp20:
	.loc	6 228 5
	{
		sub r0, r0, 1
		add r1, r1, 2
	}
.xtaloop 144
	# LOOPMARKER 0
	.loc	6 228 5
	bt r0, .LBB0_1
.Ltmp21:
	.loc	6 234 5
	ldaw r0, dp[mixer1Weights]
	st16 r4, r0[r4]
	ldaw r0, dp[mixer1Weights+16]
	{
		add r0, r0, 2
		nop
	}
	.loc	6 235 5
	st16 r4, r0[r4]
	ldaw r0, dp[mixer1Weights+36]
	.loc	6 236 5
	st16 r4, r0[r4]
	ldaw r0, dp[mixer1Weights+52]
	{
		add r0, r0, 2
		nop
	}
	.loc	6 237 5
	st16 r4, r0[r4]
	ldaw r0, dp[mixer1Weights+72]
	.loc	6 238 5
	st16 r4, r0[r4]
	ldaw r0, dp[mixer1Weights+88]
	{
		add r0, r0, 2
		nop
	}
	.loc	6 239 5
	st16 r4, r0[r4]
	ldaw r0, dp[mixer1Weights+108]
	.loc	6 240 5
	st16 r4, r0[r4]
	ldaw r0, dp[mixer1Weights+124]
	{
		add r0, r0, 2
		nop
	}
.Ltmp22:
	.loc	6 241 5
	st16 r4, r0[r4]
	ldaw r0, dp[channelMapAud]
	{
		ldc r5, 32
		mov r1, r4
	}
.Ltmp23:
.LBB0_3:
	.loc	6 247 8
	st8 r1, r0[r1]
.Ltmp24:
	.loc	6 245 42
	{
		add r1, r1, 1
		nop
	}
.Ltmp25:
.xtaloop 32
	# LOOPMARKER 1
	.loc	6 245 5
	{
		eq r2, r1, r5
		nop
	}
	bf r2, .LBB0_3
.Ltmp26:
	ldaw r1, dp[channelMapUsb]
	{
		ldc r0, 0
		nop
	}
.Ltmp27:
.LBB0_5:
	.loc	6 254 8
	ldaw r2, r4[8]
	.loc	6 254 8
	st8 r2, r1[r4]
.Ltmp28:
	.loc	6 252 41
	{
		add r4, r4, 1
		nop
	}
.Ltmp29:
.xtaloop 32
	# LOOPMARKER 2
	.loc	6 252 5
	{
		eq r2, r4, r5
		nop
	}
	bf r2, .LBB0_5
.Ltmp30:
	ldaw r1, dp[channelMap]
	ldc r2, 64
.Ltmp31:
.LBB0_7:
	.loc	6 261 9
	st8 r0, r1[r0]
.Ltmp32:
	.loc	6 259 61
	{
		add r0, r0, 1
		nop
	}
.Ltmp33:
.xtaloop 64
	# LOOPMARKER 3
	.loc	6 259 5
	{
		eq r3, r0, r2
		nop
	}
	bf r3, .LBB0_7
.Ltmp34:
	{
		ldc r7, 0
		nop
	}
	.loc	6 286 9
.Ltmp35:
	{
		mov r0, r7
		nop
	}
	bl DFUReportResetState
	bf r0, .LBB0_10
.Ltmp36:
	{
		ldc r0, 4
		nop
	}
	.loc	6 289 9
.Ltmp37:
	#APP
	out res[r9], r0
	#NO_APP
	ldw r0, cp[.LCPI0_0]
	.loc	6 290 9
	#APP
	out res[r9], r0
	#NO_APP
	{
		mkmsk r0, 1
		nop
	}
	.loc	6 292 9
	stw r0, dp[DFU_mode_active]
.Ltmp38:
.LBB0_10:
	{
		ldaw r8, sp[27]
		ldc r0, 2
	}
	.loc	6 306 13
.Ltmp39:
	{
		or r0, r8, r0
		nop
	}
	{
		nop
		stw r0, sp[24]
	}
	ldaw r0, dp[cfgDesc_Audio2+480]
	{
		add r0, r0, 2
		nop
	}
	{
		mkmsk r4, 32
		stw r0, sp[21]
	}
	bu .LBB0_11
.Ltmp40:
.LBB0_87:
	{
		nop
		ldw r10, sp[26]
	}
.Ltmp41:
.LBB0_11:
	.loc	6 299 31
	{
		mov r0, r6
		mov r1, r10
	}
	{
		mov r2, r8
		nop
	}
	bl USB_GetSetupPacket
	{
		mov r10, r0
		nop
	}
.Ltmp42:
	bt r10, .LBB0_30
.Ltmp43:
	{
		nop
		ldw r0, sp[24]
	}
	{
		nop
		ld8u r0, r0[r7]
	}
	.loc	6 306 13
.Ltmp44:
	{
		shl r0, r0, 7
		ldw r2, sp[27]
	}
	.loc	6 306 13
	{
		mov r1, r2
		nop
	}
	{
		zext r1, 8
		nop
	}
	.loc	6 306 13
	{
		or r0, r0, r1
		shr r1, r2, 3
	}
	ldc r3, 8160
	.loc	6 306 13
	{
		and r1, r1, r3
		nop
	}
	.loc	6 306 13
	{
		or r1, r0, r1
		shr r0, r2, 24
	}
	ldc r2, 160
	.loc	6 306 13
	{
		lss r2, r2, r1
		nop
	}
	bt r2, .LBB0_31
.Ltmp45:
	ldc r2, 128
	{
		lss r2, r2, r1
		nop
	}
	bt r2, .LBB0_62
.Ltmp46:
	bf r1, .LBB0_70
.Ltmp47:
	{
		eq r2, r1, 1
		nop
	}
	bf r2, .LBB0_16
.Ltmp48:
	.loc	6 311 24
	{
		eq r0, r0, 11
		nop
	}
	bf r0, .LBB0_72
.Ltmp49:
	.loc	6 313 25
	{
		add r0, r8, 6
		nop
	}
	{
		nop
		ld16s r0, r0[r7]
	}
	.loc	6 313 25
	{
		zext r0, 16
		nop
	}
	.loc	6 313 25
	{
		eq r1, r0, 2
		nop
	}
	bf r1, .LBB0_34
.Ltmp50:
	{
		nop
		ldw r1, sp[28]
	}
	ldw r2, dp[g_curStreamAlt_In]
	{
		shr r0, r1, 16
		zext r1, 16
	}
	.loc	6 354 36
.Ltmp51:
	{
		eq r3, r1, 1
		nop
	}
	bf r3, .LBB0_47
.Ltmp52:
	{
		eq r2, r2, r1
		nop
	}
	bt r2, .LBB0_47
.Ltmp53:
	.loc	6 360 41
	stw r1, dp[g_curStreamAlt_In]
	{
		ldc r2, 9
		nop
	}
	.loc	6 363 41
	#APP
	out res[r9], r2
	#NO_APP
	.loc	6 364 41
	{
		sub r1, r1, 1
		nop
	}
	.loc	6 364 41
	ldaw r11, cp[g_dataFormat_In]
	{
		nop
		ldw r2, r11[r1]
	}
	.loc	6 364 41
	#APP
	out res[r9], r2
	#NO_APP
	.loc	6 366 44
.Ltmp54:
	ldw r2, dp[g_curUsbSpeed]
	.loc	6 366 44
	{
		eq r2, r2, 2
		nop
	}
	bf r2, .LBB0_45
.Ltmp55:
	.loc	6 368 45
	ldaw r11, cp[g_chanCount_In_HS]
	{
		nop
		ldw r2, r11[r1]
	}
	.loc	6 368 45
	#APP
	out res[r9], r2
	#NO_APP
	.loc	6 369 45
	ldaw r11, cp[g_subSlot_In_HS]
	{
		nop
		ldw r1, r11[r1]
	}
	.loc	6 369 45
	#APP
	out res[r9], r1
	#NO_APP
	{
		ldc r1, 24
		nop
	}
	.loc	6 370 45
	#APP
	out res[r9], r1
	#NO_APP
	bu .LBB0_46
.Ltmp56:
.LBB0_31:
	ldc r2, 161
.Ltmp57:
.LBB0_17:
	{
		eq r1, r1, r2
		nop
	}
	bf r1, .LBB0_72
.Ltmp58:
	{
		mov r5, r9
		add r1, r8, 6
	}
.Ltmp59:
	{
		nop
		ld16s r9, r1[r7]
	}
	.loc	6 546 25
.Ltmp60:
	{
		mov r4, r9
		nop
	}
	{
		zext r4, 8
		nop
	}
.Ltmp61:
	.loc	6 554 29
	ldw r1, dp[DFU_mode_active]
	.loc	6 554 29
	{
		mov r2, r7
		nop
	}
	bt r1, .LBB0_20
.Ltmp62:
	{
		mkmsk r2, 2
		nop
	}
.Ltmp63:
.LBB0_20:
	.loc	6 546 25
	{
		zext r9, 16
		eq r2, r4, r2
	}
.Ltmp64:
	{
		mkmsk r10, 1
		nop
	}
	bf r2, .LBB0_26
.Ltmp65:
	.loc	6 561 29
	{
		add r0, r0, 11
		stw r7, sp[25]
	}
	bt r1, .LBB0_24
.Ltmp66:
	{
		zext r0, 8
		ldc r1, 2
	}
	{
		lsu r0, r0, r1
		nop
	}
	bt r0, .LBB0_24
.Ltmp67:
	{
		ldc r0, 4
		nop
	}
	.loc	6 569 33
.Ltmp68:
	#APP
	out res[r5], r0
	#NO_APP
	ldw r0, cp[.LCPI0_0]
	.loc	6 570 33
	#APP
	out res[r5], r0
	#NO_APP
	{
		mkmsk r0, 1
		nop
	}
	.loc	6 572 12
	#APP
	chkct res[r5], r0
	#NO_APP
.Ltmp69:
.LBB0_24:
	ldaw r0, dp[g_interfaceAlt]
	{
		nop
		ld8u r0, r0[r9]
	}
.Ltmp70:
	.loc	6 576 38
	{
		ldaw r2, sp[25]
		ldw r1, sp[19]
	}
	std r2, r1, sp[1]
.Ltmp71:
	{
		mov r0, r6
		stw r0, sp[1]
	}
	{
		ldaw r1, sp[26]
		mov r2, r8
	}
	{
		mov r3, r7
		nop
	}
	bl DFUDeviceRequests
.Ltmp72:
	{
		mov r10, r0
		ldw r0, sp[25]
	}
.Ltmp73:
	bf r0, .LBB0_26
.Ltmp74:
	ldw r0, cp[.LCPI0_1]
	.loc	6 580 33
.Ltmp75:
	bl DFUDelay
	.loc	6 581 33
	{
		mov r0, r5
		nop
	}
	bl device_reboot
.Ltmp76:
.LBB0_26:
	ldc r0, 254
	.loc	6 589 28
.Ltmp77:
	{
		and r0, r9, r0
		nop
	}
	.loc	6 589 28
	{
		eq r0, r0, 0
		nop
	}
	{
		eq r0, r0, 0
		eq r1, r4, 2
	}
	.loc	6 589 28
	{
		eq r1, r1, 0
		nop
	}
	.loc	6 589 28
	{
		and r1, r1, r0
		nop
	}
	ldw r0, dp[DFU_mode_active]
.Ltmp78:
	{
		mov r9, r5
		ldc r5, 32
	}
.Ltmp79:
	{
		mkmsk r4, 32
		nop
	}
.Ltmp80:
	bt r1, .LBB0_30
.Ltmp81:
	bt r0, .LBB0_30
.Ltmp82:
	{
		nop
		ldw r1, sp[26]
	}
	{
		nop
		ldw r0, sp[39]
	}
	{
		nop
		stw r0, sp[2]
	}
	{
		nop
		ldw r0, sp[20]
	}
	.loc	6 605 38
.Ltmp83:
	{
		mov r0, r6
		stw r0, sp[1]
	}
	{
		mov r2, r8
		mov r3, r9
	}
	bl AudioClassRequests_2
	bu .LBB0_29
.Ltmp84:
.LBB0_62:
	ldc r2, 129
	{
		eq r1, r1, r2
		nop
	}
	bf r1, .LBB0_72
.Ltmp85:
	{
		add r1, r8, 6
		nop
	}
	{
		eq r0, r0, 6
		ld16s r1, r1[r7]
	}
	bf r0, .LBB0_72
.Ltmp86:
	{
		zext r1, 16
		nop
	}
	{
		eq r0, r1, 4
		nop
	}
	bf r0, .LBB0_72
.Ltmp87:
	.loc	6 473 33
	{
		ldaw r0, sp[28]
		nop
	}
	{
		nop
		ld16s r0, r0[r7]
	}
	ldc r1, 65280
	.loc	6 473 33
	{
		and r0, r0, r1
		nop
	}
.Ltmp88:
	ldc r1, 8704
	.loc	6 475 33
	{
		eq r1, r0, r1
		nop
	}
	bf r1, .LBB0_66
.Ltmp89:
	.loc	6 484 50
	{
		ldaw r0, sp[29]
		ldw r1, sp[26]
	}
	{
		nop
		ld16s r0, r0[r7]
	}
	.loc	6 484 50
	{
		zext r0, 16
		nop
	}
	.loc	6 484 50
	{
		mov r0, r6
		stw r0, sp[1]
	}
	ldaw r2, dp[hidReportDescriptor]
	{
		ldc r3, 33
		nop
	}
	.loc	6 479 51
	bl XUD_DoGetRequest
	bu .LBB0_29
.Ltmp90:
.LBB0_70:
	.loc	6 500 21
	{
		eq r0, r0, 9
		nop
	}
	bf r0, .LBB0_72
.Ltmp91:
	{
		mkmsk r0, 1
		nop
	}
	.loc	6 509 33
.Ltmp92:
	bl UserHostActive
	bu .LBB0_72
.Ltmp93:
.LBB0_16:
	{
		ldc r2, 33
		nop
	}
	bu .LBB0_17
.Ltmp94:
.LBB0_66:
	ldc r1, 8448
	{
		eq r0, r0, r1
		nop
	}
	bf r0, .LBB0_72
.Ltmp95:
	.loc	6 479 51
	{
		ldaw r0, sp[29]
		ldw r1, sp[26]
	}
	{
		nop
		ld16s r0, r0[r7]
	}
	.loc	6 479 51
	{
		zext r0, 16
		nop
	}
	.loc	6 479 51
	{
		mov r0, r6
		stw r0, sp[1]
	}
	ldaw r2, dp[hidDescriptor]
	{
		ldc r3, 9
		nop
	}
	bl XUD_DoGetRequest
.Ltmp96:
.LBB0_29:
	.loc	6 605 38
	{
		mov r10, r0
		nop
	}
.Ltmp97:
.LBB0_30:
	.loc	6 631 12
	{
		eq r0, r10, 1
		nop
	}
	bt r0, .LBB0_72
	bu .LBB0_83
.Ltmp98:
.LBB0_34:
	{
		eq r1, r0, 1
		nop
	}
	bf r1, .LBB0_47
.Ltmp99:
	{
		nop
		ldw r0, sp[28]
	}
	.loc	6 319 36
.Ltmp100:
	{
		mov r1, r0
		nop
	}
	{
		zext r1, 16
		sub r2, r0, 1
	}
	.loc	6 319 36
	{
		zext r2, 16
		mkmsk r3, 1
	}
	.loc	6 319 36
	{
		lsu r3, r3, r2
		nop
	}
	ldw r2, dp[g_curStreamAlt_Out]
	{
		shr r0, r0, 16
		nop
	}
	bt r3, .LBB0_47
.Ltmp101:
	{
		eq r2, r2, r1
		nop
	}
	bt r2, .LBB0_47
.Ltmp102:
	.loc	6 325 41
	stw r1, dp[g_curStreamAlt_Out]
	{
		ldc r2, 8
		nop
	}
	.loc	6 328 41
	#APP
	out res[r9], r2
	#NO_APP
	.loc	6 329 41
	{
		sub r1, r1, 1
		nop
	}
	.loc	6 329 41
	ldaw r11, cp[g_dataFormat_Out]
	{
		nop
		ldw r2, r11[r1]
	}
	.loc	6 329 41
	#APP
	out res[r9], r2
	#NO_APP
	.loc	6 331 44
.Ltmp103:
	ldw r2, dp[g_curUsbSpeed]
	.loc	6 331 44
	{
		eq r2, r2, 2
		nop
	}
	bf r2, .LBB0_39
.Ltmp104:
	.loc	6 333 45
	#APP
	out res[r9], r5
	#NO_APP
	.loc	6 334 45
	ldaw r11, cp[g_subSlot_Out_HS]
	{
		nop
		ldw r2, r11[r1]
	}
	.loc	6 334 45
	#APP
	out res[r9], r2
	#NO_APP
	.loc	6 335 45
	ldaw r11, cp[g_sampRes_Out_HS]
	{
		nop
		ldw r1, r11[r1]
	}
	.loc	6 335 45
	#APP
	out res[r9], r1
	#NO_APP
	bu .LBB0_40
.Ltmp105:
.LBB0_45:
	{
		ldc r2, 2
		nop
	}
	.loc	6 374 45
.Ltmp106:
	#APP
	out res[r9], r2
	#NO_APP
	.loc	6 375 45
	ldaw r11, cp[g_subSlot_In_FS]
	{
		nop
		ldw r1, r11[r1]
	}
	.loc	6 375 45
	#APP
	out res[r9], r1
	#NO_APP
	{
		ldc r1, 24
		nop
	}
	.loc	6 376 45
	#APP
	out res[r9], r1
	#NO_APP
.Ltmp107:
.LBB0_46:
	{
		mkmsk r1, 1
		nop
	}
	.loc	6 380 41
	#APP
	chkct res[r9], r1
	#NO_APP
	bu .LBB0_47
.Ltmp108:
.LBB0_39:
	{
		ldc r2, 2
		nop
	}
	.loc	6 339 45
.Ltmp109:
	#APP
	out res[r9], r2
	#NO_APP
	.loc	6 340 45
	ldaw r11, cp[g_subSlot_Out_FS]
	{
		nop
		ldw r2, r11[r1]
	}
	.loc	6 340 45
	#APP
	out res[r9], r2
	#NO_APP
	.loc	6 341 45
	ldaw r11, cp[g_sampRes_Out_FS]
	{
		nop
		ldw r1, r11[r1]
	}
	.loc	6 341 45
	#APP
	out res[r9], r1
	#NO_APP
.Ltmp110:
.LBB0_40:
	{
		mkmsk r1, 1
		nop
	}
	.loc	6 345 41
	#APP
	chkct res[r9], r1
	#NO_APP
.Ltmp111:
.LBB0_47:
	.loc	6 410 29
	{
		sub r0, r0, 1
		nop
	}
	{
		zext r0, 16
		mkmsk r1, 1
	}
	.loc	6 410 29
	{
		lsu r0, r1, r0
		nop
	}
	bt r0, .LBB0_72
.Ltmp112:
	{
		nop
		ldw r0, sp[28]
	}
	{
		shr r1, r0, 16
		zext r0, 16
	}
	.loc	6 413 32
.Ltmp113:
	bf r0, .LBB0_52
.Ltmp114:
	{
		mkmsk r0, 1
		nop
	}
	ldaw r1, dp[g_interfaceAlt]
	{
		nop
		ld8u r0, r1[r0]
	}
	bt r0, .LBB0_72
.Ltmp115:
	{
		ldc r0, 2
		nop
	}
	ldaw r1, dp[g_interfaceAlt]
	{
		nop
		ld8u r0, r1[r0]
	}
	bt r0, .LBB0_72
.Ltmp116:
	.loc	6 416 33
	bl UserAudioStreamStart
	bu .LBB0_72
.Ltmp117:
.LBB0_52:
	.loc	6 418 37
	{
		eq r2, r1, 1
		nop
	}
	bf r2, .LBB0_57
.Ltmp118:
	bt r0, .LBB0_57
.Ltmp119:
	{
		mkmsk r2, 1
		nop
	}
	ldaw r3, dp[g_interfaceAlt]
	{
		nop
		ld8u r2, r3[r2]
	}
	bf r2, .LBB0_57
.Ltmp120:
	{
		ldc r2, 2
		nop
	}
	ldaw r3, dp[g_interfaceAlt]
	{
		nop
		ld8u r2, r3[r2]
	}
	bf r2, .LBB0_56
.Ltmp121:
.LBB0_57:
	.loc	6 423 37
	{
		eq r1, r1, 2
		nop
	}
	bf r1, .LBB0_72
.Ltmp122:
	bt r0, .LBB0_72
.Ltmp123:
	{
		ldc r0, 2
		nop
	}
	ldaw r1, dp[g_interfaceAlt]
	{
		nop
		ld8u r0, r1[r0]
	}
	bf r0, .LBB0_72
.Ltmp124:
	{
		mkmsk r0, 1
		nop
	}
	ldaw r1, dp[g_interfaceAlt]
	{
		nop
		ld8u r0, r1[r0]
	}
	bt r0, .LBB0_72
.Ltmp125:
	.loc	6 426 33
	bl UserAudioStreamStop
	bu .LBB0_72
.Ltmp126:
.LBB0_56:
	.loc	6 421 33
	bl UserAudioStreamStop
.Ltmp127:
.LBB0_72:
	.loc	6 634 17
	ldw r0, dp[DFU_mode_active]
	.loc	6 634 17
	bf r0, .LBB0_73
.Ltmp128:
	{
		nop
		ldw r1, sp[26]
	}
	.loc	6 749 26
.Ltmp129:
	ldw r0, dp[g_curUsbSpeed]
	ldc r2, 76
	.loc	6 749 26
	std r8, r2, sp[4]
.Ltmp130:
	.loc	6 717 26
	ldaw r2, dp[g_strTable]
.Ltmp131:
	.loc	6 749 26
	std r2, r7, sp[3]
	{
		ldc r2, 27
		nop
	}
	std r7, r2, sp[1]
	{
		nop
		stw r0, sp[10]
	}
	std r7, r7, sp[2]
	ldaw r0, dp[DFUcfgDesc]
	{
		mov r0, r6
		stw r0, sp[1]
	}
	ldaw r2, dp[DFUdevDesc]
	{
		ldc r3, 18
		nop
	}
	bl USB_StandardRequests
	{
		mov r10, r0
		nop
	}
.Ltmp132:
	bu .LBB0_83
.Ltmp133:
.LBB0_73:
	.loc	6 650 20
	ldw r0, dp[g_curUsbSpeed]
	.loc	6 650 20
	{
		eq r11, r0, 2
		mov r1, r5
	}
	bt r11, .LBB0_75
.Ltmp134:
	{
		ldc r1, 2
		nop
	}
.Ltmp135:
.LBB0_75:
	{
		ldc r2, 4
		nop
	}
	bt r11, .LBB0_77
.Ltmp136:
	{
		mkmsk r2, 2
		nop
	}
.Ltmp137:
.LBB0_77:
	ldc r3, 896
	bt r11, .LBB0_79
.Ltmp138:
	ldc r3, 294
.Ltmp139:
.LBB0_79:
	ldc r4, 448
	bt r11, .LBB0_81
.Ltmp140:
	ldc r4, 196
.Ltmp141:
.LBB0_81:
	{
		mkmsk r11, 2
		nop
	}
	{
		mov r6, r11
		nop
	}
	ldaw r11, dp[cfgDesc_Audio2+56]
	.loc	6 654 21
.Ltmp142:
	st8 r1, r11[r6]
	ldaw r11, dp[cfgDesc_Audio2+420]
.Ltmp143:
	.loc	6 689 21
	st8 r2, r11[r6]
	{
		ldc r11, 24
		nop
	}
	{
		mov r9, r11
		nop
	}
	ldaw r11, dp[cfgDesc_Audio2+424]
.Ltmp144:
	.loc	6 657 21
	st8 r9, r11[r7]
.Ltmp145:
	.loc	6 691 21
	{
		shr r11, r3, 8
		ldc r10, 2
	}
	ldaw r5, dp[cfgDesc_Audio2+428]
	st8 r11, r5[r10]
	{
		mkmsk r11, 1
		nop
	}
	st8 r3, r5[r11]
	ldaw r5, dp[cfgDesc_Audio2+412]
.Ltmp146:
	.loc	6 659 21
	st8 r1, r5[r11]
	ldaw r5, dp[cfgDesc_Audio2+476]
.Ltmp147:
	.loc	6 695 21
	st8 r10, r5[r7]
	{
		ldc r8, 16
		nop
	}
.Ltmp148:
	.loc	6 663 21
	st8 r8, r5[r11]
	{
		nop
		ldw r11, sp[21]
	}
.Ltmp149:
	.loc	6 697 21
	st16 r4, r11[r7]
	ldaw r11, dp[cfgDesc_Audio2+464]
.Ltmp150:
	.loc	6 665 21
	st8 r1, r11[r10]
	ldaw r11, dp[cfgDesc_Audio2+224]
.Ltmp151:
	.loc	6 709 21
	st8 r1, r11[r10]
	ldaw r11, dp[cfgDesc_Audio2+536]
.Ltmp152:
	.loc	6 677 21
	st8 r2, r11[r10]
.Ltmp153:
	.loc	6 711 21
	st8 r9, r11[r6]
	ldaw r2, dp[cfgDesc_Audio2+544]
.Ltmp154:
	.loc	6 679 21
	st16 r3, r2[r7]
	ldaw r2, dp[cfgDesc_Audio2+528]
.Ltmp155:
	.loc	6 713 21
	st8 r1, r2[r7]
	{
		nop
		ldw r1, sp[26]
	}
	ldc r2, 76
	{
		ldaw r8, sp[27]
		nop
	}
.Ltmp156:
	.loc	6 717 26
	std r8, r2, sp[4]
	ldaw r2, dp[g_strTable]
	std r2, r7, sp[3]
	ldc r2, 598
	std r7, r2, sp[1]
	{
		nop
		stw r0, sp[10]
	}
	std r7, r7, sp[2]
	.loc	6 654 21
.Ltmp157:
	ldaw r0, dp[cfgDesc_Audio2]
	{
		nop
		stw r0, sp[1]
	}
	{
		nop
		ldw r6, sp[22]
	}
.Ltmp158:
	.loc	6 717 26
	{
		mov r0, r6
		nop
	}
	ldaw r2, dp[devDesc_Audio2]
	{
		ldc r3, 18
		nop
	}
	bl USB_StandardRequests
.Ltmp159:
	{
		mov r10, r0
		ldw r9, sp[23]
	}
.Ltmp160:
	{
		ldc r5, 32
		mkmsk r4, 32
	}
.Ltmp161:
.LBB0_83:
	.loc	6 759 13
	{
		eq r0, r10, r4
		nop
	}
	bf r0, .LBB0_87
.Ltmp162:
	.loc	6 764 29
	{
		mov r0, r6
		ldaw r1, sp[26]
	}
	bl XUD_ResetEndpoint
	.loc	6 764 29
	stw r0, dp[g_curUsbSpeed]
	.loc	6 766 13
	ldaw r0, dp[g_currentConfig]
	st8 r7, r0[r7]
	.loc	6 767 13
	stw r7, dp[g_curStreamAlt_Out]
	.loc	6 768 13
	stw r7, dp[g_curStreamAlt_In]
	.loc	6 771 17
.Ltmp163:
	{
		mov r0, r7
		nop
	}
	bl DFUReportResetState
	.loc	6 773 21
.Ltmp164:
	ldw r1, dp[DFU_mode_active]
.Ltmp165:
	.loc	6 771 17
	bf r0, .LBB0_88
.Ltmp166:
	bt r1, .LBB0_87
.Ltmp167:
	{
		mkmsk r0, 1
		nop
	}
	.loc	6 775 21
.Ltmp168:
	stw r0, dp[DFU_mode_active]
	bu .LBB0_87
.Ltmp169:
.LBB0_88:
	bf r1, .LBB0_87
.Ltmp170:
	.loc	6 782 21
	stw r7, dp[DFU_mode_active]
	ldw r0, cp[.LCPI0_2]
	.loc	6 785 21
	bl DFUDelay
	.loc	6 786 21
	{
		mov r0, r9
		nop
	}
	bl device_reboot
	{
		nop
		ldw r10, sp[26]
	}
	bu .LBB0_11
.Ltmp171:
	.cc_bottom Endpoint0.function
	.set	Endpoint0.nstackwords,((XUD_InitEp.nstackwords $M memset.nstackwords $M USB_GetSetupPacket.nstackwords $M UserHostActive.nstackwords $M XUD_ResetEndpoint.nstackwords $M DFUReportResetState.nstackwords $M USB_StandardRequests.nstackwords $M UserAudioStreamStop.nstackwords $M UserAudioStreamStart.nstackwords $M DFUDeviceRequests.nstackwords $M AudioClassRequests_2.nstackwords $M DFUDelay.nstackwords $M device_reboot.nstackwords $M XUD_DoGetRequest.nstackwords) + 38)
	.globl	Endpoint0.nstackwords
	.set	Endpoint0.maxcores,AudioClassRequests_2.maxcores $M DFUDelay.maxcores $M DFUDeviceRequests.maxcores $M DFUReportResetState.maxcores $M USB_GetSetupPacket.maxcores $M USB_StandardRequests.maxcores $M UserAudioStreamStart.maxcores $M UserAudioStreamStop.maxcores $M UserHostActive.maxcores $M XUD_DoGetRequest.maxcores $M XUD_InitEp.maxcores $M XUD_ResetEndpoint.maxcores $M device_reboot.maxcores $M 1
	.globl	Endpoint0.maxcores
	.set	Endpoint0.maxtimers,AudioClassRequests_2.maxtimers $M DFUDelay.maxtimers $M DFUDeviceRequests.maxtimers $M DFUReportResetState.maxtimers $M USB_GetSetupPacket.maxtimers $M USB_StandardRequests.maxtimers $M UserAudioStreamStart.maxtimers $M UserAudioStreamStop.maxtimers $M UserHostActive.maxtimers $M XUD_DoGetRequest.maxtimers $M XUD_InitEp.maxtimers $M XUD_ResetEndpoint.maxtimers $M device_reboot.maxtimers $M 0
	.globl	Endpoint0.maxtimers
	.set	Endpoint0.maxchanends,AudioClassRequests_2.maxchanends $M DFUDelay.maxchanends $M DFUDeviceRequests.maxchanends $M DFUReportResetState.maxchanends $M USB_GetSetupPacket.maxchanends $M USB_StandardRequests.maxchanends $M UserAudioStreamStart.maxchanends $M UserAudioStreamStop.maxchanends $M UserHostActive.maxchanends $M XUD_DoGetRequest.maxchanends $M XUD_InitEp.maxchanends $M XUD_ResetEndpoint.maxchanends $M device_reboot.maxchanends $M 0
	.globl	Endpoint0.maxchanends
.Ltmp172:
	.size	Endpoint0, .Ltmp172-Endpoint0
.Lfunc_end0:
	.cfi_endproc

	.section	.cp.rodata.string,"aMSc",@progbits
	.cc_top .L.str.data,.L.str
	.align	4
	.type	.L.str,@object
	.size	.L.str, 3
.L.str:
.asciiz"\t\004"
	.space	1
	.cc_bottom .L.str.data
	.cc_top .L.str1.data,.L.str1
	.align	4
	.type	.L.str1,@object
	.size	.L.str1, 5
.L.str1:
.asciiz"XMOS"
	.cc_bottom .L.str1.data
	.cc_top .L.str2.data,.L.str2
	.align	4
	.type	.L.str2,@object
	.size	.L.str2, 1
.L.str2:
	.space	1
	.space	3
	.cc_bottom .L.str2.data
	.cc_top .L.str3.data,.L.str3
	.align	4
	.type	.L.str3,@object
	.size	.L.str3, 14
.L.str3:
.asciiz"infinitas DSP"
	.cc_bottom .L.str3.data
	.cc_top .L.str4.data,.L.str4
	.align	4
	.type	.L.str4,@object
	.size	.L.str4, 15
.L.str4:
.asciiz"infinitas DSP "
	.cc_bottom .L.str4.data
	.cc_top .L.str5.data,.L.str5
	.align	4
	.type	.L.str5,@object
	.size	.L.str5, 20
.L.str5:
.asciiz"XMOS Clock Selector"
	.cc_bottom .L.str5.data
	.cc_top .L.str6.data,.L.str6
	.align	4
	.type	.L.str6,@object
	.size	.L.str6, 20
.L.str6:
.asciiz"XMOS Internal Clock"
	.cc_bottom .L.str6.data
	.cc_top .L.str7.data,.L.str7
	.align	4
	.type	.L.str7,@object
	.size	.L.str7, 9
.L.str7:
.asciiz"XMOS DFU"
	.cc_bottom .L.str7.data
	.cc_top .L.str8.data,.L.str8
	.align	4
	.type	.L.str8,@object
	.size	.L.str8, 11
.L.str8:
.asciiz"Analogue 1"
	.cc_bottom .L.str8.data
	.cc_top .L.str9.data,.L.str9
	.align	4
	.type	.L.str9,@object
	.size	.L.str9, 11
.L.str9:
.asciiz"Analogue 2"
	.cc_bottom .L.str9.data
	.cc_top .L.str10.data,.L.str10
	.align	4
	.type	.L.str10,@object
	.size	.L.str10, 11
.L.str10:
.asciiz"Analogue 3"
	.cc_bottom .L.str10.data
	.cc_top .L.str11.data,.L.str11
	.align	4
	.type	.L.str11,@object
	.size	.L.str11, 11
.L.str11:
.asciiz"Analogue 4"
	.cc_bottom .L.str11.data
	.cc_top .L.str12.data,.L.str12
	.align	4
	.type	.L.str12,@object
	.size	.L.str12, 11
.L.str12:
.asciiz"Analogue 5"
	.cc_bottom .L.str12.data
	.cc_top .L.str13.data,.L.str13
	.align	4
	.type	.L.str13,@object
	.size	.L.str13, 11
.L.str13:
.asciiz"Analogue 6"
	.cc_bottom .L.str13.data
	.cc_top .L.str14.data,.L.str14
	.align	4
	.type	.L.str14,@object
	.size	.L.str14, 11
.L.str14:
.asciiz"Analogue 7"
	.cc_bottom .L.str14.data
	.cc_top .L.str15.data,.L.str15
	.align	4
	.type	.L.str15,@object
	.size	.L.str15, 11
.L.str15:
.asciiz"Analogue 8"
	.cc_bottom .L.str15.data
	.cc_top .L.str16.data,.L.str16
	.align	4
	.type	.L.str16,@object
	.size	.L.str16, 11
.L.str16:
.asciiz"Analogue 9"
	.cc_bottom .L.str16.data
	.cc_top .L.str17.data,.L.str17
	.align	4
	.type	.L.str17,@object
	.size	.L.str17, 12
.L.str17:
.asciiz"Analogue 10"
	.cc_bottom .L.str17.data
	.cc_top .L.str18.data,.L.str18
	.align	4
	.type	.L.str18,@object
	.size	.L.str18, 12
.L.str18:
.asciiz"Analogue 11"
	.cc_bottom .L.str18.data
	.cc_top .L.str19.data,.L.str19
	.align	4
	.type	.L.str19,@object
	.size	.L.str19, 12
.L.str19:
.asciiz"Analogue 12"
	.cc_bottom .L.str19.data
	.cc_top .L.str20.data,.L.str20
	.align	4
	.type	.L.str20,@object
	.size	.L.str20, 12
.L.str20:
.asciiz"Analogue 13"
	.cc_bottom .L.str20.data
	.cc_top .L.str21.data,.L.str21
	.align	4
	.type	.L.str21,@object
	.size	.L.str21, 12
.L.str21:
.asciiz"Analogue 14"
	.cc_bottom .L.str21.data
	.cc_top .L.str22.data,.L.str22
	.align	4
	.type	.L.str22,@object
	.size	.L.str22, 12
.L.str22:
.asciiz"Analogue 15"
	.cc_bottom .L.str22.data
	.cc_top .L.str23.data,.L.str23
	.align	4
	.type	.L.str23,@object
	.size	.L.str23, 12
.L.str23:
.asciiz"Analogue 16"
	.cc_bottom .L.str23.data
	.cc_top .L.str24.data,.L.str24
	.align	4
	.type	.L.str24,@object
	.size	.L.str24, 12
.L.str24:
.asciiz"Analogue 17"
	.cc_bottom .L.str24.data
	.cc_top .L.str25.data,.L.str25
	.align	4
	.type	.L.str25,@object
	.size	.L.str25, 12
.L.str25:
.asciiz"Analogue 18"
	.cc_bottom .L.str25.data
	.cc_top .L.str26.data,.L.str26
	.align	4
	.type	.L.str26,@object
	.size	.L.str26, 12
.L.str26:
.asciiz"Analogue 19"
	.cc_bottom .L.str26.data
	.cc_top .L.str27.data,.L.str27
	.align	4
	.type	.L.str27,@object
	.size	.L.str27, 12
.L.str27:
.asciiz"Analogue 20"
	.cc_bottom .L.str27.data
	.cc_top .L.str28.data,.L.str28
	.align	4
	.type	.L.str28,@object
	.size	.L.str28, 12
.L.str28:
.asciiz"Analogue 21"
	.cc_bottom .L.str28.data
	.cc_top .L.str29.data,.L.str29
	.align	4
	.type	.L.str29,@object
	.size	.L.str29, 12
.L.str29:
.asciiz"Analogue 22"
	.cc_bottom .L.str29.data
	.cc_top .L.str30.data,.L.str30
	.align	4
	.type	.L.str30,@object
	.size	.L.str30, 12
.L.str30:
.asciiz"Analogue 23"
	.cc_bottom .L.str30.data
	.cc_top .L.str31.data,.L.str31
	.align	4
	.type	.L.str31,@object
	.size	.L.str31, 12
.L.str31:
.asciiz"Analogue 24"
	.cc_bottom .L.str31.data
	.cc_top .L.str32.data,.L.str32
	.align	4
	.type	.L.str32,@object
	.size	.L.str32, 12
.L.str32:
.asciiz"Analogue 25"
	.cc_bottom .L.str32.data
	.cc_top .L.str33.data,.L.str33
	.align	4
	.type	.L.str33,@object
	.size	.L.str33, 12
.L.str33:
.asciiz"Analogue 26"
	.cc_bottom .L.str33.data
	.cc_top .L.str34.data,.L.str34
	.align	4
	.type	.L.str34,@object
	.size	.L.str34, 12
.L.str34:
.asciiz"Analogue 27"
	.cc_bottom .L.str34.data
	.cc_top .L.str35.data,.L.str35
	.align	4
	.type	.L.str35,@object
	.size	.L.str35, 12
.L.str35:
.asciiz"Analogue 28"
	.cc_bottom .L.str35.data
	.cc_top .L.str36.data,.L.str36
	.align	4
	.type	.L.str36,@object
	.size	.L.str36, 12
.L.str36:
.asciiz"Analogue 29"
	.cc_bottom .L.str36.data
	.cc_top .L.str37.data,.L.str37
	.align	4
	.type	.L.str37,@object
	.size	.L.str37, 12
.L.str37:
.asciiz"Analogue 30"
	.cc_bottom .L.str37.data
	.cc_top .L.str38.data,.L.str38
	.align	4
	.type	.L.str38,@object
	.size	.L.str38, 12
.L.str38:
.asciiz"Analogue 31"
	.cc_bottom .L.str38.data
	.cc_top .L.str39.data,.L.str39
	.align	4
	.type	.L.str39,@object
	.size	.L.str39, 12
.L.str39:
.asciiz"Analogue 32"
	.cc_bottom .L.str39.data
	.cc_top .L.str40.data,.L.str40
	.align	4
	.type	.L.str40,@object
	.size	.L.str40, 14
.L.str40:
.asciiz"iAP Interface"
	.cc_bottom .L.str40.data
	.section	.dp.data,"awd",@progbits
	.cc_top g_strTable.data,g_strTable
	.globl	g_strTable
	.align	8
	.type	g_strTable,@object
	.size	g_strTable, 304
g_strTable:
	.long	.L.str
	.long	.L.str1
	.long	.L.str2
	.long	.L.str3
	.long	.L.str4
	.long	.L.str4
	.long	.L.str4
	.long	.L.str4
	.long	.L.str5
	.long	.L.str6
	.long	.L.str7
	.long	.L.str8
	.long	.L.str9
	.long	.L.str10
	.long	.L.str11
	.long	.L.str12
	.long	.L.str13
	.long	.L.str14
	.long	.L.str15
	.long	.L.str16
	.long	.L.str17
	.long	.L.str18
	.long	.L.str19
	.long	.L.str20
	.long	.L.str21
	.long	.L.str22
	.long	.L.str23
	.long	.L.str24
	.long	.L.str25
	.long	.L.str26
	.long	.L.str27
	.long	.L.str28
	.long	.L.str29
	.long	.L.str30
	.long	.L.str31
	.long	.L.str32
	.long	.L.str33
	.long	.L.str34
	.long	.L.str35
	.long	.L.str36
	.long	.L.str37
	.long	.L.str38
	.long	.L.str39
	.long	.L.str8
	.long	.L.str9
	.long	.L.str10
	.long	.L.str11
	.long	.L.str12
	.long	.L.str13
	.long	.L.str14
	.long	.L.str15
	.long	.L.str16
	.long	.L.str17
	.long	.L.str18
	.long	.L.str19
	.long	.L.str20
	.long	.L.str21
	.long	.L.str22
	.long	.L.str23
	.long	.L.str24
	.long	.L.str25
	.long	.L.str26
	.long	.L.str27
	.long	.L.str28
	.long	.L.str29
	.long	.L.str30
	.long	.L.str31
	.long	.L.str32
	.long	.L.str33
	.long	.L.str34
	.long	.L.str35
	.long	.L.str36
	.long	.L.str37
	.long	.L.str38
	.long	.L.str39
	.long	.L.str40
	.cc_bottom g_strTable.data
	.cc_top devDesc_Audio2.data,devDesc_Audio2
	.globl	devDesc_Audio2
	.align	8
	.type	devDesc_Audio2,@object
	.size	devDesc_Audio2, 18
devDesc_Audio2:
	.byte	18
	.byte	1
	.short	512
	.byte	239
	.byte	2
	.byte	1
	.byte	64
	.short	8369
	.short	8
	.short	1778
	.byte	1
	.byte	3
	.byte	0
	.byte	2
	.cc_bottom devDesc_Audio2.data
	.cc_top devDesc_Null.data,devDesc_Null
	.globl	devDesc_Null.globound
devDesc_Null.globound = 18
	.globl	devDesc_Null
	.align	8
	.type	devDesc_Null,@object
	.size	devDesc_Null, 18
devDesc_Null:
	.ascii	"\022\001\000\002\000\000\000@\261 \b\000\362\006\001\003\000\001"
	.cc_bottom devDesc_Null.data
	.cc_top devQualDesc_Audio2.data,devQualDesc_Audio2
	.globl	devQualDesc_Audio2.globound
devQualDesc_Audio2.globound = 10
	.globl	devQualDesc_Audio2
	.align	8
	.type	devQualDesc_Audio2,@object
	.size	devQualDesc_Audio2, 10
devQualDesc_Audio2:
.asciiz"\n\006\000\002\357\002\001@\001"
	.cc_bottom devQualDesc_Audio2.data
	.cc_top devQualDesc_Null.data,devQualDesc_Null
	.globl	devQualDesc_Null.globound
devQualDesc_Null.globound = 10
	.globl	devQualDesc_Null
	.align	8
	.type	devQualDesc_Null,@object
	.size	devQualDesc_Null, 10
devQualDesc_Null:
.asciiz"\n\006\000\002\000\000\000@\001"
	.cc_bottom devQualDesc_Null.data
	.cc_top hidReportDescriptor.data,hidReportDescriptor
	.globl	hidReportDescriptor.globound
hidReportDescriptor.globound = 33
	.globl	hidReportDescriptor
	.align	8
	.type	hidReportDescriptor,@object
	.size	hidReportDescriptor, 33
hidReportDescriptor:
	.ascii	"\005\f\t\001\241\001\025\000%\001\t\260\t\265\t\266\t\351\t\352\t\342u\001\225\006\201\002\225\002\201\001\300"
	.cc_bottom hidReportDescriptor.data
	.cc_top cfgDesc_Audio2.data,cfgDesc_Audio2
	.globl	cfgDesc_Audio2
	.align	8
	.type	cfgDesc_Audio2,@object
	.size	cfgDesc_Audio2, 598
cfgDesc_Audio2:
	.byte	9
	.byte	2
	.short	598
	.byte	5
	.byte	1
	.byte	0
	.byte	192
	.byte	0
	.byte	8
	.byte	11
	.byte	0
	.byte	3
	.byte	1
	.byte	0
	.byte	32
	.byte	0
	.byte	9
	.byte	4
	.byte	0
	.byte	0
	.byte	0
	.byte	1
	.byte	1
	.byte	32
	.byte	3
	.byte	9
	.byte	36
	.byte	1
	.short	512
	.byte	8
	.short	359
	.byte	0
	.byte	8
	.byte	36
	.byte	10
	.byte	41
	.byte	3
	.byte	7
	.byte	0
	.byte	9
	.byte	8
	.byte	36
	.byte	11
	.byte	40
	.byte	1
	.byte	41
	.byte	3
	.byte	8
	.byte	17
	.byte	36
	.byte	2
	.byte	2
	.short	257
	.byte	0
	.byte	40
	.byte	32
	.long	0
	.byte	11
	.short	0
	.byte	6
	.byte	138
	.byte	36
	.byte	6
	.byte	10
	.byte	2
	.long	15
	.long	15
	.long	15
	.long	15
	.long	15
	.long	15
	.long	15
	.long	15
	.long	15
	.long	15
	.long	15
	.long	15
	.long	15
	.long	15
	.long	15
	.long	15
	.long	15
	.long	15
	.long	15
	.long	15
	.long	15
	.long	15
	.long	15
	.long	15
	.long	15
	.long	15
	.long	15
	.long	15
	.long	15
	.long	15
	.long	15
	.long	15
	.long	15
	.byte	0
	.byte	12
	.byte	36
	.byte	3
	.byte	20
	.short	769
	.byte	0
	.byte	10
	.byte	40
	.short	0
	.byte	0
	.byte	17
	.byte	36
	.byte	2
	.byte	1
	.short	513
	.byte	0
	.byte	40
	.byte	32
	.long	0
	.byte	43
	.short	0
	.byte	0
	.byte	138
	.byte	36
	.byte	6
	.byte	11
	.byte	1
	.long	15
	.long	15
	.long	15
	.long	15
	.long	15
	.long	15
	.long	15
	.long	15
	.long	15
	.long	15
	.long	15
	.long	15
	.long	15
	.long	15
	.long	15
	.long	15
	.long	15
	.long	15
	.long	15
	.long	15
	.long	15
	.long	15
	.long	15
	.long	15
	.long	15
	.long	15
	.long	15
	.long	15
	.long	15
	.long	15
	.long	15
	.long	15
	.long	15
	.byte	0
	.byte	12
	.byte	36
	.byte	3
	.byte	22
	.short	257
	.byte	0
	.byte	11
	.byte	40
	.short	0
	.byte	7
	.byte	9
	.byte	4
	.byte	1
	.byte	0
	.byte	0
	.byte	1
	.byte	2
	.byte	32
	.byte	4
	.byte	9
	.byte	4
	.byte	1
	.byte	1
	.byte	2
	.byte	1
	.byte	2
	.byte	32
	.byte	4
	.byte	16
	.byte	36
	.byte	1
	.byte	2
	.byte	0
	.byte	1
	.long	1
	.byte	32
	.long	0
	.byte	11
	.byte	6
	.byte	36
	.byte	2
	.byte	1
	.byte	4
	.byte	24
	.byte	7
	.byte	5
	.byte	1
	.byte	5
	.short	896
	.byte	1
	.byte	8
	.byte	37
	.byte	1
	.byte	0
	.byte	0
	.byte	2
	.short	8
	.byte	7
	.byte	5
	.byte	129
	.byte	17
	.short	4
	.byte	4
	.byte	9
	.byte	4
	.byte	1
	.byte	2
	.byte	2
	.byte	1
	.byte	2
	.byte	32
	.byte	4
	.byte	16
	.byte	36
	.byte	1
	.byte	2
	.byte	0
	.byte	1
	.long	1
	.byte	32
	.long	0
	.byte	11
	.byte	6
	.byte	36
	.byte	2
	.byte	1
	.byte	2
	.byte	16
	.byte	7
	.byte	5
	.byte	1
	.byte	5
	.short	448
	.byte	1
	.byte	8
	.byte	37
	.byte	1
	.byte	0
	.byte	0
	.byte	2
	.short	8
	.byte	7
	.byte	5
	.byte	129
	.byte	17
	.short	4
	.byte	4
	.byte	9
	.byte	4
	.byte	2
	.byte	0
	.byte	0
	.byte	1
	.byte	2
	.byte	32
	.byte	5
	.byte	9
	.byte	4
	.byte	2
	.byte	1
	.byte	1
	.byte	1
	.byte	2
	.byte	32
	.byte	5
	.byte	16
	.byte	36
	.byte	1
	.byte	22
	.byte	0
	.byte	1
	.long	1
	.byte	32
	.long	0
	.byte	43
	.byte	6
	.byte	36
	.byte	2
	.byte	1
	.byte	4
	.byte	24
	.byte	7
	.byte	5
	.byte	130
	.byte	5
	.short	896
	.byte	1
	.byte	8
	.byte	37
	.byte	1
	.byte	0
	.byte	0
	.byte	2
	.short	8
	.ascii	"\t\004\003\000\000\376\001\001\n\t!\007\372\000@\000\020\001"
	.byte	9
	.byte	4
	.byte	4
	.byte	0
	.byte	1
	.byte	3
	.byte	0
	.byte	0
	.byte	0
.asciiz"\t!\020\001\000\001\"!"
	.byte	7
	.byte	5
	.byte	131
	.byte	3
	.short	64
	.byte	8
	.cc_bottom cfgDesc_Audio2.data
	.cc_top hidDescriptor.data,hidDescriptor
	.globl	hidDescriptor.globound
hidDescriptor.globound = 9
	.globl	hidDescriptor
	.align	8
	.type	hidDescriptor,@object
	.size	hidDescriptor, 9
hidDescriptor:
.asciiz"\t!\020\001\000\001\"!"
	.cc_bottom hidDescriptor.data
	.cc_top cfgDesc_Null.data,cfgDesc_Null
	.globl	cfgDesc_Null.globound
cfgDesc_Null.globound = 19
	.globl	cfgDesc_Null
	.align	8
	.type	cfgDesc_Null,@object
	.size	cfgDesc_Null, 19
cfgDesc_Null:
	.ascii	"\t\002\022\000\001\001\000\300\000\t\004\000\000\000\000\000\000\000\t"
	.cc_bottom cfgDesc_Null.data
	.cc_top DFUdevDesc.data,DFUdevDesc
	.globl	DFUdevDesc.globound
DFUdevDesc.globound = 18
	.globl	DFUdevDesc
	.align	8
	.type	DFUdevDesc,@object
	.size	DFUdevDesc, 18
DFUdevDesc:
	.ascii	"\022\001\000\002\000\000\000@\261 \b\000\362\006\001\003\000\001"
	.cc_bottom DFUdevDesc.data
	.cc_top DFUcfgDesc.data,DFUcfgDesc
	.globl	DFUcfgDesc.globound
DFUcfgDesc.globound = 27
	.globl	DFUcfgDesc
	.align	8
	.type	DFUcfgDesc,@object
	.size	DFUcfgDesc, 27
DFUcfgDesc:
	.ascii	"\t\002\033\000\001\001\000\3002\t\004\000\000\000\376\001\002\000\t!\007\372\000@\000\020\001"
	.cc_bottom DFUcfgDesc.data
	.section	.dp.bss.4,"awd",@nobits
	.cc_top DFU_mode_active.data,DFU_mode_active
	.globl	DFU_mode_active
	.align	4
	.type	DFU_mode_active,@object
	.size	DFU_mode_active, 4
DFU_mode_active:
	.long	0
	.cc_bottom DFU_mode_active.data
	.cc_top g_curStreamAlt_Out.data,g_curStreamAlt_Out
	.globl	g_curStreamAlt_Out
	.align	4
	.type	g_curStreamAlt_Out,@object
	.size	g_curStreamAlt_Out, 4
g_curStreamAlt_Out:
	.long	0
	.cc_bottom g_curStreamAlt_Out.data
	.cc_top g_curStreamAlt_In.data,g_curStreamAlt_In
	.globl	g_curStreamAlt_In
	.align	4
	.type	g_curStreamAlt_In,@object
	.size	g_curStreamAlt_In, 4
g_curStreamAlt_In:
	.long	0
	.cc_bottom g_curStreamAlt_In.data
	.cc_top g_curUsbSpeed.data,g_curUsbSpeed
	.globl	g_curUsbSpeed
	.align	4
	.type	g_curUsbSpeed,@object
	.size	g_curUsbSpeed, 4
g_curUsbSpeed:
	.long	0
	.cc_bottom g_curUsbSpeed.data
	.section	.cp.rodata,"ac",@progbits
	.cc_top g_subSlot_Out_HS.data,g_subSlot_Out_HS
	.globl	g_subSlot_Out_HS.globound
g_subSlot_Out_HS.globound = 2
	.globl	g_subSlot_Out_HS
	.align	8
	.type	g_subSlot_Out_HS,@object
	.size	g_subSlot_Out_HS, 8
g_subSlot_Out_HS:
	.long	4
	.long	2
	.cc_bottom g_subSlot_Out_HS.data
	.cc_top g_subSlot_Out_FS.data,g_subSlot_Out_FS
	.globl	g_subSlot_Out_FS.globound
g_subSlot_Out_FS.globound = 2
	.globl	g_subSlot_Out_FS
	.align	8
	.type	g_subSlot_Out_FS,@object
	.size	g_subSlot_Out_FS, 8
g_subSlot_Out_FS:
	.long	3
	.long	2
	.cc_bottom g_subSlot_Out_FS.data
	.cc_top g_subSlot_In_HS.data,g_subSlot_In_HS
	.globl	g_subSlot_In_HS.globound
g_subSlot_In_HS.globound = 1
	.globl	g_subSlot_In_HS
	.align	8
	.type	g_subSlot_In_HS,@object
	.size	g_subSlot_In_HS, 4
g_subSlot_In_HS:
	.long	4
	.cc_bottom g_subSlot_In_HS.data
	.cc_top g_subSlot_In_FS.data,g_subSlot_In_FS
	.globl	g_subSlot_In_FS.globound
g_subSlot_In_FS.globound = 1
	.globl	g_subSlot_In_FS
	.align	8
	.type	g_subSlot_In_FS,@object
	.size	g_subSlot_In_FS, 4
g_subSlot_In_FS:
	.long	3
	.cc_bottom g_subSlot_In_FS.data
	.cc_top g_sampRes_Out_HS.data,g_sampRes_Out_HS
	.globl	g_sampRes_Out_HS.globound
g_sampRes_Out_HS.globound = 2
	.globl	g_sampRes_Out_HS
	.align	8
	.type	g_sampRes_Out_HS,@object
	.size	g_sampRes_Out_HS, 8
g_sampRes_Out_HS:
	.long	24
	.long	16
	.cc_bottom g_sampRes_Out_HS.data
	.cc_top g_sampRes_Out_FS.data,g_sampRes_Out_FS
	.globl	g_sampRes_Out_FS.globound
g_sampRes_Out_FS.globound = 2
	.globl	g_sampRes_Out_FS
	.align	8
	.type	g_sampRes_Out_FS,@object
	.size	g_sampRes_Out_FS, 8
g_sampRes_Out_FS:
	.long	24
	.long	16
	.cc_bottom g_sampRes_Out_FS.data
	.cc_top g_sampRes_In_HS.data,g_sampRes_In_HS
	.globl	g_sampRes_In_HS.globound
g_sampRes_In_HS.globound = 1
	.globl	g_sampRes_In_HS
	.align	8
	.type	g_sampRes_In_HS,@object
	.size	g_sampRes_In_HS, 4
g_sampRes_In_HS:
	.long	24
	.cc_bottom g_sampRes_In_HS.data
	.cc_top g_sampRes_In_FS.data,g_sampRes_In_FS
	.globl	g_sampRes_In_FS.globound
g_sampRes_In_FS.globound = 1
	.globl	g_sampRes_In_FS
	.align	8
	.type	g_sampRes_In_FS,@object
	.size	g_sampRes_In_FS, 4
g_sampRes_In_FS:
	.long	24
	.cc_bottom g_sampRes_In_FS.data
	.cc_top g_dataFormat_Out.data,g_dataFormat_Out
	.globl	g_dataFormat_Out.globound
g_dataFormat_Out.globound = 2
	.globl	g_dataFormat_Out
	.align	8
	.type	g_dataFormat_Out,@object
	.size	g_dataFormat_Out, 8
g_dataFormat_Out:
	.long	1
	.long	1
	.cc_bottom g_dataFormat_Out.data
	.cc_top g_dataFormat_In.data,g_dataFormat_In
	.globl	g_dataFormat_In.globound
g_dataFormat_In.globound = 1
	.globl	g_dataFormat_In
	.align	8
	.type	g_dataFormat_In,@object
	.size	g_dataFormat_In, 4
g_dataFormat_In:
	.long	1
	.cc_bottom g_dataFormat_In.data
	.cc_top g_chanCount_In_HS.data,g_chanCount_In_HS
	.globl	g_chanCount_In_HS.globound
g_chanCount_In_HS.globound = 1
	.globl	g_chanCount_In_HS
	.align	8
	.type	g_chanCount_In_HS,@object
	.size	g_chanCount_In_HS, 4
g_chanCount_In_HS:
	.long	32
	.cc_bottom g_chanCount_In_HS.data
	.section	.dp.bss,"awd",@nobits
	.cc_top volsOut.data,volsOut
	.globl	volsOut.globound
volsOut.globound = 33
	.globl	volsOut
	.align	8
	.type	volsOut,@object
	.size	volsOut, 132
volsOut:
	.space	132
	.cc_bottom volsOut.data
	.cc_top mutesOut.data,mutesOut
	.globl	mutesOut.globound
mutesOut.globound = 33
	.globl	mutesOut
	.align	8
	.type	mutesOut,@object
	.size	mutesOut, 132
mutesOut:
	.space	132
	.cc_bottom mutesOut.data
	.cc_top volsIn.data,volsIn
	.globl	volsIn.globound
volsIn.globound = 33
	.globl	volsIn
	.align	8
	.type	volsIn,@object
	.size	volsIn, 132
volsIn:
	.space	132
	.cc_bottom volsIn.data
	.cc_top mutesIn.data,mutesIn
	.globl	mutesIn.globound
mutesIn.globound = 33
	.globl	mutesIn
	.align	8
	.type	mutesIn,@object
	.size	mutesIn, 132
mutesIn:
	.space	132
	.cc_bottom mutesIn.data
	.cc_top mixer1Weights.data,mixer1Weights
	.globl	mixer1Weights.globound
mixer1Weights.globound = 144
	.globl	mixer1Weights
	.align	8
	.type	mixer1Weights,@object
	.size	mixer1Weights, 288
mixer1Weights:
	.space	288
	.cc_bottom mixer1Weights.data
	.cc_top channelMapAud.data,channelMapAud
	.globl	channelMapAud.globound
channelMapAud.globound = 32
	.globl	channelMapAud
	.align	8
	.type	channelMapAud,@object
	.size	channelMapAud, 32
channelMapAud:
	.space	32
	.cc_bottom channelMapAud.data
	.cc_top channelMapUsb.data,channelMapUsb
	.globl	channelMapUsb.globound
channelMapUsb.globound = 32
	.globl	channelMapUsb
	.align	8
	.type	channelMapUsb,@object
	.size	channelMapUsb, 32
channelMapUsb:
	.space	32
	.cc_bottom channelMapUsb.data
	.cc_top channelMap.data,channelMap
	.globl	channelMap.globound
channelMap.globound = 64
	.globl	channelMap
	.align	8
	.type	channelMap,@object
	.size	channelMap, 64
channelMap:
	.space	64
	.cc_bottom channelMap.data
	.cc_top mixSel.data,mixSel
	.globl	mixSel.globound
mixSel.globound = 0
	.globl	mixSel
	.align	8
	.type	mixSel,@object
	.size	mixSel, 0
mixSel:
	.space	4
	.cc_bottom mixSel.data
	.cc_top mixer1Crossbar.data,mixer1Crossbar
	.globl	mixer1Crossbar.globound
mixer1Crossbar.globound = 18
	.globl	mixer1Crossbar
	.align	8
	.type	mixer1Crossbar,@object
	.size	mixer1Crossbar, 18
mixer1Crossbar:
	.space	18
	.cc_bottom mixer1Crossbar.data
	.section	.cp.rodata,"ac",@progbits
.Ldebug_end0:
	.section	.dp.bss.4,"awd",@nobits
.Ldebug_end1:
	.section	.dp.bss,"awd",@nobits
.Ldebug_end2:
	.section	.dp.data,"awd",@progbits
.Ldebug_end3:
	.text
.Ldebug_end4:
	.file	10 "/Applications/XMOS_xTIMEcomposer_Community_14.3.3/target/include/xccompat.h"
	.file	11 "/Users/rkn/Documents/xTIMEcomposer/workspace/module_usb_shared/src/usb_std_requests.h"
	.section	.trap_info,"",@progbits
.Ltrap_info_entries_start0:
	.long	.Ltrap_info_entries_end0-.Ltrap_info_entries_start0
	.long	1
.Ltrap_info_entries_end0: