	.text
	.file	"gpio_access.c"
	.text
	.globl	p_gpio_lock
	.align	4
	.type	p_gpio_lock,@function
	.cc_top p_gpio_lock.function,p_gpio_lock
p_gpio_lock:
.Lfunc_begin0:
	.loc	2 8 0
	.cfi_startproc
	.issue_mode dual
	{
		nop
		dualentsp 2
	}
.Ltmp0:
	.cfi_def_cfa_offset 8
.Ltmp1:
	.cfi_offset 15, 0
	.loc	2 9 5 prologue_end
.Ltmp2:
	ldaw r0, dp[gpo_swlock]
	bl swlock_acquire
	{
		nop
		retsp 2
	}
	.loc	2 10 1
	# RETURN_REG_HOLDER
.Ltmp3:
	.cc_bottom p_gpio_lock.function
	.set	p_gpio_lock.nstackwords,(swlock_acquire.nstackwords + 2)
	.globl	p_gpio_lock.nstackwords
	.set	p_gpio_lock.maxcores,swlock_acquire.maxcores $M 1
	.globl	p_gpio_lock.maxcores
	.set	p_gpio_lock.maxtimers,swlock_acquire.maxtimers $M 0
	.globl	p_gpio_lock.maxtimers
	.set	p_gpio_lock.maxchanends,swlock_acquire.maxchanends $M 0
	.globl	p_gpio_lock.maxchanends
.Ltmp4:
	.size	p_gpio_lock, .Ltmp4-p_gpio_lock
.Lfunc_end0:
	.cfi_endproc

	.globl	p_gpio_unlock
	.align	4
	.type	p_gpio_unlock,@function
	.cc_top p_gpio_unlock.function,p_gpio_unlock
p_gpio_unlock:
.Lfunc_begin1:
	.loc	2 13 0
	.cfi_startproc
	.issue_mode dual
	{
		nop
		dualentsp 2
	}
.Ltmp5:
	.cfi_def_cfa_offset 8
.Ltmp6:
	.cfi_offset 15, 0
	.loc	2 14 5 prologue_end
.Ltmp7:
	ldaw r0, dp[gpo_swlock]
	bl swlock_release
	{
		nop
		retsp 2
	}
	.loc	2 15 1
	# RETURN_REG_HOLDER
.Ltmp8:
	.cc_bottom p_gpio_unlock.function
	.set	p_gpio_unlock.nstackwords,(swlock_release.nstackwords + 2)
	.globl	p_gpio_unlock.nstackwords
	.set	p_gpio_unlock.maxcores,swlock_release.maxcores $M 1
	.globl	p_gpio_unlock.maxcores
	.set	p_gpio_unlock.maxtimers,swlock_release.maxtimers $M 0
	.globl	p_gpio_unlock.maxtimers
	.set	p_gpio_unlock.maxchanends,swlock_release.maxchanends $M 0
	.globl	p_gpio_unlock.maxchanends
.Ltmp9:
	.size	p_gpio_unlock, .Ltmp9-p_gpio_unlock
.Lfunc_end1:
	.cfi_endproc

	.globl	p_gpio_peek
	.align	4
	.type	p_gpio_peek,@function
	.cc_top p_gpio_peek.function,p_gpio_peek
p_gpio_peek:
.Lfunc_begin2:
	.loc	2 18 0
	.cfi_startproc
	.issue_mode dual
	{
		nop
		dualentsp 2
	}
.Ltmp10:
	.cfi_def_cfa_offset 8
.Ltmp11:
	.cfi_offset 15, 0
	.loc	2 22 5 prologue_end
.Ltmp12:
	ldaw r0, dp[gpo_swlock]
	bl swlock_acquire
	.loc	2 24 5
	#APP
	ldw r0, dp[p_gpio]
	#NO_APP
.Ltmp13:
	.loc	2 25 5
	#APP
	peek r0, res[r0]
	#NO_APP
.Ltmp14:
	{
		nop
		retsp 2
	}
	.loc	2 27 5
	# RETURN_REG_HOLDER
.Ltmp15:
	.cc_bottom p_gpio_peek.function
	.set	p_gpio_peek.nstackwords,(swlock_acquire.nstackwords + 2)
	.globl	p_gpio_peek.nstackwords
	.set	p_gpio_peek.maxcores,swlock_acquire.maxcores $M 1
	.globl	p_gpio_peek.maxcores
	.set	p_gpio_peek.maxtimers,swlock_acquire.maxtimers $M 0
	.globl	p_gpio_peek.maxtimers
	.set	p_gpio_peek.maxchanends,swlock_acquire.maxchanends $M 0
	.globl	p_gpio_peek.maxchanends
.Ltmp16:
	.size	p_gpio_peek, .Ltmp16-p_gpio_peek
.Lfunc_end2:
	.cfi_endproc

	.globl	p_gpio_out
	.align	4
	.type	p_gpio_out,@function
	.cc_top p_gpio_out.function,p_gpio_out
p_gpio_out:
.Lfunc_begin3:
	.loc	2 31 0
	.cfi_startproc
	.issue_mode dual
	{
		nop
		dualentsp 2
	}
.Ltmp17:
	.cfi_def_cfa_offset 8
.Ltmp18:
	.cfi_offset 15, 0
	.loc	2 34 5 prologue_end
.Ltmp19:
	#APP
	ldw r1, dp[p_gpio]
	#NO_APP
.Ltmp20:
	.loc	2 35 5
	#APP
	out res[r1], r0
	#NO_APP
	.loc	2 38 5
	ldaw r0, dp[gpo_swlock]
.Ltmp21:
	bl swlock_release
.Ltmp22:
	{
		nop
		retsp 2
	}
	.loc	2 39 1
	# RETURN_REG_HOLDER
.Ltmp23:
	.cc_bottom p_gpio_out.function
	.set	p_gpio_out.nstackwords,(swlock_release.nstackwords + 2)
	.globl	p_gpio_out.nstackwords
	.set	p_gpio_out.maxcores,swlock_release.maxcores $M 1
	.globl	p_gpio_out.maxcores
	.set	p_gpio_out.maxtimers,swlock_release.maxtimers $M 0
	.globl	p_gpio_out.maxtimers
	.set	p_gpio_out.maxchanends,swlock_release.maxchanends $M 0
	.globl	p_gpio_out.maxchanends
.Ltmp24:
	.size	p_gpio_out, .Ltmp24-p_gpio_out
.Lfunc_end3:
	.cfi_endproc

	.globl	set_gpio
	.align	4
	.type	set_gpio,@function
	.cc_top set_gpio.function,set_gpio
set_gpio:
.Lfunc_begin4:
	.loc	2 42 0
	.cfi_startproc
	.issue_mode dual
	{
		nop
		dualentsp 4
	}
.Ltmp25:
	.cfi_def_cfa_offset 16
.Ltmp26:
	.cfi_offset 15, 0
	std r5, r4, sp[1]
.Ltmp27:
	.cfi_offset 4, -8
.Ltmp28:
	.cfi_offset 5, -4
.Ltmp29:
	{
		mov r5, r1
		mov r4, r0
	}
.Ltmp30:
	.loc	2 22 5 prologue_end
	ldaw r0, dp[gpo_swlock]
	bl swlock_acquire
	.loc	2 24 5
	#APP
	ldw r0, dp[p_gpio]
	#NO_APP
.Ltmp31:
	.loc	2 25 5
	#APP
	peek r0, res[r0]
	#NO_APP
.Ltmp32:
	.loc	2 45 6
	bf r5, .LBB4_1
.Ltmp33:
	.loc	2 46 7
	{
		or r0, r0, r4
		nop
	}
.Ltmp34:
	bu .LBB4_3
.Ltmp35:
.LBB4_1:
	.loc	2 45 18
	{
		andnot r0, r4
		nop
	}
.Ltmp36:
.LBB4_3:
	.loc	2 34 5
	#APP
	ldw r1, dp[p_gpio]
	#NO_APP
.Ltmp37:
	.loc	2 35 5
	#APP
	out res[r1], r0
	#NO_APP
	.loc	2 38 5
	ldaw r0, dp[gpo_swlock]
	bl swlock_release
.Ltmp38:
	.loc	2 48 1
	ldd r5, r4, sp[1]
	{
		nop
		retsp 4
	}
	# RETURN_REG_HOLDER
.Ltmp39:
	.cc_bottom set_gpio.function
	.set	set_gpio.nstackwords,((swlock_acquire.nstackwords $M swlock_release.nstackwords) + 4)
	.globl	set_gpio.nstackwords
	.set	set_gpio.maxcores,swlock_acquire.maxcores $M swlock_release.maxcores $M 1
	.globl	set_gpio.maxcores
	.set	set_gpio.maxtimers,swlock_acquire.maxtimers $M swlock_release.maxtimers $M 0
	.globl	set_gpio.maxtimers
	.set	set_gpio.maxchanends,swlock_acquire.maxchanends $M swlock_release.maxchanends $M 0
	.globl	set_gpio.maxchanends
.Ltmp40:
	.size	set_gpio, .Ltmp40-set_gpio
.Lfunc_end4:
	.cfi_endproc

	.section	.dp.bss.4,"awd",@nobits
	.cc_top gpo_swlock.data,gpo_swlock
	.globl	gpo_swlock
	.align	4
	.type	gpo_swlock,@object
	.size	gpo_swlock, 4
gpo_swlock:
	.long	0
	.cc_bottom gpo_swlock.data
.Ldebug_end0:
	.text
.Ldebug_end1:
	.section	.trap_info,"",@progbits
.Ltrap_info_entries_start0:
	.long	.Ltrap_info_entries_end0-.Ltrap_info_entries_start0
	.long	1
.Ltrap_info_entries_end0: