	.text
	.file	"/Users/rkn/Documents/xTIMEcomposer/workspace/module_usb_audio/main.xc"
                                        # Start of file scope inline assembly
	.inline_definition delay_seconds
	.inline_definition delay_milliseconds
	.inline_definition delay_microseconds
	.inline_definition XUD_SetReady_Out
	.inline_definition XUD_SetReady_OutPtr
	.inline_definition XUD_SetReady_InPtr
	.inline_definition XUD_SetReady_In
	.globalresource 0x10f00,"p_i2s_dac[0]","tile[0]"
	.globalresource 0x10e00,"p_i2s_dac[1]","tile[0]"
	.globalresource 0x10d00,"p_i2s_dac[2]","tile[0]"
	.globalresource 0x10c00,"p_i2s_dac[3]","tile[0]"
	.globalresource 0x10a00,"p_i2s_adc[0]","tile[0]"
	.globalresource 0x10800,"p_i2s_adc[1]","tile[0]"
	.globalresource 0x10900,"p_i2s_adc[2]","tile[0]"
	.globalresource 0x10b00,"p_i2s_adc[3]","tile[0]"
	.globalresource 0x10500,"p_lrclk","tile[0]"
	.globalresource 0x10400,"p_bclk","tile[0]"
	.globalresource 0x10700,"p_mclk_in","tile[0]"
	.globalresource 0x100100,"p_for_mclk_count","tile[1]"
	.globalresource 0x206,"clk_audio_mclk","tile[0]"
	.globalresource 0x206,"clk_audio_mclk2","tile[1]"
	.globalresource 0x10b00,"p_mclk_in2","tile[1]"
	.globalresource 0x306,"clk_audio_bclk","tile[0]"
	.set usb_audio_core.savedstate,20
	.globl usb_audio_core.savedstate
	.set _Susb_audio_core_0.savedstate,20
	.globl _Susb_audio_core_0.savedstate
	.set usb_audio_io.savedstate,8
	.globl usb_audio_io.savedstate
	.set _Susb_audio_io_0.savedstate,8
	.globl _Susb_audio_io_0.savedstate
	.weak _i.i_dfu.HandleDfuRequest.maxchanends.group
	.add_to_set _i.i_dfu.HandleDfuRequest.maxchanends.group, _i.i_dfu._chan.HandleDfuRequest.maxchanends, _i.i_dfu._chan.HandleDfuRequest
	.max_reduce _i.i_dfu.HandleDfuRequest.max.maxchanends, _i.i_dfu.HandleDfuRequest.maxchanends.group, 0
	.weak _i.i_dfu.HandleDfuRequest.maxcores.group
	.add_to_set _i.i_dfu.HandleDfuRequest.maxcores.group, _i.i_dfu._chan.HandleDfuRequest.maxcores, _i.i_dfu._chan.HandleDfuRequest
	.max_reduce _i.i_dfu.HandleDfuRequest.max.maxcores, _i.i_dfu.HandleDfuRequest.maxcores.group, 0
	.weak _i.i_dfu.HandleDfuRequest.maxtimers.group
	.add_to_set _i.i_dfu.HandleDfuRequest.maxtimers.group, _i.i_dfu._chan.HandleDfuRequest.maxtimers, _i.i_dfu._chan.HandleDfuRequest
	.max_reduce _i.i_dfu.HandleDfuRequest.max.maxtimers, _i.i_dfu.HandleDfuRequest.maxtimers.group, 0
	.weak _i.i_dfu.HandleDfuRequest.nstackwords.group
	.globl _i.i_dfu.HandleDfuRequest.nstackwords.group
	.weak _i.i_dfu.HandleDfuRequest.fns.group
	.globl _i.i_dfu.HandleDfuRequest.fns.group
	.add_to_set _i.i_dfu.HandleDfuRequest.nstackwords.group, _i.i_dfu._chan.HandleDfuRequest.nstackwords, _i.i_dfu._chan.HandleDfuRequest
	.add_to_set _i.i_dfu.HandleDfuRequest.fns.group, _i.i_dfu._chan.HandleDfuRequest, _i.i_dfu._chan.HandleDfuRequest
	.max_reduce _i.i_dfu.HandleDfuRequest.max.nstackwords, _i.i_dfu.HandleDfuRequest.nstackwords.group, 0
	.max_reduce _i.i_dfu.HandleDfuRequest.fns, _i.i_dfu.HandleDfuRequest.fns.group, 0
	.weak _i.i_dfu.finish.maxchanends.group
	.add_to_set _i.i_dfu.finish.maxchanends.group, _i.i_dfu._chan.finish.maxchanends, _i.i_dfu._chan.finish
	.max_reduce _i.i_dfu.finish.max.maxchanends, _i.i_dfu.finish.maxchanends.group, 0
	.weak _i.i_dfu.finish.maxcores.group
	.add_to_set _i.i_dfu.finish.maxcores.group, _i.i_dfu._chan.finish.maxcores, _i.i_dfu._chan.finish
	.max_reduce _i.i_dfu.finish.max.maxcores, _i.i_dfu.finish.maxcores.group, 0
	.weak _i.i_dfu.finish.maxtimers.group
	.add_to_set _i.i_dfu.finish.maxtimers.group, _i.i_dfu._chan.finish.maxtimers, _i.i_dfu._chan.finish
	.max_reduce _i.i_dfu.finish.max.maxtimers, _i.i_dfu.finish.maxtimers.group, 0
	.weak _i.i_dfu.finish.nstackwords.group
	.globl _i.i_dfu.finish.nstackwords.group
	.weak _i.i_dfu.finish.fns.group
	.globl _i.i_dfu.finish.fns.group
	.add_to_set _i.i_dfu.finish.nstackwords.group, _i.i_dfu._chan.finish.nstackwords, _i.i_dfu._chan.finish
	.add_to_set _i.i_dfu.finish.fns.group, _i.i_dfu._chan.finish, _i.i_dfu._chan.finish
	.max_reduce _i.i_dfu.finish.max.nstackwords, _i.i_dfu.finish.nstackwords.group, 0
	.max_reduce _i.i_dfu.finish.fns, _i.i_dfu.finish.fns.group, 0
	.weak _i.i_dfu.__interface_init.maxchanends.group
	.max_reduce _i.i_dfu.__interface_init.max.maxchanends, _i.i_dfu.__interface_init.maxchanends.group, 0
	.weak _i.i_dfu.__interface_init.maxcores.group
	.max_reduce _i.i_dfu.__interface_init.max.maxcores, _i.i_dfu.__interface_init.maxcores.group, 0
	.weak _i.i_dfu.__interface_init.maxtimers.group
	.max_reduce _i.i_dfu.__interface_init.max.maxtimers, _i.i_dfu.__interface_init.maxtimers.group, 0
	.weak _i.i_dfu.__interface_init.nstackwords.group
	.globl _i.i_dfu.__interface_init.nstackwords.group
	.weak _i.i_dfu.__interface_init.fns.group
	.globl _i.i_dfu.__interface_init.fns.group
	.max_reduce _i.i_dfu.__interface_init.max.nstackwords, _i.i_dfu.__interface_init.nstackwords.group, 0
	.max_reduce _i.i_dfu.__interface_init.fns, _i.i_dfu.__interface_init.fns.group, 0
	.weak _i.i_dfu._client_call_y.maxchanends.group
	.add_to_set _i.i_dfu._client_call_y.maxchanends.group, (__interface_client_call_y_other.maxchanends + __interface_client_call_y_extra.maxchanends), __interface_client_call_y_other
	.max_reduce _i.i_dfu._client_call_y.max.maxchanends, _i.i_dfu._client_call_y.maxchanends.group, 0
	.weak _i.i_dfu._client_call_y.maxcores.group
	.add_to_set _i.i_dfu._client_call_y.maxcores.group, (__interface_client_call_y_other.maxcores + __interface_client_call_y_extra.maxcores), __interface_client_call_y_other
	.max_reduce _i.i_dfu._client_call_y.max.maxcores, _i.i_dfu._client_call_y.maxcores.group, 0
	.weak _i.i_dfu._client_call_y.maxtimers.group
	.add_to_set _i.i_dfu._client_call_y.maxtimers.group, (__interface_client_call_y_other.maxtimers + __interface_client_call_y_extra.maxtimers), __interface_client_call_y_other
	.max_reduce _i.i_dfu._client_call_y.max.maxtimers, _i.i_dfu._client_call_y.maxtimers.group, 0
	.weak _i.i_dfu._client_call_y.nstackwords.group
	.globl _i.i_dfu._client_call_y.nstackwords.group
	.weak _i.i_dfu._client_call_y.fns.group
	.globl _i.i_dfu._client_call_y.fns.group
	.add_to_set _i.i_dfu._client_call_y.nstackwords.group, (__interface_client_call_y_other.nstackwords + __interface_client_call_y_extra.nstackwords), __interface_client_call_y_other
	.add_to_set _i.i_dfu._client_call_y.fns.group, __interface_client_call_y_other, __interface_client_call_y_other
	.max_reduce _i.i_dfu._client_call_y.max.nstackwords, _i.i_dfu._client_call_y.nstackwords.group, 0
	.max_reduce _i.i_dfu._client_call_y.fns, _i.i_dfu._client_call_y.fns.group, 0
	.pushsection .netinfo, "", @netinfo
	.int      0x1eaba15c
	main.parinfo.debugstring0:
	.asciiz "# -1 \"\""
	main.parinfo.debugstring1:
	.asciiz "# 667 \"/Users/rkn/Documents/xTIMEcomposer/workspace/module_usb_audio/main.xc\""
	.cc_top main.parinfo.cc, main.parinfo
	.globl main.parinfo
	.type main.parinfo, @object
	main.parinfo:
	.int 0x00000004
	.long 0
	.long main.parinfo.debugstring0
	.long main.parinfo.debugstring1
	.int 0x00000002
	.int 0x00000000
	.int $N __main__main_tile_1
	.long tile + 4
	.int 0x00000003
	.int 0x00000001
	.int 0x00000002
	.int 0x00000003
	.int $N __main__main_tile_0
	.long tile + 0
	.int 0x00000003
	.int 0x00000001
	.int 0x00000002
	.int 0x00000003
	.cc_bottom main.parinfo.cc
.locl __xcc1_internal_1.info, "bo:p:32"
__xcc1_internal_1.info:
	.int 0x00010f00
	.long tile + 0
.sameresource __xcc1_internal_1, p_i2s_dac, 0
.locl __xcc1_internal_2.info, "bo:p:32"
__xcc1_internal_2.info:
	.int 0x00010e00
	.long tile + 0
.sameresource __xcc1_internal_2, p_i2s_dac, 4
.locl __xcc1_internal_3.info, "bo:p:32"
__xcc1_internal_3.info:
	.int 0x00010d00
	.long tile + 0
.sameresource __xcc1_internal_3, p_i2s_dac, 8
.locl __xcc1_internal_4.info, "bo:p:32"
__xcc1_internal_4.info:
	.int 0x00010c00
	.long tile + 0
.sameresource __xcc1_internal_4, p_i2s_dac, 12
.locl __xcc1_internal_5.info, "bi:p:32"
__xcc1_internal_5.info:
	.int 0x00010a00
	.long tile + 0
.sameresource __xcc1_internal_5, p_i2s_adc, 0
.locl __xcc1_internal_6.info, "bi:p:32"
__xcc1_internal_6.info:
	.int 0x00010800
	.long tile + 0
.sameresource __xcc1_internal_6, p_i2s_adc, 4
.locl __xcc1_internal_7.info, "bi:p:32"
__xcc1_internal_7.info:
	.int 0x00010900
	.long tile + 0
.sameresource __xcc1_internal_7, p_i2s_adc, 8
.locl __xcc1_internal_8.info, "bi:p:32"
__xcc1_internal_8.info:
	.int 0x00010b00
	.long tile + 0
.sameresource __xcc1_internal_8, p_i2s_adc, 12
.globl p_lrclk.info, "bo:p:32"
p_lrclk.info:
	.int 0x00010500
	.long tile + 0
.globl p_bclk.info, "bo:p:32"
p_bclk.info:
	.int 0x00010400
	.long tile + 0
.globl p_mclk_in.info, "p"
p_mclk_in.info:
	.int 0x00010700
	.long tile + 0
.globl p_for_mclk_count.info, "i:p"
p_for_mclk_count.info:
	.int 0x00100100
	.long tile + 4
.globl clk_audio_mclk.info, "ck"
clk_audio_mclk.info:
	.int 0x00000206
	.long tile + 0
.globl clk_audio_mclk2.info, "ck"
clk_audio_mclk2.info:
	.int 0x00000206
	.long tile + 4
.globl p_mclk_in2.info, "i:p"
p_mclk_in2.info:
	.int 0x00010b00
	.long tile + 4
.globl clk_audio_bclk.info, "ck"
clk_audio_bclk.info:
	.int 0x00000306
	.long tile + 0
	.popsection
	.weak _i.i_dfu.HandleDfuRequest.maxchanends.group
	.weak _i.i_dfu.HandleDfuRequest.maxcores.group
	.weak _i.i_dfu.HandleDfuRequest.maxtimers.group
	.weak _i.i_dfu.HandleDfuRequest.nstackwords.group
	.globl _i.i_dfu.HandleDfuRequest.nstackwords.group
	.weak _i.i_dfu.HandleDfuRequest.fns.group
	.globl _i.i_dfu.HandleDfuRequest.fns.group
	.weak _i.i_dfu.finish.maxchanends.group
	.weak _i.i_dfu.finish.maxcores.group
	.weak _i.i_dfu.finish.maxtimers.group
	.weak _i.i_dfu.finish.nstackwords.group
	.globl _i.i_dfu.finish.nstackwords.group
	.weak _i.i_dfu.finish.fns.group
	.globl _i.i_dfu.finish.fns.group
	.weak _i.i_dfu.__interface_init.maxchanends.group
	.weak _i.i_dfu.__interface_init.maxcores.group
	.weak _i.i_dfu.__interface_init.maxtimers.group
	.weak _i.i_dfu.__interface_init.nstackwords.group
	.globl _i.i_dfu.__interface_init.nstackwords.group
	.weak _i.i_dfu.__interface_init.fns.group
	.globl _i.i_dfu.__interface_init.fns.group
	.set usage.anon.0,0
	.set usage.anon.1,0
	.set usage.anon.2,0
	.set usage.anon.3,0
	.set usage.anon.4,0
	.set usage.anon.5,0
	.set usage.anon.6,0
	.set usage.anon.7,0
	.set usage.anon.8,0
	.set usage.anon.9,0
	.set usage.anon.10,0
	.set usage.anon.11,0
	.set usage.anon.12,0
	.globwrite usage.anon.8,p_mclk_in2,"/Users/rkn/Documents/xTIMEcomposer/workspace/module_usb_audio/main.xc:331:44: note: object used here\n            set_clock_src(clk_audio_mclk2, p_mclk_in2);\n                                           ^~~~~~~~~~\n/Applications/XMOS_xTIMEcomposer_Community_14.3.3/target/include/xs1.h:404:73: note: expanded from macro \'set_clock_src\'\n#define set_clock_src(clk, p)                __builtin_set_clk_src(clk, p)\n                                                                        ^"
	.globwrite usage.anon.8,clk_audio_mclk2,"/Users/rkn/Documents/xTIMEcomposer/workspace/module_usb_audio/main.xc:331:27: note: object used here\n            set_clock_src(clk_audio_mclk2, p_mclk_in2);\n                          ^~~~~~~~~~~~~~~\n/Applications/XMOS_xTIMEcomposer_Community_14.3.3/target/include/xs1.h:404:68: note: expanded from macro \'set_clock_src\'\n#define set_clock_src(clk, p)                __builtin_set_clk_src(clk, p)\n                                                                   ^"
	.globwrite usage.anon.8,p_for_mclk_count,"/Users/rkn/Documents/xTIMEcomposer/workspace/module_usb_audio/main.xc:332:28: note: object used here\n            set_port_clock(p_for_mclk_count, clk_audio_mclk2);\n                           ^~~~~~~~~~~~~~~~\n/Applications/XMOS_xTIMEcomposer_Community_14.3.3/target/include/xs1.h:498:69: note: expanded from macro \'set_port_clock\'\n#define set_port_clock(p, clk)               __builtin_set_port_clk(p, clk)\n                                                                    ^"
	.globwrite usage.anon.7,epTypeTableIn,"/Users/rkn/Documents/xTIMEcomposer/workspace/module_usb_audio/main.xc:315:36: note: object used here\n            c_sof, epTypeTableOut, epTypeTableIn, p_usb_rst,\n                                   ^~~~~~~~~~~~~"
	.globwrite usage.anon.7,epTypeTableOut,"/Users/rkn/Documents/xTIMEcomposer/workspace/module_usb_audio/main.xc:315:20: note: object used here\n            c_sof, epTypeTableOut, epTypeTableIn, p_usb_rst,\n                   ^~~~~~~~~~~~~~"
	.call main,usb_audio_io
	.call main,usb_audio_core
	.call usb_audio_io,usage.anon.12
	.call usb_audio_io,usage.anon.11
	.call usage.anon.12,thread_speed
	.call usage.anon.12,audio
	.call usage.anon.11,thread_speed
	.call usage.anon.11,mixer
	.call usb_audio_core,usage.anon.9
	.call usb_audio_core,usage.anon.8
	.call usb_audio_core,usage.anon.7
	.call usb_audio_core,usage.anon.10
	.call usage.anon.10,thread_speed
	.call usage.anon.10,decouple
	.call usage.anon.9,thread_speed
	.call usage.anon.9,Endpoint0
	.call usage.anon.8,thread_speed
	.call usage.anon.8,buffer
	.call usage.anon.7,XUD_Manager
	.call xscope_user_init,xscope_register
	.call xscope_user_init,xscope_config_io
	.call usage.anon.6,usage.anon.5
	.call usage.anon.2,delay_ticks_longlong
	.call usage.anon.1,delay_ticks_longlong
	.call usage.anon.0,delay_ticks_longlong
	.par usb_audio_core,usb_audio_io,"/Users/rkn/Documents/xTIMEcomposer/workspace/module_usb_audio/main.xc:550:5: error: use of `%s\' violates parallel usage rules\n    par\n    ^~~"
	.par usage.anon.11,usage.anon.12,"/Users/rkn/Documents/xTIMEcomposer/workspace/module_usb_audio/main.xc:429:5: error: use of `%s\' violates parallel usage rules\n    par\n    ^~~"
	.par usage.anon.7,usage.anon.8,"/Users/rkn/Documents/xTIMEcomposer/workspace/module_usb_audio/main.xc:310:5: error: use of `%s\' violates parallel usage rules\n    par\n    ^~~"
	.par usage.anon.7,usage.anon.9,"/Users/rkn/Documents/xTIMEcomposer/workspace/module_usb_audio/main.xc:310:5: error: use of `%s\' violates parallel usage rules\n    par\n    ^~~"
	.par usage.anon.7,usage.anon.10,"/Users/rkn/Documents/xTIMEcomposer/workspace/module_usb_audio/main.xc:310:5: error: use of `%s\' violates parallel usage rules\n    par\n    ^~~"
	.par usage.anon.8,usage.anon.9,"/Users/rkn/Documents/xTIMEcomposer/workspace/module_usb_audio/main.xc:310:5: error: use of `%s\' violates parallel usage rules\n    par\n    ^~~"
	.par usage.anon.8,usage.anon.10,"/Users/rkn/Documents/xTIMEcomposer/workspace/module_usb_audio/main.xc:310:5: error: use of `%s\' violates parallel usage rules\n    par\n    ^~~"
	.par usage.anon.9,usage.anon.10,"/Users/rkn/Documents/xTIMEcomposer/workspace/module_usb_audio/main.xc:310:5: error: use of `%s\' violates parallel usage rules\n    par\n    ^~~"
	.set usage.anon.3.locnoside, 0
	.set usage.anon.6.locnoside, 0
	.set usb_audio_core.locnoside, 0
	.set usb_audio_io.locnoside, 0
	.set main.locnoside, 0
	.set usb_audio_core.locnochandec, 0
	.set usb_audio_io.locnochandec, 0
	.set main.locnochandec, 0
	.set usb_audio_core.locnoglobalaccess, 0
	.globpassesref buffer, p_for_mclk_count,"/Users/rkn/Documents/xTIMEcomposer/workspace/module_usb_audio/main.xc:340:13: error: call to `buffer\' in `usb_audio_core\' makes alias of global \'p_for_mclk_count\'\n            buffer(c_xud_out[ENDPOINT_NUMBER_OUT_AUDIO],    /* Audio Out*/\n            ^~~~~~~~~~~~~~~~~~~~~~~~~~~~~~~~~~~~~~~~~~~~~~~~~~~~~~~~~~~~~~"
	.globpassesref XUD_Manager, epTypeTableIn,"/Users/rkn/Documents/xTIMEcomposer/workspace/module_usb_audio/main.xc:314:9: error: call to `XUD_Manager\' in `usb_audio_core\' makes alias of global \'epTypeTableIn\'\n        XUD_Manager(c_xud_out, ENDPOINT_COUNT_OUT, c_xud_in, ENDPOINT_COUNT_IN,\n        ^~~~~~~~~~~~~~~~~~~~~~~~~~~~~~~~~~~~~~~~~~~~~~~~~~~~~~~~~~~~~~~~~~~~~~~"
	.globpassesref XUD_Manager, epTypeTableOut,"/Users/rkn/Documents/xTIMEcomposer/workspace/module_usb_audio/main.xc:314:9: error: call to `XUD_Manager\' in `usb_audio_core\' makes alias of global \'epTypeTableOut\'\n        XUD_Manager(c_xud_out, ENDPOINT_COUNT_OUT, c_xud_in, ENDPOINT_COUNT_IN,\n        ^~~~~~~~~~~~~~~~~~~~~~~~~~~~~~~~~~~~~~~~~~~~~~~~~~~~~~~~~~~~~~~~~~~~~~~"
	.overlay_subgraph_conflict usb_audio_core.task.XUD_Manager.0, usb_audio_core.task.buffer.1, usb_audio_core.task.Endpoint0.2, usb_audio_core.task.decouple.3
	.overlay_subgraph_conflict _Susb_audio_core_0.task.XUD_Manager.0, _Susb_audio_core_0.task.buffer.1, _Susb_audio_core_0.task.Endpoint0.2, _Susb_audio_core_0.task.decouple.3
	.overlay_subgraph_conflict usb_audio_io.task.mixer.0, usb_audio_io.task.audio.1
	.overlay_subgraph_conflict _Susb_audio_io_0.task.mixer.0, _Susb_audio_io_0.task.audio.1

                                        # End of file scope inline assembly
	.text
	.weak	_i.i_dfu._chan.finish
	.align	4
	.type	_i.i_dfu._chan.finish,@function
	.cc_top _i.i_dfu._chan.finish.function,_i.i_dfu._chan.finish
_i.i_dfu._chan.finish:                  # @_i.i_dfu._chan.finish
	.cfi_startproc
	.issue_mode dual
# BB#0:                                 # %allocas
	#DEBUG_VALUE: _i.i_dfu._chan.finish:dest <- R0
	{
		getr r1, 2
		dualentsp 0
	}
	{
		setd res[r1], r0
		add r0, r1, 1
	}
	{
		out res[r1], r0
		nop
	}
	{
		outct res[r1], 2
		nop
	}
	{
		in r0, res[r1]
		nop
	}
	{
		chkct res[r1], 1
		nop
	}
	{
		freer res[r1]
		retsp 0
	}
	# RETURN_REG_HOLDER
	.cc_bottom _i.i_dfu._chan.finish.function
	.set	_i.i_dfu._chan.finish.nstackwords,0
	.globl	_i.i_dfu._chan.finish.nstackwords
	.weak	_i.i_dfu._chan.finish.nstackwords
	.set	_i.i_dfu._chan.finish.maxcores,1
	.globl	_i.i_dfu._chan.finish.maxcores
	.weak	_i.i_dfu._chan.finish.maxcores
	.set	_i.i_dfu._chan.finish.maxtimers,0
	.globl	_i.i_dfu._chan.finish.maxtimers
	.weak	_i.i_dfu._chan.finish.maxtimers
	.set	_i.i_dfu._chan.finish.maxchanends,1
	.globl	_i.i_dfu._chan.finish.maxchanends
	.weak	_i.i_dfu._chan.finish.maxchanends
.Ltmp0:
	.size	_i.i_dfu._chan.finish, .Ltmp0-_i.i_dfu._chan.finish
	.cfi_endproc

	.weak	_i.i_dfu._chan.HandleDfuRequest
	.align	4
	.type	_i.i_dfu._chan.HandleDfuRequest,@function
	.cc_top _i.i_dfu._chan.HandleDfuRequest.function,_i.i_dfu._chan.HandleDfuRequest
_i.i_dfu._chan.HandleDfuRequest:        # @_i.i_dfu._chan.HandleDfuRequest
	.cfi_startproc
	.issue_mode dual
# BB#0:                                 # %allocas
	{
		nop
		dualentsp 6
	}
.Ltmp1:
	.cfi_def_cfa_offset 24
.Ltmp2:
	.cfi_offset 15, 0
	std r5, r4, sp[2]               # 4-byte Folded Spill
.Ltmp3:
	.cfi_offset 4, -8
.Ltmp4:
	.cfi_offset 5, -4
	#DEBUG_VALUE: _i.i_dfu._chan.HandleDfuRequest:dest <- R0
	#DEBUG_VALUE: _i.i_dfu._chan.HandleDfuRequest:param1 <- R1
	#DEBUG_VALUE: _i.i_dfu._chan.HandleDfuRequest:param2 <- R2
	#DEBUG_VALUE: _i.i_dfu._chan.HandleDfuRequest:param3 <- R3
	#DEBUG_VALUE: _i.i_dfu._chan.HandleDfuRequest:param4 <- [SP+28]
	{
		nop
		ldw r11, sp[7]
	}
	{
		getr r4, 2
		ldw r5, sp[8]
	}
	{
		setd res[r4], r0
		nop
	}
	{
		out res[r4], r4
		nop
	}
	{
		outct res[r4], 2
		nop
	}
	{
		chkct res[r4], 1
		stw r1, sp[2]
	}
	{
		out res[r4], r5
		stw r2, sp[3]
	}
	{
		out res[r4], r3
		nop
	}
	{
		out res[r4], r11
		nop
	}
	{
		outct res[r4], 2
		ldaw r1, sp[2]
	}
	{
		mov r0, r4
		nop
	}
	bl __interface_client_call
	{
		in r0, res[r4]
		nop
	}
	{
		in r1, res[r4]
		nop
	}
	{
		in r2, res[r4]
		nop
	}
	{
		in r3, res[r4]
		nop
	}
	{
		in r11, res[r4]
		nop
	}
	{
		chkct res[r4], 1
		nop
	}
	{
		freer res[r4]
		stw r11, sp[9]
	}
	ldd r5, r4, sp[2]               # 4-byte Folded Reload
	{
		nop
		retsp 6
	}
	# RETURN_REG_HOLDER
	.cc_bottom _i.i_dfu._chan.HandleDfuRequest.function
	.set	_i.i_dfu._chan.HandleDfuRequest.nstackwords,(__interface_client_call.nstackwords + 6)
	.globl	_i.i_dfu._chan.HandleDfuRequest.nstackwords
	.weak	_i.i_dfu._chan.HandleDfuRequest.nstackwords
	.set	_i.i_dfu._chan.HandleDfuRequest.maxcores,__interface_client_call.maxcores $M 1
	.globl	_i.i_dfu._chan.HandleDfuRequest.maxcores
	.weak	_i.i_dfu._chan.HandleDfuRequest.maxcores
	.set	_i.i_dfu._chan.HandleDfuRequest.maxtimers,__interface_client_call.maxtimers $M 0
	.globl	_i.i_dfu._chan.HandleDfuRequest.maxtimers
	.weak	_i.i_dfu._chan.HandleDfuRequest.maxtimers
	.set	_i.i_dfu._chan.HandleDfuRequest.maxchanends,(1 + __interface_client_call.maxchanends) $M 1
	.globl	_i.i_dfu._chan.HandleDfuRequest.maxchanends
	.weak	_i.i_dfu._chan.HandleDfuRequest.maxchanends
.Ltmp5:
	.size	_i.i_dfu._chan.HandleDfuRequest, .Ltmp5-_i.i_dfu._chan.HandleDfuRequest
	.cfi_endproc

	.weak	_i.i_dfu._chan_yield.finish
	.align	4
	.type	_i.i_dfu._chan_yield.finish,@function
	.cc_top _i.i_dfu._chan_yield.finish.function,_i.i_dfu._chan_yield.finish
_i.i_dfu._chan_yield.finish:            # @_i.i_dfu._chan_yield.finish
	.cfi_startproc
	.issue_mode dual
# BB#0:                                 # %allocas
	{
		nop
		dualentsp 4
	}
.Ltmp6:
	.cfi_def_cfa_offset 16
.Ltmp7:
	.cfi_offset 15, 0
	{
		nop
		stw r4, sp[2]
	}
.Ltmp8:
	.cfi_offset 4, -8
	#DEBUG_VALUE: _i.i_dfu._chan_yield.finish:s <- R0
	{
		getr r4, 2
		ldw r1, r0[0]
	}
	{
		setd res[r4], r1
		add r1, r4, 1
	}
	{
		out res[r4], r1
		nop
	}
	{
		outct res[r4], 2
		ldw r2, r0[1]
	}
	{
		ldc r1, 0
		mov r0, r4
	}
	bl __interface_client_call_y
	{
		chkct res[r4], 1
		nop
	}
	{
		freer res[r4]
		ldw r4, sp[2]
	}
	{
		nop
		retsp 4
	}
	# RETURN_REG_HOLDER
	.cc_bottom _i.i_dfu._chan_yield.finish.function
	.set	_i.i_dfu._chan_yield.finish.nstackwords,((_i.i_dfu._client_call_y.max.nstackwords $M ($D __interface_client_call_y.nstackwords ? __interface_client_call_y.nstackwords $: _i.i_dfu._client_call_y.max.nstackwords)) + 4)
	.globl	_i.i_dfu._chan_yield.finish.nstackwords
	.weak	_i.i_dfu._chan_yield.finish.nstackwords
	.set	_i.i_dfu._chan_yield.finish.maxcores,($D __interface_client_call_y.maxcores ? __interface_client_call_y.maxcores $: _i.i_dfu._client_call_y.max.maxcores) $M 1
	.globl	_i.i_dfu._chan_yield.finish.maxcores
	.weak	_i.i_dfu._chan_yield.finish.maxcores
	.set	_i.i_dfu._chan_yield.finish.maxtimers,($D __interface_client_call_y.maxtimers ? __interface_client_call_y.maxtimers $: _i.i_dfu._client_call_y.max.maxtimers) $M 0
	.globl	_i.i_dfu._chan_yield.finish.maxtimers
	.weak	_i.i_dfu._chan_yield.finish.maxtimers
	.set	_i.i_dfu._chan_yield.finish.maxchanends,(1 + ($D __interface_client_call_y.maxchanends ? __interface_client_call_y.maxchanends $: _i.i_dfu._client_call_y.max.maxchanends)) $M 1
	.globl	_i.i_dfu._chan_yield.finish.maxchanends
	.weak	_i.i_dfu._chan_yield.finish.maxchanends
.Ltmp9:
	.size	_i.i_dfu._chan_yield.finish, .Ltmp9-_i.i_dfu._chan_yield.finish
	.cfi_endproc

	.weak	_i.i_dfu._chan_yield.HandleDfuRequest
	.align	4
	.type	_i.i_dfu._chan_yield.HandleDfuRequest,@function
	.cc_top _i.i_dfu._chan_yield.HandleDfuRequest.function,_i.i_dfu._chan_yield.HandleDfuRequest
_i.i_dfu._chan_yield.HandleDfuRequest:  # @_i.i_dfu._chan_yield.HandleDfuRequest
	.cfi_startproc
	.issue_mode dual
# BB#0:                                 # %allocas
	{
		nop
		dualentsp 8
	}
.Ltmp10:
	.cfi_def_cfa_offset 32
.Ltmp11:
	.cfi_offset 15, 0
	std r5, r4, sp[2]               # 4-byte Folded Spill
.Ltmp12:
	.cfi_offset 4, -16
.Ltmp13:
	.cfi_offset 5, -12
	{
		nop
		stw r6, sp[6]
	}
.Ltmp14:
	.cfi_offset 6, -8
	#DEBUG_VALUE: _i.i_dfu._chan_yield.HandleDfuRequest:s <- R0
	#DEBUG_VALUE: _i.i_dfu._chan_yield.HandleDfuRequest:param1 <- R1
	#DEBUG_VALUE: _i.i_dfu._chan_yield.HandleDfuRequest:param2 <- R2
	#DEBUG_VALUE: _i.i_dfu._chan_yield.HandleDfuRequest:param3 <- R3
	#DEBUG_VALUE: _i.i_dfu._chan_yield.HandleDfuRequest:param4 <- [SP+36]
	{
		nop
		ldw r11, sp[9]
	}
	{
		nop
		ldw r5, sp[10]
	}
	{
		getr r4, 2
		ldw r6, r0[0]
	}
	{
		setd res[r4], r6
		nop
	}
	{
		out res[r4], r4
		nop
	}
	{
		outct res[r4], 2
		nop
	}
	{
		chkct res[r4], 1
		stw r1, sp[2]
	}
	{
		out res[r4], r5
		stw r2, sp[3]
	}
	{
		out res[r4], r3
		nop
	}
	{
		out res[r4], r11
		nop
	}
	{
		outct res[r4], 2
		ldw r2, r0[1]
	}
	{
		ldaw r1, sp[2]
		mov r0, r4
	}
	bl __interface_client_call_y
	{
		in r0, res[r4]
		nop
	}
	{
		in r1, res[r4]
		nop
	}
	{
		in r2, res[r4]
		nop
	}
	{
		in r3, res[r4]
		nop
	}
	{
		in r11, res[r4]
		nop
	}
	{
		chkct res[r4], 1
		nop
	}
	{
		freer res[r4]
		stw r11, sp[11]
	}
	{
		nop
		ldw r6, sp[6]
	}
	ldd r5, r4, sp[2]               # 4-byte Folded Reload
	{
		nop
		retsp 8
	}
	# RETURN_REG_HOLDER
	.cc_bottom _i.i_dfu._chan_yield.HandleDfuRequest.function
	.set	_i.i_dfu._chan_yield.HandleDfuRequest.nstackwords,((_i.i_dfu._client_call_y.max.nstackwords $M ($D __interface_client_call_y.nstackwords ? __interface_client_call_y.nstackwords $: _i.i_dfu._client_call_y.max.nstackwords)) + 8)
	.globl	_i.i_dfu._chan_yield.HandleDfuRequest.nstackwords
	.weak	_i.i_dfu._chan_yield.HandleDfuRequest.nstackwords
	.set	_i.i_dfu._chan_yield.HandleDfuRequest.maxcores,($D __interface_client_call_y.maxcores ? __interface_client_call_y.maxcores $: _i.i_dfu._client_call_y.max.maxcores) $M 1
	.globl	_i.i_dfu._chan_yield.HandleDfuRequest.maxcores
	.weak	_i.i_dfu._chan_yield.HandleDfuRequest.maxcores
	.set	_i.i_dfu._chan_yield.HandleDfuRequest.maxtimers,($D __interface_client_call_y.maxtimers ? __interface_client_call_y.maxtimers $: _i.i_dfu._client_call_y.max.maxtimers) $M 0
	.globl	_i.i_dfu._chan_yield.HandleDfuRequest.maxtimers
	.weak	_i.i_dfu._chan_yield.HandleDfuRequest.maxtimers
	.set	_i.i_dfu._chan_yield.HandleDfuRequest.maxchanends,(1 + ($D __interface_client_call_y.maxchanends ? __interface_client_call_y.maxchanends $: _i.i_dfu._client_call_y.max.maxchanends)) $M 1
	.globl	_i.i_dfu._chan_yield.HandleDfuRequest.maxchanends
	.weak	_i.i_dfu._chan_yield.HandleDfuRequest.maxchanends
.Ltmp15:
	.size	_i.i_dfu._chan_yield.HandleDfuRequest, .Ltmp15-_i.i_dfu._chan_yield.HandleDfuRequest
	.cfi_endproc

	.globl	thread_speed
	.align	4
	.type	thread_speed,@function
	.cc_top thread_speed.function,thread_speed
thread_speed:                           # @thread_speed
.Lfunc_begin4:
	.loc	1 254 0                 # /Users/rkn/Documents/xTIMEcomposer/workspace/module_usb_audio/main.xc:254:0
	.cfi_startproc
	.issue_mode dual
# BB#0:                                 # %allocas
.Lxtalabel0:
	{
		nop
		dualentsp 0
	}
	.loc	1 259 0 prologue_end    # /Users/rkn/Documents/xTIMEcomposer/workspace/module_usb_audio/main.xc:259:0
.Ltmp16:
	clrsr 128
	{
		nop
		retsp 0
	}
	# RETURN_REG_HOLDER
.Ltmp17:
	.cc_bottom thread_speed.function
	.set	thread_speed.nstackwords,0
	.globl	thread_speed.nstackwords
	.set	thread_speed.maxcores,1
	.globl	thread_speed.maxcores
	.set	thread_speed.maxtimers,0
	.globl	thread_speed.maxtimers
	.set	thread_speed.maxchanends,0
	.globl	thread_speed.maxchanends
.Ltmp18:
	.size	thread_speed, .Ltmp18-thread_speed
.Lfunc_end4:
	.cfi_endproc

	.globl	xscope_user_init
	.align	4
	.type	xscope_user_init,@function
	.cc_top xscope_user_init.function,xscope_user_init
xscope_user_init:                       # @xscope_user_init
.Lfunc_begin5:
	.loc	1 265 0                 # /Users/rkn/Documents/xTIMEcomposer/workspace/module_usb_audio/main.xc:265:0
	.cfi_startproc
	.issue_mode dual
# BB#0:                                 # %allocas
.Lxtalabel1:
	{
		nop
		dualentsp 2
	}
.Ltmp19:
	.cfi_def_cfa_offset 8
.Ltmp20:
	.cfi_offset 15, 0
	.loc	1 266 0 prologue_end    # /Users/rkn/Documents/xTIMEcomposer/workspace/module_usb_audio/main.xc:266:0
.Ltmp21:
	ldaw r11, cp[.str3]
	{
		nop
		stw r11, sp[1]
	}
	ldaw r11, cp[.str]
	{
		ldc r0, 0
		nop
	}
	{
		mov r1, r0
		mov r2, r11
	}
	{
		mov r3, r0
		nop
	}
.Lxta.call_labels0:
	bl xscope_register
	{
		mkmsk r0, 1
		nop
	}
	.loc	1 268 0                 # /Users/rkn/Documents/xTIMEcomposer/workspace/module_usb_audio/main.xc:268:0
.Lxta.call_labels1:
	bl xscope_config_io
	{
		nop
		retsp 2
	}
	# RETURN_REG_HOLDER
.Ltmp22:
	.cc_bottom xscope_user_init.function
	.set	xscope_user_init.nstackwords,((xscope_register.nstackwords $M xscope_config_io.nstackwords) + 2)
	.globl	xscope_user_init.nstackwords
	.set	xscope_user_init.maxcores,xscope_config_io.maxcores $M xscope_register.maxcores $M 1
	.globl	xscope_user_init.maxcores
	.set	xscope_user_init.maxtimers,xscope_config_io.maxtimers $M xscope_register.maxtimers $M 0
	.globl	xscope_user_init.maxtimers
	.set	xscope_user_init.maxchanends,xscope_config_io.maxchanends $M xscope_register.maxchanends $M 0
	.globl	xscope_user_init.maxchanends
.Ltmp23:
	.size	xscope_user_init, .Ltmp23-xscope_user_init
.Lfunc_end5:
	.cfi_endproc

	.globl	usb_audio_core
	.align	4
	.type	usb_audio_core,@function
	.cc_top usb_audio_core.function,usb_audio_core
usb_audio_core:                         # @usb_audio_core
.Lfunc_begin6:
	.loc	1 290 0                 # /Users/rkn/Documents/xTIMEcomposer/workspace/module_usb_audio/main.xc:290:0
	.cfi_startproc
	.issue_mode dual
# BB#0:                                 # %allocas
.Lxtalabel2:
	{
		nop
		dualentsp 22
	}
.Ltmp24:
	.cfi_def_cfa_offset 88
.Ltmp25:
	.cfi_offset 15, 0
	#DEBUG_VALUE: usb_audio_core:c_clk_int <- R2
	{
		nop
		ldw r2, sp[23]
	}
.Ltmp26:
	{
		nop
		stw r0, sp[2]
	}
	{
		nop
		stw r1, sp[3]
	}
	{
		nop
		stw r3, sp[4]
	}
	{
		getr r0, 2
		stw r2, sp[5]
	}
	.loc	1 291 0 prologue_end    # /Users/rkn/Documents/xTIMEcomposer/workspace/module_usb_audio/main.xc:291:0
.Ltmp27:
	{
		getr r1, 2
		nop
	}
	.loc	1 291 0                 # /Users/rkn/Documents/xTIMEcomposer/workspace/module_usb_audio/main.xc:291:0
	{
		setd res[r0], r1
		nop
	}
	.loc	1 291 0                 # /Users/rkn/Documents/xTIMEcomposer/workspace/module_usb_audio/main.xc:291:0
	{
		setd res[r1], r0
		stw r0, sp[6]
	}
	.loc	1 291 0                 # /Users/rkn/Documents/xTIMEcomposer/workspace/module_usb_audio/main.xc:291:0
	{
		getr r0, 2
		stw r1, sp[7]
	}
	.loc	1 292 0                 # /Users/rkn/Documents/xTIMEcomposer/workspace/module_usb_audio/main.xc:292:0
.Ltmp28:
	{
		getr r1, 2
		nop
	}
	.loc	1 292 0                 # /Users/rkn/Documents/xTIMEcomposer/workspace/module_usb_audio/main.xc:292:0
	{
		setd res[r0], r1
		nop
	}
	.loc	1 292 0                 # /Users/rkn/Documents/xTIMEcomposer/workspace/module_usb_audio/main.xc:292:0
	{
		setd res[r1], r0
		stw r0, sp[9]
	}
	.loc	1 292 0                 # /Users/rkn/Documents/xTIMEcomposer/workspace/module_usb_audio/main.xc:292:0
	{
		getr r0, 2
		stw r1, sp[11]
	}
	.loc	1 292 0                 # /Users/rkn/Documents/xTIMEcomposer/workspace/module_usb_audio/main.xc:292:0
	{
		getr r1, 2
		nop
	}
	.loc	1 292 0                 # /Users/rkn/Documents/xTIMEcomposer/workspace/module_usb_audio/main.xc:292:0
	{
		setd res[r0], r1
		nop
	}
	.loc	1 292 0                 # /Users/rkn/Documents/xTIMEcomposer/workspace/module_usb_audio/main.xc:292:0
	{
		setd res[r1], r0
		stw r0, sp[8]
	}
	.loc	1 292 0                 # /Users/rkn/Documents/xTIMEcomposer/workspace/module_usb_audio/main.xc:292:0
	{
		getr r0, 2
		stw r1, sp[10]
	}
	.loc	1 293 0                 # /Users/rkn/Documents/xTIMEcomposer/workspace/module_usb_audio/main.xc:293:0
.Ltmp29:
	{
		getr r1, 2
		nop
	}
	.loc	1 293 0                 # /Users/rkn/Documents/xTIMEcomposer/workspace/module_usb_audio/main.xc:293:0
	{
		setd res[r0], r1
		nop
	}
	.loc	1 293 0                 # /Users/rkn/Documents/xTIMEcomposer/workspace/module_usb_audio/main.xc:293:0
	{
		setd res[r1], r0
		stw r0, sp[15]
	}
	.loc	1 293 0                 # /Users/rkn/Documents/xTIMEcomposer/workspace/module_usb_audio/main.xc:293:0
	{
		getr r0, 2
		stw r1, sp[19]
	}
	.loc	1 293 0                 # /Users/rkn/Documents/xTIMEcomposer/workspace/module_usb_audio/main.xc:293:0
	{
		getr r1, 2
		nop
	}
	.loc	1 293 0                 # /Users/rkn/Documents/xTIMEcomposer/workspace/module_usb_audio/main.xc:293:0
	{
		setd res[r0], r1
		nop
	}
	.loc	1 293 0                 # /Users/rkn/Documents/xTIMEcomposer/workspace/module_usb_audio/main.xc:293:0
	{
		setd res[r1], r0
		stw r0, sp[14]
	}
	.loc	1 293 0                 # /Users/rkn/Documents/xTIMEcomposer/workspace/module_usb_audio/main.xc:293:0
	{
		getr r0, 2
		stw r1, sp[18]
	}
	.loc	1 293 0                 # /Users/rkn/Documents/xTIMEcomposer/workspace/module_usb_audio/main.xc:293:0
	{
		getr r1, 2
		nop
	}
	.loc	1 293 0                 # /Users/rkn/Documents/xTIMEcomposer/workspace/module_usb_audio/main.xc:293:0
	{
		setd res[r0], r1
		nop
	}
	.loc	1 293 0                 # /Users/rkn/Documents/xTIMEcomposer/workspace/module_usb_audio/main.xc:293:0
	{
		setd res[r1], r0
		stw r0, sp[13]
	}
	.loc	1 293 0                 # /Users/rkn/Documents/xTIMEcomposer/workspace/module_usb_audio/main.xc:293:0
	{
		getr r0, 2
		stw r1, sp[17]
	}
	.loc	1 293 0                 # /Users/rkn/Documents/xTIMEcomposer/workspace/module_usb_audio/main.xc:293:0
	{
		getr r1, 2
		nop
	}
	.loc	1 293 0                 # /Users/rkn/Documents/xTIMEcomposer/workspace/module_usb_audio/main.xc:293:0
	{
		setd res[r0], r1
		nop
	}
	.loc	1 293 0                 # /Users/rkn/Documents/xTIMEcomposer/workspace/module_usb_audio/main.xc:293:0
	{
		setd res[r1], r0
		stw r0, sp[12]
	}
	.loc	1 293 0                 # /Users/rkn/Documents/xTIMEcomposer/workspace/module_usb_audio/main.xc:293:0
	{
		getr r0, 2
		stw r1, sp[16]
	}
	.loc	1 294 0                 # /Users/rkn/Documents/xTIMEcomposer/workspace/module_usb_audio/main.xc:294:0
.Ltmp30:
	{
		getr r1, 2
		nop
	}
	.loc	1 294 0                 # /Users/rkn/Documents/xTIMEcomposer/workspace/module_usb_audio/main.xc:294:0
	{
		setd res[r0], r1
		nop
	}
	.loc	1 294 0                 # /Users/rkn/Documents/xTIMEcomposer/workspace/module_usb_audio/main.xc:294:0
	{
		setd res[r1], r0
		stw r0, sp[20]
	}
	{
		nop
		stw r1, sp[21]
	}
	.loc	1 294 0                 # /Users/rkn/Documents/xTIMEcomposer/workspace/module_usb_audio/main.xc:294:0
	ldaw r1, dp[par.desc.1]
	{
		ldaw r0, sp[2]
		nop
	}
	#DEBUG_VALUE: usb_audio_core:c_mix_out <- [R0+0]
	bl __start_other_cores
.Ltmp31:
	{
		nop
		ldw r0, sp[20]
	}
	{
		freer res[r0]
		ldw r1, sp[21]
	}
	{
		freer res[r1]
		ldw r0, sp[15]
	}
	{
		freer res[r0]
		ldw r1, sp[19]
	}
	{
		freer res[r1]
		ldw r0, sp[14]
	}
	{
		freer res[r0]
		ldw r1, sp[18]
	}
	{
		freer res[r1]
		ldw r0, sp[13]
	}
	{
		freer res[r0]
		ldw r1, sp[17]
	}
	{
		freer res[r1]
		ldw r0, sp[12]
	}
	{
		freer res[r0]
		ldw r1, sp[16]
	}
	{
		freer res[r1]
		ldw r0, sp[9]
	}
	{
		freer res[r0]
		ldw r1, sp[11]
	}
	{
		freer res[r1]
		ldw r0, sp[8]
	}
	{
		freer res[r0]
		ldw r1, sp[10]
	}
	{
		freer res[r1]
		ldw r0, sp[6]
	}
	{
		freer res[r0]
		ldw r1, sp[7]
	}
	{
		freer res[r1]
		retsp 22
	}
	# RETURN_REG_HOLDER
.Ltmp32:
	.cc_bottom usb_audio_core.function
	.set	usb_audio_core.nstackwords,((par.extra_stackwords + usb_audio_core.task.XUD_Manager.0.nstackwords + ((1 + usb_audio_core.task.buffer.1.nstackwords) $A 2) + ((1 + usb_audio_core.task.Endpoint0.2.nstackwords) $A 2) + ((1 + usb_audio_core.task.decouple.3.nstackwords) $A 2)) + 22)
	.globl	usb_audio_core.nstackwords
	.set	usb_audio_core.maxcores,(0 + usb_audio_core.task.XUD_Manager.0.maxcores + usb_audio_core.task.buffer.1.maxcores + usb_audio_core.task.Endpoint0.2.maxcores + usb_audio_core.task.decouple.3.maxcores) $M 1
	.globl	usb_audio_core.maxcores
	.set	usb_audio_core.maxtimers,(3 + usb_audio_core.task.XUD_Manager.0.maxtimers + usb_audio_core.task.buffer.1.maxtimers + usb_audio_core.task.Endpoint0.2.maxtimers + usb_audio_core.task.decouple.3.maxtimers) $M 0
	.globl	usb_audio_core.maxtimers
	.set	usb_audio_core.maxchanends,(16 + (0 + usb_audio_core.task.XUD_Manager.0.maxchanends + usb_audio_core.task.buffer.1.maxchanends + usb_audio_core.task.Endpoint0.2.maxchanends + usb_audio_core.task.decouple.3.maxchanends)) $M 16
	.globl	usb_audio_core.maxchanends
.Ltmp33:
	.size	usb_audio_core, .Ltmp33-usb_audio_core
.Lfunc_end6:
	.cfi_endproc

	.align	4
	.type	usb_audio_core.task.XUD_Manager.0,@function
	.cc_top usb_audio_core.task.XUD_Manager.0.function,usb_audio_core.task.XUD_Manager.0
usb_audio_core.task.XUD_Manager.0:      # @usb_audio_core.task.XUD_Manager.0
.Lfunc_begin7:
	.loc	1 314 0                 # /Users/rkn/Documents/xTIMEcomposer/workspace/module_usb_audio/main.xc:314:0
	.cfi_startproc
	.issue_mode dual
# BB#0:                                 # %allocas
	{
		nop
		dualentsp 16
	}
.Ltmp34:
	.cfi_def_cfa_offset 64
.Ltmp35:
	.cfi_offset 15, 0
	std r5, r4, sp[7]               # 4-byte Folded Spill
.Ltmp36:
	.cfi_offset 4, -8
.Ltmp37:
	.cfi_offset 5, -4
	#DEBUG_VALUE: usb_audio_core.task.XUD_Manager.0:frame <- R0
	.loc	1 314 0 prologue_end    # /Users/rkn/Documents/xTIMEcomposer/workspace/module_usb_audio/main.xc:314:0
.Ltmp38:
	ldaw r11, r0[6]
	.loc	1 314 0                 # /Users/rkn/Documents/xTIMEcomposer/workspace/module_usb_audio/main.xc:314:0
	ldaw r2, r0[10]
	.loc	1 314 0                 # /Users/rkn/Documents/xTIMEcomposer/workspace/module_usb_audio/main.xc:314:0
	{
		ldc r1, 2
		ldw r0, r0[4]
	}
.Ltmp39:
	{
		ldc r3, 4
		nop
	}
	.loc	1 314 0                 # /Users/rkn/Documents/xTIMEcomposer/workspace/module_usb_audio/main.xc:314:0
	std r1, r3, sp[5]
	{
		mkmsk r4, 1
		nop
	}
	std r1, r4, sp[4]
	std r1, r4, sp[3]
	ldaw r4, dp[epTypeTableIn]
	ldaw r5, dp[epTypeTableOut]
	std r4, r5, sp[1]
	{
		ldc r4, 0
		stw r3, sp[12]
	}
	std r4, r4, sp[2]
	{
		mov r0, r11
		stw r0, sp[1]
	}
.Lxta.call_labels2:
	bl XUD_Manager
	ldd r5, r4, sp[7]               # 4-byte Folded Reload
	{
		nop
		retsp 16
	}
	# RETURN_REG_HOLDER
.Ltmp40:
	.cc_bottom usb_audio_core.task.XUD_Manager.0.function
	.set	usb_audio_core.task.XUD_Manager.0.nstackwords,(XUD_Manager.nstackwords + 16)
	.set	usb_audio_core.task.XUD_Manager.0.maxcores,XUD_Manager.maxcores $M 1
	.set	usb_audio_core.task.XUD_Manager.0.maxtimers,XUD_Manager.maxtimers $M 0
	.set	usb_audio_core.task.XUD_Manager.0.maxchanends,XUD_Manager.maxchanends $M 0
.Ltmp41:
	.size	usb_audio_core.task.XUD_Manager.0, .Ltmp41-usb_audio_core.task.XUD_Manager.0
.Lfunc_end7:
	.cfi_endproc

	.align	4
	.type	usb_audio_core.task.buffer.1,@function
	.cc_top usb_audio_core.task.buffer.1.function,usb_audio_core.task.buffer.1
usb_audio_core.task.buffer.1:           # @usb_audio_core.task.buffer.1
.Lfunc_begin8:
	.loc	1 324 0                 # /Users/rkn/Documents/xTIMEcomposer/workspace/module_usb_audio/main.xc:324:0
	.cfi_startproc
	.issue_mode dual
# BB#0:                                 # %allocas
.Lxtalabel3:
	{
		nop
		dualentsp 8
	}
.Ltmp42:
	.cfi_def_cfa_offset 32
.Ltmp43:
	.cfi_offset 15, 0
	std r5, r4, sp[2]               # 4-byte Folded Spill
.Ltmp44:
	.cfi_offset 4, -16
.Ltmp45:
	.cfi_offset 5, -12
	{
		nop
		stw r6, sp[6]
	}
.Ltmp46:
	.cfi_offset 6, -8
	#DEBUG_VALUE: usb_audio_core.task.buffer.1:frame <- R0
	.loc	1 259 0 prologue_end    # /Users/rkn/Documents/xTIMEcomposer/workspace/module_usb_audio/main.xc:259:0
.Ltmp47:
	clrsr 128
.Ltmp48:
	.loc	1 331 0                 # /Users/rkn/Documents/xTIMEcomposer/workspace/module_usb_audio/main.xc:331:0
	ldw r1, dp[clk_audio_mclk2]
	.loc	1 331 0                 # /Users/rkn/Documents/xTIMEcomposer/workspace/module_usb_audio/main.xc:331:0
	ldw r2, dp[p_mclk_in2]
	.loc	1 331 0                 # /Users/rkn/Documents/xTIMEcomposer/workspace/module_usb_audio/main.xc:331:0
	setclk res[r1], r2
	.loc	1 332 0                 # /Users/rkn/Documents/xTIMEcomposer/workspace/module_usb_audio/main.xc:332:0
	ldw r4, dp[p_for_mclk_count]
	.loc	1 332 0                 # /Users/rkn/Documents/xTIMEcomposer/workspace/module_usb_audio/main.xc:332:0
	setclk res[r4], r1
	.loc	1 333 0                 # /Users/rkn/Documents/xTIMEcomposer/workspace/module_usb_audio/main.xc:333:0
	{
		setc res[r1], 15
		ldw r11, r0[9]
	}
	ldc r1, 64
	.loc	1 340 0                 # /Users/rkn/Documents/xTIMEcomposer/workspace/module_usb_audio/main.xc:340:0
	{
		add r1, r0, r1
		nop
	}
	.loc	1 340 0                 # /Users/rkn/Documents/xTIMEcomposer/workspace/module_usb_audio/main.xc:340:0
	{
		ldc r2, 60
		ldw r1, r1[0]
	}
	.loc	1 340 0                 # /Users/rkn/Documents/xTIMEcomposer/workspace/module_usb_audio/main.xc:340:0
	{
		add r2, r0, r2
		nop
	}
	{
		nop
		ldw r2, r2[0]
	}
	{
		nop
		ldw r3, r0[5]
	}
	ldc r5, 72
	.loc	1 340 0                 # /Users/rkn/Documents/xTIMEcomposer/workspace/module_usb_audio/main.xc:340:0
	{
		add r5, r0, r5
		nop
	}
	{
		nop
		ldw r5, r5[0]
	}
	ldc r6, 68
	.loc	1 340 0                 # /Users/rkn/Documents/xTIMEcomposer/workspace/module_usb_audio/main.xc:340:0
	{
		add r0, r0, r6
		nop
	}
.Ltmp49:
	{
		nop
		ldw r0, r0[0]
	}
	.loc	1 340 0                 # /Users/rkn/Documents/xTIMEcomposer/workspace/module_usb_audio/main.xc:340:0
	std r0, r4, sp[1]
	{
		mov r0, r11
		stw r5, sp[1]
	}
.Lxta.call_labels3:
	bl buffer
	{
		nop
		ldw r6, sp[6]
	}
	ldd r5, r4, sp[2]               # 4-byte Folded Reload
	{
		nop
		retsp 8
	}
	# RETURN_REG_HOLDER
.Ltmp50:
	.cc_bottom usb_audio_core.task.buffer.1.function
	.set	usb_audio_core.task.buffer.1.nstackwords,(buffer.nstackwords + 8)
	.set	usb_audio_core.task.buffer.1.maxcores,buffer.maxcores $M 1
	.set	usb_audio_core.task.buffer.1.maxtimers,buffer.maxtimers $M 0
	.set	usb_audio_core.task.buffer.1.maxchanends,buffer.maxchanends $M 0
.Ltmp51:
	.size	usb_audio_core.task.buffer.1, .Ltmp51-usb_audio_core.task.buffer.1
.Lfunc_end8:
	.cfi_endproc

	.align	4
	.type	usb_audio_core.task.Endpoint0.2,@function
	.cc_top usb_audio_core.task.Endpoint0.2.function,usb_audio_core.task.Endpoint0.2
usb_audio_core.task.Endpoint0.2:        # @usb_audio_core.task.Endpoint0.2
.Lfunc_begin9:
	.loc	1 381 0                 # /Users/rkn/Documents/xTIMEcomposer/workspace/module_usb_audio/main.xc:381:0
	.cfi_startproc
	.issue_mode dual
# BB#0:                                 # %allocas
.Lxtalabel4:
	{
		nop
		dualentsp 6
	}
.Ltmp52:
	.cfi_def_cfa_offset 24
.Ltmp53:
	.cfi_offset 15, 0
	std r5, r4, sp[2]               # 4-byte Folded Spill
.Ltmp54:
	.cfi_offset 4, -8
.Ltmp55:
	.cfi_offset 5, -4
	#DEBUG_VALUE: usb_audio_core.task.Endpoint0.2:frame <- R0
	.loc	1 259 0 prologue_end    # /Users/rkn/Documents/xTIMEcomposer/workspace/module_usb_audio/main.xc:259:0
.Ltmp56:
	clrsr 128
	{
		nop
		ldw r11, r0[3]
	}
.Ltrap_info0:
	{
		ecallf r11
		nop
	}
	#DEBUG_VALUE: usb_audio_core.task.Endpoint0.2:frame <- R0
	{
		nop
		ldw r4, r0[2]
	}
	{
		nop
		ldw r3, r0[1]
	}
	ldc r1, 76
.Ltmp57:
	.loc	1 383 0                 # /Users/rkn/Documents/xTIMEcomposer/workspace/module_usb_audio/main.xc:383:0
	{
		add r1, r0, r1
		nop
	}
	.loc	1 383 0                 # /Users/rkn/Documents/xTIMEcomposer/workspace/module_usb_audio/main.xc:383:0
	{
		ldc r1, 56
		ldw r2, r1[0]
	}
	.loc	1 383 0                 # /Users/rkn/Documents/xTIMEcomposer/workspace/module_usb_audio/main.xc:383:0
	{
		add r1, r0, r1
		nop
	}
	{
		nop
		ldw r1, r1[0]
	}
	.loc	1 383 0                 # /Users/rkn/Documents/xTIMEcomposer/workspace/module_usb_audio/main.xc:383:0
	{
		ldc r5, 0
		ldw r0, r0[8]
	}
.Ltmp58:
	.loc	1 383 0                 # /Users/rkn/Documents/xTIMEcomposer/workspace/module_usb_audio/main.xc:383:0
	std r11, r5, sp[1]
	{
		nop
		stw r4, sp[1]
	}
.Lxta.call_labels4:
	bl Endpoint0
	ldd r5, r4, sp[2]               # 4-byte Folded Reload
	{
		nop
		retsp 6
	}
	# RETURN_REG_HOLDER
.Ltmp59:
	.cc_bottom usb_audio_core.task.Endpoint0.2.function
	.set	usb_audio_core.task.Endpoint0.2.nstackwords,(Endpoint0.nstackwords + 6)
	.set	usb_audio_core.task.Endpoint0.2.maxcores,Endpoint0.maxcores $M 1
	.set	usb_audio_core.task.Endpoint0.2.maxtimers,Endpoint0.maxtimers $M 0
	.set	usb_audio_core.task.Endpoint0.2.maxchanends,Endpoint0.maxchanends $M 0
.Ltmp60:
	.size	usb_audio_core.task.Endpoint0.2, .Ltmp60-usb_audio_core.task.Endpoint0.2
.Lfunc_end9:
	.cfi_endproc

	.align	4
	.type	usb_audio_core.task.decouple.3,@function
	.cc_top usb_audio_core.task.decouple.3.function,usb_audio_core.task.decouple.3
usb_audio_core.task.decouple.3:         # @usb_audio_core.task.decouple.3
.Lfunc_begin10:
	.loc	1 387 0                 # /Users/rkn/Documents/xTIMEcomposer/workspace/module_usb_audio/main.xc:387:0
	.cfi_startproc
	.issue_mode dual
# BB#0:                                 # %allocas
.Lxtalabel5:
	{
		nop
		dualentsp 2
	}
.Ltmp61:
	.cfi_def_cfa_offset 8
.Ltmp62:
	.cfi_offset 15, 0
	#DEBUG_VALUE: usb_audio_core.task.decouple.3:frame <- R0
	.loc	1 259 0 prologue_end    # /Users/rkn/Documents/xTIMEcomposer/workspace/module_usb_audio/main.xc:259:0
.Ltmp63:
	clrsr 128
	{
		nop
		ldw r0, r0[0]
	}
.Ltmp64:
	.loc	1 389 0                 # /Users/rkn/Documents/xTIMEcomposer/workspace/module_usb_audio/main.xc:389:0
.Lxta.call_labels5:
	bl decouple
	{
		nop
		retsp 2
	}
	# RETURN_REG_HOLDER
.Ltmp65:
	.cc_bottom usb_audio_core.task.decouple.3.function
	.set	usb_audio_core.task.decouple.3.nstackwords,(decouple.nstackwords + 2)
	.set	usb_audio_core.task.decouple.3.maxcores,decouple.maxcores $M 1
	.set	usb_audio_core.task.decouple.3.maxtimers,decouple.maxtimers $M 0
	.set	usb_audio_core.task.decouple.3.maxchanends,decouple.maxchanends $M 0
.Ltmp66:
	.size	usb_audio_core.task.decouple.3, .Ltmp66-usb_audio_core.task.decouple.3
.Lfunc_end10:
	.cfi_endproc

	.globl	_Susb_audio_core_0
	.align	4
	.type	_Susb_audio_core_0,@function
	.cc_top _Susb_audio_core_0.function,_Susb_audio_core_0
_Susb_audio_core_0:                     # @_Susb_audio_core_0
.Lfunc_begin11:
	.loc	1 290 0                 # /Users/rkn/Documents/xTIMEcomposer/workspace/module_usb_audio/main.xc:290:0
	.cfi_startproc
	.issue_mode dual
# BB#0:                                 # %allocas
.Lxtalabel6:
	{
		nop
		dualentsp 22
	}
.Ltmp67:
	.cfi_def_cfa_offset 88
.Ltmp68:
	.cfi_offset 15, 0
	{
		nop
		stw r0, sp[2]
	}
	{
		nop
		stw r1, sp[3]
	}
.Ltmp69:
	#DEBUG_VALUE: c_clk_int <- R0
	{
		ldc r0, 0
		stw r2, sp[4]
	}
.Ltmp70:
	.loc	1 287 0 prologue_end    # /Users/rkn/Documents/xTIMEcomposer/workspace/module_usb_audio/main.xc:287:0
	{
		getr r0, 2
		stw r0, sp[5]
	}
	.loc	1 291 0                 # /Users/rkn/Documents/xTIMEcomposer/workspace/module_usb_audio/main.xc:291:0
.Ltmp71:
	{
		getr r1, 2
		nop
	}
	.loc	1 291 0                 # /Users/rkn/Documents/xTIMEcomposer/workspace/module_usb_audio/main.xc:291:0
	{
		setd res[r0], r1
		nop
	}
	.loc	1 291 0                 # /Users/rkn/Documents/xTIMEcomposer/workspace/module_usb_audio/main.xc:291:0
	{
		setd res[r1], r0
		stw r0, sp[6]
	}
	.loc	1 291 0                 # /Users/rkn/Documents/xTIMEcomposer/workspace/module_usb_audio/main.xc:291:0
	{
		getr r0, 2
		stw r1, sp[7]
	}
	.loc	1 292 0                 # /Users/rkn/Documents/xTIMEcomposer/workspace/module_usb_audio/main.xc:292:0
.Ltmp72:
	{
		getr r1, 2
		nop
	}
	.loc	1 292 0                 # /Users/rkn/Documents/xTIMEcomposer/workspace/module_usb_audio/main.xc:292:0
	{
		setd res[r0], r1
		nop
	}
	.loc	1 292 0                 # /Users/rkn/Documents/xTIMEcomposer/workspace/module_usb_audio/main.xc:292:0
	{
		setd res[r1], r0
		stw r0, sp[9]
	}
	.loc	1 292 0                 # /Users/rkn/Documents/xTIMEcomposer/workspace/module_usb_audio/main.xc:292:0
	{
		getr r0, 2
		stw r1, sp[11]
	}
	.loc	1 292 0                 # /Users/rkn/Documents/xTIMEcomposer/workspace/module_usb_audio/main.xc:292:0
	{
		getr r1, 2
		nop
	}
	.loc	1 292 0                 # /Users/rkn/Documents/xTIMEcomposer/workspace/module_usb_audio/main.xc:292:0
	{
		setd res[r0], r1
		nop
	}
	.loc	1 292 0                 # /Users/rkn/Documents/xTIMEcomposer/workspace/module_usb_audio/main.xc:292:0
	{
		setd res[r1], r0
		stw r0, sp[8]
	}
	.loc	1 292 0                 # /Users/rkn/Documents/xTIMEcomposer/workspace/module_usb_audio/main.xc:292:0
	{
		getr r0, 2
		stw r1, sp[10]
	}
	.loc	1 293 0                 # /Users/rkn/Documents/xTIMEcomposer/workspace/module_usb_audio/main.xc:293:0
.Ltmp73:
	{
		getr r1, 2
		nop
	}
	.loc	1 293 0                 # /Users/rkn/Documents/xTIMEcomposer/workspace/module_usb_audio/main.xc:293:0
	{
		setd res[r0], r1
		nop
	}
	.loc	1 293 0                 # /Users/rkn/Documents/xTIMEcomposer/workspace/module_usb_audio/main.xc:293:0
	{
		setd res[r1], r0
		stw r0, sp[15]
	}
	.loc	1 293 0                 # /Users/rkn/Documents/xTIMEcomposer/workspace/module_usb_audio/main.xc:293:0
	{
		getr r0, 2
		stw r1, sp[19]
	}
	.loc	1 293 0                 # /Users/rkn/Documents/xTIMEcomposer/workspace/module_usb_audio/main.xc:293:0
	{
		getr r1, 2
		nop
	}
	.loc	1 293 0                 # /Users/rkn/Documents/xTIMEcomposer/workspace/module_usb_audio/main.xc:293:0
	{
		setd res[r0], r1
		nop
	}
	.loc	1 293 0                 # /Users/rkn/Documents/xTIMEcomposer/workspace/module_usb_audio/main.xc:293:0
	{
		setd res[r1], r0
		stw r0, sp[14]
	}
	.loc	1 293 0                 # /Users/rkn/Documents/xTIMEcomposer/workspace/module_usb_audio/main.xc:293:0
	{
		getr r0, 2
		stw r1, sp[18]
	}
	.loc	1 293 0                 # /Users/rkn/Documents/xTIMEcomposer/workspace/module_usb_audio/main.xc:293:0
	{
		getr r1, 2
		nop
	}
	.loc	1 293 0                 # /Users/rkn/Documents/xTIMEcomposer/workspace/module_usb_audio/main.xc:293:0
	{
		setd res[r0], r1
		nop
	}
	.loc	1 293 0                 # /Users/rkn/Documents/xTIMEcomposer/workspace/module_usb_audio/main.xc:293:0
	{
		setd res[r1], r0
		stw r0, sp[13]
	}
	.loc	1 293 0                 # /Users/rkn/Documents/xTIMEcomposer/workspace/module_usb_audio/main.xc:293:0
	{
		getr r0, 2
		stw r1, sp[17]
	}
	.loc	1 293 0                 # /Users/rkn/Documents/xTIMEcomposer/workspace/module_usb_audio/main.xc:293:0
	{
		getr r1, 2
		nop
	}
	.loc	1 293 0                 # /Users/rkn/Documents/xTIMEcomposer/workspace/module_usb_audio/main.xc:293:0
	{
		setd res[r0], r1
		nop
	}
	.loc	1 293 0                 # /Users/rkn/Documents/xTIMEcomposer/workspace/module_usb_audio/main.xc:293:0
	{
		setd res[r1], r0
		stw r0, sp[12]
	}
	.loc	1 293 0                 # /Users/rkn/Documents/xTIMEcomposer/workspace/module_usb_audio/main.xc:293:0
	{
		getr r0, 2
		stw r1, sp[16]
	}
	.loc	1 294 0                 # /Users/rkn/Documents/xTIMEcomposer/workspace/module_usb_audio/main.xc:294:0
.Ltmp74:
	{
		getr r1, 2
		nop
	}
	.loc	1 294 0                 # /Users/rkn/Documents/xTIMEcomposer/workspace/module_usb_audio/main.xc:294:0
	{
		setd res[r0], r1
		nop
	}
	.loc	1 294 0                 # /Users/rkn/Documents/xTIMEcomposer/workspace/module_usb_audio/main.xc:294:0
	{
		setd res[r1], r0
		stw r0, sp[20]
	}
	{
		nop
		stw r1, sp[21]
	}
	.loc	1 294 0                 # /Users/rkn/Documents/xTIMEcomposer/workspace/module_usb_audio/main.xc:294:0
	ldaw r1, dp[par.desc.2]
	{
		ldaw r0, sp[2]
		nop
	}
	#DEBUG_VALUE: usb_audio_core:c_mix_out <- [R0+0]
	bl __start_other_cores
.Ltmp75:
	{
		nop
		ldw r0, sp[20]
	}
	{
		freer res[r0]
		ldw r1, sp[21]
	}
	{
		freer res[r1]
		ldw r0, sp[15]
	}
	{
		freer res[r0]
		ldw r1, sp[19]
	}
	{
		freer res[r1]
		ldw r0, sp[14]
	}
	{
		freer res[r0]
		ldw r1, sp[18]
	}
	{
		freer res[r1]
		ldw r0, sp[13]
	}
	{
		freer res[r0]
		ldw r1, sp[17]
	}
	{
		freer res[r1]
		ldw r0, sp[12]
	}
	{
		freer res[r0]
		ldw r1, sp[16]
	}
	{
		freer res[r1]
		ldw r0, sp[9]
	}
	{
		freer res[r0]
		ldw r1, sp[11]
	}
	{
		freer res[r1]
		ldw r0, sp[8]
	}
	{
		freer res[r0]
		ldw r1, sp[10]
	}
	{
		freer res[r1]
		ldw r0, sp[6]
	}
	{
		freer res[r0]
		ldw r1, sp[7]
	}
	{
		freer res[r1]
		retsp 22
	}
	# RETURN_REG_HOLDER
.Ltmp76:
	.cc_bottom _Susb_audio_core_0.function
	.set	_Susb_audio_core_0.nstackwords,((par.extra_stackwords + _Susb_audio_core_0.task.XUD_Manager.0.nstackwords + ((1 + _Susb_audio_core_0.task.buffer.1.nstackwords) $A 2) + ((1 + _Susb_audio_core_0.task.Endpoint0.2.nstackwords) $A 2) + ((1 + _Susb_audio_core_0.task.decouple.3.nstackwords) $A 2)) + 22)
	.globl	_Susb_audio_core_0.nstackwords
	.set	_Susb_audio_core_0.maxcores,(0 + _Susb_audio_core_0.task.XUD_Manager.0.maxcores + _Susb_audio_core_0.task.buffer.1.maxcores + _Susb_audio_core_0.task.Endpoint0.2.maxcores + _Susb_audio_core_0.task.decouple.3.maxcores) $M 1
	.globl	_Susb_audio_core_0.maxcores
	.set	_Susb_audio_core_0.maxtimers,(3 + _Susb_audio_core_0.task.XUD_Manager.0.maxtimers + _Susb_audio_core_0.task.buffer.1.maxtimers + _Susb_audio_core_0.task.Endpoint0.2.maxtimers + _Susb_audio_core_0.task.decouple.3.maxtimers) $M 0
	.globl	_Susb_audio_core_0.maxtimers
	.set	_Susb_audio_core_0.maxchanends,(16 + (0 + _Susb_audio_core_0.task.XUD_Manager.0.maxchanends + _Susb_audio_core_0.task.buffer.1.maxchanends + _Susb_audio_core_0.task.Endpoint0.2.maxchanends + _Susb_audio_core_0.task.decouple.3.maxchanends)) $M 16
	.globl	_Susb_audio_core_0.maxchanends
.Ltmp77:
	.size	_Susb_audio_core_0, .Ltmp77-_Susb_audio_core_0
.Lfunc_end11:
	.cfi_endproc

	.align	4
	.type	_Susb_audio_core_0.task.XUD_Manager.0,@function
	.cc_top _Susb_audio_core_0.task.XUD_Manager.0.function,_Susb_audio_core_0.task.XUD_Manager.0
_Susb_audio_core_0.task.XUD_Manager.0:  # @_Susb_audio_core_0.task.XUD_Manager.0
.Lfunc_begin12:
	.loc	1 314 0                 # /Users/rkn/Documents/xTIMEcomposer/workspace/module_usb_audio/main.xc:314:0
	.cfi_startproc
	.issue_mode dual
# BB#0:                                 # %allocas
	{
		nop
		dualentsp 16
	}
.Ltmp78:
	.cfi_def_cfa_offset 64
.Ltmp79:
	.cfi_offset 15, 0
	std r5, r4, sp[7]               # 4-byte Folded Spill
.Ltmp80:
	.cfi_offset 4, -8
.Ltmp81:
	.cfi_offset 5, -4
	#DEBUG_VALUE: _Susb_audio_core_0.task.XUD_Manager.0:frame <- R0
	.loc	1 314 0 prologue_end    # /Users/rkn/Documents/xTIMEcomposer/workspace/module_usb_audio/main.xc:314:0
.Ltmp82:
	ldaw r11, r0[6]
	.loc	1 314 0                 # /Users/rkn/Documents/xTIMEcomposer/workspace/module_usb_audio/main.xc:314:0
	ldaw r2, r0[10]
	.loc	1 314 0                 # /Users/rkn/Documents/xTIMEcomposer/workspace/module_usb_audio/main.xc:314:0
	{
		ldc r1, 2
		ldw r0, r0[4]
	}
.Ltmp83:
	{
		ldc r3, 4
		nop
	}
	.loc	1 314 0                 # /Users/rkn/Documents/xTIMEcomposer/workspace/module_usb_audio/main.xc:314:0
	std r1, r3, sp[5]
	{
		mkmsk r4, 1
		nop
	}
	std r1, r4, sp[4]
	std r1, r4, sp[3]
	ldaw r4, dp[epTypeTableIn]
	ldaw r5, dp[epTypeTableOut]
	std r4, r5, sp[1]
	{
		ldc r4, 0
		stw r3, sp[12]
	}
	std r4, r4, sp[2]
	{
		mov r0, r11
		stw r0, sp[1]
	}
.Lxta.call_labels6:
	bl XUD_Manager
	ldd r5, r4, sp[7]               # 4-byte Folded Reload
	{
		nop
		retsp 16
	}
	# RETURN_REG_HOLDER
.Ltmp84:
	.cc_bottom _Susb_audio_core_0.task.XUD_Manager.0.function
	.set	_Susb_audio_core_0.task.XUD_Manager.0.nstackwords,(XUD_Manager.nstackwords + 16)
	.set	_Susb_audio_core_0.task.XUD_Manager.0.maxcores,XUD_Manager.maxcores $M 1
	.set	_Susb_audio_core_0.task.XUD_Manager.0.maxtimers,XUD_Manager.maxtimers $M 0
	.set	_Susb_audio_core_0.task.XUD_Manager.0.maxchanends,XUD_Manager.maxchanends $M 0
.Ltmp85:
	.size	_Susb_audio_core_0.task.XUD_Manager.0, .Ltmp85-_Susb_audio_core_0.task.XUD_Manager.0
.Lfunc_end12:
	.cfi_endproc

	.align	4
	.type	_Susb_audio_core_0.task.buffer.1,@function
	.cc_top _Susb_audio_core_0.task.buffer.1.function,_Susb_audio_core_0.task.buffer.1
_Susb_audio_core_0.task.buffer.1:       # @_Susb_audio_core_0.task.buffer.1
.Lfunc_begin13:
	.loc	1 324 0                 # /Users/rkn/Documents/xTIMEcomposer/workspace/module_usb_audio/main.xc:324:0
	.cfi_startproc
	.issue_mode dual
# BB#0:                                 # %allocas
.Lxtalabel7:
	{
		nop
		dualentsp 8
	}
.Ltmp86:
	.cfi_def_cfa_offset 32
.Ltmp87:
	.cfi_offset 15, 0
	std r5, r4, sp[2]               # 4-byte Folded Spill
.Ltmp88:
	.cfi_offset 4, -16
.Ltmp89:
	.cfi_offset 5, -12
	{
		nop
		stw r6, sp[6]
	}
.Ltmp90:
	.cfi_offset 6, -8
	#DEBUG_VALUE: _Susb_audio_core_0.task.buffer.1:frame <- R0
	.loc	1 259 0 prologue_end    # /Users/rkn/Documents/xTIMEcomposer/workspace/module_usb_audio/main.xc:259:0
.Ltmp91:
	clrsr 128
.Ltmp92:
	.loc	1 331 0                 # /Users/rkn/Documents/xTIMEcomposer/workspace/module_usb_audio/main.xc:331:0
	ldw r1, dp[clk_audio_mclk2]
	.loc	1 331 0                 # /Users/rkn/Documents/xTIMEcomposer/workspace/module_usb_audio/main.xc:331:0
	ldw r2, dp[p_mclk_in2]
	.loc	1 331 0                 # /Users/rkn/Documents/xTIMEcomposer/workspace/module_usb_audio/main.xc:331:0
	setclk res[r1], r2
	.loc	1 332 0                 # /Users/rkn/Documents/xTIMEcomposer/workspace/module_usb_audio/main.xc:332:0
	ldw r4, dp[p_for_mclk_count]
	.loc	1 332 0                 # /Users/rkn/Documents/xTIMEcomposer/workspace/module_usb_audio/main.xc:332:0
	setclk res[r4], r1
	.loc	1 333 0                 # /Users/rkn/Documents/xTIMEcomposer/workspace/module_usb_audio/main.xc:333:0
	{
		setc res[r1], 15
		ldw r11, r0[9]
	}
	ldc r1, 64
	.loc	1 340 0                 # /Users/rkn/Documents/xTIMEcomposer/workspace/module_usb_audio/main.xc:340:0
	{
		add r1, r0, r1
		nop
	}
	.loc	1 340 0                 # /Users/rkn/Documents/xTIMEcomposer/workspace/module_usb_audio/main.xc:340:0
	{
		ldc r2, 60
		ldw r1, r1[0]
	}
	.loc	1 340 0                 # /Users/rkn/Documents/xTIMEcomposer/workspace/module_usb_audio/main.xc:340:0
	{
		add r2, r0, r2
		nop
	}
	{
		nop
		ldw r2, r2[0]
	}
	{
		nop
		ldw r3, r0[5]
	}
	ldc r5, 72
	.loc	1 340 0                 # /Users/rkn/Documents/xTIMEcomposer/workspace/module_usb_audio/main.xc:340:0
	{
		add r5, r0, r5
		nop
	}
	{
		nop
		ldw r5, r5[0]
	}
	ldc r6, 68
	.loc	1 340 0                 # /Users/rkn/Documents/xTIMEcomposer/workspace/module_usb_audio/main.xc:340:0
	{
		add r0, r0, r6
		nop
	}
.Ltmp93:
	{
		nop
		ldw r0, r0[0]
	}
	.loc	1 340 0                 # /Users/rkn/Documents/xTIMEcomposer/workspace/module_usb_audio/main.xc:340:0
	std r0, r4, sp[1]
	{
		mov r0, r11
		stw r5, sp[1]
	}
.Lxta.call_labels7:
	bl buffer
	{
		nop
		ldw r6, sp[6]
	}
	ldd r5, r4, sp[2]               # 4-byte Folded Reload
	{
		nop
		retsp 8
	}
	# RETURN_REG_HOLDER
.Ltmp94:
	.cc_bottom _Susb_audio_core_0.task.buffer.1.function
	.set	_Susb_audio_core_0.task.buffer.1.nstackwords,(buffer.nstackwords + 8)
	.set	_Susb_audio_core_0.task.buffer.1.maxcores,buffer.maxcores $M 1
	.set	_Susb_audio_core_0.task.buffer.1.maxtimers,buffer.maxtimers $M 0
	.set	_Susb_audio_core_0.task.buffer.1.maxchanends,buffer.maxchanends $M 0
.Ltmp95:
	.size	_Susb_audio_core_0.task.buffer.1, .Ltmp95-_Susb_audio_core_0.task.buffer.1
.Lfunc_end13:
	.cfi_endproc

	.align	4
	.type	_Susb_audio_core_0.task.Endpoint0.2,@function
	.cc_top _Susb_audio_core_0.task.Endpoint0.2.function,_Susb_audio_core_0.task.Endpoint0.2
_Susb_audio_core_0.task.Endpoint0.2:    # @_Susb_audio_core_0.task.Endpoint0.2
.Lfunc_begin14:
	.loc	1 381 0                 # /Users/rkn/Documents/xTIMEcomposer/workspace/module_usb_audio/main.xc:381:0
	.cfi_startproc
	.issue_mode dual
# BB#0:                                 # %allocas
.Lxtalabel8:
	{
		nop
		dualentsp 6
	}
.Ltmp96:
	.cfi_def_cfa_offset 24
.Ltmp97:
	.cfi_offset 15, 0
	std r5, r4, sp[2]               # 4-byte Folded Spill
.Ltmp98:
	.cfi_offset 4, -8
.Ltmp99:
	.cfi_offset 5, -4
	#DEBUG_VALUE: _Susb_audio_core_0.task.Endpoint0.2:frame <- R0
	.loc	1 259 0 prologue_end    # /Users/rkn/Documents/xTIMEcomposer/workspace/module_usb_audio/main.xc:259:0
.Ltmp100:
	clrsr 128
	{
		nop
		ldw r11, r0[2]
	}
.Ltrap_info1:
	{
		ecallf r11
		nop
	}
	#DEBUG_VALUE: _Susb_audio_core_0.task.Endpoint0.2:frame <- R0
	{
		nop
		ldw r4, r0[3]
	}
	{
		nop
		ldw r3, r0[1]
	}
	ldc r1, 76
.Ltmp101:
	.loc	1 383 0                 # /Users/rkn/Documents/xTIMEcomposer/workspace/module_usb_audio/main.xc:383:0
	{
		add r1, r0, r1
		nop
	}
	.loc	1 383 0                 # /Users/rkn/Documents/xTIMEcomposer/workspace/module_usb_audio/main.xc:383:0
	{
		ldc r1, 56
		ldw r2, r1[0]
	}
	.loc	1 383 0                 # /Users/rkn/Documents/xTIMEcomposer/workspace/module_usb_audio/main.xc:383:0
	{
		add r1, r0, r1
		nop
	}
	{
		nop
		ldw r1, r1[0]
	}
	.loc	1 383 0                 # /Users/rkn/Documents/xTIMEcomposer/workspace/module_usb_audio/main.xc:383:0
	{
		ldc r5, 0
		ldw r0, r0[8]
	}
.Ltmp102:
	.loc	1 383 0                 # /Users/rkn/Documents/xTIMEcomposer/workspace/module_usb_audio/main.xc:383:0
	std r11, r5, sp[1]
	{
		nop
		stw r4, sp[1]
	}
.Lxta.call_labels8:
	bl Endpoint0
	ldd r5, r4, sp[2]               # 4-byte Folded Reload
	{
		nop
		retsp 6
	}
	# RETURN_REG_HOLDER
.Ltmp103:
	.cc_bottom _Susb_audio_core_0.task.Endpoint0.2.function
	.set	_Susb_audio_core_0.task.Endpoint0.2.nstackwords,(Endpoint0.nstackwords + 6)
	.set	_Susb_audio_core_0.task.Endpoint0.2.maxcores,Endpoint0.maxcores $M 1
	.set	_Susb_audio_core_0.task.Endpoint0.2.maxtimers,Endpoint0.maxtimers $M 0
	.set	_Susb_audio_core_0.task.Endpoint0.2.maxchanends,Endpoint0.maxchanends $M 0
.Ltmp104:
	.size	_Susb_audio_core_0.task.Endpoint0.2, .Ltmp104-_Susb_audio_core_0.task.Endpoint0.2
.Lfunc_end14:
	.cfi_endproc

	.align	4
	.type	_Susb_audio_core_0.task.decouple.3,@function
	.cc_top _Susb_audio_core_0.task.decouple.3.function,_Susb_audio_core_0.task.decouple.3
_Susb_audio_core_0.task.decouple.3:     # @_Susb_audio_core_0.task.decouple.3
.Lfunc_begin15:
	.loc	1 387 0                 # /Users/rkn/Documents/xTIMEcomposer/workspace/module_usb_audio/main.xc:387:0
	.cfi_startproc
	.issue_mode dual
# BB#0:                                 # %allocas
.Lxtalabel9:
	{
		nop
		dualentsp 2
	}
.Ltmp105:
	.cfi_def_cfa_offset 8
.Ltmp106:
	.cfi_offset 15, 0
	#DEBUG_VALUE: _Susb_audio_core_0.task.decouple.3:frame <- R0
	.loc	1 259 0 prologue_end    # /Users/rkn/Documents/xTIMEcomposer/workspace/module_usb_audio/main.xc:259:0
.Ltmp107:
	clrsr 128
	{
		nop
		ldw r0, r0[0]
	}
.Ltmp108:
	.loc	1 389 0                 # /Users/rkn/Documents/xTIMEcomposer/workspace/module_usb_audio/main.xc:389:0
.Lxta.call_labels9:
	bl decouple
	{
		nop
		retsp 2
	}
	# RETURN_REG_HOLDER
.Ltmp109:
	.cc_bottom _Susb_audio_core_0.task.decouple.3.function
	.set	_Susb_audio_core_0.task.decouple.3.nstackwords,(decouple.nstackwords + 2)
	.set	_Susb_audio_core_0.task.decouple.3.maxcores,decouple.maxcores $M 1
	.set	_Susb_audio_core_0.task.decouple.3.maxtimers,decouple.maxtimers $M 0
	.set	_Susb_audio_core_0.task.decouple.3.maxchanends,decouple.maxchanends $M 0
.Ltmp110:
	.size	_Susb_audio_core_0.task.decouple.3, .Ltmp110-_Susb_audio_core_0.task.decouple.3
.Lfunc_end15:
	.cfi_endproc

	.globl	usb_audio_io
	.align	4
	.type	usb_audio_io,@function
	.cc_top usb_audio_io.function,usb_audio_io
usb_audio_io:                           # @usb_audio_io
.Lfunc_begin16:
	.loc	1 418 0                 # /Users/rkn/Documents/xTIMEcomposer/workspace/module_usb_audio/main.xc:418:0
	.cfi_startproc
	.issue_mode dual
# BB#0:                                 # %allocas
.Lxtalabel10:
	{
		nop
		dualentsp 10
	}
.Ltmp111:
	.cfi_def_cfa_offset 40
.Ltmp112:
	.cfi_offset 15, 0
	{
		nop
		stw r4, sp[8]
	}
.Ltmp113:
	.cfi_offset 4, -8
	#DEBUG_VALUE: usb_audio_io:c_spdif_rx <- [SP+44]
	ldd r4, r11, sp[7]
	{
		nop
		stw r0, sp[1]
	}
	{
		nop
		stw r1, sp[2]
	}
	{
		nop
		stw r2, sp[3]
	}
	{
		nop
		stw r3, sp[4]
	}
	{
		getr r0, 2
		stw r4, sp[5]
	}
	.loc	1 420 0 prologue_end    # /Users/rkn/Documents/xTIMEcomposer/workspace/module_usb_audio/main.xc:420:0
.Ltmp114:
	{
		getr r1, 2
		nop
	}
	.loc	1 420 0                 # /Users/rkn/Documents/xTIMEcomposer/workspace/module_usb_audio/main.xc:420:0
	{
		setd res[r0], r1
		nop
	}
	.loc	1 420 0                 # /Users/rkn/Documents/xTIMEcomposer/workspace/module_usb_audio/main.xc:420:0
	{
		setd res[r1], r0
		stw r0, sp[6]
	}
	{
		nop
		stw r1, sp[7]
	}
	.loc	1 420 0                 # /Users/rkn/Documents/xTIMEcomposer/workspace/module_usb_audio/main.xc:420:0
	ldaw r1, dp[par.desc.3]
	{
		ldaw r0, sp[1]
		nop
	}
	#DEBUG_VALUE: usb_audio_io:c_aud_in <- [R0+0]
	bl __start_other_cores
.Ltmp115:
	.cc_bottom usb_audio_io.function
	.set	usb_audio_io.nstackwords,((par.extra_stackwords + usb_audio_io.task.mixer.0.nstackwords + ((1 + usb_audio_io.task.audio.1.nstackwords) $A 2)) + 10)
	.globl	usb_audio_io.nstackwords
	.set	usb_audio_io.maxcores,(0 + usb_audio_io.task.mixer.0.maxcores + usb_audio_io.task.audio.1.maxcores) $M 1
	.globl	usb_audio_io.maxcores
	.set	usb_audio_io.maxtimers,(1 + usb_audio_io.task.mixer.0.maxtimers + usb_audio_io.task.audio.1.maxtimers) $M 0
	.globl	usb_audio_io.maxtimers
	.set	usb_audio_io.maxchanends,(2 + (0 + usb_audio_io.task.mixer.0.maxchanends + usb_audio_io.task.audio.1.maxchanends)) $M 2
	.globl	usb_audio_io.maxchanends
.Ltmp116:
	.size	usb_audio_io, .Ltmp116-usb_audio_io
.Lfunc_end16:
	.cfi_endproc

	.align	4
	.type	usb_audio_io.task.mixer.0,@function
	.cc_top usb_audio_io.task.mixer.0.function,usb_audio_io.task.mixer.0
usb_audio_io.task.mixer.0:              # @usb_audio_io.task.mixer.0
.Lfunc_begin17:
	.loc	1 433 0                 # /Users/rkn/Documents/xTIMEcomposer/workspace/module_usb_audio/main.xc:433:0
	.cfi_startproc
	.issue_mode dual
# BB#0:                                 # %allocas
.Lxtalabel11:
	{
		nop
		dualentsp 2
	}
.Ltmp117:
	.cfi_def_cfa_offset 8
.Ltmp118:
	.cfi_offset 15, 0
	#DEBUG_VALUE: usb_audio_io.task.mixer.0:frame <- R0
	.loc	1 259 0 prologue_end    # /Users/rkn/Documents/xTIMEcomposer/workspace/module_usb_audio/main.xc:259:0
.Ltmp119:
	clrsr 128
	{
		nop
		ldw r3, r0[0]
	}
	{
		nop
		ldw r1, r0[5]
	}
.Ltmp120:
	.loc	1 435 0                 # /Users/rkn/Documents/xTIMEcomposer/workspace/module_usb_audio/main.xc:435:0
	{
		mov r0, r3
		ldw r2, r0[2]
	}
.Ltmp121:
	.loc	1 435 0                 # /Users/rkn/Documents/xTIMEcomposer/workspace/module_usb_audio/main.xc:435:0
.Lxta.call_labels10:
	bl mixer
	{
		nop
		retsp 2
	}
	# RETURN_REG_HOLDER
.Ltmp122:
	.cc_bottom usb_audio_io.task.mixer.0.function
	.set	usb_audio_io.task.mixer.0.nstackwords,(mixer.nstackwords + 2)
	.set	usb_audio_io.task.mixer.0.maxcores,mixer.maxcores $M 1
	.set	usb_audio_io.task.mixer.0.maxtimers,mixer.maxtimers $M 0
	.set	usb_audio_io.task.mixer.0.maxchanends,mixer.maxchanends $M 0
.Ltmp123:
	.size	usb_audio_io.task.mixer.0, .Ltmp123-usb_audio_io.task.mixer.0
.Lfunc_end17:
	.cfi_endproc

	.align	4
	.type	usb_audio_io.task.audio.1,@function
	.cc_top usb_audio_io.task.audio.1.function,usb_audio_io.task.audio.1
usb_audio_io.task.audio.1:              # @usb_audio_io.task.audio.1
.Lfunc_begin18:
	.loc	1 439 0                 # /Users/rkn/Documents/xTIMEcomposer/workspace/module_usb_audio/main.xc:439:0
	.cfi_startproc
	.issue_mode dual
# BB#0:                                 # %allocas
.Lxtalabel12:
	{
		nop
		dualentsp 2
	}
.Ltmp124:
	.cfi_def_cfa_offset 8
.Ltmp125:
	.cfi_offset 15, 0
	#DEBUG_VALUE: usb_audio_io.task.audio.1:frame <- R0
	.loc	1 259 0 prologue_end    # /Users/rkn/Documents/xTIMEcomposer/workspace/module_usb_audio/main.xc:259:0
.Ltmp126:
	clrsr 128
	{
		nop
		ldw r11, r0[6]
	}
	{
		nop
		ldw r1, r0[3]
	}
	{
		nop
		ldw r2, r0[1]
	}
.Ltmp127:
	.loc	1 446 0                 # /Users/rkn/Documents/xTIMEcomposer/workspace/module_usb_audio/main.xc:446:0
	{
		mov r0, r11
		ldw r3, r0[4]
	}
.Ltmp128:
	.loc	1 446 0                 # /Users/rkn/Documents/xTIMEcomposer/workspace/module_usb_audio/main.xc:446:0
.Lxta.call_labels11:
	bl audio
.Ltmp129:
	.cc_bottom usb_audio_io.task.audio.1.function
	.set	usb_audio_io.task.audio.1.nstackwords,(audio.nstackwords + 2)
	.set	usb_audio_io.task.audio.1.maxcores,audio.maxcores $M 1
	.set	usb_audio_io.task.audio.1.maxtimers,audio.maxtimers $M 0
	.set	usb_audio_io.task.audio.1.maxchanends,audio.maxchanends $M 0
.Ltmp130:
	.size	usb_audio_io.task.audio.1, .Ltmp130-usb_audio_io.task.audio.1
.Lfunc_end18:
	.cfi_endproc

	.globl	_Susb_audio_io_0
	.align	4
	.type	_Susb_audio_io_0,@function
	.cc_top _Susb_audio_io_0.function,_Susb_audio_io_0
_Susb_audio_io_0:                       # @_Susb_audio_io_0
.Lfunc_begin19:
	.loc	1 418 0                 # /Users/rkn/Documents/xTIMEcomposer/workspace/module_usb_audio/main.xc:418:0
	.cfi_startproc
	.issue_mode dual
# BB#0:                                 # %allocas
.Lxtalabel13:
	{
		nop
		dualentsp 8
	}
.Ltmp131:
	.cfi_def_cfa_offset 32
.Ltmp132:
	.cfi_offset 15, 0
	{
		nop
		stw r0, sp[1]
	}
	{
		nop
		stw r1, sp[2]
	}
.Ltmp133:
	#DEBUG_VALUE: c_spdif_rx <- R0
	{
		ldc r0, 0
		stw r2, sp[3]
	}
.Ltmp134:
	{
		nop
		stw r0, sp[4]
	}
	.loc	1 399 0 prologue_end    # /Users/rkn/Documents/xTIMEcomposer/workspace/module_usb_audio/main.xc:399:0
.Ltmp135:
	{
		getr r0, 2
		stw r0, sp[5]
	}
	.loc	1 420 0                 # /Users/rkn/Documents/xTIMEcomposer/workspace/module_usb_audio/main.xc:420:0
.Ltmp136:
	{
		getr r1, 2
		nop
	}
	.loc	1 420 0                 # /Users/rkn/Documents/xTIMEcomposer/workspace/module_usb_audio/main.xc:420:0
	{
		setd res[r0], r1
		nop
	}
	.loc	1 420 0                 # /Users/rkn/Documents/xTIMEcomposer/workspace/module_usb_audio/main.xc:420:0
	{
		setd res[r1], r0
		stw r0, sp[6]
	}
	{
		nop
		stw r1, sp[7]
	}
	.loc	1 420 0                 # /Users/rkn/Documents/xTIMEcomposer/workspace/module_usb_audio/main.xc:420:0
	ldaw r1, dp[par.desc.4]
	{
		ldaw r0, sp[1]
		nop
	}
	#DEBUG_VALUE: usb_audio_io:c_aud_in <- [R0+0]
	bl __start_other_cores
.Ltmp137:
	.cc_bottom _Susb_audio_io_0.function
	.set	_Susb_audio_io_0.nstackwords,((par.extra_stackwords + _Susb_audio_io_0.task.mixer.0.nstackwords + ((1 + _Susb_audio_io_0.task.audio.1.nstackwords) $A 2)) + 8)
	.globl	_Susb_audio_io_0.nstackwords
	.set	_Susb_audio_io_0.maxcores,(0 + _Susb_audio_io_0.task.mixer.0.maxcores + _Susb_audio_io_0.task.audio.1.maxcores) $M 1
	.globl	_Susb_audio_io_0.maxcores
	.set	_Susb_audio_io_0.maxtimers,(1 + _Susb_audio_io_0.task.mixer.0.maxtimers + _Susb_audio_io_0.task.audio.1.maxtimers) $M 0
	.globl	_Susb_audio_io_0.maxtimers
	.set	_Susb_audio_io_0.maxchanends,(2 + (0 + _Susb_audio_io_0.task.mixer.0.maxchanends + _Susb_audio_io_0.task.audio.1.maxchanends)) $M 2
	.globl	_Susb_audio_io_0.maxchanends
.Ltmp138:
	.size	_Susb_audio_io_0, .Ltmp138-_Susb_audio_io_0
.Lfunc_end19:
	.cfi_endproc

	.align	4
	.type	_Susb_audio_io_0.task.mixer.0,@function
	.cc_top _Susb_audio_io_0.task.mixer.0.function,_Susb_audio_io_0.task.mixer.0
_Susb_audio_io_0.task.mixer.0:          # @_Susb_audio_io_0.task.mixer.0
.Lfunc_begin20:
	.loc	1 433 0                 # /Users/rkn/Documents/xTIMEcomposer/workspace/module_usb_audio/main.xc:433:0
	.cfi_startproc
	.issue_mode dual
# BB#0:                                 # %allocas
.Lxtalabel14:
	{
		nop
		dualentsp 2
	}
.Ltmp139:
	.cfi_def_cfa_offset 8
.Ltmp140:
	.cfi_offset 15, 0
	#DEBUG_VALUE: _Susb_audio_io_0.task.mixer.0:frame <- R0
	.loc	1 259 0 prologue_end    # /Users/rkn/Documents/xTIMEcomposer/workspace/module_usb_audio/main.xc:259:0
.Ltmp141:
	clrsr 128
	{
		nop
		ldw r3, r0[0]
	}
	{
		nop
		ldw r1, r0[5]
	}
.Ltmp142:
	.loc	1 435 0                 # /Users/rkn/Documents/xTIMEcomposer/workspace/module_usb_audio/main.xc:435:0
	{
		mov r0, r3
		ldw r2, r0[1]
	}
.Ltmp143:
	.loc	1 435 0                 # /Users/rkn/Documents/xTIMEcomposer/workspace/module_usb_audio/main.xc:435:0
.Lxta.call_labels12:
	bl mixer
	{
		nop
		retsp 2
	}
	# RETURN_REG_HOLDER
.Ltmp144:
	.cc_bottom _Susb_audio_io_0.task.mixer.0.function
	.set	_Susb_audio_io_0.task.mixer.0.nstackwords,(mixer.nstackwords + 2)
	.set	_Susb_audio_io_0.task.mixer.0.maxcores,mixer.maxcores $M 1
	.set	_Susb_audio_io_0.task.mixer.0.maxtimers,mixer.maxtimers $M 0
	.set	_Susb_audio_io_0.task.mixer.0.maxchanends,mixer.maxchanends $M 0
.Ltmp145:
	.size	_Susb_audio_io_0.task.mixer.0, .Ltmp145-_Susb_audio_io_0.task.mixer.0
.Lfunc_end20:
	.cfi_endproc

	.align	4
	.type	_Susb_audio_io_0.task.audio.1,@function
	.cc_top _Susb_audio_io_0.task.audio.1.function,_Susb_audio_io_0.task.audio.1
_Susb_audio_io_0.task.audio.1:          # @_Susb_audio_io_0.task.audio.1
.Lfunc_begin21:
	.loc	1 439 0                 # /Users/rkn/Documents/xTIMEcomposer/workspace/module_usb_audio/main.xc:439:0
	.cfi_startproc
	.issue_mode dual
# BB#0:                                 # %allocas
.Lxtalabel15:
	{
		nop
		dualentsp 2
	}
.Ltmp146:
	.cfi_def_cfa_offset 8
.Ltmp147:
	.cfi_offset 15, 0
	#DEBUG_VALUE: _Susb_audio_io_0.task.audio.1:frame <- R0
	.loc	1 259 0 prologue_end    # /Users/rkn/Documents/xTIMEcomposer/workspace/module_usb_audio/main.xc:259:0
.Ltmp148:
	clrsr 128
	{
		nop
		ldw r11, r0[6]
	}
	{
		nop
		ldw r1, r0[3]
	}
	{
		nop
		ldw r2, r0[4]
	}
.Ltmp149:
	.loc	1 446 0                 # /Users/rkn/Documents/xTIMEcomposer/workspace/module_usb_audio/main.xc:446:0
	{
		mov r0, r11
		ldw r3, r0[2]
	}
.Ltmp150:
	.loc	1 446 0                 # /Users/rkn/Documents/xTIMEcomposer/workspace/module_usb_audio/main.xc:446:0
.Lxta.call_labels13:
	bl audio
.Ltmp151:
	.cc_bottom _Susb_audio_io_0.task.audio.1.function
	.set	_Susb_audio_io_0.task.audio.1.nstackwords,(audio.nstackwords + 2)
	.set	_Susb_audio_io_0.task.audio.1.maxcores,audio.maxcores $M 1
	.set	_Susb_audio_io_0.task.audio.1.maxtimers,audio.maxtimers $M 0
	.set	_Susb_audio_io_0.task.audio.1.maxchanends,audio.maxchanends $M 0
.Ltmp152:
	.size	_Susb_audio_io_0.task.audio.1, .Ltmp152-_Susb_audio_io_0.task.audio.1
.Lfunc_end21:
	.cfi_endproc

	.globl	__main__main_tile_1
	.align	4
	.type	__main__main_tile_1,@function
	.cc_top __main__main_tile_1.function,__main__main_tile_1
__main__main_tile_1:                    # @__main__main_tile_1
.Lfunc_begin22:
	.file	3 "<synthesized>"
	.loc	3 0 0                   # <synthesized>:0:0
	.cfi_startproc
	.issue_mode dual
# BB#0:                                 # %allocas
	{
		nop
		dualentsp 4
	}
.Ltmp153:
	.cfi_def_cfa_offset 16
.Ltmp154:
	.cfi_offset 15, 0
	#DEBUG_VALUE: __main__main_tile_1:formal.c_mix_out1 <- R0
	#DEBUG_VALUE: __main__main_tile_1:formal.c_mix_ctl2 <- R1
	#DEBUG_VALUE: __main__main_tile_1:formal.dfuInterface3 <- R2
	#APP
	getd r2, res[r2]
	#NO_APP
.Ltmp155:
	{
		nop
		stw r2, sp[2]
	}
	ldaw r11, cp[.vtable]
	{
		ldaw r2, sp[2]
		stw r11, sp[3]
	}
	.loc	3 562 0 prologue_end    # <synthesized>:562:0
.Ltmp156:
.Lxta.call_labels14:
	bl _Susb_audio_core_0
.Ltmp157:
	{
		nop
		retsp 4
	}
	# RETURN_REG_HOLDER
.Ltmp158:
	.cc_bottom __main__main_tile_1.function
	.set	__main__main_tile_1.nstackwords,(_Susb_audio_core_0.nstackwords + 4)
	.globl	__main__main_tile_1.nstackwords
	.set	__main__main_tile_1.maxcores,_Susb_audio_core_0.maxcores $M 1
	.globl	__main__main_tile_1.maxcores
	.set	__main__main_tile_1.maxtimers,_Susb_audio_core_0.maxtimers $M 0
	.globl	__main__main_tile_1.maxtimers
	.set	__main__main_tile_1.maxchanends,_Susb_audio_core_0.maxchanends $M 0
	.globl	__main__main_tile_1.maxchanends
.Ltmp159:
	.size	__main__main_tile_1, .Ltmp159-__main__main_tile_1
.Lfunc_end22:
	.cfi_endproc

	.globl	__main__main_tile_0
	.align	4
	.type	__main__main_tile_0,@function
	.cc_top __main__main_tile_0.function,__main__main_tile_0
__main__main_tile_0:                    # @__main__main_tile_0
.Lfunc_begin23:
	.loc	3 0 0                   # <synthesized>:0:0
	.cfi_startproc
	.issue_mode dual
# BB#0:                                 # %allocas
	{
		nop
		dualentsp 2
	}
.Ltmp160:
	.cfi_def_cfa_offset 8
.Ltmp161:
	.cfi_offset 15, 0
	#DEBUG_VALUE: __main__main_tile_0:formal.c_mix_out4 <- R0
	#DEBUG_VALUE: __main__main_tile_0:formal.c_mix_ctl5 <- R1
	#DEBUG_VALUE: __main__main_tile_0:formal.dfuInterface6 <- R2
	{
		ldaw r2, sp[1]
		stw r2, sp[1]
	}
.Ltmp162:
	.loc	3 580 0 prologue_end    # <synthesized>:580:0
.Lxta.call_labels15:
	bl _Susb_audio_io_0
.Ltmp163:
	.cc_bottom __main__main_tile_0.function
	.set	__main__main_tile_0.nstackwords,(_Susb_audio_io_0.nstackwords + 2)
	.globl	__main__main_tile_0.nstackwords
	.set	__main__main_tile_0.maxcores,_Susb_audio_io_0.maxcores $M 1
	.globl	__main__main_tile_0.maxcores
	.set	__main__main_tile_0.maxtimers,_Susb_audio_io_0.maxtimers $M 0
	.globl	__main__main_tile_0.maxtimers
	.set	__main__main_tile_0.maxchanends,_Susb_audio_io_0.maxchanends $M 0
	.globl	__main__main_tile_0.maxchanends
.Ltmp164:
	.size	__main__main_tile_0, .Ltmp164-__main__main_tile_0
.Lfunc_end23:
	.cfi_endproc

	.section	.dp.rodata,"awd",@progbits
	.cc_top p_i2s_dac.data,p_i2s_dac
	.globl	p_i2s_dac.globound
p_i2s_dac.globound = 4
	.globl	p_i2s_dac
	.align	8
	.type	p_i2s_dac,@object
	.size	p_i2s_dac, 16
p_i2s_dac:
	.long	69376
	.long	69120
	.long	68864
	.long	68608
	.cc_bottom p_i2s_dac.data
	.cc_top p_i2s_adc.data,p_i2s_adc
	.globl	p_i2s_adc.globound
p_i2s_adc.globound = 4
	.globl	p_i2s_adc
	.align	8
	.type	p_i2s_adc,@object
	.size	p_i2s_adc, 16
p_i2s_adc:
	.long	68096
	.long	67584
	.long	67840
	.long	68352
	.cc_bottom p_i2s_adc.data
	.section	.dp.data,"awd",@progbits
	.cc_top epTypeTableOut.data,epTypeTableOut
	.globl	epTypeTableOut.globound
epTypeTableOut.globound = 2
	.globl	epTypeTableOut
	.align	8
	.type	epTypeTableOut,@object
	.size	epTypeTableOut, 8
epTypeTableOut:
	.long	2147483651              # 0x80000003
	.long	0                       # 0x0
	.cc_bottom epTypeTableOut.data
	.cc_top epTypeTableIn.data,epTypeTableIn
	.globl	epTypeTableIn.globound
epTypeTableIn.globound = 4
	.globl	epTypeTableIn
	.align	8
	.type	epTypeTableIn,@object
	.size	epTypeTableIn, 16
epTypeTableIn:
	.long	2147483651              # 0x80000003
	.long	0                       # 0x0
	.long	0                       # 0x0
	.long	1                       # 0x1
	.cc_bottom epTypeTableIn.data
	.section	.cp.rodata.4,"ac",@progbits
	.cc_top .str.data,.str
	.align	4
	.type	.str,@object
	.size	.str, 1
.str:
	.space	1
	.space	3
	.cc_bottom .str.data
	.cc_top .str3.data,.str3
	.align	4
	.type	.str3,@object
	.size	.str3, 1
.str3:
	.space	1
	.space	3
	.cc_bottom .str3.data
	.section	.dp.data.4,"awd",@progbits
	.cc_top par.desc.1.data,par.desc.1
	.align	4
	.type	par.desc.1,@object
	.size	par.desc.1, 32
par.desc.1:
	.long	usb_audio_core.task.buffer.1
	.long	usb_audio_core.task.decouple.3.nstackwords
	.long	usb_audio_core.task.Endpoint0.2
	.long	usb_audio_core.task.buffer.1.nstackwords
	.long	usb_audio_core.task.XUD_Manager.0
	.long	usb_audio_core.task.Endpoint0.2.nstackwords
	.long	0
	.long	usb_audio_core.task.decouple.3
	.cc_bottom par.desc.1.data
	.cc_top par.desc.2.data,par.desc.2
	.align	4
	.type	par.desc.2,@object
	.size	par.desc.2, 32
par.desc.2:
	.long	_Susb_audio_core_0.task.buffer.1
	.long	_Susb_audio_core_0.task.decouple.3.nstackwords
	.long	_Susb_audio_core_0.task.Endpoint0.2
	.long	_Susb_audio_core_0.task.buffer.1.nstackwords
	.long	_Susb_audio_core_0.task.XUD_Manager.0
	.long	_Susb_audio_core_0.task.Endpoint0.2.nstackwords
	.long	0
	.long	_Susb_audio_core_0.task.decouple.3
	.cc_bottom par.desc.2.data
	.cc_top par.desc.3.data,par.desc.3
	.align	4
	.type	par.desc.3,@object
	.size	par.desc.3, 16
par.desc.3:
	.long	usb_audio_io.task.mixer.0
	.long	usb_audio_io.task.audio.1.nstackwords
	.long	0
	.long	usb_audio_io.task.audio.1
	.cc_bottom par.desc.3.data
	.cc_top par.desc.4.data,par.desc.4
	.align	4
	.type	par.desc.4,@object
	.size	par.desc.4, 16
par.desc.4:
	.long	_Susb_audio_io_0.task.mixer.0
	.long	_Susb_audio_io_0.task.audio.1.nstackwords
	.long	0
	.long	_Susb_audio_io_0.task.audio.1
	.cc_bottom par.desc.4.data
	.section	.cp.rodata.4,"ac",@progbits
	.cc_top .vtable.data,.vtable
	.align	4
	.type	.vtable,@object
	.size	.vtable, 20
.vtable:
	.long	_i.i_dfu._chan.HandleDfuRequest
	.long	_i.i_dfu._chan.finish
	.long	__interface_client_push_yield
	.long	__interface_client_pop_yield
	.long	__noop
	.cc_bottom .vtable.data
	.section	.dp.data.4,"awd",@progbits
	.cc_top __xcc1_internal_1.data,__xcc1_internal_1
	.align	4
	.type	__xcc1_internal_1,@object
	.size	__xcc1_internal_1, 4
__xcc1_internal_1:
	.long	69376
	.cc_bottom __xcc1_internal_1.data
	.cc_top __xcc1_internal_2.data,__xcc1_internal_2
	.align	4
	.type	__xcc1_internal_2,@object
	.size	__xcc1_internal_2, 4
__xcc1_internal_2:
	.long	69120
	.cc_bottom __xcc1_internal_2.data
	.cc_top __xcc1_internal_3.data,__xcc1_internal_3
	.align	4
	.type	__xcc1_internal_3,@object
	.size	__xcc1_internal_3, 4
__xcc1_internal_3:
	.long	68864
	.cc_bottom __xcc1_internal_3.data
	.cc_top __xcc1_internal_4.data,__xcc1_internal_4
	.align	4
	.type	__xcc1_internal_4,@object
	.size	__xcc1_internal_4, 4
__xcc1_internal_4:
	.long	68608
	.cc_bottom __xcc1_internal_4.data
	.cc_top __xcc1_internal_5.data,__xcc1_internal_5
	.align	4
	.type	__xcc1_internal_5,@object
	.size	__xcc1_internal_5, 4
__xcc1_internal_5:
	.long	68096
	.cc_bottom __xcc1_internal_5.data
	.cc_top __xcc1_internal_6.data,__xcc1_internal_6
	.align	4
	.type	__xcc1_internal_6,@object
	.size	__xcc1_internal_6, 4
__xcc1_internal_6:
	.long	67584
	.cc_bottom __xcc1_internal_6.data
	.cc_top __xcc1_internal_7.data,__xcc1_internal_7
	.align	4
	.type	__xcc1_internal_7,@object
	.size	__xcc1_internal_7, 4
__xcc1_internal_7:
	.long	67840
	.cc_bottom __xcc1_internal_7.data
	.cc_top __xcc1_internal_8.data,__xcc1_internal_8
	.align	4
	.type	__xcc1_internal_8,@object
	.size	__xcc1_internal_8, 4
__xcc1_internal_8:
	.long	68352
	.cc_bottom __xcc1_internal_8.data
	.section	.dp.data,"awd",@progbits
.Ldebug_end1:
	.section	.dp.rodata,"awd",@progbits
.Ldebug_end2:
	.text
.Ldebug_end3:
	.file	4 "/Applications/XMOS_xTIMEcomposer_Community_14.3.3/target/include/timer.h"
	.section	.xtacalltable,"",@progbits
.Lentries_start0:
	.long	.Lentries_end1-.Lentries_start0
	.long	0
	.ascii	"/Users/rkn/Documents/xTIMEcomposer/workspace/app_usb_aud_xk_216_mc/.build_2i32o32xxxxx_tdm8"
	.byte	0
.cc_top cc_0,.Lxta.call_labels0
	.ascii	"/Users/rkn/Documents/xTIMEcomposer/workspace/module_usb_audio/main.xc"
	.byte	0
	.long	266
	.long	.Lxta.call_labels0
.cc_bottom cc_0
.cc_top cc_1,.Lxta.call_labels1
	.ascii	"/Users/rkn/Documents/xTIMEcomposer/workspace/module_usb_audio/main.xc"
	.byte	0
	.long	268
	.long	.Lxta.call_labels1
.cc_bottom cc_1
.cc_top cc_2,.Lxta.call_labels2
	.ascii	"/Users/rkn/Documents/xTIMEcomposer/workspace/module_usb_audio/main.xc"
	.byte	0
	.long	314
	.long	.Lxta.call_labels2
.cc_bottom cc_2
.cc_top cc_3,.Lxta.call_labels6
	.ascii	"/Users/rkn/Documents/xTIMEcomposer/workspace/module_usb_audio/main.xc"
	.byte	0
	.long	314
	.long	.Lxta.call_labels6
.cc_bottom cc_3
.cc_top cc_4,.Lxta.call_labels3
	.ascii	"/Users/rkn/Documents/xTIMEcomposer/workspace/module_usb_audio/main.xc"
	.byte	0
	.long	340
	.long	.Lxta.call_labels3
.cc_bottom cc_4
.cc_top cc_5,.Lxta.call_labels7
	.ascii	"/Users/rkn/Documents/xTIMEcomposer/workspace/module_usb_audio/main.xc"
	.byte	0
	.long	340
	.long	.Lxta.call_labels7
.cc_bottom cc_5
.cc_top cc_6,.Lxta.call_labels8
	.ascii	"/Users/rkn/Documents/xTIMEcomposer/workspace/module_usb_audio/main.xc"
	.byte	0
	.long	383
	.long	.Lxta.call_labels8
.cc_bottom cc_6
.cc_top cc_7,.Lxta.call_labels4
	.ascii	"/Users/rkn/Documents/xTIMEcomposer/workspace/module_usb_audio/main.xc"
	.byte	0
	.long	383
	.long	.Lxta.call_labels4
.cc_bottom cc_7
.cc_top cc_8,.Lxta.call_labels5
	.ascii	"/Users/rkn/Documents/xTIMEcomposer/workspace/module_usb_audio/main.xc"
	.byte	0
	.long	389
	.long	.Lxta.call_labels5
.cc_bottom cc_8
.cc_top cc_9,.Lxta.call_labels9
	.ascii	"/Users/rkn/Documents/xTIMEcomposer/workspace/module_usb_audio/main.xc"
	.byte	0
	.long	389
	.long	.Lxta.call_labels9
.cc_bottom cc_9
.cc_top cc_10,.Lxta.call_labels10
	.ascii	"/Users/rkn/Documents/xTIMEcomposer/workspace/module_usb_audio/main.xc"
	.byte	0
	.long	435
	.long	.Lxta.call_labels10
.cc_bottom cc_10
.cc_top cc_11,.Lxta.call_labels12
	.ascii	"/Users/rkn/Documents/xTIMEcomposer/workspace/module_usb_audio/main.xc"
	.byte	0
	.long	435
	.long	.Lxta.call_labels12
.cc_bottom cc_11
.cc_top cc_12,.Lxta.call_labels11
	.ascii	"/Users/rkn/Documents/xTIMEcomposer/workspace/module_usb_audio/main.xc"
	.byte	0
	.long	446
	.long	.Lxta.call_labels11
.cc_bottom cc_12
.cc_top cc_13,.Lxta.call_labels13
	.ascii	"/Users/rkn/Documents/xTIMEcomposer/workspace/module_usb_audio/main.xc"
	.byte	0
	.long	446
	.long	.Lxta.call_labels13
.cc_bottom cc_13
.cc_top cc_14,.Lxta.call_labels14
	.ascii	"/Users/rkn/Documents/xTIMEcomposer/workspace/module_usb_audio/main.xc"
	.byte	0
	.long	562
	.long	.Lxta.call_labels14
.cc_bottom cc_14
.cc_top cc_15,.Lxta.call_labels15
	.ascii	"/Users/rkn/Documents/xTIMEcomposer/workspace/module_usb_audio/main.xc"
	.byte	0
	.long	580
	.long	.Lxta.call_labels15
.cc_bottom cc_15
.Lentries_end1:
	.section	.xtalabeltable,"",@progbits
.Lentries_start2:
	.long	.Lentries_end3-.Lentries_start2
	.long	0
	.ascii	"/Users/rkn/Documents/xTIMEcomposer/workspace/app_usb_aud_xk_216_mc/.build_2i32o32xxxxx_tdm8"
	.byte	0
.cc_top cc_16,.Lxtalabel0
	.ascii	"/Users/rkn/Documents/xTIMEcomposer/workspace/module_usb_audio/main.xc"
	.byte	0
	.long	254
	.long	254
	.long	.Lxtalabel0
.cc_bottom cc_16
.cc_top cc_17,.Lxtalabel15
	.ascii	"/Users/rkn/Documents/xTIMEcomposer/workspace/module_usb_audio/main.xc"
	.byte	0
	.long	254
	.long	254
	.long	.Lxtalabel15
.cc_bottom cc_17
.cc_top cc_18,.Lxtalabel14
	.ascii	"/Users/rkn/Documents/xTIMEcomposer/workspace/module_usb_audio/main.xc"
	.byte	0
	.long	254
	.long	254
	.long	.Lxtalabel14
.cc_bottom cc_18
.cc_top cc_19,.Lxtalabel12
	.ascii	"/Users/rkn/Documents/xTIMEcomposer/workspace/module_usb_audio/main.xc"
	.byte	0
	.long	254
	.long	254
	.long	.Lxtalabel12
.cc_bottom cc_19
.cc_top cc_20,.Lxtalabel11
	.ascii	"/Users/rkn/Documents/xTIMEcomposer/workspace/module_usb_audio/main.xc"
	.byte	0
	.long	254
	.long	254
	.long	.Lxtalabel11
.cc_bottom cc_20
.cc_top cc_21,.Lxtalabel9
	.ascii	"/Users/rkn/Documents/xTIMEcomposer/workspace/module_usb_audio/main.xc"
	.byte	0
	.long	254
	.long	254
	.long	.Lxtalabel9
.cc_bottom cc_21
.cc_top cc_22,.Lxtalabel8
	.ascii	"/Users/rkn/Documents/xTIMEcomposer/workspace/module_usb_audio/main.xc"
	.byte	0
	.long	254
	.long	254
	.long	.Lxtalabel8
.cc_bottom cc_22
.cc_top cc_23,.Lxtalabel7
	.ascii	"/Users/rkn/Documents/xTIMEcomposer/workspace/module_usb_audio/main.xc"
	.byte	0
	.long	254
	.long	254
	.long	.Lxtalabel7
.cc_bottom cc_23
.cc_top cc_24,.Lxtalabel5
	.ascii	"/Users/rkn/Documents/xTIMEcomposer/workspace/module_usb_audio/main.xc"
	.byte	0
	.long	254
	.long	254
	.long	.Lxtalabel5
.cc_bottom cc_24
.cc_top cc_25,.Lxtalabel4
	.ascii	"/Users/rkn/Documents/xTIMEcomposer/workspace/module_usb_audio/main.xc"
	.byte	0
	.long	254
	.long	254
	.long	.Lxtalabel4
.cc_bottom cc_25
.cc_top cc_26,.Lxtalabel3
	.ascii	"/Users/rkn/Documents/xTIMEcomposer/workspace/module_usb_audio/main.xc"
	.byte	0
	.long	254
	.long	254
	.long	.Lxtalabel3
.cc_bottom cc_26
.cc_top cc_27,.Lxtalabel15
	.ascii	"/Users/rkn/Documents/xTIMEcomposer/workspace/module_usb_audio/main.xc"
	.byte	0
	.long	259
	.long	259
	.long	.Lxtalabel15
.cc_bottom cc_27
.cc_top cc_28,.Lxtalabel9
	.ascii	"/Users/rkn/Documents/xTIMEcomposer/workspace/module_usb_audio/main.xc"
	.byte	0
	.long	259
	.long	259
	.long	.Lxtalabel9
.cc_bottom cc_28
.cc_top cc_29,.Lxtalabel11
	.ascii	"/Users/rkn/Documents/xTIMEcomposer/workspace/module_usb_audio/main.xc"
	.byte	0
	.long	259
	.long	259
	.long	.Lxtalabel11
.cc_bottom cc_29
.cc_top cc_30,.Lxtalabel5
	.ascii	"/Users/rkn/Documents/xTIMEcomposer/workspace/module_usb_audio/main.xc"
	.byte	0
	.long	259
	.long	259
	.long	.Lxtalabel5
.cc_bottom cc_30
.cc_top cc_31,.Lxtalabel14
	.ascii	"/Users/rkn/Documents/xTIMEcomposer/workspace/module_usb_audio/main.xc"
	.byte	0
	.long	259
	.long	259
	.long	.Lxtalabel14
.cc_bottom cc_31
.cc_top cc_32,.Lxtalabel4
	.ascii	"/Users/rkn/Documents/xTIMEcomposer/workspace/module_usb_audio/main.xc"
	.byte	0
	.long	259
	.long	259
	.long	.Lxtalabel4
.cc_bottom cc_32
.cc_top cc_33,.Lxtalabel0
	.ascii	"/Users/rkn/Documents/xTIMEcomposer/workspace/module_usb_audio/main.xc"
	.byte	0
	.long	259
	.long	259
	.long	.Lxtalabel0
.cc_bottom cc_33
.cc_top cc_34,.Lxtalabel12
	.ascii	"/Users/rkn/Documents/xTIMEcomposer/workspace/module_usb_audio/main.xc"
	.byte	0
	.long	259
	.long	259
	.long	.Lxtalabel12
.cc_bottom cc_34
.cc_top cc_35,.Lxtalabel8
	.ascii	"/Users/rkn/Documents/xTIMEcomposer/workspace/module_usb_audio/main.xc"
	.byte	0
	.long	259
	.long	259
	.long	.Lxtalabel8
.cc_bottom cc_35
.cc_top cc_36,.Lxtalabel3
	.ascii	"/Users/rkn/Documents/xTIMEcomposer/workspace/module_usb_audio/main.xc"
	.byte	0
	.long	259
	.long	259
	.long	.Lxtalabel3
.cc_bottom cc_36
.cc_top cc_37,.Lxtalabel7
	.ascii	"/Users/rkn/Documents/xTIMEcomposer/workspace/module_usb_audio/main.xc"
	.byte	0
	.long	259
	.long	259
	.long	.Lxtalabel7
.cc_bottom cc_37
.cc_top cc_38,.Lxtalabel9
	.ascii	"/Users/rkn/Documents/xTIMEcomposer/workspace/module_usb_audio/main.xc"
	.byte	0
	.long	261
	.long	261
	.long	.Lxtalabel9
.cc_bottom cc_38
.cc_top cc_39,.Lxtalabel7
	.ascii	"/Users/rkn/Documents/xTIMEcomposer/workspace/module_usb_audio/main.xc"
	.byte	0
	.long	261
	.long	261
	.long	.Lxtalabel7
.cc_bottom cc_39
.cc_top cc_40,.Lxtalabel3
	.ascii	"/Users/rkn/Documents/xTIMEcomposer/workspace/module_usb_audio/main.xc"
	.byte	0
	.long	261
	.long	261
	.long	.Lxtalabel3
.cc_bottom cc_40
.cc_top cc_41,.Lxtalabel8
	.ascii	"/Users/rkn/Documents/xTIMEcomposer/workspace/module_usb_audio/main.xc"
	.byte	0
	.long	261
	.long	261
	.long	.Lxtalabel8
.cc_bottom cc_41
.cc_top cc_42,.Lxtalabel12
	.ascii	"/Users/rkn/Documents/xTIMEcomposer/workspace/module_usb_audio/main.xc"
	.byte	0
	.long	261
	.long	261
	.long	.Lxtalabel12
.cc_bottom cc_42
.cc_top cc_43,.Lxtalabel4
	.ascii	"/Users/rkn/Documents/xTIMEcomposer/workspace/module_usb_audio/main.xc"
	.byte	0
	.long	261
	.long	261
	.long	.Lxtalabel4
.cc_bottom cc_43
.cc_top cc_44,.Lxtalabel14
	.ascii	"/Users/rkn/Documents/xTIMEcomposer/workspace/module_usb_audio/main.xc"
	.byte	0
	.long	261
	.long	261
	.long	.Lxtalabel14
.cc_bottom cc_44
.cc_top cc_45,.Lxtalabel11
	.ascii	"/Users/rkn/Documents/xTIMEcomposer/workspace/module_usb_audio/main.xc"
	.byte	0
	.long	261
	.long	261
	.long	.Lxtalabel11
.cc_bottom cc_45
.cc_top cc_46,.Lxtalabel5
	.ascii	"/Users/rkn/Documents/xTIMEcomposer/workspace/module_usb_audio/main.xc"
	.byte	0
	.long	261
	.long	261
	.long	.Lxtalabel5
.cc_bottom cc_46
.cc_top cc_47,.Lxtalabel0
	.ascii	"/Users/rkn/Documents/xTIMEcomposer/workspace/module_usb_audio/main.xc"
	.byte	0
	.long	261
	.long	261
	.long	.Lxtalabel0
.cc_bottom cc_47
.cc_top cc_48,.Lxtalabel15
	.ascii	"/Users/rkn/Documents/xTIMEcomposer/workspace/module_usb_audio/main.xc"
	.byte	0
	.long	261
	.long	261
	.long	.Lxtalabel15
.cc_bottom cc_48
.cc_top cc_49,.Lxtalabel1
	.ascii	"/Users/rkn/Documents/xTIMEcomposer/workspace/module_usb_audio/main.xc"
	.byte	0
	.long	265
	.long	266
	.long	.Lxtalabel1
.cc_bottom cc_49
.cc_top cc_50,.Lxtalabel1
	.ascii	"/Users/rkn/Documents/xTIMEcomposer/workspace/module_usb_audio/main.xc"
	.byte	0
	.long	268
	.long	269
	.long	.Lxtalabel1
.cc_bottom cc_50
.cc_top cc_51,.Lxtalabel2
	.ascii	"/Users/rkn/Documents/xTIMEcomposer/workspace/module_usb_audio/main.xc"
	.byte	0
	.long	290
	.long	294
	.long	.Lxtalabel2
.cc_bottom cc_51
.cc_top cc_52,.Lxtalabel6
	.ascii	"/Users/rkn/Documents/xTIMEcomposer/workspace/module_usb_audio/main.xc"
	.byte	0
	.long	290
	.long	294
	.long	.Lxtalabel6
.cc_bottom cc_52
.cc_top cc_53,.Lxtalabel2
	.ascii	"/Users/rkn/Documents/xTIMEcomposer/workspace/module_usb_audio/main.xc"
	.byte	0
	.long	310
	.long	311
	.long	.Lxtalabel2
.cc_bottom cc_53
.cc_top cc_54,.Lxtalabel6
	.ascii	"/Users/rkn/Documents/xTIMEcomposer/workspace/module_usb_audio/main.xc"
	.byte	0
	.long	310
	.long	311
	.long	.Lxtalabel6
.cc_bottom cc_54
.cc_top cc_55,.Lxtalabel6
	.ascii	"/Users/rkn/Documents/xTIMEcomposer/workspace/module_usb_audio/main.xc"
	.byte	0
	.long	314
	.long	315
	.long	.Lxtalabel6
.cc_bottom cc_55
.cc_top cc_56,.Lxtalabel2
	.ascii	"/Users/rkn/Documents/xTIMEcomposer/workspace/module_usb_audio/main.xc"
	.byte	0
	.long	314
	.long	315
	.long	.Lxtalabel2
.cc_bottom cc_56
.cc_top cc_57,.Lxtalabel6
	.ascii	"/Users/rkn/Documents/xTIMEcomposer/workspace/module_usb_audio/main.xc"
	.byte	0
	.long	316
	.long	316
	.long	.Lxtalabel6
.cc_bottom cc_57
.cc_top cc_58,.Lxtalabel2
	.ascii	"/Users/rkn/Documents/xTIMEcomposer/workspace/module_usb_audio/main.xc"
	.byte	0
	.long	316
	.long	316
	.long	.Lxtalabel2
.cc_bottom cc_58
.cc_top cc_59,.Lxtalabel2
	.ascii	"/Users/rkn/Documents/xTIMEcomposer/workspace/module_usb_audio/main.xc"
	.byte	0
	.long	324
	.long	326
	.long	.Lxtalabel2
.cc_bottom cc_59
.cc_top cc_60,.Lxtalabel6
	.ascii	"/Users/rkn/Documents/xTIMEcomposer/workspace/module_usb_audio/main.xc"
	.byte	0
	.long	324
	.long	326
	.long	.Lxtalabel6
.cc_bottom cc_60
.cc_top cc_61,.Lxtalabel2
	.ascii	"/Users/rkn/Documents/xTIMEcomposer/workspace/module_usb_audio/main.xc"
	.byte	0
	.long	331
	.long	331
	.long	.Lxtalabel2
.cc_bottom cc_61
.cc_top cc_62,.Lxtalabel6
	.ascii	"/Users/rkn/Documents/xTIMEcomposer/workspace/module_usb_audio/main.xc"
	.byte	0
	.long	331
	.long	331
	.long	.Lxtalabel6
.cc_bottom cc_62
.cc_top cc_63,.Lxtalabel2
	.ascii	"/Users/rkn/Documents/xTIMEcomposer/workspace/module_usb_audio/main.xc"
	.byte	0
	.long	332
	.long	332
	.long	.Lxtalabel2
.cc_bottom cc_63
.cc_top cc_64,.Lxtalabel6
	.ascii	"/Users/rkn/Documents/xTIMEcomposer/workspace/module_usb_audio/main.xc"
	.byte	0
	.long	332
	.long	332
	.long	.Lxtalabel6
.cc_bottom cc_64
.cc_top cc_65,.Lxtalabel6
	.ascii	"/Users/rkn/Documents/xTIMEcomposer/workspace/module_usb_audio/main.xc"
	.byte	0
	.long	333
	.long	333
	.long	.Lxtalabel6
.cc_bottom cc_65
.cc_top cc_66,.Lxtalabel2
	.ascii	"/Users/rkn/Documents/xTIMEcomposer/workspace/module_usb_audio/main.xc"
	.byte	0
	.long	333
	.long	333
	.long	.Lxtalabel2
.cc_bottom cc_66
.cc_top cc_67,.Lxtalabel6
	.ascii	"/Users/rkn/Documents/xTIMEcomposer/workspace/module_usb_audio/main.xc"
	.byte	0
	.long	340
	.long	341
	.long	.Lxtalabel6
.cc_bottom cc_67
.cc_top cc_68,.Lxtalabel2
	.ascii	"/Users/rkn/Documents/xTIMEcomposer/workspace/module_usb_audio/main.xc"
	.byte	0
	.long	340
	.long	341
	.long	.Lxtalabel2
.cc_bottom cc_68
.cc_top cc_69,.Lxtalabel6
	.ascii	"/Users/rkn/Documents/xTIMEcomposer/workspace/module_usb_audio/main.xc"
	.byte	0
	.long	343
	.long	343
	.long	.Lxtalabel6
.cc_bottom cc_69
.cc_top cc_70,.Lxtalabel2
	.ascii	"/Users/rkn/Documents/xTIMEcomposer/workspace/module_usb_audio/main.xc"
	.byte	0
	.long	343
	.long	343
	.long	.Lxtalabel2
.cc_bottom cc_70
.cc_top cc_71,.Lxtalabel2
	.ascii	"/Users/rkn/Documents/xTIMEcomposer/workspace/module_usb_audio/main.xc"
	.byte	0
	.long	369
	.long	369
	.long	.Lxtalabel2
.cc_bottom cc_71
.cc_top cc_72,.Lxtalabel6
	.ascii	"/Users/rkn/Documents/xTIMEcomposer/workspace/module_usb_audio/main.xc"
	.byte	0
	.long	369
	.long	369
	.long	.Lxtalabel6
.cc_bottom cc_72
.cc_top cc_73,.Lxtalabel2
	.ascii	"/Users/rkn/Documents/xTIMEcomposer/workspace/module_usb_audio/main.xc"
	.byte	0
	.long	371
	.long	371
	.long	.Lxtalabel2
.cc_bottom cc_73
.cc_top cc_74,.Lxtalabel6
	.ascii	"/Users/rkn/Documents/xTIMEcomposer/workspace/module_usb_audio/main.xc"
	.byte	0
	.long	371
	.long	371
	.long	.Lxtalabel6
.cc_bottom cc_74
.cc_top cc_75,.Lxtalabel2
	.ascii	"/Users/rkn/Documents/xTIMEcomposer/workspace/module_usb_audio/main.xc"
	.byte	0
	.long	376
	.long	376
	.long	.Lxtalabel2
.cc_bottom cc_75
.cc_top cc_76,.Lxtalabel6
	.ascii	"/Users/rkn/Documents/xTIMEcomposer/workspace/module_usb_audio/main.xc"
	.byte	0
	.long	376
	.long	376
	.long	.Lxtalabel6
.cc_bottom cc_76
.cc_top cc_77,.Lxtalabel6
	.ascii	"/Users/rkn/Documents/xTIMEcomposer/workspace/module_usb_audio/main.xc"
	.byte	0
	.long	378
	.long	378
	.long	.Lxtalabel6
.cc_bottom cc_77
.cc_top cc_78,.Lxtalabel2
	.ascii	"/Users/rkn/Documents/xTIMEcomposer/workspace/module_usb_audio/main.xc"
	.byte	0
	.long	378
	.long	378
	.long	.Lxtalabel2
.cc_bottom cc_78
.cc_top cc_79,.Lxtalabel6
	.ascii	"/Users/rkn/Documents/xTIMEcomposer/workspace/module_usb_audio/main.xc"
	.byte	0
	.long	381
	.long	384
	.long	.Lxtalabel6
.cc_bottom cc_79
.cc_top cc_80,.Lxtalabel2
	.ascii	"/Users/rkn/Documents/xTIMEcomposer/workspace/module_usb_audio/main.xc"
	.byte	0
	.long	381
	.long	384
	.long	.Lxtalabel2
.cc_bottom cc_80
.cc_top cc_81,.Lxtalabel6
	.ascii	"/Users/rkn/Documents/xTIMEcomposer/workspace/module_usb_audio/main.xc"
	.byte	0
	.long	387
	.long	389
	.long	.Lxtalabel6
.cc_bottom cc_81
.cc_top cc_82,.Lxtalabel2
	.ascii	"/Users/rkn/Documents/xTIMEcomposer/workspace/module_usb_audio/main.xc"
	.byte	0
	.long	387
	.long	389
	.long	.Lxtalabel2
.cc_bottom cc_82
.cc_top cc_83,.Lxtalabel6
	.ascii	"/Users/rkn/Documents/xTIMEcomposer/workspace/module_usb_audio/main.xc"
	.byte	0
	.long	393
	.long	394
	.long	.Lxtalabel6
.cc_bottom cc_83
.cc_top cc_84,.Lxtalabel2
	.ascii	"/Users/rkn/Documents/xTIMEcomposer/workspace/module_usb_audio/main.xc"
	.byte	0
	.long	393
	.long	394
	.long	.Lxtalabel2
.cc_bottom cc_84
.cc_top cc_85,.Lxtalabel2
	.ascii	"/Users/rkn/Documents/xTIMEcomposer/workspace/module_usb_audio/main.xc"
	.byte	0
	.long	396
	.long	397
	.long	.Lxtalabel2
.cc_bottom cc_85
.cc_top cc_86,.Lxtalabel6
	.ascii	"/Users/rkn/Documents/xTIMEcomposer/workspace/module_usb_audio/main.xc"
	.byte	0
	.long	396
	.long	397
	.long	.Lxtalabel6
.cc_bottom cc_86
.cc_top cc_87,.Lxtalabel10
	.ascii	"/Users/rkn/Documents/xTIMEcomposer/workspace/module_usb_audio/main.xc"
	.byte	0
	.long	418
	.long	418
	.long	.Lxtalabel10
.cc_bottom cc_87
.cc_top cc_88,.Lxtalabel13
	.ascii	"/Users/rkn/Documents/xTIMEcomposer/workspace/module_usb_audio/main.xc"
	.byte	0
	.long	418
	.long	418
	.long	.Lxtalabel13
.cc_bottom cc_88
.cc_top cc_89,.Lxtalabel10
	.ascii	"/Users/rkn/Documents/xTIMEcomposer/workspace/module_usb_audio/main.xc"
	.byte	0
	.long	420
	.long	420
	.long	.Lxtalabel10
.cc_bottom cc_89
.cc_top cc_90,.Lxtalabel13
	.ascii	"/Users/rkn/Documents/xTIMEcomposer/workspace/module_usb_audio/main.xc"
	.byte	0
	.long	420
	.long	420
	.long	.Lxtalabel13
.cc_bottom cc_90
.cc_top cc_91,.Lxtalabel10
	.ascii	"/Users/rkn/Documents/xTIMEcomposer/workspace/module_usb_audio/main.xc"
	.byte	0
	.long	429
	.long	430
	.long	.Lxtalabel10
.cc_bottom cc_91
.cc_top cc_92,.Lxtalabel13
	.ascii	"/Users/rkn/Documents/xTIMEcomposer/workspace/module_usb_audio/main.xc"
	.byte	0
	.long	429
	.long	430
	.long	.Lxtalabel13
.cc_bottom cc_92
.cc_top cc_93,.Lxtalabel10
	.ascii	"/Users/rkn/Documents/xTIMEcomposer/workspace/module_usb_audio/main.xc"
	.byte	0
	.long	433
	.long	436
	.long	.Lxtalabel10
.cc_bottom cc_93
.cc_top cc_94,.Lxtalabel13
	.ascii	"/Users/rkn/Documents/xTIMEcomposer/workspace/module_usb_audio/main.xc"
	.byte	0
	.long	433
	.long	436
	.long	.Lxtalabel13
.cc_bottom cc_94
.cc_top cc_95,.Lxtalabel13
	.ascii	"/Users/rkn/Documents/xTIMEcomposer/workspace/module_usb_audio/main.xc"
	.byte	0
	.long	439
	.long	440
	.long	.Lxtalabel13
.cc_bottom cc_95
.cc_top cc_96,.Lxtalabel10
	.ascii	"/Users/rkn/Documents/xTIMEcomposer/workspace/module_usb_audio/main.xc"
	.byte	0
	.long	439
	.long	440
	.long	.Lxtalabel10
.cc_bottom cc_96
.cc_top cc_97,.Lxtalabel13
	.ascii	"/Users/rkn/Documents/xTIMEcomposer/workspace/module_usb_audio/main.xc"
	.byte	0
	.long	446
	.long	446
	.long	.Lxtalabel13
.cc_bottom cc_97
.cc_top cc_98,.Lxtalabel10
	.ascii	"/Users/rkn/Documents/xTIMEcomposer/workspace/module_usb_audio/main.xc"
	.byte	0
	.long	446
	.long	446
	.long	.Lxtalabel10
.cc_bottom cc_98
.cc_top cc_99,.Lxtalabel10
	.ascii	"/Users/rkn/Documents/xTIMEcomposer/workspace/module_usb_audio/main.xc"
	.byte	0
	.long	453
	.long	453
	.long	.Lxtalabel10
.cc_bottom cc_99
.cc_top cc_100,.Lxtalabel13
	.ascii	"/Users/rkn/Documents/xTIMEcomposer/workspace/module_usb_audio/main.xc"
	.byte	0
	.long	453
	.long	453
	.long	.Lxtalabel13
.cc_bottom cc_100
.cc_top cc_101,.Lxtalabel13
	.ascii	"/Users/rkn/Documents/xTIMEcomposer/workspace/module_usb_audio/main.xc"
	.byte	0
	.long	455
	.long	455
	.long	.Lxtalabel13
.cc_bottom cc_101
.cc_top cc_102,.Lxtalabel10
	.ascii	"/Users/rkn/Documents/xTIMEcomposer/workspace/module_usb_audio/main.xc"
	.byte	0
	.long	455
	.long	455
	.long	.Lxtalabel10
.cc_bottom cc_102
.cc_top cc_103,.Lxtalabel10
	.ascii	"/Users/rkn/Documents/xTIMEcomposer/workspace/module_usb_audio/main.xc"
	.byte	0
	.long	460
	.long	461
	.long	.Lxtalabel10
.cc_bottom cc_103
.cc_top cc_104,.Lxtalabel13
	.ascii	"/Users/rkn/Documents/xTIMEcomposer/workspace/module_usb_audio/main.xc"
	.byte	0
	.long	460
	.long	461
	.long	.Lxtalabel13
.cc_bottom cc_104
.cc_top cc_105,.Lxtalabel13
	.ascii	"/Users/rkn/Documents/xTIMEcomposer/workspace/module_usb_audio/main.xc"
	.byte	0
	.long	473
	.long	474
	.long	.Lxtalabel13
.cc_bottom cc_105
.cc_top cc_106,.Lxtalabel10
	.ascii	"/Users/rkn/Documents/xTIMEcomposer/workspace/module_usb_audio/main.xc"
	.byte	0
	.long	473
	.long	474
	.long	.Lxtalabel10
.cc_bottom cc_106
.Lentries_end3:
	.section	.trap_info,"",@progbits
.Ltrap_info_entries_start0:
	.long	.Ltrap_info_entries_end0-.Ltrap_info_entries_start0
	.long	1
	.section	.trap_info_str,"MS",@progbits
.Ltrap_info_str0:
.asciiz"/Users/rkn/Documents/xTIMEcomposer/workspace/module_usb_audio/main.xc:383:110: error: passing null argument to a non-null parameter\n            Endpoint0( c_xud_out[0], c_xud_in[0], c_aud_ctl, c_mix_ctl, c_clk_ctl, c_EANativeTransport_ctrl, dfuInterface);\n                                                                                                             ^~~~~~~~~~~~\n"
	.section	.trap_info,"",@progbits
.cc_top cc_trapinfo_0,.Ltrap_info0
	.long	.Ltrap_info0
	.long	.Ltrap_info_str0
.cc_bottom cc_trapinfo_0
	.section	.trap_info_str,"MS",@progbits
.Ltrap_info_str1:
.asciiz"/Users/rkn/Documents/xTIMEcomposer/workspace/module_usb_audio/main.xc:383:110: error: passing null argument to a non-null parameter\n            Endpoint0( c_xud_out[0], c_xud_in[0], c_aud_ctl, c_mix_ctl, c_clk_ctl, c_EANativeTransport_ctrl, dfuInterface);\n                                                                                                             ^~~~~~~~~~~~\n"
	.section	.trap_info,"",@progbits
.cc_top cc_trapinfo_1,.Ltrap_info1
	.long	.Ltrap_info1
	.long	.Ltrap_info_str1
.cc_bottom cc_trapinfo_1
.Ltrap_info_entries_end0: