	.text
	.file	"/Users/rkn/Documents/xTIMEcomposer/workspace/module_usb_midi/src/midiinparse.xc"
                                        # Start of file scope inline assembly
	.set usage.anon.0,0
	.call midi_in_parse,usage.anon.0
	.call midi_in_parse,reset_midi_state
	.call dump_midi_in_parse_state,printstr
	.call dump_midi_in_parse_state,printhexln
	.call dump_midi_in_parse_state,printhex
	.set reset_midi_state.locnoside, 0
	.set midi_in_parse.locnoside, 0

                                        # End of file scope inline assembly
	.text
	.globl	dump_midi_in_parse_state
	.align	4
	.type	dump_midi_in_parse_state,@function
	.cc_top dump_midi_in_parse_state.function,dump_midi_in_parse_state
dump_midi_in_parse_state:               # @dump_midi_in_parse_state
.Lfunc_begin0:
	.file	1 "/Users/rkn/Documents/xTIMEcomposer/workspace/module_usb_midi/src/midiinparse.xc"
	.loc	1 14 0                  # /Users/rkn/Documents/xTIMEcomposer/workspace/module_usb_midi/src/midiinparse.xc:14:0
	.cfi_startproc
	.issue_mode dual
# BB#0:                                 # %allocas
.Lxtalabel0:
	{
		nop
		dualentsp 6
	}
.Ltmp0:
	.cfi_def_cfa_offset 24
.Ltmp1:
	.cfi_offset 15, 0
	std r5, r4, sp[1]               # 4-byte Folded Spill
.Ltmp2:
	.cfi_offset 4, -16
.Ltmp3:
	.cfi_offset 5, -12
.Ltmp4:
	.cfi_offset 6, -8
	#DEBUG_VALUE: dump_midi_in_parse_state:s <- R0
.Ltmp5:
	#DEBUG_VALUE: dump_midi_in_parse_state:s <- R4
	{
		mov r4, r0
		stw r6, sp[4]
	}
.Ltmp6:
	.loc	1 15 0 prologue_end     # /Users/rkn/Documents/xTIMEcomposer/workspace/module_usb_midi/src/midiinparse.xc:15:0
	ldaw r11, cp[.str]
	{
		ldc r1, 19
		mov r0, r11
	}
.Lxta.call_labels0:
	bl printstr
	{
		nop
		ldw r0, r4[0]
	}
	.loc	1 15 0                  # /Users/rkn/Documents/xTIMEcomposer/workspace/module_usb_midi/src/midiinparse.xc:15:0
	bl printhexln
	.loc	1 16 0                  # /Users/rkn/Documents/xTIMEcomposer/workspace/module_usb_midi/src/midiinparse.xc:16:0
	ldaw r11, cp[.str1]
	{
		ldc r5, 13
		mov r0, r11
	}
	{
		mov r1, r5
		nop
	}
.Lxta.call_labels1:
	bl printstr
	{
		nop
		ldw r0, r4[1]
	}
	.loc	1 16 0                  # /Users/rkn/Documents/xTIMEcomposer/workspace/module_usb_midi/src/midiinparse.xc:16:0
	bl printhexln
	.loc	1 17 0                  # /Users/rkn/Documents/xTIMEcomposer/workspace/module_usb_midi/src/midiinparse.xc:17:0
	ldaw r11, cp[.str2]
	{
		ldc r1, 18
		mov r0, r11
	}
.Lxta.call_labels2:
	bl printstr
	{
		nop
		ldw r0, r4[2]
	}
	.loc	1 17 0                  # /Users/rkn/Documents/xTIMEcomposer/workspace/module_usb_midi/src/midiinparse.xc:17:0
	bl printhex
	.loc	1 18 0                  # /Users/rkn/Documents/xTIMEcomposer/workspace/module_usb_midi/src/midiinparse.xc:18:0
	ldaw r11, cp[.str3]
	{
		ldc r6, 5
		mov r0, r11
	}
	{
		mov r1, r6
		nop
	}
.Lxta.call_labels3:
	bl printstr
	{
		nop
		ldw r0, r4[3]
	}
	.loc	1 18 0                  # /Users/rkn/Documents/xTIMEcomposer/workspace/module_usb_midi/src/midiinparse.xc:18:0
	bl printhex
	.loc	1 19 0                  # /Users/rkn/Documents/xTIMEcomposer/workspace/module_usb_midi/src/midiinparse.xc:19:0
	ldaw r11, cp[.str4]
	{
		mov r0, r11
		mov r1, r6
	}
.Lxta.call_labels4:
	bl printstr
	{
		nop
		ldw r0, r4[4]
	}
	.loc	1 19 0                  # /Users/rkn/Documents/xTIMEcomposer/workspace/module_usb_midi/src/midiinparse.xc:19:0
	bl printhexln
	.loc	1 20 0                  # /Users/rkn/Documents/xTIMEcomposer/workspace/module_usb_midi/src/midiinparse.xc:20:0
	ldaw r11, cp[.str5]
	{
		mov r0, r11
		mov r1, r5
	}
.Lxta.call_labels5:
	bl printstr
	{
		nop
		ldw r0, r4[5]
	}
	.loc	1 20 0                  # /Users/rkn/Documents/xTIMEcomposer/workspace/module_usb_midi/src/midiinparse.xc:20:0
	bl printhexln
	.loc	1 21 0                  # /Users/rkn/Documents/xTIMEcomposer/workspace/module_usb_midi/src/midiinparse.xc:21:0
	ldaw r11, cp[.str6]
	{
		ldc r1, 20
		mov r0, r11
	}
.Lxta.call_labels6:
	bl printstr
	{
		nop
		ldw r0, r4[6]
	}
	.loc	1 21 0                  # /Users/rkn/Documents/xTIMEcomposer/workspace/module_usb_midi/src/midiinparse.xc:21:0
	bl printhexln
	{
		nop
		ldw r6, sp[4]
	}
	ldd r5, r4, sp[1]               # 4-byte Folded Reload
	{
		nop
		retsp 6
	}
	# RETURN_REG_HOLDER
.Ltmp7:
	.cc_bottom dump_midi_in_parse_state.function
	.set	dump_midi_in_parse_state.nstackwords,((printhex.nstackwords $M printstr.nstackwords $M printhexln.nstackwords) + 6)
	.globl	dump_midi_in_parse_state.nstackwords
	.set	dump_midi_in_parse_state.maxcores,printhex.maxcores $M printhexln.maxcores $M printstr.maxcores $M 1
	.globl	dump_midi_in_parse_state.maxcores
	.set	dump_midi_in_parse_state.maxtimers,printhex.maxtimers $M printhexln.maxtimers $M printstr.maxtimers $M 0
	.globl	dump_midi_in_parse_state.maxtimers
	.set	dump_midi_in_parse_state.maxchanends,printhex.maxchanends $M printhexln.maxchanends $M printstr.maxchanends $M 0
	.globl	dump_midi_in_parse_state.maxchanends
.Ltmp8:
	.size	dump_midi_in_parse_state, .Ltmp8-dump_midi_in_parse_state
.Lfunc_end0:
	.cfi_endproc

	.globl	reset_midi_state
	.align	4
	.type	reset_midi_state,@function
	.cc_top reset_midi_state.function,reset_midi_state
reset_midi_state:                       # @reset_midi_state
.Lfunc_begin1:
	.loc	1 28 0                  # /Users/rkn/Documents/xTIMEcomposer/workspace/module_usb_midi/src/midiinparse.xc:28:0
	.cfi_startproc
	.issue_mode dual
# BB#0:                                 # %allocas
.Lxtalabel1:
.Ltmp9:
	.cfi_def_cfa_offset 8
.Ltmp10:
	.cfi_offset 15, 0
	#DEBUG_VALUE: reset_midi_state:mips <- R0
	{
		ldc r1, 0
		dualentsp 2
	}
	{
		ldc r2, 28
		nop
	}
	.loc	1 30 0 prologue_end     # /Users/rkn/Documents/xTIMEcomposer/workspace/module_usb_midi/src/midiinparse.xc:30:0
.Ltmp11:
	bl memset
.Ltmp12:
	{
		nop
		retsp 2
	}
	# RETURN_REG_HOLDER
.Ltmp13:
	.cc_bottom reset_midi_state.function
	.set	reset_midi_state.nstackwords,(memset.nstackwords + 2)
	.globl	reset_midi_state.nstackwords
	.set	reset_midi_state.maxcores,1
	.globl	reset_midi_state.maxcores
	.set	reset_midi_state.maxtimers,0
	.globl	reset_midi_state.maxtimers
	.set	reset_midi_state.maxchanends,0
	.globl	reset_midi_state.maxchanends
.Ltmp14:
	.size	reset_midi_state, .Ltmp14-reset_midi_state
.Lfunc_end1:
	.cfi_endproc

	.section	.cp.rodata.cst4,"aMc",@progbits,4
	.cc_top .LCPI2_0.data,.LCPI2_0
	.align	4
	.type	.LCPI2_0,@object
	.size	.LCPI2_0, 4
.LCPI2_0:
	.long	3135107085              # 0xbaddf00d
	.cc_bottom .LCPI2_0.data
	.cc_top .LCPI2_1.data,.LCPI2_1
	.align	4
	.type	.LCPI2_1,@object
	.size	.LCPI2_1, 4
.LCPI2_1:
	.long	251658240               # 0xf000000
	.cc_bottom .LCPI2_1.data
	.cc_top .LCPI2_2.data,.LCPI2_2
	.align	4
	.type	.LCPI2_2,@object
	.size	.LCPI2_2, 4
.LCPI2_2:
	.long	83886080                # 0x5000000
	.cc_bottom .LCPI2_2.data
	.cc_top .LCPI2_3.data,.LCPI2_3
	.align	4
	.type	.LCPI2_3,@object
	.size	.LCPI2_3, 4
.LCPI2_3:
	.long	67108864                # 0x4000000
	.cc_bottom .LCPI2_3.data
	.text
	.globl	midi_in_parse
	.align	4
	.type	midi_in_parse,@function
	.cc_top midi_in_parse.function,midi_in_parse
midi_in_parse:                          # @midi_in_parse
.Lfunc_begin2:
	.loc	1 57 0                  # /Users/rkn/Documents/xTIMEcomposer/workspace/module_usb_midi/src/midiinparse.xc:57:0
	.cfi_startproc
	.issue_mode dual
# BB#0:                                 # %allocas
.Lxtalabel2:
	{
		nop
		dualentsp 10
	}
.Ltmp15:
	.cfi_def_cfa_offset 40
.Ltmp16:
	.cfi_offset 15, 0
	std r5, r4, sp[1]               # 4-byte Folded Spill
.Ltmp17:
	.cfi_offset 4, -32
.Ltmp18:
	.cfi_offset 5, -28
	std r7, r6, sp[2]               # 4-byte Folded Spill
.Ltmp19:
	.cfi_offset 6, -24
.Ltmp20:
	.cfi_offset 7, -20
	std r9, r8, sp[3]               # 4-byte Folded Spill
.Ltmp21:
	.cfi_offset 8, -16
.Ltmp22:
	.cfi_offset 9, -12
.Ltmp23:
	.cfi_offset 10, -8
	#DEBUG_VALUE: midi_in_parse:state <- R0
	#DEBUG_VALUE: midi_in_parse:cable_number <- R1
	#DEBUG_VALUE: midi_in_parse:b <- R2
.Ltmp24:
	#DEBUG_VALUE: midi_in_parse:b <- R7
	{
		mov r7, r2
		stw r10, sp[8]
	}
.Ltmp25:
	#DEBUG_VALUE: midi_in_parse:cable_number <- R5
	#DEBUG_VALUE: data <- -1159860211
	#DEBUG_VALUE: valid <- 0
	#DEBUG_VALUE: midi_in_parse:state <- R4
	{
		mov r5, r1
		mov r4, r0
	}
.Ltmp26:
	ldc r0, 128
	.loc	1 72 5 prologue_end     # /Users/rkn/Documents/xTIMEcomposer/workspace/module_usb_midi/src/midiinparse.xc:72:5
.Ltmp27:
	{
		and r0, r7, r0
		nop
	}
	.loc	1 72 5                  # /Users/rkn/Documents/xTIMEcomposer/workspace/module_usb_midi/src/midiinparse.xc:72:5
	bf r0, .LBB2_21
.Ltmp28:
# BB#1:                                 # %iftrue
.Lxtalabel3:
	#DEBUG_VALUE: midi_in_parse:state <- R4
	#DEBUG_VALUE: midi_in_parse:cable_number <- R5
	#DEBUG_VALUE: midi_in_parse:b <- R7
	#DEBUG_VALUE: valid <- 0
	#DEBUG_VALUE: data <- -1159860211
	#DEBUG_VALUE: highNibble <- R8
	#DEBUG_VALUE: makeEvent:codeIndexNumber <- R8
	.loc	1 61 0                  # /Users/rkn/Documents/xTIMEcomposer/workspace/module_usb_midi/src/midiinparse.xc:61:0
	{
		shr r8, r7, 4
		mkmsk r0, 4
	}
.Ltmp29:
	.loc	1 73 9                  # /Users/rkn/Documents/xTIMEcomposer/workspace/module_usb_midi/src/midiinparse.xc:73:9
	{
		eq r0, r8, r0
		nop
	}
	.loc	1 73 9                  # /Users/rkn/Documents/xTIMEcomposer/workspace/module_usb_midi/src/midiinparse.xc:73:9
	bf r0, .LBB2_15
.Ltmp30:
# BB#2:                                 # %iftrue9
.Lxtalabel4:
	#DEBUG_VALUE: midi_in_parse:state <- R4
	#DEBUG_VALUE: midi_in_parse:cable_number <- R5
	#DEBUG_VALUE: midi_in_parse:b <- R7
	#DEBUG_VALUE: valid <- 0
	#DEBUG_VALUE: data <- -1159860211
	{
		ldc r0, 8
		nop
	}
	.loc	1 74 13                 # /Users/rkn/Documents/xTIMEcomposer/workspace/module_usb_midi/src/midiinparse.xc:74:13
	{
		and r0, r7, r0
		nop
	}
	.loc	1 74 13                 # /Users/rkn/Documents/xTIMEcomposer/workspace/module_usb_midi/src/midiinparse.xc:74:13
	bf r0, .LBB2_4
.Ltmp31:
# BB#3:                                 # %iftrue14
.Lxtalabel5:
	#DEBUG_VALUE: midi_in_parse:cable_number <- R5
	#DEBUG_VALUE: midi_in_parse:b <- R7
	#DEBUG_VALUE: valid <- 1
	#DEBUG_VALUE: data <- -1159860211
	#DEBUG_VALUE: makeEvent:midi1 <- 0
	#DEBUG_VALUE: makeEvent:midi2 <- 0
	#DEBUG_VALUE: makeEvent:cable_number <- R5
	{
		ldc r0, 28
		nop
	}
.Ltmp32:
	#DEBUG_VALUE: event <- R0
	.loc	1 44 0                  # /Users/rkn/Documents/xTIMEcomposer/workspace/module_usb_midi/src/midiinparse.xc:44:0
	{
		shl r0, r5, r0
		shl r1, r7, 16
	}
.Ltmp33:
	.loc	1 45 0                  # /Users/rkn/Documents/xTIMEcomposer/workspace/module_usb_midi/src/midiinparse.xc:45:0
	{
		or r0, r1, r0
		nop
	}
	ldw r1, cp[.LCPI2_1]
.Ltmp34:
	#DEBUG_VALUE: event <- R5
	#DEBUG_VALUE: data <- R5
	.loc	1 46 0                  # /Users/rkn/Documents/xTIMEcomposer/workspace/module_usb_midi/src/midiinparse.xc:46:0
	{
		or r5, r0, r1
		mkmsk r6, 1
	}
.Ltmp35:
	bu .LBB2_20
.Ltmp36:
.LBB2_21:                               # %iffalse
.Lxtalabel6:
	#DEBUG_VALUE: midi_in_parse:state <- R4
	#DEBUG_VALUE: midi_in_parse:cable_number <- R5
	#DEBUG_VALUE: midi_in_parse:b <- R7
	#DEBUG_VALUE: valid <- 0
	#DEBUG_VALUE: data <- -1159860211
	.loc	1 166 0                 # /Users/rkn/Documents/xTIMEcomposer/workspace/module_usb_midi/src/midiinparse.xc:166:0
	{
		mkmsk r1, 2
		ldw r0, r4[5]
	}
	.loc	1 166 0                 # /Users/rkn/Documents/xTIMEcomposer/workspace/module_usb_midi/src/midiinparse.xc:166:0
	{
		lsu r1, r0, r1
		nop
	}
.Ltrap_info0:
	{
		ecallf r1
		nop
	}
	#DEBUG_VALUE: midi_in_parse:state <- R4
	#DEBUG_VALUE: midi_in_parse:cable_number <- R5
	#DEBUG_VALUE: midi_in_parse:b <- R7
	#DEBUG_VALUE: valid <- 0
	#DEBUG_VALUE: data <- -1159860211
	.loc	1 166 0                 # /Users/rkn/Documents/xTIMEcomposer/workspace/module_usb_midi/src/midiinparse.xc:166:0
	ldaw r0, r4[r0]
	{
		nop
		stw r7, r0[2]
	}
	{
		nop
		ldw r0, r4[5]
	}
	.loc	1 167 0                 # /Users/rkn/Documents/xTIMEcomposer/workspace/module_usb_midi/src/midiinparse.xc:167:0
	{
		add r1, r0, 1
		nop
	}
	{
		nop
		stw r1, r4[5]
	}
	{
		nop
		ldw r0, r4[1]
	}
	.loc	1 168 0                 # /Users/rkn/Documents/xTIMEcomposer/workspace/module_usb_midi/src/midiinparse.xc:168:0
	{
		sub r2, r0, 1
		ldc r3, 2
	}
	{
		lsu r2, r2, r3
		nop
	}
	bf r2, .LBB2_22
.Ltmp37:
# BB#26:                                # %switchcase160
.Lxtalabel7:
	#DEBUG_VALUE: midi_in_parse:state <- R4
	#DEBUG_VALUE: midi_in_parse:cable_number <- R5
	#DEBUG_VALUE: valid <- 0
	#DEBUG_VALUE: data <- -1159860211
	{
		nop
		ldw r2, r4[0]
	}
	.loc	1 172 13                # /Users/rkn/Documents/xTIMEcomposer/workspace/module_usb_midi/src/midiinparse.xc:172:13
	{
		eq r1, r1, r2
		nop
	}
	.loc	1 172 13                # /Users/rkn/Documents/xTIMEcomposer/workspace/module_usb_midi/src/midiinparse.xc:172:13
	bf r1, .LBB2_27
.Ltmp38:
# BB#30:                                # %iftrue162
.Lxtalabel8:
	#DEBUG_VALUE: midi_in_parse:state <- R4
	#DEBUG_VALUE: midi_in_parse:cable_number <- R5
	#DEBUG_VALUE: valid <- 1
	#DEBUG_VALUE: data <- -1159860211
	{
		nop
		ldw r1, r4[6]
	}
.Ltmp39:
	#DEBUG_VALUE: makeEvent:codeIndexNumber <- R1
	{
		nop
		ldw r2, r4[2]
	}
.Ltmp40:
	#DEBUG_VALUE: makeEvent:midi0 <- R2
	{
		nop
		ldw r3, r4[3]
	}
.Ltmp41:
	#DEBUG_VALUE: makeEvent:cable_number <- R5
	#DEBUG_VALUE: makeEvent:midi2 <- R11
	#DEBUG_VALUE: makeEvent:midi1 <- R3
	.loc	1 174 0                 # /Users/rkn/Documents/xTIMEcomposer/workspace/module_usb_midi/src/midiinparse.xc:174:0
	{
		ldc r6, 28
		ldw r11, r4[4]
	}
.Ltmp42:
	#DEBUG_VALUE: event <- R5
	.loc	1 44 0                  # /Users/rkn/Documents/xTIMEcomposer/workspace/module_usb_midi/src/midiinparse.xc:44:0
	{
		shl r5, r5, r6
		shl r1, r1, 24
	}
.Ltmp43:
	#DEBUG_VALUE: event <- R1
	.loc	1 45 0                  # /Users/rkn/Documents/xTIMEcomposer/workspace/module_usb_midi/src/midiinparse.xc:45:0
	{
		or r1, r1, r5
		shl r2, r2, 16
	}
.Ltmp44:
	.loc	1 46 0                  # /Users/rkn/Documents/xTIMEcomposer/workspace/module_usb_midi/src/midiinparse.xc:46:0
	{
		or r1, r1, r2
		shl r2, r3, 8
	}
	.loc	1 47 0                  # /Users/rkn/Documents/xTIMEcomposer/workspace/module_usb_midi/src/midiinparse.xc:47:0
	{
		or r1, r1, r2
		nop
	}
.Ltmp45:
	#DEBUG_VALUE: event <- R5
	#DEBUG_VALUE: data <- R5
	.loc	1 48 0                  # /Users/rkn/Documents/xTIMEcomposer/workspace/module_usb_midi/src/midiinparse.xc:48:0
	{
		or r5, r1, r11
		eq r0, r0, 2
	}
.Ltmp46:
	.loc	1 176 17                # /Users/rkn/Documents/xTIMEcomposer/workspace/module_usb_midi/src/midiinparse.xc:176:17
	bf r0, .LBB2_32
.Ltmp47:
# BB#31:                                # %iftrue183
.Lxtalabel9:
	#DEBUG_VALUE: midi_in_parse:state <- R4
	#DEBUG_VALUE: valid <- 1
	#DEBUG_VALUE: data <- R5
	#DEBUG_VALUE: reset_midi_state:mips <- R4
	{
		ldc r1, 0
		ldc r2, 28
	}
	bu .LBB2_25
.Ltmp48:
.LBB2_15:                               # %afterboundcheck110
.Lxtalabel10:
	#DEBUG_VALUE: midi_in_parse:state <- R4
	#DEBUG_VALUE: midi_in_parse:b <- R7
	#DEBUG_VALUE: valid <- 0
	#DEBUG_VALUE: data <- -1159860211
	#DEBUG_VALUE: highNibble <- R8
	#DEBUG_VALUE: reset_midi_state:mips <- R4
	{
		ldc r6, 0
		ldc r2, 24
	}
	.loc	1 30 0                  # /Users/rkn/Documents/xTIMEcomposer/workspace/module_usb_midi/src/midiinparse.xc:30:0
.Ltmp49:
	{
		mov r0, r4
		mov r1, r6
	}
	bl memset
.Ltmp50:
	.loc	1 140 0                 # /Users/rkn/Documents/xTIMEcomposer/workspace/module_usb_midi/src/midiinparse.xc:140:0
	{
		mkmsk r0, 1
		stw r7, r4[2]
	}
	{
		nop
		stw r0, r4[5]
	}
	{
		nop
		stw r8, r4[6]
	}
	ldw r5, cp[.LCPI2_0]
	{
		ldc r1, 14
		nop
	}
	.loc	1 144 0                 # /Users/rkn/Documents/xTIMEcomposer/workspace/module_usb_midi/src/midiinparse.xc:144:0
	{
		lsu r1, r1, r8
		nop
	}
	bt r1, .LBB2_20
.Ltmp51:
# BB#16:                                # %afterboundcheck110
.Lxtalabel11:
	#DEBUG_VALUE: midi_in_parse:state <- R4
	{
		shl r1, r0, r8
		nop
	}
	ldc r2, 20224
	{
		and r2, r1, r2
		nop
	}
	bf r2, .LBB2_17
.Ltmp52:
# BB#33:                                # %switchcase129
.Lxtalabel12:
	#DEBUG_VALUE: midi_in_parse:state <- R4
	.loc	1 152 0                 # /Users/rkn/Documents/xTIMEcomposer/workspace/module_usb_midi/src/midiinparse.xc:152:0
	{
		mkmsk r0, 2
		stw r0, r4[1]
	}
	bu .LBB2_19
.Ltmp53:
.LBB2_22:                               # %afterboundcheck146
.Lxtalabel13:
	#DEBUG_VALUE: midi_in_parse:state <- R4
	#DEBUG_VALUE: midi_in_parse:cable_number <- R5
	#DEBUG_VALUE: midi_in_parse:b <- R7
	{
		eq r0, r0, 3
		nop
	}
	bf r0, .LBB2_23
.Ltmp54:
# BB#28:                                # %switchcase161
.Lxtalabel14:
	#DEBUG_VALUE: midi_in_parse:state <- R4
	#DEBUG_VALUE: midi_in_parse:cable_number <- R5
	.loc	1 190 13                # /Users/rkn/Documents/xTIMEcomposer/workspace/module_usb_midi/src/midiinparse.xc:190:13
	{
		eq r0, r1, 3
		nop
	}
	bf r0, .LBB2_27
.Ltmp55:
# BB#29:                                # %iftrue201
.Lxtalabel15:
	#DEBUG_VALUE: midi_in_parse:state <- R4
	#DEBUG_VALUE: midi_in_parse:cable_number <- R5
	.loc	1 166 0                 # /Users/rkn/Documents/xTIMEcomposer/workspace/module_usb_midi/src/midiinparse.xc:166:0
	{
		add r0, r4, 8
		ldc r1, 4
	}
	{
		nop
		stw r1, r4[6]
	}
.Ltmp56:
	#DEBUG_VALUE: valid <- 1
	{
		nop
		ldw r1, r4[2]
	}
.Ltmp57:
	#DEBUG_VALUE: makeEvent:midi0 <- R1
	{
		nop
		ldw r2, r4[3]
	}
.Ltmp58:
	#DEBUG_VALUE: makeEvent:cable_number <- R5
	#DEBUG_VALUE: makeEvent:midi2 <- R3
	#DEBUG_VALUE: makeEvent:codeIndexNumber <- 4
	#DEBUG_VALUE: makeEvent:midi1 <- R2
	.loc	1 194 0                 # /Users/rkn/Documents/xTIMEcomposer/workspace/module_usb_midi/src/midiinparse.xc:194:0
	{
		ldc r11, 28
		ldw r3, r4[4]
	}
.Ltmp59:
	#DEBUG_VALUE: event <- R11
	.loc	1 44 0                  # /Users/rkn/Documents/xTIMEcomposer/workspace/module_usb_midi/src/midiinparse.xc:44:0
	{
		shl r11, r5, r11
		shl r1, r1, 16
	}
.Ltmp60:
	.loc	1 47 0                  # /Users/rkn/Documents/xTIMEcomposer/workspace/module_usb_midi/src/midiinparse.xc:47:0
	{
		shl r2, r2, 8
		or r1, r11, r1
	}
.Ltmp61:
	.loc	1 48 0                  # /Users/rkn/Documents/xTIMEcomposer/workspace/module_usb_midi/src/midiinparse.xc:48:0
	{
		or r1, r1, r2
		nop
	}
	.loc	1 48 0                  # /Users/rkn/Documents/xTIMEcomposer/workspace/module_usb_midi/src/midiinparse.xc:48:0
	{
		or r1, r1, r3
		nop
	}
	ldw r2, cp[.LCPI2_3]
.Ltmp62:
	#DEBUG_VALUE: event <- R5
	#DEBUG_VALUE: data <- R5
	.loc	1 48 0                  # /Users/rkn/Documents/xTIMEcomposer/workspace/module_usb_midi/src/midiinparse.xc:48:0
	{
		or r5, r1, r2
		ldc r1, 0
	}
.Ltmp63:
	{
		nop
		stw r1, r0[3]
	}
	{
		nop
		stw r1, r0[2]
	}
	{
		nop
		stw r1, r0[1]
	}
.Ltmp64:
	.loc	1 198 0                 # /Users/rkn/Documents/xTIMEcomposer/workspace/module_usb_midi/src/midiinparse.xc:198:0
	{
		mkmsk r6, 1
		stw r1, r0[0]
	}
	bu .LBB2_20
.Ltmp65:
.LBB2_27:
	{
		ldc r6, 0
		nop
	}
	ldw r5, cp[.LCPI2_0]
	bu .LBB2_20
.LBB2_4:                                # %iffalse18
.Lxtalabel16:
.Ltmp66:
	#DEBUG_VALUE: midi_in_parse:state <- R4
	#DEBUG_VALUE: midi_in_parse:cable_number <- R5
	#DEBUG_VALUE: midi_in_parse:b <- R7
	#DEBUG_VALUE: valid <- 0
	#DEBUG_VALUE: data <- -1159860211
	ldc r0, 247
	.loc	1 88 17                 # /Users/rkn/Documents/xTIMEcomposer/workspace/module_usb_midi/src/midiinparse.xc:88:17
	{
		eq r0, r7, r0
		nop
	}
	bf r0, .LBB2_6
.Ltmp67:
# BB#5:                                 # %iftrue22
.Lxtalabel17:
	#DEBUG_VALUE: midi_in_parse:state <- R4
	#DEBUG_VALUE: midi_in_parse:cable_number <- R5
	#DEBUG_VALUE: midi_in_parse:b <- R7
	#DEBUG_VALUE: valid <- 0
	#DEBUG_VALUE: data <- -1159860211
	.loc	1 89 0                  # /Users/rkn/Documents/xTIMEcomposer/workspace/module_usb_midi/src/midiinparse.xc:89:0
	{
		ldc r1, 2
		ldw r0, r4[5]
	}
	.loc	1 89 0                  # /Users/rkn/Documents/xTIMEcomposer/workspace/module_usb_midi/src/midiinparse.xc:89:0
	{
		lsu r1, r1, r0
		nop
	}
.Ltrap_info1:
	{
		ecallt r1
		nop
	}
	#DEBUG_VALUE: midi_in_parse:state <- R4
	#DEBUG_VALUE: midi_in_parse:cable_number <- R5
	#DEBUG_VALUE: midi_in_parse:b <- R7
	#DEBUG_VALUE: valid <- 0
	#DEBUG_VALUE: data <- -1159860211
	.loc	1 89 0                  # /Users/rkn/Documents/xTIMEcomposer/workspace/module_usb_midi/src/midiinparse.xc:89:0
	{
		add r1, r4, 8
		nop
	}
	.loc	1 89 0                  # /Users/rkn/Documents/xTIMEcomposer/workspace/module_usb_midi/src/midiinparse.xc:89:0
	stw r7, r1[r0]
	{
		nop
		ldw r0, r4[5]
	}
	.loc	1 90 0                  # /Users/rkn/Documents/xTIMEcomposer/workspace/module_usb_midi/src/midiinparse.xc:90:0
	{
		add r1, r0, 1
		nop
	}
.Ltmp68:
	#DEBUG_VALUE: makeEvent:codeIndexNumber <- R0
	.loc	1 90 0                  # /Users/rkn/Documents/xTIMEcomposer/workspace/module_usb_midi/src/midiinparse.xc:90:0
	{
		add r0, r0, 5
		stw r1, r4[5]
	}
.Ltmp69:
	{
		nop
		stw r0, r4[6]
	}
.Ltmp70:
	#DEBUG_VALUE: valid <- 1
	{
		nop
		ldw r1, r4[2]
	}
.Ltmp71:
	#DEBUG_VALUE: makeEvent:midi0 <- R1
	{
		nop
		ldw r3, r4[3]
	}
.Ltmp72:
	#DEBUG_VALUE: makeEvent:cable_number <- R5
	#DEBUG_VALUE: makeEvent:midi2 <- R11
	#DEBUG_VALUE: makeEvent:midi1 <- R3
	.loc	1 95 0                  # /Users/rkn/Documents/xTIMEcomposer/workspace/module_usb_midi/src/midiinparse.xc:95:0
	{
		ldc r2, 28
		ldw r11, r4[4]
	}
.Ltmp73:
	#DEBUG_VALUE: event <- R5
	.loc	1 44 0                  # /Users/rkn/Documents/xTIMEcomposer/workspace/module_usb_midi/src/midiinparse.xc:44:0
	{
		shl r5, r5, r2
		shl r0, r0, 24
	}
.Ltmp74:
	#DEBUG_VALUE: event <- R0
	.loc	1 45 0                  # /Users/rkn/Documents/xTIMEcomposer/workspace/module_usb_midi/src/midiinparse.xc:45:0
	{
		or r0, r0, r5
		shl r1, r1, 16
	}
.Ltmp75:
	.loc	1 46 0                  # /Users/rkn/Documents/xTIMEcomposer/workspace/module_usb_midi/src/midiinparse.xc:46:0
	{
		or r0, r0, r1
		shl r1, r3, 8
	}
	.loc	1 47 0                  # /Users/rkn/Documents/xTIMEcomposer/workspace/module_usb_midi/src/midiinparse.xc:47:0
	{
		or r0, r0, r1
		nop
	}
	.loc	1 48 0                  # /Users/rkn/Documents/xTIMEcomposer/workspace/module_usb_midi/src/midiinparse.xc:48:0
	{
		or r5, r0, r11
		nop
	}
	bu .LBB2_24
.Ltmp76:
.LBB2_32:                               # %iffalse190
.Lxtalabel18:
	#DEBUG_VALUE: midi_in_parse:state <- R4
	#DEBUG_VALUE: valid <- 1
	#DEBUG_VALUE: data <- R5
	{
		mkmsk r6, 1
		nop
	}
	.loc	1 181 0                 # /Users/rkn/Documents/xTIMEcomposer/workspace/module_usb_midi/src/midiinparse.xc:181:0
	{
		ldc r0, 0
		stw r6, r4[5]
	}
	{
		nop
		stw r0, r4[3]
	}
	{
		nop
		stw r0, r4[4]
	}
	bu .LBB2_20
.Ltmp77:
.LBB2_23:                               # %switchdefault157
.Lxtalabel19:
	#DEBUG_VALUE: midi_in_parse:state <- R4
	#DEBUG_VALUE: midi_in_parse:cable_number <- R5
	#DEBUG_VALUE: midi_in_parse:b <- R7
	#DEBUG_VALUE: valid <- 1
	#DEBUG_VALUE: makeEvent:codeIndexNumber <- 15
	#DEBUG_VALUE: makeEvent:midi1 <- 0
	#DEBUG_VALUE: makeEvent:midi2 <- 0
	#DEBUG_VALUE: makeEvent:cable_number <- R5
	{
		ldc r2, 28
		nop
	}
.Ltmp78:
	#DEBUG_VALUE: event <- R0
	.loc	1 44 0                  # /Users/rkn/Documents/xTIMEcomposer/workspace/module_usb_midi/src/midiinparse.xc:44:0
	{
		shl r0, r5, r2
		shl r1, r7, 16
	}
.Ltmp79:
	.loc	1 46 0                  # /Users/rkn/Documents/xTIMEcomposer/workspace/module_usb_midi/src/midiinparse.xc:46:0
	{
		or r0, r0, r1
		nop
	}
	ldw r1, cp[.LCPI2_1]
	.loc	1 46 0                  # /Users/rkn/Documents/xTIMEcomposer/workspace/module_usb_midi/src/midiinparse.xc:46:0
	{
		or r5, r0, r1
		nop
	}
.Ltmp80:
.LBB2_24:                               # %ifdone
.Lxtalabel20:
	#DEBUG_VALUE: reset_midi_state:mips <- R4
	#DEBUG_VALUE: event <- R5
	#DEBUG_VALUE: data <- R5
	{
		ldc r1, 0
		nop
	}
.Ltmp81:
.LBB2_25:                               # %ifdone
.Lxtalabel21:
	.loc	1 30 0                  # /Users/rkn/Documents/xTIMEcomposer/workspace/module_usb_midi/src/midiinparse.xc:30:0
	{
		mov r0, r4
		nop
	}
	bl memset
	{
		mkmsk r6, 1
		nop
	}
	bu .LBB2_20
.Ltmp82:
.LBB2_6:                                # %afterboundcheck57
.Lxtalabel22:
	#DEBUG_VALUE: midi_in_parse:state <- R4
	#DEBUG_VALUE: midi_in_parse:cable_number <- R5
	#DEBUG_VALUE: midi_in_parse:b <- R7
	#DEBUG_VALUE: valid <- 0
	#DEBUG_VALUE: data <- -1159860211
	.loc	1 62 0                  # /Users/rkn/Documents/xTIMEcomposer/workspace/module_usb_midi/src/midiinparse.xc:62:0
	{
		mov r10, r7
		nop
	}
.Ltmp83:
	#DEBUG_VALUE: reset_midi_state:mips <- R4
	#DEBUG_VALUE: lowNibble <- R10
	{
		zext r10, 4
		ldc r8, 0
	}
.Ltmp84:
	{
		ldc r9, 28
		mov r0, r4
	}
	.loc	1 30 0                  # /Users/rkn/Documents/xTIMEcomposer/workspace/module_usb_midi/src/midiinparse.xc:30:0
.Ltmp85:
	{
		mov r1, r8
		mov r2, r9
	}
	bl memset
.Ltmp86:
	.loc	1 100 0                 # /Users/rkn/Documents/xTIMEcomposer/workspace/module_usb_midi/src/midiinparse.xc:100:0
	{
		mkmsk r6, 1
		stw r7, r4[2]
	}
	.loc	1 101 0                 # /Users/rkn/Documents/xTIMEcomposer/workspace/module_usb_midi/src/midiinparse.xc:101:0
	{
		ldc r0, 6
		stw r6, r4[5]
	}
	.loc	1 102 0                 # /Users/rkn/Documents/xTIMEcomposer/workspace/module_usb_midi/src/midiinparse.xc:102:0
	{
		lsu r0, r0, r10
		nop
	}
	bt r0, .LBB2_8
.Ltmp87:
# BB#7:                                 # %afterboundcheck57
.Lxtalabel23:
	#DEBUG_VALUE: midi_in_parse:state <- R4
	#DEBUG_VALUE: midi_in_parse:cable_number <- R5
	#DEBUG_VALUE: midi_in_parse:b <- R7

	.xtabranch .Ljumptable0+4,.Ljumptable0+8,.Ljumptable0+12,.Ljumptable0+16,.Ljumptable0+20,.Ljumptable0+24,.Ljumptable0+28
.Ljumptable0:
		
	{
		nop
		bru r10
	}
	.jmptable32 .LBB2_13,.LBB2_10,.LBB2_9,.LBB2_10,.LBB2_8,.LBB2_8,.LBB2_12
.Ltmp88:
.LBB2_10:                               # %switchcase72
.Lxtalabel24:
	#DEBUG_VALUE: midi_in_parse:state <- R4
	{
		ldc r0, 2
		nop
	}
	{
		nop
		stw r0, r4[1]
	}
	bu .LBB2_11
.Ltmp89:
.LBB2_17:                               # %afterboundcheck110
.Lxtalabel25:
	#DEBUG_VALUE: midi_in_parse:state <- R4
	ldc r2, 12288
	{
		and r1, r1, r2
		nop
	}
	bf r1, .LBB2_20
.Ltmp90:
# BB#18:                                # %switchcase136
.Lxtalabel26:
	#DEBUG_VALUE: midi_in_parse:state <- R4
	.loc	1 159 0                 # /Users/rkn/Documents/xTIMEcomposer/workspace/module_usb_midi/src/midiinparse.xc:159:0
	{
		ldc r0, 2
		stw r0, r4[1]
	}
.Ltmp91:
.LBB2_19:                               # %ifdone
.Lxtalabel27:
	{
		nop
		stw r0, r4[0]
	}
	bu .LBB2_20
.LBB2_8:                                # %switchdefault
.Lxtalabel28:
.Ltmp92:
	#DEBUG_VALUE: midi_in_parse:state <- R4
	#DEBUG_VALUE: midi_in_parse:cable_number <- R5
	#DEBUG_VALUE: midi_in_parse:b <- R7
	#DEBUG_VALUE: valid <- 1
	#DEBUG_VALUE: data <- -1159860211
	#DEBUG_VALUE: makeEvent:codeIndexNumber <- 15
	#DEBUG_VALUE: makeEvent:midi1 <- 0
	#DEBUG_VALUE: makeEvent:midi2 <- 0
	#DEBUG_VALUE: makeEvent:cable_number <- R5
	#DEBUG_VALUE: event <- R0
	.loc	1 44 0                  # /Users/rkn/Documents/xTIMEcomposer/workspace/module_usb_midi/src/midiinparse.xc:44:0
	{
		shl r0, r5, r9
		shl r1, r7, 16
	}
.Ltmp93:
	.loc	1 46 0                  # /Users/rkn/Documents/xTIMEcomposer/workspace/module_usb_midi/src/midiinparse.xc:46:0
	{
		or r0, r0, r1
		nop
	}
	ldw r1, cp[.LCPI2_1]
.Ltmp94:
	#DEBUG_VALUE: reset_midi_state:mips <- R4
	#DEBUG_VALUE: event <- R5
	#DEBUG_VALUE: data <- R5
	.loc	1 46 0                  # /Users/rkn/Documents/xTIMEcomposer/workspace/module_usb_midi/src/midiinparse.xc:46:0
	{
		or r5, r0, r1
		ldc r1, 0
	}
.Ltmp95:
	.loc	1 30 0                  # /Users/rkn/Documents/xTIMEcomposer/workspace/module_usb_midi/src/midiinparse.xc:30:0
	{
		mov r0, r4
		mov r2, r9
	}
	bl memset
	bu .LBB2_20
.Ltmp96:
.LBB2_13:                               # %switchcase81
.Lxtalabel29:
	#DEBUG_VALUE: midi_in_parse:state <- R4
	{
		mkmsk r0, 2
		nop
	}
	{
		nop
		stw r0, r4[1]
	}
	bu .LBB2_14
.Ltmp97:
.LBB2_9:                                # %switchcase
.Lxtalabel30:
	#DEBUG_VALUE: midi_in_parse:state <- R4
	{
		ldc r0, 2
		nop
	}
	.loc	1 106 0                 # /Users/rkn/Documents/xTIMEcomposer/workspace/module_usb_midi/src/midiinparse.xc:106:0
	{
		mkmsk r0, 2
		stw r0, r4[1]
	}
.Ltmp98:
.LBB2_11:                               # %ifdone
.Lxtalabel31:
	{
		nop
		stw r0, r4[0]
	}
	{
		nop
		stw r0, r4[6]
	}
.LBB2_14:                               # %ifdone
.Lxtalabel32:
	ldw r5, cp[.LCPI2_0]
	{
		mov r6, r8
		nop
	}
	bu .LBB2_20
.LBB2_12:                               # %switchcase73
.Lxtalabel33:
.Ltmp99:
	#DEBUG_VALUE: midi_in_parse:state <- R4
	#DEBUG_VALUE: midi_in_parse:cable_number <- R5
	#DEBUG_VALUE: midi_in_parse:b <- R7
	{
		ldc r0, 5
		nop
	}
.Ltmp100:
	#DEBUG_VALUE: makeEvent:cable_number <- R5
	#DEBUG_VALUE: makeEvent:midi2 <- 0
	#DEBUG_VALUE: makeEvent:midi1 <- 0
	#DEBUG_VALUE: makeEvent:codeIndexNumber <- 5
	#DEBUG_VALUE: valid <- 1
	#DEBUG_VALUE: event <- R0
	.loc	1 120 0                 # /Users/rkn/Documents/xTIMEcomposer/workspace/module_usb_midi/src/midiinparse.xc:120:0
	{
		shl r0, r5, r9
		stw r0, r4[6]
	}
.Ltmp101:
	.loc	1 46 0                  # /Users/rkn/Documents/xTIMEcomposer/workspace/module_usb_midi/src/midiinparse.xc:46:0
	{
		shl r1, r7, 16
		nop
	}
	.loc	1 47 0                  # /Users/rkn/Documents/xTIMEcomposer/workspace/module_usb_midi/src/midiinparse.xc:47:0
	{
		or r0, r0, r1
		nop
	}
	ldw r1, cp[.LCPI2_2]
	.loc	1 48 0                  # /Users/rkn/Documents/xTIMEcomposer/workspace/module_usb_midi/src/midiinparse.xc:48:0
	{
		or r5, r0, r1
		nop
	}
.Ltmp102:
	#DEBUG_VALUE: event <- R5
	#DEBUG_VALUE: data <- R5
.LBB2_20:                               # %ifdone
.Lxtalabel34:
	{
		mov r0, r6
		mov r1, r5
	}
	{
		nop
		ldw r10, sp[8]
	}
	ldd r9, r8, sp[3]               # 4-byte Folded Reload
	ldd r7, r6, sp[2]               # 4-byte Folded Reload
	ldd r5, r4, sp[1]               # 4-byte Folded Reload
	{
		nop
		retsp 10
	}
	# RETURN_REG_HOLDER
	.cc_bottom midi_in_parse.function
	.set	midi_in_parse.nstackwords,(memset.nstackwords + 10)
	.globl	midi_in_parse.nstackwords
	.set	midi_in_parse.maxcores,1
	.globl	midi_in_parse.maxcores
	.set	midi_in_parse.maxtimers,0
	.globl	midi_in_parse.maxtimers
	.set	midi_in_parse.maxchanends,0
	.globl	midi_in_parse.maxchanends
.Ltmp103:
	.size	midi_in_parse, .Ltmp103-midi_in_parse
.Lfunc_end2:
	.cfi_endproc

	.section	.cp.rodata.4,"ac",@progbits
	.cc_top .str.data,.str
	.align	4
	.type	.str,@object
	.size	.str, 19
.str:
.asciiz"expect_msg_len: 0x"
	.cc_bottom .str.data
	.cc_top .str1.data,.str1
	.align	4
	.type	.str1,@object
	.size	.str1, 13
.str1:
.asciiz"msg_type: 0x"
	.cc_bottom .str1.data
	.cc_top .str2.data,.str2
	.align	4
	.type	.str2,@object
	.size	.str2, 18
.str2:
.asciiz"receivebuffer: 0x"
	.cc_bottom .str2.data
	.cc_top .str3.data,.str3
	.align	4
	.type	.str3,@object
	.size	.str3, 5
.str3:
.asciiz", 0x"
	.cc_bottom .str3.data
	.cc_top .str4.data,.str4
	.align	4
	.type	.str4,@object
	.size	.str4, 5
.str4:
.asciiz", 0x"
	.cc_bottom .str4.data
	.cc_top .str5.data,.str5
	.align	4
	.type	.str5,@object
	.size	.str5, 13
.str5:
.asciiz"received: 0x"
	.cc_bottom .str5.data
	.cc_top .str6.data,.str6
	.align	4
	.type	.str6,@object
	.size	.str6, 20
.str6:
.asciiz"codeIndexNumber: 0x"
	.cc_bottom .str6.data
	.text
.Ldebug_end0:
	.section	.xtacalltable,"",@progbits
.Lentries_start0:
	.long	.Lentries_end1-.Lentries_start0
	.long	0
	.ascii	"/Users/rkn/Documents/xTIMEcomposer/workspace/app_usb_aud_xk_216_mc/.build_2i32o32xxxxx_tdm8"
	.byte	0
.cc_top cc_0,.Lxta.call_labels0
	.ascii	"/Users/rkn/Documents/xTIMEcomposer/workspace/module_usb_midi/src/midiinparse.xc"
	.byte	0
	.long	15
	.long	.Lxta.call_labels0
.cc_bottom cc_0
.cc_top cc_1,.Lxta.call_labels1
	.ascii	"/Users/rkn/Documents/xTIMEcomposer/workspace/module_usb_midi/src/midiinparse.xc"
	.byte	0
	.long	16
	.long	.Lxta.call_labels1
.cc_bottom cc_1
.cc_top cc_2,.Lxta.call_labels2
	.ascii	"/Users/rkn/Documents/xTIMEcomposer/workspace/module_usb_midi/src/midiinparse.xc"
	.byte	0
	.long	17
	.long	.Lxta.call_labels2
.cc_bottom cc_2
.cc_top cc_3,.Lxta.call_labels3
	.ascii	"/Users/rkn/Documents/xTIMEcomposer/workspace/module_usb_midi/src/midiinparse.xc"
	.byte	0
	.long	18
	.long	.Lxta.call_labels3
.cc_bottom cc_3
.cc_top cc_4,.Lxta.call_labels4
	.ascii	"/Users/rkn/Documents/xTIMEcomposer/workspace/module_usb_midi/src/midiinparse.xc"
	.byte	0
	.long	19
	.long	.Lxta.call_labels4
.cc_bottom cc_4
.cc_top cc_5,.Lxta.call_labels5
	.ascii	"/Users/rkn/Documents/xTIMEcomposer/workspace/module_usb_midi/src/midiinparse.xc"
	.byte	0
	.long	20
	.long	.Lxta.call_labels5
.cc_bottom cc_5
.cc_top cc_6,.Lxta.call_labels6
	.ascii	"/Users/rkn/Documents/xTIMEcomposer/workspace/module_usb_midi/src/midiinparse.xc"
	.byte	0
	.long	21
	.long	.Lxta.call_labels6
.cc_bottom cc_6
.Lentries_end1:
	.section	.xtalabeltable,"",@progbits
.Lentries_start2:
	.long	.Lentries_end3-.Lentries_start2
	.long	0
	.ascii	"/Users/rkn/Documents/xTIMEcomposer/workspace/app_usb_aud_xk_216_mc/.build_2i32o32xxxxx_tdm8"
	.byte	0
.cc_top cc_7,.Lxtalabel0
	.ascii	"/Users/rkn/Documents/xTIMEcomposer/workspace/module_usb_midi/src/midiinparse.xc"
	.byte	0
	.long	15
	.long	22
	.long	.Lxtalabel0
.cc_bottom cc_7
.cc_top cc_8,.Lxtalabel1
	.ascii	"/Users/rkn/Documents/xTIMEcomposer/workspace/module_usb_midi/src/midiinparse.xc"
	.byte	0
	.long	29
	.long	30
	.long	.Lxtalabel1
.cc_bottom cc_8
.cc_top cc_9,.Lxtalabel9
	.ascii	"/Users/rkn/Documents/xTIMEcomposer/workspace/module_usb_midi/src/midiinparse.xc"
	.byte	0
	.long	29
	.long	30
	.long	.Lxtalabel9
.cc_bottom cc_9
.cc_top cc_10,.Lxtalabel19
	.ascii	"/Users/rkn/Documents/xTIMEcomposer/workspace/module_usb_midi/src/midiinparse.xc"
	.byte	0
	.long	29
	.long	30
	.long	.Lxtalabel19
.cc_bottom cc_10
.cc_top cc_11,.Lxtalabel22
	.ascii	"/Users/rkn/Documents/xTIMEcomposer/workspace/module_usb_midi/src/midiinparse.xc"
	.byte	0
	.long	29
	.long	30
	.long	.Lxtalabel22
.cc_bottom cc_11
.cc_top cc_12,.Lxtalabel23
	.ascii	"/Users/rkn/Documents/xTIMEcomposer/workspace/module_usb_midi/src/midiinparse.xc"
	.byte	0
	.long	29
	.long	30
	.long	.Lxtalabel23
.cc_bottom cc_12
.cc_top cc_13,.Lxtalabel11
	.ascii	"/Users/rkn/Documents/xTIMEcomposer/workspace/module_usb_midi/src/midiinparse.xc"
	.byte	0
	.long	29
	.long	30
	.long	.Lxtalabel11
.cc_bottom cc_13
.cc_top cc_14,.Lxtalabel25
	.ascii	"/Users/rkn/Documents/xTIMEcomposer/workspace/module_usb_midi/src/midiinparse.xc"
	.byte	0
	.long	29
	.long	30
	.long	.Lxtalabel25
.cc_bottom cc_14
.cc_top cc_15,.Lxtalabel10
	.ascii	"/Users/rkn/Documents/xTIMEcomposer/workspace/module_usb_midi/src/midiinparse.xc"
	.byte	0
	.long	29
	.long	30
	.long	.Lxtalabel10
.cc_bottom cc_15
.cc_top cc_16,.Lxtalabel28
	.ascii	"/Users/rkn/Documents/xTIMEcomposer/workspace/module_usb_midi/src/midiinparse.xc"
	.byte	0
	.long	29
	.long	30
	.long	.Lxtalabel28
.cc_bottom cc_16
.cc_top cc_17,.Lxtalabel10
	.ascii	"/Users/rkn/Documents/xTIMEcomposer/workspace/module_usb_midi/src/midiinparse.xc"
	.byte	0
	.long	32
	.long	37
	.long	.Lxtalabel10
.cc_bottom cc_17
.cc_top cc_18,.Lxtalabel28
	.ascii	"/Users/rkn/Documents/xTIMEcomposer/workspace/module_usb_midi/src/midiinparse.xc"
	.byte	0
	.long	32
	.long	37
	.long	.Lxtalabel28
.cc_bottom cc_18
.cc_top cc_19,.Lxtalabel22
	.ascii	"/Users/rkn/Documents/xTIMEcomposer/workspace/module_usb_midi/src/midiinparse.xc"
	.byte	0
	.long	32
	.long	37
	.long	.Lxtalabel22
.cc_bottom cc_19
.cc_top cc_20,.Lxtalabel23
	.ascii	"/Users/rkn/Documents/xTIMEcomposer/workspace/module_usb_midi/src/midiinparse.xc"
	.byte	0
	.long	32
	.long	37
	.long	.Lxtalabel23
.cc_bottom cc_20
.cc_top cc_21,.Lxtalabel11
	.ascii	"/Users/rkn/Documents/xTIMEcomposer/workspace/module_usb_midi/src/midiinparse.xc"
	.byte	0
	.long	32
	.long	37
	.long	.Lxtalabel11
.cc_bottom cc_21
.cc_top cc_22,.Lxtalabel19
	.ascii	"/Users/rkn/Documents/xTIMEcomposer/workspace/module_usb_midi/src/midiinparse.xc"
	.byte	0
	.long	32
	.long	37
	.long	.Lxtalabel19
.cc_bottom cc_22
.cc_top cc_23,.Lxtalabel1
	.ascii	"/Users/rkn/Documents/xTIMEcomposer/workspace/module_usb_midi/src/midiinparse.xc"
	.byte	0
	.long	32
	.long	37
	.long	.Lxtalabel1
.cc_bottom cc_23
.cc_top cc_24,.Lxtalabel9
	.ascii	"/Users/rkn/Documents/xTIMEcomposer/workspace/module_usb_midi/src/midiinparse.xc"
	.byte	0
	.long	32
	.long	37
	.long	.Lxtalabel9
.cc_bottom cc_24
.cc_top cc_25,.Lxtalabel25
	.ascii	"/Users/rkn/Documents/xTIMEcomposer/workspace/module_usb_midi/src/midiinparse.xc"
	.byte	0
	.long	32
	.long	37
	.long	.Lxtalabel25
.cc_bottom cc_25
.cc_top cc_26,.Lxtalabel33
	.ascii	"/Users/rkn/Documents/xTIMEcomposer/workspace/module_usb_midi/src/midiinparse.xc"
	.byte	0
	.long	44
	.long	48
	.long	.Lxtalabel33
.cc_bottom cc_26
.cc_top cc_27,.Lxtalabel19
	.ascii	"/Users/rkn/Documents/xTIMEcomposer/workspace/module_usb_midi/src/midiinparse.xc"
	.byte	0
	.long	44
	.long	48
	.long	.Lxtalabel19
.cc_bottom cc_27
.cc_top cc_28,.Lxtalabel5
	.ascii	"/Users/rkn/Documents/xTIMEcomposer/workspace/module_usb_midi/src/midiinparse.xc"
	.byte	0
	.long	44
	.long	48
	.long	.Lxtalabel5
.cc_bottom cc_28
.cc_top cc_29,.Lxtalabel28
	.ascii	"/Users/rkn/Documents/xTIMEcomposer/workspace/module_usb_midi/src/midiinparse.xc"
	.byte	0
	.long	44
	.long	48
	.long	.Lxtalabel28
.cc_bottom cc_29
.cc_top cc_30,.Lxtalabel15
	.ascii	"/Users/rkn/Documents/xTIMEcomposer/workspace/module_usb_midi/src/midiinparse.xc"
	.byte	0
	.long	44
	.long	48
	.long	.Lxtalabel15
.cc_bottom cc_30
.cc_top cc_31,.Lxtalabel8
	.ascii	"/Users/rkn/Documents/xTIMEcomposer/workspace/module_usb_midi/src/midiinparse.xc"
	.byte	0
	.long	44
	.long	48
	.long	.Lxtalabel8
.cc_bottom cc_31
.cc_top cc_32,.Lxtalabel19
	.ascii	"/Users/rkn/Documents/xTIMEcomposer/workspace/module_usb_midi/src/midiinparse.xc"
	.byte	0
	.long	50
	.long	51
	.long	.Lxtalabel19
.cc_bottom cc_32
.cc_top cc_33,.Lxtalabel33
	.ascii	"/Users/rkn/Documents/xTIMEcomposer/workspace/module_usb_midi/src/midiinparse.xc"
	.byte	0
	.long	50
	.long	51
	.long	.Lxtalabel33
.cc_bottom cc_33
.cc_top cc_34,.Lxtalabel15
	.ascii	"/Users/rkn/Documents/xTIMEcomposer/workspace/module_usb_midi/src/midiinparse.xc"
	.byte	0
	.long	50
	.long	51
	.long	.Lxtalabel15
.cc_bottom cc_34
.cc_top cc_35,.Lxtalabel5
	.ascii	"/Users/rkn/Documents/xTIMEcomposer/workspace/module_usb_midi/src/midiinparse.xc"
	.byte	0
	.long	50
	.long	51
	.long	.Lxtalabel5
.cc_bottom cc_35
.cc_top cc_36,.Lxtalabel8
	.ascii	"/Users/rkn/Documents/xTIMEcomposer/workspace/module_usb_midi/src/midiinparse.xc"
	.byte	0
	.long	50
	.long	51
	.long	.Lxtalabel8
.cc_bottom cc_36
.cc_top cc_37,.Lxtalabel28
	.ascii	"/Users/rkn/Documents/xTIMEcomposer/workspace/module_usb_midi/src/midiinparse.xc"
	.byte	0
	.long	50
	.long	51
	.long	.Lxtalabel28
.cc_bottom cc_37
.cc_top cc_38,.Lxtalabel2
	.ascii	"/Users/rkn/Documents/xTIMEcomposer/workspace/module_usb_midi/src/midiinparse.xc"
	.byte	0
	.long	58
	.long	59
	.long	.Lxtalabel2
.cc_bottom cc_38
.cc_top cc_39,.Lxtalabel2
	.ascii	"/Users/rkn/Documents/xTIMEcomposer/workspace/module_usb_midi/src/midiinparse.xc"
	.byte	0
	.long	61
	.long	62
	.long	.Lxtalabel2
.cc_bottom cc_39
.cc_top cc_40,.Lxtalabel2
	.ascii	"/Users/rkn/Documents/xTIMEcomposer/workspace/module_usb_midi/src/midiinparse.xc"
	.byte	0
	.long	72
	.long	72
	.long	.Lxtalabel2
.cc_bottom cc_40
.cc_top cc_41,.Lxtalabel3
	.ascii	"/Users/rkn/Documents/xTIMEcomposer/workspace/module_usb_midi/src/midiinparse.xc"
	.byte	0
	.long	73
	.long	73
	.long	.Lxtalabel3
.cc_bottom cc_41
.cc_top cc_42,.Lxtalabel4
	.ascii	"/Users/rkn/Documents/xTIMEcomposer/workspace/module_usb_midi/src/midiinparse.xc"
	.byte	0
	.long	74
	.long	74
	.long	.Lxtalabel4
.cc_bottom cc_42
.cc_top cc_43,.Lxtalabel5
	.ascii	"/Users/rkn/Documents/xTIMEcomposer/workspace/module_usb_midi/src/midiinparse.xc"
	.byte	0
	.long	85
	.long	87
	.long	.Lxtalabel5
.cc_bottom cc_43
.cc_top cc_44,.Lxtalabel16
	.ascii	"/Users/rkn/Documents/xTIMEcomposer/workspace/module_usb_midi/src/midiinparse.xc"
	.byte	0
	.long	88
	.long	88
	.long	.Lxtalabel16
.cc_bottom cc_44
.cc_top cc_45,.Lxtalabel17
	.ascii	"/Users/rkn/Documents/xTIMEcomposer/workspace/module_usb_midi/src/midiinparse.xc"
	.byte	0
	.long	89
	.long	90
	.long	.Lxtalabel17
.cc_bottom cc_45
.cc_top cc_46,.Lxtalabel17
	.ascii	"/Users/rkn/Documents/xTIMEcomposer/workspace/module_usb_midi/src/midiinparse.xc"
	.byte	0
	.long	93
	.long	98
	.long	.Lxtalabel17
.cc_bottom cc_46
.cc_top cc_47,.Lxtalabel23
	.ascii	"/Users/rkn/Documents/xTIMEcomposer/workspace/module_usb_midi/src/midiinparse.xc"
	.byte	0
	.long	99
	.long	104
	.long	.Lxtalabel23
.cc_bottom cc_47
.cc_top cc_48,.Lxtalabel22
	.ascii	"/Users/rkn/Documents/xTIMEcomposer/workspace/module_usb_midi/src/midiinparse.xc"
	.byte	0
	.long	99
	.long	104
	.long	.Lxtalabel22
.cc_bottom cc_48
.cc_top cc_49,.Lxtalabel30
	.ascii	"/Users/rkn/Documents/xTIMEcomposer/workspace/module_usb_midi/src/midiinparse.xc"
	.byte	0
	.long	105
	.long	111
	.long	.Lxtalabel30
.cc_bottom cc_49
.cc_top cc_50,.Lxtalabel23
	.ascii	"/Users/rkn/Documents/xTIMEcomposer/workspace/module_usb_midi/src/midiinparse.xc"
	.byte	0
	.long	112
	.long	112
	.long	.Lxtalabel23
.cc_bottom cc_50
.cc_top cc_51,.Lxtalabel22
	.ascii	"/Users/rkn/Documents/xTIMEcomposer/workspace/module_usb_midi/src/midiinparse.xc"
	.byte	0
	.long	112
	.long	112
	.long	.Lxtalabel22
.cc_bottom cc_51
.cc_top cc_52,.Lxtalabel24
	.ascii	"/Users/rkn/Documents/xTIMEcomposer/workspace/module_usb_midi/src/midiinparse.xc"
	.byte	0
	.long	113
	.long	119
	.long	.Lxtalabel24
.cc_bottom cc_52
.cc_top cc_53,.Lxtalabel33
	.ascii	"/Users/rkn/Documents/xTIMEcomposer/workspace/module_usb_midi/src/midiinparse.xc"
	.byte	0
	.long	120
	.long	125
	.long	.Lxtalabel33
.cc_bottom cc_53
.cc_top cc_54,.Lxtalabel29
	.ascii	"/Users/rkn/Documents/xTIMEcomposer/workspace/module_usb_midi/src/midiinparse.xc"
	.byte	0
	.long	126
	.long	128
	.long	.Lxtalabel29
.cc_bottom cc_54
.cc_top cc_55,.Lxtalabel28
	.ascii	"/Users/rkn/Documents/xTIMEcomposer/workspace/module_usb_midi/src/midiinparse.xc"
	.byte	0
	.long	131
	.long	135
	.long	.Lxtalabel28
.cc_bottom cc_55
.cc_top cc_56,.Lxtalabel11
	.ascii	"/Users/rkn/Documents/xTIMEcomposer/workspace/module_usb_midi/src/midiinparse.xc"
	.byte	0
	.long	139
	.long	141
	.long	.Lxtalabel11
.cc_bottom cc_56
.cc_top cc_57,.Lxtalabel25
	.ascii	"/Users/rkn/Documents/xTIMEcomposer/workspace/module_usb_midi/src/midiinparse.xc"
	.byte	0
	.long	139
	.long	141
	.long	.Lxtalabel25
.cc_bottom cc_57
.cc_top cc_58,.Lxtalabel10
	.ascii	"/Users/rkn/Documents/xTIMEcomposer/workspace/module_usb_midi/src/midiinparse.xc"
	.byte	0
	.long	139
	.long	141
	.long	.Lxtalabel10
.cc_bottom cc_58
.cc_top cc_59,.Lxtalabel11
	.ascii	"/Users/rkn/Documents/xTIMEcomposer/workspace/module_usb_midi/src/midiinparse.xc"
	.byte	0
	.long	143
	.long	146
	.long	.Lxtalabel11
.cc_bottom cc_59
.cc_top cc_60,.Lxtalabel25
	.ascii	"/Users/rkn/Documents/xTIMEcomposer/workspace/module_usb_midi/src/midiinparse.xc"
	.byte	0
	.long	143
	.long	146
	.long	.Lxtalabel25
.cc_bottom cc_60
.cc_top cc_61,.Lxtalabel10
	.ascii	"/Users/rkn/Documents/xTIMEcomposer/workspace/module_usb_midi/src/midiinparse.xc"
	.byte	0
	.long	143
	.long	146
	.long	.Lxtalabel10
.cc_bottom cc_61
.cc_top cc_62,.Lxtalabel10
	.ascii	"/Users/rkn/Documents/xTIMEcomposer/workspace/module_usb_midi/src/midiinparse.xc"
	.byte	0
	.long	147
	.long	147
	.long	.Lxtalabel10
.cc_bottom cc_62
.cc_top cc_63,.Lxtalabel11
	.ascii	"/Users/rkn/Documents/xTIMEcomposer/workspace/module_usb_midi/src/midiinparse.xc"
	.byte	0
	.long	147
	.long	147
	.long	.Lxtalabel11
.cc_bottom cc_63
.cc_top cc_64,.Lxtalabel25
	.ascii	"/Users/rkn/Documents/xTIMEcomposer/workspace/module_usb_midi/src/midiinparse.xc"
	.byte	0
	.long	147
	.long	147
	.long	.Lxtalabel25
.cc_bottom cc_64
.cc_top cc_65,.Lxtalabel12
	.ascii	"/Users/rkn/Documents/xTIMEcomposer/workspace/module_usb_midi/src/midiinparse.xc"
	.byte	0
	.long	151
	.long	156
	.long	.Lxtalabel12
.cc_bottom cc_65
.cc_top cc_66,.Lxtalabel10
	.ascii	"/Users/rkn/Documents/xTIMEcomposer/workspace/module_usb_midi/src/midiinparse.xc"
	.byte	0
	.long	157
	.long	157
	.long	.Lxtalabel10
.cc_bottom cc_66
.cc_top cc_67,.Lxtalabel11
	.ascii	"/Users/rkn/Documents/xTIMEcomposer/workspace/module_usb_midi/src/midiinparse.xc"
	.byte	0
	.long	157
	.long	157
	.long	.Lxtalabel11
.cc_bottom cc_67
.cc_top cc_68,.Lxtalabel25
	.ascii	"/Users/rkn/Documents/xTIMEcomposer/workspace/module_usb_midi/src/midiinparse.xc"
	.byte	0
	.long	157
	.long	157
	.long	.Lxtalabel25
.cc_bottom cc_68
.cc_top cc_69,.Lxtalabel26
	.ascii	"/Users/rkn/Documents/xTIMEcomposer/workspace/module_usb_midi/src/midiinparse.xc"
	.byte	0
	.long	158
	.long	163
	.long	.Lxtalabel26
.cc_bottom cc_69
.cc_top cc_70,.Lxtalabel6
	.ascii	"/Users/rkn/Documents/xTIMEcomposer/workspace/module_usb_midi/src/midiinparse.xc"
	.byte	0
	.long	166
	.long	169
	.long	.Lxtalabel6
.cc_bottom cc_70
.cc_top cc_71,.Lxtalabel13
	.ascii	"/Users/rkn/Documents/xTIMEcomposer/workspace/module_usb_midi/src/midiinparse.xc"
	.byte	0
	.long	170
	.long	170
	.long	.Lxtalabel13
.cc_bottom cc_71
.cc_top cc_72,.Lxtalabel7
	.ascii	"/Users/rkn/Documents/xTIMEcomposer/workspace/module_usb_midi/src/midiinparse.xc"
	.byte	0
	.long	171
	.long	172
	.long	.Lxtalabel7
.cc_bottom cc_72
.cc_top cc_73,.Lxtalabel8
	.ascii	"/Users/rkn/Documents/xTIMEcomposer/workspace/module_usb_midi/src/midiinparse.xc"
	.byte	0
	.long	173
	.long	176
	.long	.Lxtalabel8
.cc_bottom cc_73
.cc_top cc_74,.Lxtalabel9
	.ascii	"/Users/rkn/Documents/xTIMEcomposer/workspace/module_usb_midi/src/midiinparse.xc"
	.byte	0
	.long	178
	.long	179
	.long	.Lxtalabel9
.cc_bottom cc_74
.cc_top cc_75,.Lxtalabel18
	.ascii	"/Users/rkn/Documents/xTIMEcomposer/workspace/module_usb_midi/src/midiinparse.xc"
	.byte	0
	.long	181
	.long	184
	.long	.Lxtalabel18
.cc_bottom cc_75
.cc_top cc_76,.Lxtalabel14
	.ascii	"/Users/rkn/Documents/xTIMEcomposer/workspace/module_usb_midi/src/midiinparse.xc"
	.byte	0
	.long	189
	.long	190
	.long	.Lxtalabel14
.cc_bottom cc_76
.cc_top cc_77,.Lxtalabel15
	.ascii	"/Users/rkn/Documents/xTIMEcomposer/workspace/module_usb_midi/src/midiinparse.xc"
	.byte	0
	.long	192
	.long	195
	.long	.Lxtalabel15
.cc_bottom cc_77
.cc_top cc_78,.Lxtalabel15
	.ascii	"/Users/rkn/Documents/xTIMEcomposer/workspace/module_usb_midi/src/midiinparse.xc"
	.byte	0
	.long	197
	.long	201
	.long	.Lxtalabel15
.cc_bottom cc_78
.cc_top cc_79,.Lxtalabel19
	.ascii	"/Users/rkn/Documents/xTIMEcomposer/workspace/module_usb_midi/src/midiinparse.xc"
	.byte	0
	.long	205
	.long	205
	.long	.Lxtalabel19
.cc_bottom cc_79
.cc_top cc_80,.Lxtalabel19
	.ascii	"/Users/rkn/Documents/xTIMEcomposer/workspace/module_usb_midi/src/midiinparse.xc"
	.byte	0
	.long	207
	.long	212
	.long	.Lxtalabel19
.cc_bottom cc_80
.cc_top cc_81,.Lxtalabel31
	.ascii	"/Users/rkn/Documents/xTIMEcomposer/workspace/module_usb_midi/src/midiinparse.xc"
	.byte	0
	.long	215
	.long	216
	.long	.Lxtalabel31
.cc_bottom cc_81
.cc_top cc_82,.Lxtalabel32
	.ascii	"/Users/rkn/Documents/xTIMEcomposer/workspace/module_usb_midi/src/midiinparse.xc"
	.byte	0
	.long	215
	.long	216
	.long	.Lxtalabel32
.cc_bottom cc_82
.cc_top cc_83,.Lxtalabel20
	.ascii	"/Users/rkn/Documents/xTIMEcomposer/workspace/module_usb_midi/src/midiinparse.xc"
	.byte	0
	.long	215
	.long	216
	.long	.Lxtalabel20
.cc_bottom cc_83
.cc_top cc_84,.Lxtalabel21
	.ascii	"/Users/rkn/Documents/xTIMEcomposer/workspace/module_usb_midi/src/midiinparse.xc"
	.byte	0
	.long	215
	.long	216
	.long	.Lxtalabel21
.cc_bottom cc_84
.cc_top cc_85,.Lxtalabel27
	.ascii	"/Users/rkn/Documents/xTIMEcomposer/workspace/module_usb_midi/src/midiinparse.xc"
	.byte	0
	.long	215
	.long	216
	.long	.Lxtalabel27
.cc_bottom cc_85
.cc_top cc_86,.Lxtalabel34
	.ascii	"/Users/rkn/Documents/xTIMEcomposer/workspace/module_usb_midi/src/midiinparse.xc"
	.byte	0
	.long	215
	.long	216
	.long	.Lxtalabel34
.cc_bottom cc_86
.Lentries_end3:
	.section	.trap_info,"",@progbits
.Ltrap_info_entries_start0:
	.long	.Ltrap_info_entries_end0-.Ltrap_info_entries_start0
	.long	1
	.section	.trap_info_str,"MS",@progbits
.Ltrap_info_str0:
.asciiz"/Users/rkn/Documents/xTIMEcomposer/workspace/module_usb_midi/src/midiinparse.xc:166:9: error: out of bounds array access\n        state.receivebuffer[state.received] = b;\n        ^~~~~~~~~~~~~~~~~~~~~~~~~~~~~~~~~~~\n"
	.section	.trap_info,"",@progbits
.cc_top cc_trapinfo_0,.Ltrap_info0
	.long	.Ltrap_info0
	.long	.Ltrap_info_str0
.cc_bottom cc_trapinfo_0
	.section	.trap_info_str,"MS",@progbits
.Ltrap_info_str1:
.asciiz"/Users/rkn/Documents/xTIMEcomposer/workspace/module_usb_midi/src/midiinparse.xc:89:21: error: out of bounds array access\n                    state.receivebuffer[state.received] = b;\n                    ^~~~~~~~~~~~~~~~~~~~~~~~~~~~~~~~~~~\n"
	.section	.trap_info,"",@progbits
.cc_top cc_trapinfo_1,.Ltrap_info1
	.long	.Ltrap_info1
	.long	.Ltrap_info_str1
.cc_bottom cc_trapinfo_1
.Ltrap_info_entries_end0: