	.text
	.file	"/Users/rkn/Documents/xTIMEcomposer/workspace/module_queue/src/queue.xc"
                                        # Start of file scope inline assembly
	.call queue_space,queue_items
	.call queue_pop_byte,queue_is_empty
	.call queue_push_byte,queue_is_full
	.call queue_pop_word,queue_is_empty
	.call queue_push_word,queue_is_full
	.call queue_init,is_power_of_2
	.set queue_init.locnoside, 0
	.set queue_push_word.locnoside, 0
	.set queue_pop_word.locnoside, 0
	.set queue_push_byte.locnoside, 0
	.set queue_pop_byte.locnoside, 0

                                        # End of file scope inline assembly
	.text
	.globl	is_power_of_2
	.align	4
	.type	is_power_of_2,@function
	.cc_top is_power_of_2.function,is_power_of_2
is_power_of_2:                          # @is_power_of_2
.Lfunc_begin0:
	.file	1 "/Users/rkn/Documents/xTIMEcomposer/workspace/module_queue/src/queue.h"
	.loc	1 15 0                  # /Users/rkn/Documents/xTIMEcomposer/workspace/module_queue/src/queue.h:15:0
	.cfi_startproc
	.issue_mode dual
# BB#0:                                 # %allocas
.Lxtalabel0:
	{
		nop
		dualentsp 0
	}
	#DEBUG_VALUE: is_power_of_2:x <- R0
	bf r0, .LBB0_3
.Ltmp0:
# BB#1:                                 # %lhsfalse
	#DEBUG_VALUE: is_power_of_2:x <- R0
	.loc	1 16 5 prologue_end     # /Users/rkn/Documents/xTIMEcomposer/workspace/module_queue/src/queue.h:16:5
	{
		sub r1, r0, 1
		nop
	}
	.loc	1 16 5                  # /Users/rkn/Documents/xTIMEcomposer/workspace/module_queue/src/queue.h:16:5
	{
		and r0, r1, r0
		nop
	}
.Ltmp1:
	bf r0, .LBB0_2
.Ltmp2:
.LBB0_3:                                # %exptrue
	{
		ldc r0, 0
		retsp 0
	}
	# RETURN_REG_HOLDER
.LBB0_2:
	{
		mkmsk r0, 1
		retsp 0
	}
	# RETURN_REG_HOLDER
	.cc_bottom is_power_of_2.function
	.set	is_power_of_2.nstackwords,0
	.globl	is_power_of_2.nstackwords
	.set	is_power_of_2.maxcores,1
	.globl	is_power_of_2.maxcores
	.set	is_power_of_2.maxtimers,0
	.globl	is_power_of_2.maxtimers
	.set	is_power_of_2.maxchanends,0
	.globl	is_power_of_2.maxchanends
.Ltmp3:
	.size	is_power_of_2, .Ltmp3-is_power_of_2
.Lfunc_end0:
	.cfi_endproc

	.globl	queue_init
	.align	4
	.type	queue_init,@function
	.cc_top queue_init.function,queue_init
queue_init:                             # @queue_init
.Lfunc_begin1:
	.loc	1 19 0                  # /Users/rkn/Documents/xTIMEcomposer/workspace/module_queue/src/queue.h:19:0
	.cfi_startproc
	.issue_mode dual
# BB#0:                                 # %allocas
.Lxtalabel1:
	{
		nop
		dualentsp 0
	}
	#DEBUG_VALUE: queue_init:q <- R0
	#DEBUG_VALUE: queue_init:size <- R1
.Ltmp4:
	#DEBUG_VALUE: is_power_of_2:x <- R1
	.loc	1 16 5 prologue_end     # /Users/rkn/Documents/xTIMEcomposer/workspace/module_queue/src/queue.h:16:5
	bf r1, .LBB1_1
# BB#3:                                 # %lhsfalse.i
	#DEBUG_VALUE: queue_init:q <- R0
	#DEBUG_VALUE: queue_init:size <- R1
	#DEBUG_VALUE: is_power_of_2:x <- R1
	.loc	1 16 5                  # /Users/rkn/Documents/xTIMEcomposer/workspace/module_queue/src/queue.h:16:5
	{
		sub r2, r1, 1
		nop
	}
	.loc	1 16 5                  # /Users/rkn/Documents/xTIMEcomposer/workspace/module_queue/src/queue.h:16:5
	{
		and r3, r2, r1
		nop
	}
	bt r3, .LBB1_2
.Ltmp5:
# BB#4:
	#DEBUG_VALUE: queue_init:q <- R0
	#DEBUG_VALUE: queue_init:size <- R1
	{
		mkmsk r3, 1
		nop
	}
	bu .LBB1_5
.LBB1_1:
	#DEBUG_VALUE: queue_init:q <- R0
	#DEBUG_VALUE: queue_init:size <- R1
	{
		mkmsk r2, 32
		nop
	}
.LBB1_2:                                # %exptrue.i
	#DEBUG_VALUE: queue_init:q <- R0
	#DEBUG_VALUE: queue_init:size <- R1
	{
		ldc r3, 0
		nop
	}
.LBB1_5:                                # %is_power_of_2.exit
	#DEBUG_VALUE: queue_init:q <- R0
	#DEBUG_VALUE: queue_init:size <- R1
	.loc	1 20 0                  # /Users/rkn/Documents/xTIMEcomposer/workspace/module_queue/src/queue.h:20:0
	#APP
	ecallf r3
	#NO_APP
	{
		ldc r3, 0
		nop
	}
	{
		nop
		stw r3, r0[0]
	}
	{
		nop
		stw r3, r0[1]
	}
	{
		nop
		stw r1, r0[2]
	}
	{
		nop
		stw r2, r0[3]
	}
	{
		nop
		retsp 0
	}
	# RETURN_REG_HOLDER
.Ltmp6:
	.cc_bottom queue_init.function
	.set	queue_init.nstackwords,0
	.globl	queue_init.nstackwords
	.set	queue_init.maxcores,1
	.globl	queue_init.maxcores
	.set	queue_init.maxtimers,0
	.globl	queue_init.maxtimers
	.set	queue_init.maxchanends,0
	.globl	queue_init.maxchanends
.Ltmp7:
	.size	queue_init, .Ltmp7-queue_init
.Lfunc_end1:
	.cfi_endproc

	.globl	queue_is_empty
	.align	4
	.type	queue_is_empty,@function
	.cc_top queue_is_empty.function,queue_is_empty
queue_is_empty:                         # @queue_is_empty
.Lfunc_begin2:
	.loc	1 27 0                  # /Users/rkn/Documents/xTIMEcomposer/workspace/module_queue/src/queue.h:27:0
	.cfi_startproc
	.issue_mode dual
# BB#0:                                 # %allocas
.Lxtalabel2:
	{
		nop
		dualentsp 0
	}
	#DEBUG_VALUE: queue_is_empty:q <- R0
	{
		nop
		ldw r1, r0[1]
	}
	{
		nop
		ldw r0, r0[0]
	}
.Ltmp8:
	.loc	1 28 5 prologue_end     # /Users/rkn/Documents/xTIMEcomposer/workspace/module_queue/src/queue.h:28:5
	{
		eq r0, r1, r0
		retsp 0
	}
	# RETURN_REG_HOLDER
.Ltmp9:
	.cc_bottom queue_is_empty.function
	.set	queue_is_empty.nstackwords,0
	.globl	queue_is_empty.nstackwords
	.set	queue_is_empty.maxcores,1
	.globl	queue_is_empty.maxcores
	.set	queue_is_empty.maxtimers,0
	.globl	queue_is_empty.maxtimers
	.set	queue_is_empty.maxchanends,0
	.globl	queue_is_empty.maxchanends
.Ltmp10:
	.size	queue_is_empty, .Ltmp10-queue_is_empty
.Lfunc_end2:
	.cfi_endproc

	.globl	queue_is_full
	.align	4
	.type	queue_is_full,@function
	.cc_top queue_is_full.function,queue_is_full
queue_is_full:                          # @queue_is_full
.Lfunc_begin3:
	.loc	1 31 0                  # /Users/rkn/Documents/xTIMEcomposer/workspace/module_queue/src/queue.h:31:0
	.cfi_startproc
	.issue_mode dual
# BB#0:                                 # %allocas
.Lxtalabel3:
	{
		nop
		dualentsp 0
	}
	#DEBUG_VALUE: queue_is_full:q <- R0
	{
		nop
		ldw r1, r0[1]
	}
	{
		nop
		ldw r2, r0[0]
	}
	.loc	1 32 5 prologue_end     # /Users/rkn/Documents/xTIMEcomposer/workspace/module_queue/src/queue.h:32:5
.Ltmp11:
	{
		sub r1, r1, r2
		ldw r0, r0[2]
	}
.Ltmp12:
	.loc	1 32 5                  # /Users/rkn/Documents/xTIMEcomposer/workspace/module_queue/src/queue.h:32:5
	{
		eq r0, r1, r0
		retsp 0
	}
	# RETURN_REG_HOLDER
.Ltmp13:
	.cc_bottom queue_is_full.function
	.set	queue_is_full.nstackwords,0
	.globl	queue_is_full.nstackwords
	.set	queue_is_full.maxcores,1
	.globl	queue_is_full.maxcores
	.set	queue_is_full.maxtimers,0
	.globl	queue_is_full.maxtimers
	.set	queue_is_full.maxchanends,0
	.globl	queue_is_full.maxchanends
.Ltmp14:
	.size	queue_is_full, .Ltmp14-queue_is_full
.Lfunc_end3:
	.cfi_endproc

	.globl	queue_push_word
	.align	4
	.type	queue_push_word,@function
	.cc_top queue_push_word.function,queue_push_word
queue_push_word:                        # @queue_push_word
.Lfunc_begin4:
	.loc	1 36 0                  # /Users/rkn/Documents/xTIMEcomposer/workspace/module_queue/src/queue.h:36:0
	.cfi_startproc
	.issue_mode dual
# BB#0:                                 # %allocas
.Lxtalabel4:
	{
		nop
		dualentsp 0
	}
	{
		extsp 2
		nop
	}
.Ltmp15:
	.cfi_def_cfa_offset 8
	std r5, r4, sp[0]               # 4-byte Folded Spill
.Ltmp16:
	.cfi_offset 4, -8
.Ltmp17:
	.cfi_offset 5, -4
	#DEBUG_VALUE: queue_push_word:q <- R0
	#DEBUG_VALUE: queue_push_word:array <- R1
	#DEBUG_VALUE: queue_push_word:data <- R2
.Ltmp18:
	#DEBUG_VALUE: queue_is_full:q <- R0
	{
		nop
		ldw r11, r0[1]
	}
	{
		nop
		ldw r4, r0[0]
	}
	.loc	1 32 5 prologue_end     # /Users/rkn/Documents/xTIMEcomposer/workspace/module_queue/src/queue.h:32:5
.Ltmp19:
	{
		sub r4, r11, r4
		ldw r5, r0[2]
	}
.Ltmp20:
	.loc	1 37 0                  # /Users/rkn/Documents/xTIMEcomposer/workspace/module_queue/src/queue.h:37:0
	{
		eq r4, r4, r5
		nop
	}
	{
		eq r4, r4, 0
		nop
	}
	.loc	1 37 0                  # /Users/rkn/Documents/xTIMEcomposer/workspace/module_queue/src/queue.h:37:0
	#APP
	ecallf r4
	#NO_APP
	.loc	1 38 0                  # /Users/rkn/Documents/xTIMEcomposer/workspace/module_queue/src/queue.h:38:0
	{
		add r4, r11, 1
		nop
	}
	{
		nop
		stw r4, r0[1]
	}
	{
		nop
		ldw r0, r0[3]
	}
.Ltmp21:
	.loc	1 38 0                  # /Users/rkn/Documents/xTIMEcomposer/workspace/module_queue/src/queue.h:38:0
	{
		and r0, r0, r11
		nop
	}
	.loc	1 38 0                  # /Users/rkn/Documents/xTIMEcomposer/workspace/module_queue/src/queue.h:38:0
	{
		lsu r3, r0, r3
		nop
	}
.Ltrap_info0:
	{
		ecallf r3
		nop
	}
	#DEBUG_VALUE: queue_push_word:array <- R1
	#DEBUG_VALUE: queue_push_word:data <- R2
	.loc	1 38 0                  # /Users/rkn/Documents/xTIMEcomposer/workspace/module_queue/src/queue.h:38:0
	stw r2, r1[r0]
	ldd r5, r4, sp[0]               # 4-byte Folded Reload
	{
		ldaw sp, sp[2]
		nop
	}
	{
		nop
		retsp 0
	}
	# RETURN_REG_HOLDER
.Ltmp22:
	.cc_bottom queue_push_word.function
	.set	queue_push_word.nstackwords,2
	.globl	queue_push_word.nstackwords
	.set	queue_push_word.maxcores,1
	.globl	queue_push_word.maxcores
	.set	queue_push_word.maxtimers,0
	.globl	queue_push_word.maxtimers
	.set	queue_push_word.maxchanends,0
	.globl	queue_push_word.maxchanends
.Ltmp23:
	.size	queue_push_word, .Ltmp23-queue_push_word
.Lfunc_end4:
	.cfi_endproc

	.globl	queue_pop_word
	.align	4
	.type	queue_pop_word,@function
	.cc_top queue_pop_word.function,queue_pop_word
queue_pop_word:                         # @queue_pop_word
.Lfunc_begin5:
	.loc	1 41 0                  # /Users/rkn/Documents/xTIMEcomposer/workspace/module_queue/src/queue.h:41:0
	.cfi_startproc
	.issue_mode dual
# BB#0:                                 # %allocas
.Lxtalabel5:
	{
		nop
		dualentsp 0
	}
	#DEBUG_VALUE: queue_pop_word:q <- R0
	#DEBUG_VALUE: queue_pop_word:array <- R1
.Ltmp24:
	#DEBUG_VALUE: queue_is_empty:q <- R0
	{
		nop
		ldw r3, r0[1]
	}
	{
		nop
		ldw r11, r0[0]
	}
	.loc	1 42 0 prologue_end     # /Users/rkn/Documents/xTIMEcomposer/workspace/module_queue/src/queue.h:42:0
.Ltmp25:
	{
		eq r3, r3, r11
		nop
	}
	{
		eq r3, r3, 0
		nop
	}
	.loc	1 42 0                  # /Users/rkn/Documents/xTIMEcomposer/workspace/module_queue/src/queue.h:42:0
	#APP
	ecallf r3
	#NO_APP
	.loc	1 43 5                  # /Users/rkn/Documents/xTIMEcomposer/workspace/module_queue/src/queue.h:43:5
	{
		add r3, r11, 1
		nop
	}
	{
		nop
		stw r3, r0[0]
	}
	{
		nop
		ldw r0, r0[3]
	}
.Ltmp26:
	.loc	1 43 5                  # /Users/rkn/Documents/xTIMEcomposer/workspace/module_queue/src/queue.h:43:5
	{
		and r0, r0, r11
		nop
	}
	.loc	1 43 5                  # /Users/rkn/Documents/xTIMEcomposer/workspace/module_queue/src/queue.h:43:5
	{
		lsu r2, r0, r2
		nop
	}
.Ltrap_info1:
	{
		ecallf r2
		nop
	}
	#DEBUG_VALUE: queue_pop_word:array <- R1
	{
		nop
		ldw r0, r1[r0]
	}
	{
		nop
		retsp 0
	}
	# RETURN_REG_HOLDER
.Ltmp27:
	.cc_bottom queue_pop_word.function
	.set	queue_pop_word.nstackwords,0
	.globl	queue_pop_word.nstackwords
	.set	queue_pop_word.maxcores,1
	.globl	queue_pop_word.maxcores
	.set	queue_pop_word.maxtimers,0
	.globl	queue_pop_word.maxtimers
	.set	queue_pop_word.maxchanends,0
	.globl	queue_pop_word.maxchanends
.Ltmp28:
	.size	queue_pop_word, .Ltmp28-queue_pop_word
.Lfunc_end5:
	.cfi_endproc

	.globl	queue_push_byte
	.align	4
	.type	queue_push_byte,@function
	.cc_top queue_push_byte.function,queue_push_byte
queue_push_byte:                        # @queue_push_byte
.Lfunc_begin6:
	.loc	1 47 0                  # /Users/rkn/Documents/xTIMEcomposer/workspace/module_queue/src/queue.h:47:0
	.cfi_startproc
	.issue_mode dual
# BB#0:                                 # %allocas
.Lxtalabel6:
	{
		nop
		dualentsp 0
	}
	{
		extsp 2
		nop
	}
.Ltmp29:
	.cfi_def_cfa_offset 8
	std r5, r4, sp[0]               # 4-byte Folded Spill
.Ltmp30:
	.cfi_offset 4, -8
.Ltmp31:
	.cfi_offset 5, -4
	#DEBUG_VALUE: queue_push_byte:q <- R0
	#DEBUG_VALUE: queue_push_byte:array <- R1
	#DEBUG_VALUE: queue_push_byte:data <- R2
.Ltmp32:
	#DEBUG_VALUE: queue_is_full:q <- R0
	{
		nop
		ldw r11, r0[1]
	}
	{
		nop
		ldw r4, r0[0]
	}
	.loc	1 32 5 prologue_end     # /Users/rkn/Documents/xTIMEcomposer/workspace/module_queue/src/queue.h:32:5
.Ltmp33:
	{
		sub r4, r11, r4
		ldw r5, r0[2]
	}
.Ltmp34:
	.loc	1 48 0                  # /Users/rkn/Documents/xTIMEcomposer/workspace/module_queue/src/queue.h:48:0
	{
		eq r4, r4, r5
		nop
	}
	{
		eq r4, r4, 0
		nop
	}
	.loc	1 48 0                  # /Users/rkn/Documents/xTIMEcomposer/workspace/module_queue/src/queue.h:48:0
	#APP
	ecallf r4
	#NO_APP
	.loc	1 49 0                  # /Users/rkn/Documents/xTIMEcomposer/workspace/module_queue/src/queue.h:49:0
	{
		add r4, r11, 1
		nop
	}
	{
		nop
		stw r4, r0[1]
	}
	{
		nop
		ldw r0, r0[3]
	}
.Ltmp35:
	.loc	1 49 0                  # /Users/rkn/Documents/xTIMEcomposer/workspace/module_queue/src/queue.h:49:0
	{
		and r0, r0, r11
		nop
	}
	.loc	1 49 0                  # /Users/rkn/Documents/xTIMEcomposer/workspace/module_queue/src/queue.h:49:0
	{
		lsu r3, r0, r3
		nop
	}
.Ltrap_info2:
	{
		ecallf r3
		nop
	}
	#DEBUG_VALUE: queue_push_byte:array <- R1
	#DEBUG_VALUE: queue_push_byte:data <- R2
	.loc	1 49 0                  # /Users/rkn/Documents/xTIMEcomposer/workspace/module_queue/src/queue.h:49:0
	st8 r2, r1[r0]
	ldd r5, r4, sp[0]               # 4-byte Folded Reload
	{
		ldaw sp, sp[2]
		nop
	}
	{
		nop
		retsp 0
	}
	# RETURN_REG_HOLDER
.Ltmp36:
	.cc_bottom queue_push_byte.function
	.set	queue_push_byte.nstackwords,2
	.globl	queue_push_byte.nstackwords
	.set	queue_push_byte.maxcores,1
	.globl	queue_push_byte.maxcores
	.set	queue_push_byte.maxtimers,0
	.globl	queue_push_byte.maxtimers
	.set	queue_push_byte.maxchanends,0
	.globl	queue_push_byte.maxchanends
.Ltmp37:
	.size	queue_push_byte, .Ltmp37-queue_push_byte
.Lfunc_end6:
	.cfi_endproc

	.globl	queue_pop_byte
	.align	4
	.type	queue_pop_byte,@function
	.cc_top queue_pop_byte.function,queue_pop_byte
queue_pop_byte:                         # @queue_pop_byte
.Lfunc_begin7:
	.loc	1 52 0                  # /Users/rkn/Documents/xTIMEcomposer/workspace/module_queue/src/queue.h:52:0
	.cfi_startproc
	.issue_mode dual
# BB#0:                                 # %allocas
.Lxtalabel7:
	{
		nop
		dualentsp 0
	}
	#DEBUG_VALUE: queue_pop_byte:q <- R0
	#DEBUG_VALUE: queue_pop_byte:array <- R1
.Ltmp38:
	#DEBUG_VALUE: queue_is_empty:q <- R0
	{
		nop
		ldw r3, r0[1]
	}
	{
		nop
		ldw r11, r0[0]
	}
	.loc	1 53 0 prologue_end     # /Users/rkn/Documents/xTIMEcomposer/workspace/module_queue/src/queue.h:53:0
.Ltmp39:
	{
		eq r3, r3, r11
		nop
	}
	{
		eq r3, r3, 0
		nop
	}
	.loc	1 53 0                  # /Users/rkn/Documents/xTIMEcomposer/workspace/module_queue/src/queue.h:53:0
	#APP
	ecallf r3
	#NO_APP
	.loc	1 54 5                  # /Users/rkn/Documents/xTIMEcomposer/workspace/module_queue/src/queue.h:54:5
	{
		add r3, r11, 1
		nop
	}
	{
		nop
		stw r3, r0[0]
	}
	{
		nop
		ldw r0, r0[3]
	}
.Ltmp40:
	.loc	1 54 5                  # /Users/rkn/Documents/xTIMEcomposer/workspace/module_queue/src/queue.h:54:5
	{
		and r0, r0, r11
		nop
	}
	.loc	1 54 5                  # /Users/rkn/Documents/xTIMEcomposer/workspace/module_queue/src/queue.h:54:5
	{
		lsu r2, r0, r2
		nop
	}
.Ltrap_info3:
	{
		ecallf r2
		nop
	}
	#DEBUG_VALUE: queue_pop_byte:array <- R1
	{
		nop
		ld8u r0, r1[r0]
	}
	{
		nop
		retsp 0
	}
	# RETURN_REG_HOLDER
.Ltmp41:
	.cc_bottom queue_pop_byte.function
	.set	queue_pop_byte.nstackwords,0
	.globl	queue_pop_byte.nstackwords
	.set	queue_pop_byte.maxcores,1
	.globl	queue_pop_byte.maxcores
	.set	queue_pop_byte.maxtimers,0
	.globl	queue_pop_byte.maxtimers
	.set	queue_pop_byte.maxchanends,0
	.globl	queue_pop_byte.maxchanends
.Ltmp42:
	.size	queue_pop_byte, .Ltmp42-queue_pop_byte
.Lfunc_end7:
	.cfi_endproc

	.globl	queue_items
	.align	4
	.type	queue_items,@function
	.cc_top queue_items.function,queue_items
queue_items:                            # @queue_items
.Lfunc_begin8:
	.loc	1 57 0                  # /Users/rkn/Documents/xTIMEcomposer/workspace/module_queue/src/queue.h:57:0
	.cfi_startproc
	.issue_mode dual
# BB#0:                                 # %allocas
.Lxtalabel8:
	{
		nop
		dualentsp 0
	}
	#DEBUG_VALUE: queue_items:q <- R0
	{
		nop
		ldw r1, r0[1]
	}
	{
		nop
		ldw r0, r0[0]
	}
.Ltmp43:
	.loc	1 58 5 prologue_end     # /Users/rkn/Documents/xTIMEcomposer/workspace/module_queue/src/queue.h:58:5
	{
		sub r0, r1, r0
		retsp 0
	}
	# RETURN_REG_HOLDER
.Ltmp44:
	.cc_bottom queue_items.function
	.set	queue_items.nstackwords,0
	.globl	queue_items.nstackwords
	.set	queue_items.maxcores,1
	.globl	queue_items.maxcores
	.set	queue_items.maxtimers,0
	.globl	queue_items.maxtimers
	.set	queue_items.maxchanends,0
	.globl	queue_items.maxchanends
.Ltmp45:
	.size	queue_items, .Ltmp45-queue_items
.Lfunc_end8:
	.cfi_endproc

	.globl	queue_space
	.align	4
	.type	queue_space,@function
	.cc_top queue_space.function,queue_space
queue_space:                            # @queue_space
.Lfunc_begin9:
	.loc	1 61 0                  # /Users/rkn/Documents/xTIMEcomposer/workspace/module_queue/src/queue.h:61:0
	.cfi_startproc
	.issue_mode dual
# BB#0:                                 # %allocas
.Lxtalabel9:
	{
		nop
		dualentsp 0
	}
	#DEBUG_VALUE: queue_space:q <- R0
	{
		nop
		ldw r1, r0[2]
	}
.Ltmp46:
	#DEBUG_VALUE: queue_items:q <- R0
	{
		nop
		ldw r2, r0[1]
	}
	.loc	1 58 5 prologue_end     # /Users/rkn/Documents/xTIMEcomposer/workspace/module_queue/src/queue.h:58:5
.Ltmp47:
	{
		sub r1, r1, r2
		ldw r0, r0[0]
	}
.Ltmp48:
	.loc	1 62 5                  # /Users/rkn/Documents/xTIMEcomposer/workspace/module_queue/src/queue.h:62:5
	{
		add r0, r1, r0
		retsp 0
	}
	# RETURN_REG_HOLDER
.Ltmp49:
	.cc_bottom queue_space.function
	.set	queue_space.nstackwords,0
	.globl	queue_space.nstackwords
	.set	queue_space.maxcores,1
	.globl	queue_space.maxcores
	.set	queue_space.maxtimers,0
	.globl	queue_space.maxtimers
	.set	queue_space.maxchanends,0
	.globl	queue_space.maxchanends
.Ltmp50:
	.size	queue_space, .Ltmp50-queue_space
.Lfunc_end9:
	.cfi_endproc

.Ldebug_end0:
	.section	.xtalabeltable,"",@progbits
.Lentries_start0:
	.long	.Lentries_end1-.Lentries_start0
	.long	0
	.ascii	"/Users/rkn/Documents/xTIMEcomposer/workspace/app_usb_aud_xk_216_mc/.build_2i32o32xxxxx_tdm8"
	.byte	0
.cc_top cc_0,.Lxtalabel0
	.ascii	"/Users/rkn/Documents/xTIMEcomposer/workspace/module_queue/src/queue.h"
	.byte	0
	.long	16
	.long	17
	.long	.Lxtalabel0
.cc_bottom cc_0
.cc_top cc_1,.Lxtalabel1
	.ascii	"/Users/rkn/Documents/xTIMEcomposer/workspace/module_queue/src/queue.h"
	.byte	0
	.long	16
	.long	17
	.long	.Lxtalabel1
.cc_bottom cc_1
.cc_top cc_2,.Lxtalabel1
	.ascii	"/Users/rkn/Documents/xTIMEcomposer/workspace/module_queue/src/queue.h"
	.byte	0
	.long	20
	.long	20
	.long	.Lxtalabel1
.cc_bottom cc_2
.cc_top cc_3,.Lxtalabel1
	.ascii	"/Users/rkn/Documents/xTIMEcomposer/workspace/module_queue/src/queue.h"
	.byte	0
	.long	21
	.long	25
	.long	.Lxtalabel1
.cc_bottom cc_3
.cc_top cc_4,.Lxtalabel2
	.ascii	"/Users/rkn/Documents/xTIMEcomposer/workspace/module_queue/src/queue.h"
	.byte	0
	.long	28
	.long	29
	.long	.Lxtalabel2
.cc_bottom cc_4
.cc_top cc_5,.Lxtalabel7
	.ascii	"/Users/rkn/Documents/xTIMEcomposer/workspace/module_queue/src/queue.h"
	.byte	0
	.long	28
	.long	29
	.long	.Lxtalabel7
.cc_bottom cc_5
.cc_top cc_6,.Lxtalabel5
	.ascii	"/Users/rkn/Documents/xTIMEcomposer/workspace/module_queue/src/queue.h"
	.byte	0
	.long	28
	.long	29
	.long	.Lxtalabel5
.cc_bottom cc_6
.cc_top cc_7,.Lxtalabel6
	.ascii	"/Users/rkn/Documents/xTIMEcomposer/workspace/module_queue/src/queue.h"
	.byte	0
	.long	32
	.long	33
	.long	.Lxtalabel6
.cc_bottom cc_7
.cc_top cc_8,.Lxtalabel4
	.ascii	"/Users/rkn/Documents/xTIMEcomposer/workspace/module_queue/src/queue.h"
	.byte	0
	.long	32
	.long	33
	.long	.Lxtalabel4
.cc_bottom cc_8
.cc_top cc_9,.Lxtalabel3
	.ascii	"/Users/rkn/Documents/xTIMEcomposer/workspace/module_queue/src/queue.h"
	.byte	0
	.long	32
	.long	33
	.long	.Lxtalabel3
.cc_bottom cc_9
.cc_top cc_10,.Lxtalabel4
	.ascii	"/Users/rkn/Documents/xTIMEcomposer/workspace/module_queue/src/queue.h"
	.byte	0
	.long	36
	.long	36
	.long	.Lxtalabel4
.cc_bottom cc_10
.cc_top cc_11,.Lxtalabel4
	.ascii	"/Users/rkn/Documents/xTIMEcomposer/workspace/module_queue/src/queue.h"
	.byte	0
	.long	37
	.long	37
	.long	.Lxtalabel4
.cc_bottom cc_11
.cc_top cc_12,.Lxtalabel4
	.ascii	"/Users/rkn/Documents/xTIMEcomposer/workspace/module_queue/src/queue.h"
	.byte	0
	.long	38
	.long	39
	.long	.Lxtalabel4
.cc_bottom cc_12
.cc_top cc_13,.Lxtalabel5
	.ascii	"/Users/rkn/Documents/xTIMEcomposer/workspace/module_queue/src/queue.h"
	.byte	0
	.long	42
	.long	42
	.long	.Lxtalabel5
.cc_bottom cc_13
.cc_top cc_14,.Lxtalabel5
	.ascii	"/Users/rkn/Documents/xTIMEcomposer/workspace/module_queue/src/queue.h"
	.byte	0
	.long	43
	.long	44
	.long	.Lxtalabel5
.cc_bottom cc_14
.cc_top cc_15,.Lxtalabel6
	.ascii	"/Users/rkn/Documents/xTIMEcomposer/workspace/module_queue/src/queue.h"
	.byte	0
	.long	47
	.long	47
	.long	.Lxtalabel6
.cc_bottom cc_15
.cc_top cc_16,.Lxtalabel6
	.ascii	"/Users/rkn/Documents/xTIMEcomposer/workspace/module_queue/src/queue.h"
	.byte	0
	.long	48
	.long	48
	.long	.Lxtalabel6
.cc_bottom cc_16
.cc_top cc_17,.Lxtalabel6
	.ascii	"/Users/rkn/Documents/xTIMEcomposer/workspace/module_queue/src/queue.h"
	.byte	0
	.long	49
	.long	50
	.long	.Lxtalabel6
.cc_bottom cc_17
.cc_top cc_18,.Lxtalabel7
	.ascii	"/Users/rkn/Documents/xTIMEcomposer/workspace/module_queue/src/queue.h"
	.byte	0
	.long	53
	.long	53
	.long	.Lxtalabel7
.cc_bottom cc_18
.cc_top cc_19,.Lxtalabel7
	.ascii	"/Users/rkn/Documents/xTIMEcomposer/workspace/module_queue/src/queue.h"
	.byte	0
	.long	54
	.long	55
	.long	.Lxtalabel7
.cc_bottom cc_19
.cc_top cc_20,.Lxtalabel8
	.ascii	"/Users/rkn/Documents/xTIMEcomposer/workspace/module_queue/src/queue.h"
	.byte	0
	.long	58
	.long	59
	.long	.Lxtalabel8
.cc_bottom cc_20
.cc_top cc_21,.Lxtalabel9
	.ascii	"/Users/rkn/Documents/xTIMEcomposer/workspace/module_queue/src/queue.h"
	.byte	0
	.long	58
	.long	59
	.long	.Lxtalabel9
.cc_bottom cc_21
.cc_top cc_22,.Lxtalabel9
	.ascii	"/Users/rkn/Documents/xTIMEcomposer/workspace/module_queue/src/queue.h"
	.byte	0
	.long	62
	.long	63
	.long	.Lxtalabel9
.cc_bottom cc_22
.Lentries_end1:
	.section	.trap_info,"",@progbits
.Ltrap_info_entries_start0:
	.long	.Ltrap_info_entries_end0-.Ltrap_info_entries_start0
	.long	1
	.section	.trap_info_str,"MS",@progbits
.Ltrap_info_str0:
.asciiz"In file included from /Users/rkn/Documents/xTIMEcomposer/workspace/module_queue/src/queue.xc:1:\n/Users/rkn/Documents/xTIMEcomposer/workspace/module_queue/src/queue.h:38:5: error: out of bounds array access\n    array[q.wrptr++ & q.mask] = data;\n    ^~~~~~~~~~~~~~~~~~~~~~~~~\n"
	.section	.trap_info,"",@progbits
.cc_top cc_trapinfo_0,.Ltrap_info0
	.long	.Ltrap_info0
	.long	.Ltrap_info_str0
.cc_bottom cc_trapinfo_0
	.section	.trap_info_str,"MS",@progbits
.Ltrap_info_str1:
.asciiz"In file included from /Users/rkn/Documents/xTIMEcomposer/workspace/module_queue/src/queue.xc:1:\n/Users/rkn/Documents/xTIMEcomposer/workspace/module_queue/src/queue.h:43:12: error: out of bounds array access\n    return array[q.rdptr++ & q.mask];\n           ^~~~~~~~~~~~~~~~~~~~~~~~~\n"
	.section	.trap_info,"",@progbits
.cc_top cc_trapinfo_1,.Ltrap_info1
	.long	.Ltrap_info1
	.long	.Ltrap_info_str1
.cc_bottom cc_trapinfo_1
	.section	.trap_info_str,"MS",@progbits
.Ltrap_info_str2:
.asciiz"In file included from /Users/rkn/Documents/xTIMEcomposer/workspace/module_queue/src/queue.xc:1:\n/Users/rkn/Documents/xTIMEcomposer/workspace/module_queue/src/queue.h:49:5: error: out of bounds array access\n    array[q.wrptr++ & q.mask] = data;\n    ^~~~~~~~~~~~~~~~~~~~~~~~~\n"
	.section	.trap_info,"",@progbits
.cc_top cc_trapinfo_2,.Ltrap_info2
	.long	.Ltrap_info2
	.long	.Ltrap_info_str2
.cc_bottom cc_trapinfo_2
	.section	.trap_info_str,"MS",@progbits
.Ltrap_info_str3:
.asciiz"In file included from /Users/rkn/Documents/xTIMEcomposer/workspace/module_queue/src/queue.xc:1:\n/Users/rkn/Documents/xTIMEcomposer/workspace/module_queue/src/queue.h:54:12: error: out of bounds array access\n    return array[q.rdptr++ & q.mask];\n           ^~~~~~~~~~~~~~~~~~~~~~~~~\n"
	.section	.trap_info,"",@progbits
.cc_top cc_trapinfo_3,.Ltrap_info3
	.long	.Ltrap_info3
	.long	.Ltrap_info_str3
.cc_bottom cc_trapinfo_3
.Ltrap_info_entries_end0: