	.text
	.file	"/Users/rkn/Documents/xTIMEcomposer/workspace/module_usb_audio/reboot.xc"
                                        # Start of file scope inline assembly
	.inline_definition delay_seconds
	.inline_definition delay_milliseconds
	.inline_definition delay_microseconds
	.inline_definition XUD_SetReady_Out
	.inline_definition XUD_SetReady_OutPtr
	.inline_definition XUD_SetReady_InPtr
	.inline_definition XUD_SetReady_In
	.set usage.anon.0,0
	.set usage.anon.1,0
	.set usage.anon.2,0
	.set usage.anon.3,0
	.set usage.anon.4,0
	.set usage.anon.5,0
	.set usage.anon.6,0
	.globread device_reboot_aux,tile,"/Users/rkn/Documents/xTIMEcomposer/workspace/module_usb_audio/reboot.xc:43:30: note: object used here\n        tileId = get_tile_id(tile[i]);\n                             ^~~~~~~"
	.call device_reboot,device_reboot_aux
	.call device_reboot_aux,write_sswitch_reg_no_ack
	.call device_reboot_aux,read_sswitch_reg
	.call device_reboot_aux,get_tile_id
	.call device_reboot_aux,get_local_tile_id
	.call usage.anon.6,usage.anon.5
	.call usage.anon.2,delay_ticks_longlong
	.call usage.anon.1,delay_ticks_longlong
	.call usage.anon.0,delay_ticks_longlong
	.set usage.anon.3.locnoside, 0
	.set usage.anon.6.locnoside, 0
	.set device_reboot_aux.locnoglobalaccess, 0
	.globpassesref get_tile_id, tile,"/Users/rkn/Documents/xTIMEcomposer/workspace/module_usb_audio/reboot.xc:43:18: error: call to `get_tile_id\' in `device_reboot_aux\' makes alias of global \'tile\'\n        tileId = get_tile_id(tile[i]);\n                 ^~~~~~~~~~~~~~~~~~~~"

                                        # End of file scope inline assembly
	.section	.cp.rodata.cst4,"aMc",@progbits,4
	.cc_top .LCPI0_0.data,.LCPI0_0
	.align	4
	.type	.LCPI0_0,@object
	.size	.LCPI0_0, 4
.LCPI0_0:
	.long	2147483647              # 0x7fffffff
	.cc_bottom .LCPI0_0.data
	.text
	.globl	device_reboot_aux
	.align	4
	.type	device_reboot_aux,@function
	.cc_top device_reboot_aux.function,device_reboot_aux
device_reboot_aux:                      # @device_reboot_aux
.Lfunc_begin0:
	.file	2 "/Users/rkn/Documents/xTIMEcomposer/workspace/module_usb_audio/reboot.xc"
	.loc	2 21 0                  # /Users/rkn/Documents/xTIMEcomposer/workspace/module_usb_audio/reboot.xc:21:0
	.cfi_startproc
	.issue_mode dual
# BB#0:                                 # %allocas
.Lxtalabel0:
	{
		nop
		dualentsp 10
	}
.Ltmp0:
	.cfi_def_cfa_offset 40
.Ltmp1:
	.cfi_offset 15, 0
	.loc	2 32 0 prologue_end     # /Users/rkn/Documents/xTIMEcomposer/workspace/module_usb_audio/reboot.xc:32:0
.Ltmp2:
	std r5, r4, sp[1]               # 4-byte Folded Spill
.Ltmp3:
	.cfi_offset 4, -32
.Ltmp4:
	.cfi_offset 5, -28
	std r7, r6, sp[2]               # 4-byte Folded Spill
.Ltmp5:
	.cfi_offset 6, -24
.Ltmp6:
	.cfi_offset 7, -20
	std r9, r8, sp[3]               # 4-byte Folded Spill
.Ltmp7:
	.cfi_offset 8, -16
.Ltmp8:
	.cfi_offset 9, -12
	{
		nop
		stw r10, sp[8]
	}
.Ltmp9:
	.cfi_offset 10, -8
.Lxta.call_labels0:
	bl get_local_tile_id
	{
		mov r4, r0
		nop
	}
.Ltmp10:
	#DEBUG_VALUE: localTileId <- R4
	.loc	2 37 0                  # /Users/rkn/Documents/xTIMEcomposer/workspace/module_usb_audio/reboot.xc:37:0
	#APP
	ldc r8, tile.globound
	#NO_APP
.Ltmp11:
	#DEBUG_VALUE: i <- 0
	#DEBUG_VALUE: tileArrayLength <- R8
	bf r8, .LBB0_5
.Ltmp12:
# BB#1:
	{
		ldc r9, 0
		mkmsk r10, 1
	}
	{
		ldc r5, 6
		nop
	}
	ldw r6, cp[.LCPI0_0]
.LBB0_2:                                # %LoopBody
                                        # =>This Inner Loop Header: Depth=1
.Lxtalabel1:
	.loc	2 43 0                  # /Users/rkn/Documents/xTIMEcomposer/workspace/module_usb_audio/reboot.xc:43:0
.Ltmp13:
	{
		lsu r0, r10, r9
		nop
	}
.Ltrap_info0:
	{
		ecallt r0
		nop
	}
	ldaw r11, cp[tile]
	{
		nop
		ld16s r0, r11[r9]
	}
	.loc	2 43 0                  # /Users/rkn/Documents/xTIMEcomposer/workspace/module_usb_audio/reboot.xc:43:0
	{
		zext r0, 16
		nop
	}
.Lxta.call_labels1:
	bl get_tile_id
	{
		mov r7, r0
		nop
	}
.Ltmp14:
	#DEBUG_VALUE: tileId <- R7
	.loc	2 46 9                  # /Users/rkn/Documents/xTIMEcomposer/workspace/module_usb_audio/reboot.xc:46:9
	{
		eq r0, r4, r7
		nop
	}
	bt r0, .LBB0_4
.Ltmp15:
# BB#3:                                 # %iftrue2
                                        #   in Loop: Header=BB0_2 Depth=1
.Lxtalabel2:
	#DEBUG_VALUE: tileId <- R7
	#DEBUG_VALUE: pllVal <- undef
	.loc	2 48 0                  # /Users/rkn/Documents/xTIMEcomposer/workspace/module_usb_audio/reboot.xc:48:0
	{
		mov r0, r7
		mov r1, r5
	}
	{
		ldaw r2, sp[1]
		nop
	}
.Lxta.call_labels2:
	bl read_sswitch_reg
	{
		nop
		ldw r0, sp[1]
	}
	.loc	2 49 0                  # /Users/rkn/Documents/xTIMEcomposer/workspace/module_usb_audio/reboot.xc:49:0
	{
		and r2, r0, r6
		nop
	}
.Ltmp16:
	#DEBUG_VALUE: pllVal <- R2
	.loc	2 49 0                  # /Users/rkn/Documents/xTIMEcomposer/workspace/module_usb_audio/reboot.xc:49:0
	{
		mov r0, r7
		stw r2, sp[1]
	}
	.loc	2 50 0                  # /Users/rkn/Documents/xTIMEcomposer/workspace/module_usb_audio/reboot.xc:50:0
	{
		mov r1, r5
		nop
	}
.Lxta.call_labels3:
	bl write_sswitch_reg_no_ack
.Ltmp17:
.LBB0_4:                                # %LoopIncrement
                                        #   in Loop: Header=BB0_2 Depth=1
.Lxtalabel3:
	.loc	2 40 0                  # /Users/rkn/Documents/xTIMEcomposer/workspace/module_usb_audio/reboot.xc:40:0
	{
		add r9, r9, 1
		nop
	}
.Ltmp18:
	#DEBUG_VALUE: i <- R9
	.loc	2 40 0                  # /Users/rkn/Documents/xTIMEcomposer/workspace/module_usb_audio/reboot.xc:40:0
	{
		lsu r0, r9, r8
		nop
	}
.Lxta.loop_labels0:
	# LOOPMARKER 0
	bt r0, .LBB0_2
.Ltmp19:
.LBB0_5:                                # %ifdone
.Lxtalabel4:
	#DEBUG_VALUE: localTileId <- R4
	#DEBUG_VALUE: pllVal <- [R2+0]
	{
		ldc r5, 6
		ldaw r2, sp[1]
	}
.Ltmp20:
	.loc	2 55 0                  # /Users/rkn/Documents/xTIMEcomposer/workspace/module_usb_audio/reboot.xc:55:0
	{
		mov r0, r4
		mov r1, r5
	}
.Lxta.call_labels4:
	bl read_sswitch_reg
	{
		nop
		ldw r0, sp[1]
	}
	ldw r1, cp[.LCPI0_0]
.Ltmp21:
	#DEBUG_VALUE: pllVal <- R2
	.loc	2 56 0                  # /Users/rkn/Documents/xTIMEcomposer/workspace/module_usb_audio/reboot.xc:56:0
	{
		and r2, r0, r1
		mov r0, r4
	}
.Ltmp22:
	.loc	2 57 0                  # /Users/rkn/Documents/xTIMEcomposer/workspace/module_usb_audio/reboot.xc:57:0
	{
		mov r1, r5
		nop
	}
.Lxta.call_labels5:
	bl write_sswitch_reg_no_ack
	{
		nop
		ldw r10, sp[8]
	}
	ldd r9, r8, sp[3]               # 4-byte Folded Reload
	ldd r7, r6, sp[2]               # 4-byte Folded Reload
	ldd r5, r4, sp[1]               # 4-byte Folded Reload
.Ltmp23:
	{
		nop
		retsp 10
	}
	# RETURN_REG_HOLDER
.Ltmp24:
	.cc_bottom device_reboot_aux.function
	.set	device_reboot_aux.nstackwords,((get_local_tile_id.nstackwords $M get_tile_id.nstackwords $M read_sswitch_reg.nstackwords $M write_sswitch_reg_no_ack.nstackwords) + 10)
	.globl	device_reboot_aux.nstackwords
	.set	device_reboot_aux.maxcores,get_local_tile_id.maxcores $M get_tile_id.maxcores $M read_sswitch_reg.maxcores $M write_sswitch_reg_no_ack.maxcores $M 1
	.globl	device_reboot_aux.maxcores
	.set	device_reboot_aux.maxtimers,get_local_tile_id.maxtimers $M get_tile_id.maxtimers $M read_sswitch_reg.maxtimers $M write_sswitch_reg_no_ack.maxtimers $M 0
	.globl	device_reboot_aux.maxtimers
	.set	device_reboot_aux.maxchanends,get_local_tile_id.maxchanends $M get_tile_id.maxchanends $M read_sswitch_reg.maxchanends $M write_sswitch_reg_no_ack.maxchanends $M 0
	.globl	device_reboot_aux.maxchanends
.Ltmp25:
	.size	device_reboot_aux, .Ltmp25-device_reboot_aux
.Lfunc_end0:
	.cfi_endproc

	.globl	device_reboot
	.align	4
	.type	device_reboot,@function
	.cc_top device_reboot.function,device_reboot
device_reboot:                          # @device_reboot
.Lfunc_begin1:
	.loc	2 63 0                  # /Users/rkn/Documents/xTIMEcomposer/workspace/module_usb_audio/reboot.xc:63:0
	.cfi_startproc
	.issue_mode dual
# BB#0:                                 # %allocas
.Lxtalabel5:
	{
		nop
		dualentsp 2
	}
.Ltmp26:
	.cfi_def_cfa_offset 8
.Ltmp27:
	.cfi_offset 15, 0
	#DEBUG_VALUE: device_reboot:spare <- R0
	.loc	2 71 0 prologue_end     # /Users/rkn/Documents/xTIMEcomposer/workspace/module_usb_audio/reboot.xc:71:0
.Ltmp28:
.Lxta.call_labels6:
	bl device_reboot_aux
.Ltmp29:
.LBB1_1:                                # %LoopTest
                                        # =>This Inner Loop Header: Depth=1
	#DEBUG_VALUE: device_reboot:spare <- R0
	.loc	2 73 5                  # /Users/rkn/Documents/xTIMEcomposer/workspace/module_usb_audio/reboot.xc:73:5
	bu .LBB1_1
.Ltmp30:
	.cc_bottom device_reboot.function
	.set	device_reboot.nstackwords,(device_reboot_aux.nstackwords + 2)
	.globl	device_reboot.nstackwords
	.set	device_reboot.maxcores,device_reboot_aux.maxcores $M 1
	.globl	device_reboot.maxcores
	.set	device_reboot.maxtimers,device_reboot_aux.maxtimers $M 0
	.globl	device_reboot.maxtimers
	.set	device_reboot.maxchanends,device_reboot_aux.maxchanends $M 0
	.globl	device_reboot.maxchanends
.Ltmp31:
	.size	device_reboot, .Ltmp31-device_reboot
.Lfunc_end1:
	.cfi_endproc

.Ldebug_end0:
	.file	3 "/Applications/XMOS_xTIMEcomposer_Community_14.3.3/target/include/timer.h"
	.section	.xtacalltable,"",@progbits
.Lentries_start0:
	.long	.Lentries_end1-.Lentries_start0
	.long	0
	.ascii	"/Users/rkn/Documents/xTIMEcomposer/workspace/app_usb_aud_xk_216_mc/.build_2i32o32xxxxx_tdm8"
	.byte	0
.cc_top cc_0,.Lxta.call_labels0
	.ascii	"/Users/rkn/Documents/xTIMEcomposer/workspace/module_usb_audio/reboot.xc"
	.byte	0
	.long	32
	.long	.Lxta.call_labels0
.cc_bottom cc_0
.cc_top cc_1,.Lxta.call_labels1
	.ascii	"/Users/rkn/Documents/xTIMEcomposer/workspace/module_usb_audio/reboot.xc"
	.byte	0
	.long	43
	.long	.Lxta.call_labels1
.cc_bottom cc_1
.cc_top cc_2,.Lxta.call_labels2
	.ascii	"/Users/rkn/Documents/xTIMEcomposer/workspace/module_usb_audio/reboot.xc"
	.byte	0
	.long	48
	.long	.Lxta.call_labels2
.cc_bottom cc_2
.cc_top cc_3,.Lxta.call_labels3
	.ascii	"/Users/rkn/Documents/xTIMEcomposer/workspace/module_usb_audio/reboot.xc"
	.byte	0
	.long	50
	.long	.Lxta.call_labels3
.cc_bottom cc_3
.cc_top cc_4,.Lxta.call_labels4
	.ascii	"/Users/rkn/Documents/xTIMEcomposer/workspace/module_usb_audio/reboot.xc"
	.byte	0
	.long	55
	.long	.Lxta.call_labels4
.cc_bottom cc_4
.cc_top cc_5,.Lxta.call_labels5
	.ascii	"/Users/rkn/Documents/xTIMEcomposer/workspace/module_usb_audio/reboot.xc"
	.byte	0
	.long	57
	.long	.Lxta.call_labels5
.cc_bottom cc_5
.cc_top cc_6,.Lxta.call_labels6
	.ascii	"/Users/rkn/Documents/xTIMEcomposer/workspace/module_usb_audio/reboot.xc"
	.byte	0
	.long	71
	.long	.Lxta.call_labels6
.cc_bottom cc_6
.Lentries_end1:
	.section	.xtalabeltable,"",@progbits
.Lentries_start2:
	.long	.Lentries_end3-.Lentries_start2
	.long	0
	.ascii	"/Users/rkn/Documents/xTIMEcomposer/workspace/app_usb_aud_xk_216_mc/.build_2i32o32xxxxx_tdm8"
	.byte	0
.cc_top cc_7,.Lxtalabel0
	.ascii	"/Users/rkn/Documents/xTIMEcomposer/workspace/module_usb_audio/reboot.xc"
	.byte	0
	.long	21
	.long	21
	.long	.Lxtalabel0
.cc_bottom cc_7
.cc_top cc_8,.Lxtalabel0
	.ascii	"/Users/rkn/Documents/xTIMEcomposer/workspace/module_usb_audio/reboot.xc"
	.byte	0
	.long	31
	.long	34
	.long	.Lxtalabel0
.cc_bottom cc_8
.cc_top cc_9,.Lxtalabel0
	.ascii	"/Users/rkn/Documents/xTIMEcomposer/workspace/module_usb_audio/reboot.xc"
	.byte	0
	.long	37
	.long	37
	.long	.Lxtalabel0
.cc_bottom cc_9
.cc_top cc_10,.Lxtalabel0
	.ascii	"/Users/rkn/Documents/xTIMEcomposer/workspace/module_usb_audio/reboot.xc"
	.byte	0
	.long	40
	.long	40
	.long	.Lxtalabel0
.cc_bottom cc_10
.cc_top cc_11,.Lxtalabel1
	.ascii	"/Users/rkn/Documents/xTIMEcomposer/workspace/module_usb_audio/reboot.xc"
	.byte	0
	.long	41
	.long	41
	.long	.Lxtalabel1
.cc_bottom cc_11
.cc_top cc_12,.Lxtalabel1
	.ascii	"/Users/rkn/Documents/xTIMEcomposer/workspace/module_usb_audio/reboot.xc"
	.byte	0
	.long	43
	.long	43
	.long	.Lxtalabel1
.cc_bottom cc_12
.cc_top cc_13,.Lxtalabel1
	.ascii	"/Users/rkn/Documents/xTIMEcomposer/workspace/module_usb_audio/reboot.xc"
	.byte	0
	.long	46
	.long	46
	.long	.Lxtalabel1
.cc_bottom cc_13
.cc_top cc_14,.Lxtalabel2
	.ascii	"/Users/rkn/Documents/xTIMEcomposer/workspace/module_usb_audio/reboot.xc"
	.byte	0
	.long	47
	.long	51
	.long	.Lxtalabel2
.cc_bottom cc_14
.cc_top cc_15,.Lxtalabel3
	.ascii	"/Users/rkn/Documents/xTIMEcomposer/workspace/module_usb_audio/reboot.xc"
	.byte	0
	.long	52
	.long	52
	.long	.Lxtalabel3
.cc_bottom cc_15
.cc_top cc_16,.Lxtalabel4
	.ascii	"/Users/rkn/Documents/xTIMEcomposer/workspace/module_usb_audio/reboot.xc"
	.byte	0
	.long	55
	.long	57
	.long	.Lxtalabel4
.cc_bottom cc_16
.cc_top cc_17,.Lxtalabel4
	.ascii	"/Users/rkn/Documents/xTIMEcomposer/workspace/module_usb_audio/reboot.xc"
	.byte	0
	.long	59
	.long	59
	.long	.Lxtalabel4
.cc_bottom cc_17
.cc_top cc_18,.Lxtalabel5
	.ascii	"/Users/rkn/Documents/xTIMEcomposer/workspace/module_usb_audio/reboot.xc"
	.byte	0
	.long	63
	.long	63
	.long	.Lxtalabel5
.cc_bottom cc_18
.cc_top cc_19,.Lxtalabel5
	.ascii	"/Users/rkn/Documents/xTIMEcomposer/workspace/module_usb_audio/reboot.xc"
	.byte	0
	.long	71
	.long	71
	.long	.Lxtalabel5
.cc_bottom cc_19
.cc_top cc_20,.Lxtalabel5
	.ascii	"/Users/rkn/Documents/xTIMEcomposer/workspace/module_usb_audio/reboot.xc"
	.byte	0
	.long	73
	.long	73
	.long	.Lxtalabel5
.cc_bottom cc_20
.Lentries_end3:
	.section	.xtalooplabeltable,"",@progbits
.Lentries_start4:
	.long	.Lentries_end5-.Lentries_start4
	.long	0
	.ascii	"/Users/rkn/Documents/xTIMEcomposer/workspace/app_usb_aud_xk_216_mc/.build_2i32o32xxxxx_tdm8"
	.byte	0
.cc_top cc_21,.Lxta.loop_labels0
	.ascii	"/Users/rkn/Documents/xTIMEcomposer/workspace/module_usb_audio/reboot.xc"
	.byte	0
	.long	41
	.long	41
	.long	.Lxta.loop_labels0
.cc_bottom cc_21
.cc_top cc_22,.Lxta.loop_labels0
	.ascii	"/Users/rkn/Documents/xTIMEcomposer/workspace/module_usb_audio/reboot.xc"
	.byte	0
	.long	43
	.long	43
	.long	.Lxta.loop_labels0
.cc_bottom cc_22
.cc_top cc_23,.Lxta.loop_labels0
	.ascii	"/Users/rkn/Documents/xTIMEcomposer/workspace/module_usb_audio/reboot.xc"
	.byte	0
	.long	46
	.long	52
	.long	.Lxta.loop_labels0
.cc_bottom cc_23
.Lentries_end5:
	.section	.trap_info,"",@progbits
.Ltrap_info_entries_start0:
	.long	.Ltrap_info_entries_end0-.Ltrap_info_entries_start0
	.long	1
	.section	.trap_info_str,"MS",@progbits
.Ltrap_info_str0:
.asciiz"/Users/rkn/Documents/xTIMEcomposer/workspace/module_usb_audio/reboot.xc:43:30: error: out of bounds array access\n        tileId = get_tile_id(tile[i]);\n                             ^~~~~~~\n"
	.section	.trap_info,"",@progbits
.cc_top cc_trapinfo_0,.Ltrap_info0
	.long	.Ltrap_info0
	.long	.Ltrap_info_str0
.cc_bottom cc_trapinfo_0
.Ltrap_info_entries_end0: