	.text
	.file	"/Users/rkn/Documents/xTIMEcomposer/workspace/module_usb_device/src/usb_device.xc"
                                        # Start of file scope inline assembly
	.inline_definition delay_seconds
	.inline_definition delay_milliseconds
	.inline_definition delay_microseconds
	.inline_definition XUD_SetReady_Out
	.inline_definition XUD_SetReady_OutPtr
	.inline_definition XUD_SetReady_InPtr
	.inline_definition XUD_SetReady_In
	.inline_definition _safe_memcmp
	.inline_definition _safe_memmove
	.inline_definition _safe_memset
	.set usage.anon.0,0
	.set usage.anon.1,0
	.set usage.anon.2,0
	.set usage.anon.3,0
	.set usage.anon.4,0
	.set usage.anon.5,0
	.set usage.anon.6,0
	.set usage.anon.7,0
	.set usage.anon.8,0
	.set usage.anon.9,0
	.globread USB_StandardRequests,g_epStatusIn,"/Users/rkn/Documents/xTIMEcomposer/workspace/module_usb_device/src/usb_device.xc:576:47: note: object used here\n                                buffer[0] = ( g_epStatusIn[ sp.wIndex & 0x7F ] & 0xff );\n                                              ^~~~~~~~~~~~~~~~~~~~~~~~~~~~~~~~"
	.globread USB_StandardRequests,g_epStatusOut,"/Users/rkn/Documents/xTIMEcomposer/workspace/module_usb_device/src/usb_device.xc:586:47: note: object used here\n                                buffer[0] = ( g_epStatusOut[ sp.wIndex ] & 0xff );\n                                              ^~~~~~~~~~~~~~~~~~~~~~~~~~"
	.globwrite USB_StandardRequests,g_interfaceAlt,"/Users/rkn/Documents/xTIMEcomposer/workspace/module_usb_device/src/usb_device.xc:464:29: note: object used here\n                            g_interfaceAlt[sp.wIndex] = sp.wValue;\n                            ^~~~~~~~~~~~~~~~~~~~~~~~~"
	.globwrite USB_StandardRequests,g_currentConfig,"/Users/rkn/Documents/xTIMEcomposer/workspace/module_usb_device/src/usb_device.xc:177:26: note: object used here\n                         g_currentConfig = sp.wValue;\n                         ^~~~~~~~~~~~~~~"
	.globwrite SetEndpointHalt,g_epStatusIn,"/Users/rkn/Documents/xTIMEcomposer/workspace/module_usb_device/src/usb_device.xc:59:13: note: object used here\n            g_epStatusIn[epNum & 0x7F] = halt;\n            ^~~~~~~~~~~~~~~~~~~~~~~~~~"
	.globwrite SetEndpointHalt,g_epStatusOut,"/Users/rkn/Documents/xTIMEcomposer/workspace/module_usb_device/src/usb_device.xc:71:13: note: object used here\n            g_epStatusOut[epNum] = halt;\n            ^~~~~~~~~~~~~~~~~~~~"
	.call USB_StandardRequests,_safe_strlen
	.call USB_StandardRequests,XUD_SetTestMode
	.call USB_StandardRequests,XUD_SetStall
	.call USB_StandardRequests,XUD_SetDevAddr
	.call USB_StandardRequests,XUD_ResetEpStateByAddr
	.call USB_StandardRequests,XUD_DoSetRequestStatus
	.call USB_StandardRequests,XUD_DoGetRequest
	.call USB_StandardRequests,SetEndpointHalt
	.call SetEndpointHalt,XUD_SetStallByAddr
	.call SetEndpointHalt,XUD_ClearStallByAddr
	.call USB_GetSetupPacket,XUD_GetSetupBuffer
	.call USB_GetSetupPacket,USB_ParseSetupPacket
	.call usage.anon.9,memset
	.call usage.anon.8,memmove
	.call usage.anon.7,memcmp
	.call usage.anon.6,usage.anon.5
	.call usage.anon.2,delay_ticks_longlong
	.call usage.anon.1,delay_ticks_longlong
	.call usage.anon.0,delay_ticks_longlong
	.set usage.anon.3.locnoside, 0
	.set usage.anon.6.locnoside, 0
	.set USB_GetSetupPacket.locnoside, 0
	.set SetEndpointHalt.locnoside, 0
	.set USB_StandardRequests.locnoside, 0
	.set SetEndpointHalt.locnoglobalaccess, 0
	.set USB_StandardRequests.locnoglobalaccess, 0
	.assert 1,memset.actnoglobalaccess,"In file included from /Users/rkn/Documents/xTIMEcomposer/workspace/module_usb_device/src/usb_device.xc:10:\nIn file included from /Applications/XMOS_xTIMEcomposer_Community_14.3.2/target/include/xc/string.h:5:\n/Applications/XMOS_xTIMEcomposer_Community_14.3.2/target/include/xc/safe/string.h:21:3: error: passing non-local alias to function `memset\' which accesses a global variable\n  memset(s, c, n);\n  ^~~~~~~~~~~~~~~"
	.assert 1,memmove.actnoglobalaccess,"In file included from /Users/rkn/Documents/xTIMEcomposer/workspace/module_usb_device/src/usb_device.xc:10:\nIn file included from /Applications/XMOS_xTIMEcomposer_Community_14.3.2/target/include/xc/string.h:5:\n/Applications/XMOS_xTIMEcomposer_Community_14.3.2/target/include/xc/safe/string.h:15:3: error: passing non-local alias to function `memmove\' which accesses a global variable\n  memmove(s1, s2, n);\n  ^~~~~~~~~~~~~~~~~~"

                                        # End of file scope inline assembly
	.section	.cp.rodata.cst4,"aMc",@progbits,4
	.cc_top .LCPI0_0.data,.LCPI0_0
	.align	4
	.type	.LCPI0_0,@object
	.size	.LCPI0_0, 4
.LCPI0_0:
	.long	4294967293              # 0xfffffffd
	.cc_bottom .LCPI0_0.data
	.text
	.globl	USB_StandardRequests
	.align	4
	.type	USB_StandardRequests,@function
	.cc_top USB_StandardRequests.function,USB_StandardRequests
USB_StandardRequests:                   # @USB_StandardRequests
.Lfunc_begin0:
	.loc	1 92 0                  # /Users/rkn/Documents/xTIMEcomposer/workspace/module_usb_device/src/usb_device.xc:92:0
	.cfi_startproc
	.issue_mode dual
# BB#0:                                 # %allocas
.Lxtalabel0:
	{
		nop
		dualentsp 54
	}
.Ltmp0:
	.cfi_def_cfa_offset 216
.Ltmp1:
	.cfi_offset 15, 0
	{
		nop
		stw r4, sp[46]
	}
	{
		nop
		stw r5, sp[47]
	}
.Ltmp2:
	.cfi_offset 4, -32
.Ltmp3:
	.cfi_offset 5, -28
	{
		nop
		stw r6, sp[48]
	}
	{
		nop
		stw r7, sp[49]
	}
.Ltmp4:
	.cfi_offset 6, -24
.Ltmp5:
	.cfi_offset 7, -20
	{
		nop
		stw r8, sp[50]
	}
	{
		nop
		stw r9, sp[51]
	}
.Ltmp6:
	.cfi_offset 8, -16
.Ltmp7:
	.cfi_offset 9, -12
	{
		nop
		stw r10, sp[52]
	}
.Ltmp8:
	.cfi_offset 10, -8
	#DEBUG_VALUE: USB_StandardRequests:ep_out <- R0
	#DEBUG_VALUE: USB_StandardRequests:ep_in <- R1
	#DEBUG_VALUE: USB_StandardRequests:devDesc_hs <- R2
	#DEBUG_VALUE: USB_StandardRequests:devDescLength_hs <- R3
.Ltmp9:
	#DEBUG_VALUE: USB_StandardRequests:devDescLength_hs <- [SP+24]
	#DEBUG_VALUE: USB_StandardRequests:devDesc_hs <- R7
	{
		mov r7, r2
		stw r3, sp[6]
	}
.Ltmp10:
	{
		nop
		stw r1, sp[12]
	}
.Ltmp11:
	#DEBUG_VALUE: USB_StandardRequests:ep_in <- [SP+48]
	{
		nop
		stw r0, sp[11]
	}
.Ltmp12:
	#DEBUG_VALUE: stringID <- 0
	#DEBUG_VALUE: USB_StandardRequests:ep_out <- [SP+44]
	ldw r1, sp[68]
	ldw r0, sp[69]
	{
		nop
		stw r1, sp[5]
	}
	ldw r0, sp[66]
	ldw r8, sp[67]
	{
		nop
		stw r0, sp[4]
	}
	ldw r0, sp[64]
	ldw r11, sp[65]
	#DEBUG_VALUE: USB_StandardRequests:usbBusSpeed <- [SP+40]
	{
		nop
		stw r0, sp[10]
	}
	{
		nop
		ldw r0, sp[62]
	}
	{
		nop
		ldw r6, sp[63]
	}
	#DEBUG_VALUE: USB_StandardRequests:sp <- R6
	#DEBUG_VALUE: USB_StandardRequests:strDescsLength <- R0
	{
		nop
		ldw r1, sp[60]
	}
	{
		nop
		ldw r9, sp[61]
	}
	#DEBUG_VALUE: USB_StandardRequests:strDescs <- R9
	#DEBUG_VALUE: USB_StandardRequests:cfgDescLength_fs <- [SP+36]
	{
		nop
		stw r1, sp[9]
	}
	{
		nop
		ldw r3, sp[58]
	}
	{
		nop
		ldw r1, sp[59]
	}
	#DEBUG_VALUE: USB_StandardRequests:cfgDesc_fs <- [SP+28]
	#DEBUG_VALUE: USB_StandardRequests:devDescLength_fs <- R3
	{
		nop
		stw r1, sp[7]
	}
	{
		nop
		ldw r1, sp[56]
	}
	{
		nop
		ldw r4, sp[57]
	}
	#DEBUG_VALUE: USB_StandardRequests:devDesc_fs <- R4
	#DEBUG_VALUE: USB_StandardRequests:cfgDescLength_hs <- [SP+32]
	#DEBUG_VALUE: USB_StandardRequests:cfgDesc_hs <- undef
	{
		ldc r1, 2
		stw r1, sp[8]
	}
	{
		nop
		ld8u r1, r6[r1]
	}
	.loc	1 101 0 prologue_end    # /Users/rkn/Documents/xTIMEcomposer/workspace/module_usb_device/src/usb_device.xc:101:0
.Ltmp13:
	{
		shl r1, r1, 7
		mkmsk r2, 1
	}
	{
		nop
		ld8u r2, r6[r2]
	}
	.loc	1 101 0                 # /Users/rkn/Documents/xTIMEcomposer/workspace/module_usb_device/src/usb_device.xc:101:0
	{
		shl r2, r2, 5
		nop
	}
	.loc	1 101 0                 # /Users/rkn/Documents/xTIMEcomposer/workspace/module_usb_device/src/usb_device.xc:101:0
	{
		or r1, r2, r1
		ldc r5, 0
	}
	{
		nop
		ld8u r10, r6[r5]
	}
.Ltmp14:
	#DEBUG_VALUE: bmRequestType <- R1
	.loc	1 101 0                 # /Users/rkn/Documents/xTIMEcomposer/workspace/module_usb_device/src/usb_device.xc:101:0
	{
		or r1, r1, r10
		mkmsk r10, 7
	}
.Ltmp15:
	.loc	1 103 0                 # /Users/rkn/Documents/xTIMEcomposer/workspace/module_usb_device/src/usb_device.xc:103:0
	{
		lss r10, r10, r1
		nop
	}
	bt r10, .LBB0_9
.Ltmp16:
# BB#1:                                 # %allocas
.Lxtalabel1:
	#DEBUG_VALUE: USB_StandardRequests:ep_out <- [SP+44]
	#DEBUG_VALUE: USB_StandardRequests:ep_in <- [SP+48]
	#DEBUG_VALUE: USB_StandardRequests:usbBusSpeed <- [SP+40]
	#DEBUG_VALUE: USB_StandardRequests:sp <- R6
	#DEBUG_VALUE: USB_StandardRequests:cfgDescLength_fs <- [SP+36]
	#DEBUG_VALUE: USB_StandardRequests:cfgDesc_fs <- [SP+28]
	#DEBUG_VALUE: USB_StandardRequests:cfgDescLength_hs <- [SP+32]
	#DEBUG_VALUE: USB_StandardRequests:cfgDesc_hs <- undef
	bf r1, .LBB0_13
.Ltmp17:
# BB#2:                                 # %allocas
.Lxtalabel2:
	#DEBUG_VALUE: USB_StandardRequests:ep_out <- [SP+44]
	#DEBUG_VALUE: USB_StandardRequests:ep_in <- [SP+48]
	#DEBUG_VALUE: USB_StandardRequests:usbBusSpeed <- [SP+40]
	#DEBUG_VALUE: USB_StandardRequests:sp <- R6
	#DEBUG_VALUE: USB_StandardRequests:cfgDescLength_fs <- [SP+36]
	#DEBUG_VALUE: USB_StandardRequests:cfgDesc_fs <- [SP+28]
	#DEBUG_VALUE: USB_StandardRequests:cfgDescLength_hs <- [SP+32]
	#DEBUG_VALUE: USB_StandardRequests:cfgDesc_hs <- undef
	{
		eq r0, r1, 1
		nop
	}
	bf r0, .LBB0_3
.Ltmp18:
# BB#98:                                # %switchcase155
.Lxtalabel3:
	#DEBUG_VALUE: USB_StandardRequests:ep_out <- [SP+44]
	#DEBUG_VALUE: USB_StandardRequests:ep_in <- [SP+48]
	#DEBUG_VALUE: USB_StandardRequests:usbBusSpeed <- [SP+40]
	#DEBUG_VALUE: USB_StandardRequests:sp <- R6
	#DEBUG_VALUE: USB_StandardRequests:cfgDescLength_fs <- [SP+36]
	#DEBUG_VALUE: USB_StandardRequests:cfgDesc_fs <- [SP+28]
	#DEBUG_VALUE: USB_StandardRequests:cfgDescLength_hs <- [SP+32]
	#DEBUG_VALUE: USB_StandardRequests:cfgDesc_hs <- undef
	{
		mkmsk r0, 2
		nop
	}
	{
		nop
		ld8u r0, r6[r0]
	}
	.loc	1 435 0                 # /Users/rkn/Documents/xTIMEcomposer/workspace/module_usb_device/src/usb_device.xc:435:0
	{
		eq r0, r0, 11
		nop
	}
	bf r0, .LBB0_12
.Ltmp19:
# BB#99:                                # %switchcase595
.Lxtalabel4:
	#DEBUG_VALUE: USB_StandardRequests:ep_out <- [SP+44]
	#DEBUG_VALUE: USB_StandardRequests:ep_in <- [SP+48]
	#DEBUG_VALUE: USB_StandardRequests:usbBusSpeed <- [SP+40]
	#DEBUG_VALUE: USB_StandardRequests:sp <- R6
	#DEBUG_VALUE: USB_StandardRequests:cfgDescLength_fs <- [SP+36]
	#DEBUG_VALUE: USB_StandardRequests:cfgDesc_fs <- [SP+28]
	#DEBUG_VALUE: USB_StandardRequests:cfgDescLength_hs <- [SP+32]
	#DEBUG_VALUE: USB_StandardRequests:cfgDesc_hs <- undef
	.loc	1 443 21                # /Users/rkn/Documents/xTIMEcomposer/workspace/module_usb_device/src/usb_device.xc:443:21
	{
		add r1, r6, 8
		ldc r0, 0
	}
	{
		nop
		ld16s r1, r1[r0]
	}
	.loc	1 443 21                # /Users/rkn/Documents/xTIMEcomposer/workspace/module_usb_device/src/usb_device.xc:443:21
	{
		zext r1, 16
		nop
	}
	bt r1, .LBB0_12
.Ltmp20:
# BB#100:                               # %iftrue596
.Lxtalabel5:
	#DEBUG_VALUE: USB_StandardRequests:ep_in <- [SP+48]
	#DEBUG_VALUE: USB_StandardRequests:usbBusSpeed <- [SP+40]
	#DEBUG_VALUE: USB_StandardRequests:sp <- R6
	#DEBUG_VALUE: USB_StandardRequests:cfgDescLength_fs <- [SP+36]
	#DEBUG_VALUE: USB_StandardRequests:cfgDesc_fs <- [SP+28]
	#DEBUG_VALUE: USB_StandardRequests:cfgDescLength_hs <- [SP+32]
	#DEBUG_VALUE: USB_StandardRequests:cfgDesc_hs <- undef
	#DEBUG_VALUE: numInterfaces <- 0
	{
		nop
		ldw r1, sp[10]
	}
	.loc	1 448 25                # /Users/rkn/Documents/xTIMEcomposer/workspace/module_usb_device/src/usb_device.xc:448:25
.Ltmp21:
	{
		eq r1, r1, 1
		nop
	}
	bf r1, .LBB0_108
.Ltmp22:
# BB#101:                               # %iftrue596
.Lxtalabel6:
	#DEBUG_VALUE: USB_StandardRequests:ep_in <- [SP+48]
	#DEBUG_VALUE: USB_StandardRequests:sp <- R6
	#DEBUG_VALUE: USB_StandardRequests:cfgDescLength_fs <- [SP+36]
	#DEBUG_VALUE: USB_StandardRequests:cfgDesc_fs <- [SP+28]
	#DEBUG_VALUE: USB_StandardRequests:cfgDescLength_hs <- [SP+32]
	#DEBUG_VALUE: USB_StandardRequests:cfgDesc_hs <- undef
	{
		nop
		ldw r1, sp[9]
	}
	bf r1, .LBB0_108
.Ltmp23:
# BB#102:                               # %iftrue604
.Lxtalabel7:
	#DEBUG_VALUE: USB_StandardRequests:ep_in <- [SP+48]
	#DEBUG_VALUE: USB_StandardRequests:sp <- R6
	#DEBUG_VALUE: USB_StandardRequests:cfgDesc_fs <- [SP+28]
	{
		ldc r1, 4
		ldw r2, sp[7]
	}
	bu .LBB0_103
.Ltmp24:
.LBB0_9:                                # %allocas
.Lxtalabel8:
	#DEBUG_VALUE: USB_StandardRequests:ep_out <- [SP+44]
	#DEBUG_VALUE: USB_StandardRequests:ep_in <- [SP+48]
	#DEBUG_VALUE: USB_StandardRequests:devDesc_hs <- R7
	#DEBUG_VALUE: USB_StandardRequests:devDescLength_hs <- [SP+24]
	#DEBUG_VALUE: USB_StandardRequests:usbBusSpeed <- [SP+40]
	#DEBUG_VALUE: USB_StandardRequests:strDescsLength <- R0
	#DEBUG_VALUE: USB_StandardRequests:sp <- R6
	#DEBUG_VALUE: USB_StandardRequests:cfgDescLength_fs <- [SP+36]
	#DEBUG_VALUE: USB_StandardRequests:strDescs <- R9
	#DEBUG_VALUE: USB_StandardRequests:devDescLength_fs <- R3
	#DEBUG_VALUE: USB_StandardRequests:cfgDesc_fs <- [SP+28]
	#DEBUG_VALUE: USB_StandardRequests:cfgDescLength_hs <- [SP+32]
	#DEBUG_VALUE: USB_StandardRequests:devDesc_fs <- R4
	#DEBUG_VALUE: USB_StandardRequests:cfgDesc_hs <- undef
	ldc r10, 128
	{
		eq r2, r1, r10
		nop
	}
	bt r2, .LBB0_23
.Ltmp25:
# BB#10:                                # %allocas
.Lxtalabel9:
	#DEBUG_VALUE: USB_StandardRequests:ep_out <- [SP+44]
	#DEBUG_VALUE: USB_StandardRequests:ep_in <- [SP+48]
	#DEBUG_VALUE: USB_StandardRequests:usbBusSpeed <- [SP+40]
	#DEBUG_VALUE: USB_StandardRequests:sp <- R6
	#DEBUG_VALUE: USB_StandardRequests:cfgDescLength_fs <- [SP+36]
	#DEBUG_VALUE: USB_StandardRequests:cfgDesc_fs <- [SP+28]
	#DEBUG_VALUE: USB_StandardRequests:cfgDescLength_hs <- [SP+32]
	#DEBUG_VALUE: USB_StandardRequests:cfgDesc_hs <- undef
	ldc r0, 129
	{
		eq r0, r1, r0
		nop
	}
	bf r0, .LBB0_11
.Ltmp26:
# BB#110:                               # %switchcase589
.Lxtalabel10:
	#DEBUG_VALUE: USB_StandardRequests:ep_out <- [SP+44]
	#DEBUG_VALUE: USB_StandardRequests:ep_in <- [SP+48]
	#DEBUG_VALUE: USB_StandardRequests:usbBusSpeed <- [SP+40]
	#DEBUG_VALUE: USB_StandardRequests:sp <- R6
	#DEBUG_VALUE: USB_StandardRequests:cfgDescLength_fs <- [SP+36]
	#DEBUG_VALUE: USB_StandardRequests:cfgDesc_fs <- [SP+28]
	#DEBUG_VALUE: USB_StandardRequests:cfgDescLength_hs <- [SP+32]
	#DEBUG_VALUE: USB_StandardRequests:cfgDesc_hs <- undef
	{
		mkmsk r0, 2
		nop
	}
	{
		nop
		ld8u r0, r6[r0]
	}
	.loc	1 480 0                 # /Users/rkn/Documents/xTIMEcomposer/workspace/module_usb_device/src/usb_device.xc:480:0
	{
		eq r0, r0, 10
		nop
	}
	bf r0, .LBB0_12
.Ltmp27:
# BB#111:                               # %switchcase670
.Lxtalabel11:
	#DEBUG_VALUE: USB_StandardRequests:ep_out <- [SP+44]
	#DEBUG_VALUE: USB_StandardRequests:ep_in <- [SP+48]
	#DEBUG_VALUE: USB_StandardRequests:usbBusSpeed <- [SP+40]
	#DEBUG_VALUE: USB_StandardRequests:sp <- R6
	#DEBUG_VALUE: USB_StandardRequests:cfgDescLength_fs <- [SP+36]
	#DEBUG_VALUE: USB_StandardRequests:cfgDesc_fs <- [SP+28]
	#DEBUG_VALUE: USB_StandardRequests:cfgDescLength_hs <- [SP+32]
	#DEBUG_VALUE: USB_StandardRequests:cfgDesc_hs <- undef
	.loc	1 484 21                # /Users/rkn/Documents/xTIMEcomposer/workspace/module_usb_device/src/usb_device.xc:484:21
	{
		add r0, r6, 4
		nop
	}
	{
		nop
		ld16s r0, r0[r5]
	}
	.loc	1 484 21                # /Users/rkn/Documents/xTIMEcomposer/workspace/module_usb_device/src/usb_device.xc:484:21
	{
		zext r0, 16
		nop
	}
	bt r0, .LBB0_12
.Ltmp28:
# BB#112:                               # %lhsfalse681
	#DEBUG_VALUE: USB_StandardRequests:ep_out <- [SP+44]
	#DEBUG_VALUE: USB_StandardRequests:ep_in <- [SP+48]
	#DEBUG_VALUE: USB_StandardRequests:usbBusSpeed <- [SP+40]
	#DEBUG_VALUE: USB_StandardRequests:sp <- R6
	#DEBUG_VALUE: USB_StandardRequests:cfgDescLength_fs <- [SP+36]
	#DEBUG_VALUE: USB_StandardRequests:cfgDesc_fs <- [SP+28]
	#DEBUG_VALUE: USB_StandardRequests:cfgDescLength_hs <- [SP+32]
	#DEBUG_VALUE: USB_StandardRequests:cfgDesc_hs <- undef
	.loc	1 484 21                # /Users/rkn/Documents/xTIMEcomposer/workspace/module_usb_device/src/usb_device.xc:484:21
	{
		add r0, r6, 8
		nop
	}
	{
		nop
		ld16s r0, r0[r5]
	}
	.loc	1 484 21                # /Users/rkn/Documents/xTIMEcomposer/workspace/module_usb_device/src/usb_device.xc:484:21
	{
		zext r0, 16
		nop
	}
	.loc	1 484 21                # /Users/rkn/Documents/xTIMEcomposer/workspace/module_usb_device/src/usb_device.xc:484:21
	{
		eq r0, r0, 1
		nop
	}
	bf r0, .LBB0_12
.Ltmp29:
# BB#113:                               # %iftrue671
.Lxtalabel12:
	#DEBUG_VALUE: USB_StandardRequests:ep_out <- [SP+44]
	#DEBUG_VALUE: USB_StandardRequests:ep_in <- [SP+48]
	#DEBUG_VALUE: USB_StandardRequests:usbBusSpeed <- [SP+40]
	#DEBUG_VALUE: USB_StandardRequests:sp <- R6
	#DEBUG_VALUE: USB_StandardRequests:cfgDescLength_fs <- [SP+36]
	#DEBUG_VALUE: USB_StandardRequests:cfgDesc_fs <- [SP+28]
	#DEBUG_VALUE: USB_StandardRequests:cfgDescLength_hs <- [SP+32]
	#DEBUG_VALUE: USB_StandardRequests:cfgDesc_hs <- undef
	#DEBUG_VALUE: numInterfaces <- 0
	{
		nop
		ldw r0, sp[10]
	}
	.loc	1 489 25                # /Users/rkn/Documents/xTIMEcomposer/workspace/module_usb_device/src/usb_device.xc:489:25
.Ltmp30:
	{
		eq r0, r0, 1
		nop
	}
	bf r0, .LBB0_120
.Ltmp31:
# BB#114:                               # %iftrue671
.Lxtalabel13:
	#DEBUG_VALUE: USB_StandardRequests:ep_out <- [SP+44]
	#DEBUG_VALUE: USB_StandardRequests:ep_in <- [SP+48]
	#DEBUG_VALUE: USB_StandardRequests:sp <- R6
	#DEBUG_VALUE: USB_StandardRequests:cfgDescLength_fs <- [SP+36]
	#DEBUG_VALUE: USB_StandardRequests:cfgDesc_fs <- [SP+28]
	#DEBUG_VALUE: USB_StandardRequests:cfgDescLength_hs <- [SP+32]
	#DEBUG_VALUE: USB_StandardRequests:cfgDesc_hs <- undef
	{
		nop
		ldw r0, sp[9]
	}
	bf r0, .LBB0_120
.Ltmp32:
# BB#115:                               # %iftrue692
.Lxtalabel14:
	#DEBUG_VALUE: USB_StandardRequests:ep_out <- [SP+44]
	#DEBUG_VALUE: USB_StandardRequests:ep_in <- [SP+48]
	#DEBUG_VALUE: USB_StandardRequests:sp <- R6
	#DEBUG_VALUE: USB_StandardRequests:cfgDesc_fs <- [SP+28]
	{
		ldc r0, 4
		ldw r1, sp[7]
	}
	bu .LBB0_116
.Ltmp33:
.LBB0_13:                               # %switchcase
.Lxtalabel15:
	#DEBUG_VALUE: USB_StandardRequests:ep_out <- [SP+44]
	#DEBUG_VALUE: USB_StandardRequests:ep_in <- [SP+48]
	#DEBUG_VALUE: USB_StandardRequests:sp <- R6
	{
		mkmsk r0, 2
		nop
	}
	{
		nop
		ld8u r0, r6[r0]
	}
	.loc	1 109 0                 # /Users/rkn/Documents/xTIMEcomposer/workspace/module_usb_device/src/usb_device.xc:109:0
	{
		eq r1, r0, 3
		nop
	}
	.loc	1 109 0                 # /Users/rkn/Documents/xTIMEcomposer/workspace/module_usb_device/src/usb_device.xc:109:0
	bt r1, .LBB0_46
.Ltmp34:
# BB#14:                                # %switchcase
.Lxtalabel16:
	#DEBUG_VALUE: USB_StandardRequests:ep_out <- [SP+44]
	#DEBUG_VALUE: USB_StandardRequests:ep_in <- [SP+48]
	#DEBUG_VALUE: USB_StandardRequests:sp <- R6
	{
		eq r1, r0, 5
		nop
	}
	bf r1, .LBB0_15
.Ltmp35:
# BB#31:                                # %switchcase17
.Lxtalabel17:
	#DEBUG_VALUE: USB_StandardRequests:ep_out <- [SP+44]
	#DEBUG_VALUE: USB_StandardRequests:ep_in <- [SP+48]
	#DEBUG_VALUE: USB_StandardRequests:sp <- R6
	.loc	1 125 21                # /Users/rkn/Documents/xTIMEcomposer/workspace/module_usb_device/src/usb_device.xc:125:21
	{
		add r4, r6, 4
		ldc r5, 0
	}
	{
		nop
		ld16s r0, r4[r5]
	}
	ldc r1, 65408
	.loc	1 125 21                # /Users/rkn/Documents/xTIMEcomposer/workspace/module_usb_device/src/usb_device.xc:125:21
	{
		and r0, r0, r1
		nop
	}
	.loc	1 125 21                # /Users/rkn/Documents/xTIMEcomposer/workspace/module_usb_device/src/usb_device.xc:125:21
	{
		shr r0, r0, 7
		nop
	}
	bt r0, .LBB0_12
.Ltmp36:
# BB#32:                                # %lhsfalse
	#DEBUG_VALUE: USB_StandardRequests:ep_out <- [SP+44]
	#DEBUG_VALUE: USB_StandardRequests:ep_in <- [SP+48]
	#DEBUG_VALUE: USB_StandardRequests:sp <- R6
	.loc	1 125 21                # /Users/rkn/Documents/xTIMEcomposer/workspace/module_usb_device/src/usb_device.xc:125:21
	{
		add r0, r6, 6
		nop
	}
	{
		nop
		ld16s r0, r0[r5]
	}
	.loc	1 125 21                # /Users/rkn/Documents/xTIMEcomposer/workspace/module_usb_device/src/usb_device.xc:125:21
	{
		zext r0, 16
		nop
	}
	bt r0, .LBB0_12
.Ltmp37:
# BB#33:                                # %lhsfalse30
	#DEBUG_VALUE: USB_StandardRequests:ep_out <- [SP+44]
	#DEBUG_VALUE: USB_StandardRequests:ep_in <- [SP+48]
	#DEBUG_VALUE: USB_StandardRequests:sp <- R6
	.loc	1 125 21                # /Users/rkn/Documents/xTIMEcomposer/workspace/module_usb_device/src/usb_device.xc:125:21
	{
		add r0, r6, 8
		nop
	}
	{
		nop
		ld16s r0, r0[r5]
	}
	.loc	1 125 21                # /Users/rkn/Documents/xTIMEcomposer/workspace/module_usb_device/src/usb_device.xc:125:21
	{
		zext r0, 16
		nop
	}
	bt r0, .LBB0_12
.Ltmp38:
# BB#34:                                # %iftrue
.Lxtalabel18:
	#DEBUG_VALUE: USB_StandardRequests:ep_in <- [SP+48]
	{
		nop
		ldw r0, sp[12]
	}
	.loc	1 130 25                # /Users/rkn/Documents/xTIMEcomposer/workspace/module_usb_device/src/usb_device.xc:130:25
.Ltmp39:
.Lxta.call_labels0:
	bl XUD_DoSetRequestStatus
.Ltmp40:
	#DEBUG_VALUE: result <- R0
	bt r0, .LBB0_138
.Ltmp41:
# BB#35:                                # %ifdone40
.Lxtalabel19:
	#DEBUG_VALUE: time <- R0
	.loc	1 140 0                 # /Users/rkn/Documents/xTIMEcomposer/workspace/module_usb_device/src/usb_device.xc:140:0
	{
		gettime r0
		get r11, id
	}
.Ltmp42:
	.loc	1 141 0                 # /Users/rkn/Documents/xTIMEcomposer/workspace/module_usb_device/src/usb_device.xc:141:0
	ldaw r1, dp[__timers]
	{
		nop
		ldw r1, r1[r11]
	}
	ldc r2, 50000
	.loc	1 141 0                 # /Users/rkn/Documents/xTIMEcomposer/workspace/module_usb_device/src/usb_device.xc:141:0
	{
		add r0, r0, r2
		nop
	}
	.loc	1 141 0                 # /Users/rkn/Documents/xTIMEcomposer/workspace/module_usb_device/src/usb_device.xc:141:0
	{
		setd res[r1], r0
		nop
	}
	.loc	1 141 0                 # /Users/rkn/Documents/xTIMEcomposer/workspace/module_usb_device/src/usb_device.xc:141:0
	{
		setc res[r1], 9
		nop
	}
	.loc	1 141 0                 # /Users/rkn/Documents/xTIMEcomposer/workspace/module_usb_device/src/usb_device.xc:141:0
.Ltmp43:
.Lxta.endpoint_labels0:
	{
		in r0, res[r1]
		nop
	}
	{
		nop
		ld16s r0, r4[r5]
	}
.Ltmp44:
	.loc	1 145 25                # /Users/rkn/Documents/xTIMEcomposer/workspace/module_usb_device/src/usb_device.xc:145:25
	{
		zext r0, 16
		nop
	}
	.loc	1 145 25                # /Users/rkn/Documents/xTIMEcomposer/workspace/module_usb_device/src/usb_device.xc:145:25
.Lxta.call_labels1:
	bl XUD_SetDevAddr
	bu .LBB0_138
.Ltmp45:
.LBB0_3:                                # %allocas
.Lxtalabel20:
	#DEBUG_VALUE: USB_StandardRequests:ep_out <- [SP+44]
	#DEBUG_VALUE: USB_StandardRequests:ep_in <- [SP+48]
	#DEBUG_VALUE: USB_StandardRequests:sp <- R6
	{
		eq r0, r1, 2
		nop
	}
	bf r0, .LBB0_12
.Ltmp46:
# BB#4:                                 # %switchcase664
.Lxtalabel21:
	#DEBUG_VALUE: USB_StandardRequests:ep_out <- [SP+44]
	#DEBUG_VALUE: USB_StandardRequests:ep_in <- [SP+48]
	#DEBUG_VALUE: USB_StandardRequests:sp <- R6
	{
		mkmsk r0, 2
		nop
	}
	{
		nop
		ld8u r0, r6[r0]
	}
	.loc	1 515 0                 # /Users/rkn/Documents/xTIMEcomposer/workspace/module_usb_device/src/usb_device.xc:515:0
	{
		eq r1, r0, 1
		nop
	}
	bf r1, .LBB0_5
.Ltmp47:
# BB#122:                               # %switchcase761
.Lxtalabel22:
	#DEBUG_VALUE: USB_StandardRequests:ep_out <- [SP+44]
	#DEBUG_VALUE: USB_StandardRequests:ep_in <- [SP+48]
	#DEBUG_VALUE: USB_StandardRequests:sp <- R6
	.loc	1 537 21                # /Users/rkn/Documents/xTIMEcomposer/workspace/module_usb_device/src/usb_device.xc:537:21
	{
		add r0, r6, 8
		ldc r1, 0
	}
	{
		nop
		ld16s r0, r0[r1]
	}
	.loc	1 537 21                # /Users/rkn/Documents/xTIMEcomposer/workspace/module_usb_device/src/usb_device.xc:537:21
	{
		zext r0, 16
		nop
	}
	bt r0, .LBB0_12
.Ltmp48:
# BB#123:                               # %iftrue789
.Lxtalabel23:
	#DEBUG_VALUE: USB_StandardRequests:ep_out <- [SP+44]
	#DEBUG_VALUE: USB_StandardRequests:ep_in <- [SP+48]
	#DEBUG_VALUE: USB_StandardRequests:sp <- R6
	.loc	1 540 25                # /Users/rkn/Documents/xTIMEcomposer/workspace/module_usb_device/src/usb_device.xc:540:25
	{
		add r0, r6, 4
		nop
	}
	{
		nop
		ld16s r0, r0[r1]
	}
	.loc	1 540 25                # /Users/rkn/Documents/xTIMEcomposer/workspace/module_usb_device/src/usb_device.xc:540:25
	{
		zext r0, 16
		nop
	}
	bt r0, .LBB0_12
.Ltmp49:
# BB#124:                               # %iftrue797
.Lxtalabel24:
	#DEBUG_VALUE: USB_StandardRequests:ep_out <- [SP+44]
	#DEBUG_VALUE: USB_StandardRequests:ep_in <- [SP+48]
	#DEBUG_VALUE: USB_StandardRequests:sp <- R6
	.loc	1 543 29                # /Users/rkn/Documents/xTIMEcomposer/workspace/module_usb_device/src/usb_device.xc:543:29
	{
		add r0, r6, 6
		nop
	}
	{
		nop
		ld16s r0, r0[r1]
	}
	.loc	1 543 29                # /Users/rkn/Documents/xTIMEcomposer/workspace/module_usb_device/src/usb_device.xc:543:29
	{
		zext r0, 16
		nop
	}
	bu .LBB0_125
.Ltmp50:
.LBB0_23:                               # %switchcase11
.Lxtalabel25:
	#DEBUG_VALUE: USB_StandardRequests:ep_out <- [SP+44]
	#DEBUG_VALUE: USB_StandardRequests:ep_in <- [SP+48]
	#DEBUG_VALUE: USB_StandardRequests:devDesc_hs <- R7
	#DEBUG_VALUE: USB_StandardRequests:devDescLength_hs <- [SP+24]
	#DEBUG_VALUE: USB_StandardRequests:usbBusSpeed <- [SP+40]
	#DEBUG_VALUE: USB_StandardRequests:strDescsLength <- R0
	#DEBUG_VALUE: USB_StandardRequests:sp <- R6
	#DEBUG_VALUE: USB_StandardRequests:cfgDescLength_fs <- [SP+36]
	#DEBUG_VALUE: USB_StandardRequests:strDescs <- R9
	#DEBUG_VALUE: USB_StandardRequests:devDescLength_fs <- R3
	#DEBUG_VALUE: USB_StandardRequests:cfgDesc_fs <- [SP+28]
	#DEBUG_VALUE: USB_StandardRequests:cfgDescLength_hs <- [SP+32]
	#DEBUG_VALUE: USB_StandardRequests:devDesc_fs <- R4
	#DEBUG_VALUE: USB_StandardRequests:cfgDesc_hs <- undef
	{
		mkmsk r5, 2
		nop
	}
	{
		nop
		ld8u r1, r6[r5]
	}
	.loc	1 222 0                 # /Users/rkn/Documents/xTIMEcomposer/workspace/module_usb_device/src/usb_device.xc:222:0
	bf r1, .LBB0_48
.Ltmp51:
# BB#24:                                # %switchcase11
.Lxtalabel26:
	#DEBUG_VALUE: USB_StandardRequests:ep_out <- [SP+44]
	#DEBUG_VALUE: USB_StandardRequests:ep_in <- [SP+48]
	#DEBUG_VALUE: USB_StandardRequests:devDesc_hs <- R7
	#DEBUG_VALUE: USB_StandardRequests:devDescLength_hs <- [SP+24]
	#DEBUG_VALUE: USB_StandardRequests:usbBusSpeed <- [SP+40]
	#DEBUG_VALUE: USB_StandardRequests:strDescsLength <- R0
	#DEBUG_VALUE: USB_StandardRequests:sp <- R6
	#DEBUG_VALUE: USB_StandardRequests:cfgDescLength_fs <- [SP+36]
	#DEBUG_VALUE: USB_StandardRequests:strDescs <- R9
	#DEBUG_VALUE: USB_StandardRequests:devDescLength_fs <- R3
	#DEBUG_VALUE: USB_StandardRequests:cfgDesc_fs <- [SP+28]
	#DEBUG_VALUE: USB_StandardRequests:cfgDescLength_hs <- [SP+32]
	#DEBUG_VALUE: USB_StandardRequests:devDesc_fs <- R4
	#DEBUG_VALUE: USB_StandardRequests:cfgDesc_hs <- undef
	{
		eq r2, r1, 6
		nop
	}
	bf r2, .LBB0_25
.Ltmp52:
# BB#49:                                # %switchcase177
.Lxtalabel27:
	#DEBUG_VALUE: USB_StandardRequests:ep_out <- [SP+44]
	#DEBUG_VALUE: USB_StandardRequests:ep_in <- [SP+48]
	#DEBUG_VALUE: USB_StandardRequests:devDesc_hs <- R7
	#DEBUG_VALUE: USB_StandardRequests:devDescLength_hs <- [SP+24]
	#DEBUG_VALUE: USB_StandardRequests:usbBusSpeed <- [SP+40]
	#DEBUG_VALUE: USB_StandardRequests:strDescsLength <- R0
	#DEBUG_VALUE: USB_StandardRequests:sp <- R6
	#DEBUG_VALUE: USB_StandardRequests:cfgDescLength_fs <- [SP+36]
	#DEBUG_VALUE: USB_StandardRequests:strDescs <- R9
	#DEBUG_VALUE: USB_StandardRequests:devDescLength_fs <- R3
	#DEBUG_VALUE: USB_StandardRequests:cfgDesc_fs <- [SP+28]
	#DEBUG_VALUE: USB_StandardRequests:cfgDescLength_hs <- [SP+32]
	#DEBUG_VALUE: USB_StandardRequests:devDesc_fs <- R4
	#DEBUG_VALUE: USB_StandardRequests:cfgDesc_hs <- undef
	.loc	1 253 0                 # /Users/rkn/Documents/xTIMEcomposer/workspace/module_usb_device/src/usb_device.xc:253:0
	{
		add r1, r6, 4
		ldc r10, 0
	}
	{
		nop
		ld16s r2, r1[r10]
	}
	ldc r1, 65280
	.loc	1 253 0                 # /Users/rkn/Documents/xTIMEcomposer/workspace/module_usb_device/src/usb_device.xc:253:0
	{
		and r1, r2, r1
		zext r2, 16
	}
	{
		nop
		stw r2, sp[3]
	}
	ldc r2, 511
	.loc	1 253 0                 # /Users/rkn/Documents/xTIMEcomposer/workspace/module_usb_device/src/usb_device.xc:253:0
	{
		lss r2, r2, r1
		nop
	}
	bt r2, .LBB0_55
.Ltmp53:
# BB#50:                                # %switchcase177
.Lxtalabel28:
	#DEBUG_VALUE: USB_StandardRequests:ep_out <- [SP+44]
	#DEBUG_VALUE: USB_StandardRequests:ep_in <- [SP+48]
	#DEBUG_VALUE: USB_StandardRequests:devDesc_hs <- R7
	#DEBUG_VALUE: USB_StandardRequests:devDescLength_hs <- [SP+24]
	#DEBUG_VALUE: USB_StandardRequests:usbBusSpeed <- [SP+40]
	#DEBUG_VALUE: USB_StandardRequests:sp <- R6
	#DEBUG_VALUE: USB_StandardRequests:devDescLength_fs <- R3
	#DEBUG_VALUE: USB_StandardRequests:devDesc_fs <- R4
	ldc r0, 256
	{
		eq r0, r1, r0
		nop
	}
	bf r0, .LBB0_12
.Ltmp54:
# BB#51:                                # %switchcase224
.Lxtalabel29:
	#DEBUG_VALUE: USB_StandardRequests:ep_out <- [SP+44]
	#DEBUG_VALUE: USB_StandardRequests:ep_in <- [SP+48]
	#DEBUG_VALUE: USB_StandardRequests:devDesc_hs <- R7
	#DEBUG_VALUE: USB_StandardRequests:devDescLength_hs <- [SP+24]
	#DEBUG_VALUE: USB_StandardRequests:usbBusSpeed <- [SP+40]
	#DEBUG_VALUE: USB_StandardRequests:sp <- R6
	#DEBUG_VALUE: USB_StandardRequests:devDescLength_fs <- R3
	#DEBUG_VALUE: USB_StandardRequests:devDesc_fs <- R4
	{
		nop
		ldw r0, sp[3]
	}
	.loc	1 259 29                # /Users/rkn/Documents/xTIMEcomposer/workspace/module_usb_device/src/usb_device.xc:259:29
	{
		zext r0, 8
		nop
	}
	bt r0, .LBB0_12
.Ltmp55:
# BB#52:                                # %iftrue226
.Lxtalabel30:
	#DEBUG_VALUE: USB_StandardRequests:ep_out <- [SP+44]
	#DEBUG_VALUE: USB_StandardRequests:ep_in <- [SP+48]
	#DEBUG_VALUE: USB_StandardRequests:devDesc_hs <- R7
	#DEBUG_VALUE: USB_StandardRequests:devDescLength_hs <- [SP+24]
	#DEBUG_VALUE: USB_StandardRequests:usbBusSpeed <- [SP+40]
	#DEBUG_VALUE: USB_StandardRequests:sp <- R6
	#DEBUG_VALUE: USB_StandardRequests:devDescLength_fs <- R3
	#DEBUG_VALUE: USB_StandardRequests:devDesc_fs <- R4
	{
		nop
		ldw r0, sp[10]
	}
	.loc	1 261 33                # /Users/rkn/Documents/xTIMEcomposer/workspace/module_usb_device/src/usb_device.xc:261:33
	{
		eq r0, r0, 1
		nop
	}
	bf r0, .LBB0_67
.Ltmp56:
# BB#53:                                # %iftrue226
.Lxtalabel31:
	#DEBUG_VALUE: USB_StandardRequests:ep_out <- [SP+44]
	#DEBUG_VALUE: USB_StandardRequests:ep_in <- [SP+48]
	#DEBUG_VALUE: USB_StandardRequests:devDesc_hs <- R7
	#DEBUG_VALUE: USB_StandardRequests:devDescLength_hs <- [SP+24]
	#DEBUG_VALUE: USB_StandardRequests:sp <- R6
	#DEBUG_VALUE: USB_StandardRequests:devDescLength_fs <- R3
	#DEBUG_VALUE: USB_StandardRequests:devDesc_fs <- R4
	bf r3, .LBB0_67
.Ltmp57:
# BB#54:                                # %iftrue235
.Lxtalabel32:
	#DEBUG_VALUE: USB_StandardRequests:ep_out <- [SP+44]
	#DEBUG_VALUE: USB_StandardRequests:ep_in <- [SP+48]
	#DEBUG_VALUE: USB_StandardRequests:sp <- R6
	#DEBUG_VALUE: USB_StandardRequests:devDescLength_fs <- R3
	#DEBUG_VALUE: USB_StandardRequests:devDesc_fs <- R4
	{
		mov r2, r4
		nop
	}
.Ltmp58:
	#DEBUG_VALUE: USB_StandardRequests:devDesc_fs <- R2
.Ltrap_info0:
	{
		ecallf r2
		nop
	}
	#DEBUG_VALUE: USB_StandardRequests:ep_out <- [SP+44]
	#DEBUG_VALUE: USB_StandardRequests:ep_in <- [SP+48]
	#DEBUG_VALUE: USB_StandardRequests:sp <- R6
	#DEBUG_VALUE: USB_StandardRequests:devDescLength_fs <- R3
	#DEBUG_VALUE: USB_StandardRequests:devDesc_fs <- R2
	.loc	1 264 37                # /Users/rkn/Documents/xTIMEcomposer/workspace/module_usb_device/src/usb_device.xc:264:37
	{
		add r0, r6, 8
		ldc r1, 0
	}
	{
		nop
		ld16s r0, r0[r1]
	}
	.loc	1 264 37                # /Users/rkn/Documents/xTIMEcomposer/workspace/module_usb_device/src/usb_device.xc:264:37
	{
		zext r0, 16
		nop
	}
	{
		nop
		stw r0, sp[1]
	}
	{
		nop
		stw r8, sp[2]
	}
	bu .LBB0_136
.Ltmp59:
.LBB0_11:                               # %allocas
.Lxtalabel33:
	#DEBUG_VALUE: USB_StandardRequests:ep_out <- [SP+44]
	#DEBUG_VALUE: USB_StandardRequests:ep_in <- [SP+48]
	#DEBUG_VALUE: USB_StandardRequests:sp <- R6
	ldc r0, 130
	{
		eq r0, r1, r0
		nop
	}
	bf r0, .LBB0_12
.Ltmp60:
# BB#126:                               # %switchcase754
.Lxtalabel34:
	#DEBUG_VALUE: USB_StandardRequests:ep_out <- [SP+44]
	#DEBUG_VALUE: USB_StandardRequests:ep_in <- [SP+48]
	#DEBUG_VALUE: USB_StandardRequests:sp <- R6
	{
		mkmsk r0, 2
		nop
	}
	{
		nop
		ld8u r0, r6[r0]
	}
	bt r0, .LBB0_12
.Ltmp61:
# BB#127:                               # %switchcase822
.Lxtalabel35:
	#DEBUG_VALUE: USB_StandardRequests:ep_out <- [SP+44]
	#DEBUG_VALUE: USB_StandardRequests:ep_in <- [SP+48]
	#DEBUG_VALUE: USB_StandardRequests:sp <- R6
	.loc	1 566 21                # /Users/rkn/Documents/xTIMEcomposer/workspace/module_usb_device/src/usb_device.xc:566:21
	{
		add r0, r6, 4
		nop
	}
	{
		nop
		ld16s r0, r0[r5]
	}
	.loc	1 566 21                # /Users/rkn/Documents/xTIMEcomposer/workspace/module_usb_device/src/usb_device.xc:566:21
	{
		zext r0, 16
		nop
	}
	bt r0, .LBB0_12
.Ltmp62:
# BB#128:                               # %lhsfalse833
	#DEBUG_VALUE: USB_StandardRequests:ep_out <- [SP+44]
	#DEBUG_VALUE: USB_StandardRequests:ep_in <- [SP+48]
	#DEBUG_VALUE: USB_StandardRequests:sp <- R6
	.loc	1 566 21                # /Users/rkn/Documents/xTIMEcomposer/workspace/module_usb_device/src/usb_device.xc:566:21
	{
		add r0, r6, 8
		nop
	}
	{
		nop
		ld16s r0, r0[r5]
	}
	.loc	1 566 21                # /Users/rkn/Documents/xTIMEcomposer/workspace/module_usb_device/src/usb_device.xc:566:21
	{
		zext r0, 16
		nop
	}
	.loc	1 566 21                # /Users/rkn/Documents/xTIMEcomposer/workspace/module_usb_device/src/usb_device.xc:566:21
	{
		eq r0, r0, 2
		nop
	}
	bf r0, .LBB0_12
.Ltmp63:
# BB#129:                               # %iftrue823
.Lxtalabel36:
	#DEBUG_VALUE: USB_StandardRequests:ep_out <- [SP+44]
	#DEBUG_VALUE: USB_StandardRequests:ep_in <- [SP+48]
	#DEBUG_VALUE: USB_StandardRequests:sp <- R6
	{
		ldaw r2, sp[16]
		nop
	}
	.loc	1 568 0                 # /Users/rkn/Documents/xTIMEcomposer/workspace/module_usb_device/src/usb_device.xc:568:0
	st8 r5, r2[r5]
	{
		mkmsk r0, 1
		nop
	}
	.loc	1 569 0                 # /Users/rkn/Documents/xTIMEcomposer/workspace/module_usb_device/src/usb_device.xc:569:0
	{
		or r0, r2, r0
		nop
	}
	.loc	1 569 0                 # /Users/rkn/Documents/xTIMEcomposer/workspace/module_usb_device/src/usb_device.xc:569:0
	st8 r5, r0[r5]
	.loc	1 571 25                # /Users/rkn/Documents/xTIMEcomposer/workspace/module_usb_device/src/usb_device.xc:571:25
	{
		add r1, r6, 6
		nop
	}
	.loc	1 571 25                # /Users/rkn/Documents/xTIMEcomposer/workspace/module_usb_device/src/usb_device.xc:571:25
	{
		mov r11, r5
		ld16s r1, r1[r5]
	}
	.loc	1 571 25                # /Users/rkn/Documents/xTIMEcomposer/workspace/module_usb_device/src/usb_device.xc:571:25
	{
		and r3, r1, r10
		zext r1, 16
	}
	.loc	1 571 25                # /Users/rkn/Documents/xTIMEcomposer/workspace/module_usb_device/src/usb_device.xc:571:25
	bf r3, .LBB0_132
.Ltmp64:
# BB#130:                               # %iftrue845
.Lxtalabel37:
	#DEBUG_VALUE: USB_StandardRequests:ep_out <- [SP+44]
	#DEBUG_VALUE: USB_StandardRequests:ep_in <- [SP+48]
	.loc	1 574 29                # /Users/rkn/Documents/xTIMEcomposer/workspace/module_usb_device/src/usb_device.xc:574:29
	{
		zext r1, 7
		nop
	}
	.loc	1 574 29                # /Users/rkn/Documents/xTIMEcomposer/workspace/module_usb_device/src/usb_device.xc:574:29
	{
		shr r3, r1, 5
		nop
	}
	bt r3, .LBB0_12
.Ltmp65:
# BB#131:                               # %iftrue853
.Lxtalabel38:
	#DEBUG_VALUE: USB_StandardRequests:ep_out <- [SP+44]
	#DEBUG_VALUE: USB_StandardRequests:ep_in <- [SP+48]
	.loc	1 576 0                 # /Users/rkn/Documents/xTIMEcomposer/workspace/module_usb_device/src/usb_device.xc:576:0
	ldaw r3, dp[g_epStatusIn]
	bu .LBB0_134
.Ltmp66:
.LBB0_46:                               # %switchcase109
.Lxtalabel39:
	#DEBUG_VALUE: USB_StandardRequests:ep_out <- [SP+44]
	#DEBUG_VALUE: USB_StandardRequests:ep_in <- [SP+48]
	#DEBUG_VALUE: USB_StandardRequests:sp <- R6
	.loc	1 195 21                # /Users/rkn/Documents/xTIMEcomposer/workspace/module_usb_device/src/usb_device.xc:195:21
	{
		add r0, r6, 4
		ldc r4, 0
	}
	{
		nop
		ld16s r0, r0[r4]
	}
	.loc	1 195 21                # /Users/rkn/Documents/xTIMEcomposer/workspace/module_usb_device/src/usb_device.xc:195:21
	{
		zext r0, 16
		nop
	}
	.loc	1 195 21                # /Users/rkn/Documents/xTIMEcomposer/workspace/module_usb_device/src/usb_device.xc:195:21
	{
		eq r0, r0, 2
		nop
	}
	bf r0, .LBB0_12
.Ltmp67:
# BB#47:                                # %lhsfalse121
	#DEBUG_VALUE: USB_StandardRequests:ep_out <- [SP+44]
	#DEBUG_VALUE: USB_StandardRequests:ep_in <- [SP+48]
	#DEBUG_VALUE: USB_StandardRequests:sp <- R6
	.loc	1 195 21                # /Users/rkn/Documents/xTIMEcomposer/workspace/module_usb_device/src/usb_device.xc:195:21
	{
		add r0, r6, 8
		nop
	}
	{
		nop
		ld16s r0, r0[r4]
	}
	.loc	1 195 21                # /Users/rkn/Documents/xTIMEcomposer/workspace/module_usb_device/src/usb_device.xc:195:21
	{
		zext r0, 16
		nop
	}
	bt r0, .LBB0_12
.Ltmp68:
# BB#36:                                # %iftrue111
.Lxtalabel40:
	#DEBUG_VALUE: USB_StandardRequests:ep_out <- [SP+44]
	#DEBUG_VALUE: USB_StandardRequests:ep_in <- [SP+48]
	#DEBUG_VALUE: USB_StandardRequests:sp <- R6
	.loc	1 198 0                 # /Users/rkn/Documents/xTIMEcomposer/workspace/module_usb_device/src/usb_device.xc:198:0
	{
		add r5, r6, 6
		nop
	}
	{
		nop
		ld16s r0, r5[r4]
	}
	.loc	1 198 0                 # /Users/rkn/Documents/xTIMEcomposer/workspace/module_usb_device/src/usb_device.xc:198:0
	{
		zext r0, 16
		nop
	}
	ldc r1, 511
	.loc	1 198 0                 # /Users/rkn/Documents/xTIMEcomposer/workspace/module_usb_device/src/usb_device.xc:198:0
	{
		lss r1, r1, r0
		nop
	}
	bt r1, .LBB0_41
.Ltmp69:
# BB#37:                                # %iftrue111
.Lxtalabel41:
	#DEBUG_VALUE: USB_StandardRequests:ep_out <- [SP+44]
	#DEBUG_VALUE: USB_StandardRequests:ep_in <- [SP+48]
	ldc r1, 256
	bu .LBB0_38
.Ltmp70:
.LBB0_15:                               # %switchcase
.Lxtalabel42:
	#DEBUG_VALUE: USB_StandardRequests:ep_out <- [SP+44]
	#DEBUG_VALUE: USB_StandardRequests:ep_in <- [SP+48]
	#DEBUG_VALUE: USB_StandardRequests:sp <- R6
	{
		eq r0, r0, 9
		nop
	}
	bf r0, .LBB0_12
.Ltmp71:
# BB#16:                                # %switchcase18
.Lxtalabel43:
	#DEBUG_VALUE: USB_StandardRequests:ep_out <- [SP+44]
	#DEBUG_VALUE: USB_StandardRequests:ep_in <- [SP+48]
	#DEBUG_VALUE: USB_StandardRequests:sp <- R6
	.loc	1 153 21                # /Users/rkn/Documents/xTIMEcomposer/workspace/module_usb_device/src/usb_device.xc:153:21
	{
		add r0, r6, 8
		ldc r5, 0
	}
	{
		nop
		ld16s r0, r0[r5]
	}
	.loc	1 153 21                # /Users/rkn/Documents/xTIMEcomposer/workspace/module_usb_device/src/usb_device.xc:153:21
	{
		zext r0, 16
		nop
	}
	bt r0, .LBB0_12
.Ltmp72:
# BB#17:                                # %lhsfalse64
.Lxtalabel44:
	#DEBUG_VALUE: USB_StandardRequests:ep_out <- [SP+44]
	#DEBUG_VALUE: USB_StandardRequests:ep_in <- [SP+48]
	#DEBUG_VALUE: USB_StandardRequests:sp <- R6
	.loc	1 153 21                # /Users/rkn/Documents/xTIMEcomposer/workspace/module_usb_device/src/usb_device.xc:153:21
	{
		add r0, r6, 6
		nop
	}
	{
		nop
		ld16s r0, r0[r5]
	}
	.loc	1 153 21                # /Users/rkn/Documents/xTIMEcomposer/workspace/module_usb_device/src/usb_device.xc:153:21
	{
		zext r0, 16
		nop
	}
	bt r0, .LBB0_12
.Ltmp73:
# BB#18:
	#DEBUG_VALUE: USB_StandardRequests:ep_in <- [SP+48]
	#DEBUG_VALUE: USB_StandardRequests:sp <- R6
	{
		mkmsk r8, 1
		nop
	}
	ldc r9, 128
	{
		ldc r7, 16
		mkmsk r4, 1
	}
.Ltmp74:
.LBB0_19:                               # %LoopBody
                                        # =>This Inner Loop Header: Depth=1
.Lxtalabel45:
	#DEBUG_VALUE: USB_StandardRequests:ep_in <- [SP+48]
	#DEBUG_VALUE: USB_StandardRequests:sp <- R6
	.loc	1 165 0                 # /Users/rkn/Documents/xTIMEcomposer/workspace/module_usb_device/src/usb_device.xc:165:0
	{
		or r0, r8, r9
		nop
	}
	.loc	1 165 0                 # /Users/rkn/Documents/xTIMEcomposer/workspace/module_usb_device/src/usb_device.xc:165:0
.Lxta.call_labels2:
	bl XUD_ResetEpStateByAddr
	.loc	1 163 0                 # /Users/rkn/Documents/xTIMEcomposer/workspace/module_usb_device/src/usb_device.xc:163:0
	{
		add r8, r8, 1
		nop
	}
.Ltmp75:
	#DEBUG_VALUE: i <- R8
	.loc	1 163 0                 # /Users/rkn/Documents/xTIMEcomposer/workspace/module_usb_device/src/usb_device.xc:163:0
	{
		eq r0, r8, r7
		nop
	}
.xtaloop 15
	# LOOPMARKER 2
.Lxta.loop_labels0:
	# LOOPMARKER 1
	bf r0, .LBB0_19
.Ltmp76:
.LBB0_20:                               # %LoopBody93
                                        # =>This Inner Loop Header: Depth=1
.Lxtalabel46:
	#DEBUG_VALUE: USB_StandardRequests:ep_in <- [SP+48]
	#DEBUG_VALUE: USB_StandardRequests:sp <- R6
	.loc	1 170 0                 # /Users/rkn/Documents/xTIMEcomposer/workspace/module_usb_device/src/usb_device.xc:170:0
	{
		mov r0, r4
		nop
	}
.Lxta.call_labels3:
	bl XUD_ResetEpStateByAddr
	.loc	1 168 0                 # /Users/rkn/Documents/xTIMEcomposer/workspace/module_usb_device/src/usb_device.xc:168:0
	{
		add r4, r4, 1
		nop
	}
.Ltmp77:
	#DEBUG_VALUE: i <- R4
	.loc	1 168 0                 # /Users/rkn/Documents/xTIMEcomposer/workspace/module_usb_device/src/usb_device.xc:168:0
	{
		eq r0, r4, r7
		nop
	}
.xtaloop 15
	# LOOPMARKER 4
.Lxta.loop_labels1:
	# LOOPMARKER 3
	bf r0, .LBB0_20
.Ltmp78:
# BB#21:                                # %ifdone88
.Lxtalabel47:
	#DEBUG_VALUE: USB_StandardRequests:ep_in <- [SP+48]
	#DEBUG_VALUE: USB_StandardRequests:sp <- R6
	{
		ldc r0, 4
		nop
	}
	{
		nop
		ld8u r0, r6[r0]
	}
	.loc	1 177 0                 # /Users/rkn/Documents/xTIMEcomposer/workspace/module_usb_device/src/usb_device.xc:177:0
	ldaw r1, dp[g_currentConfig]
	st8 r0, r1[r5]
	bu .LBB0_22
.Ltmp79:
.LBB0_48:                               # %switchcase161
.Lxtalabel48:
	#DEBUG_VALUE: USB_StandardRequests:ep_out <- [SP+44]
	#DEBUG_VALUE: USB_StandardRequests:ep_in <- [SP+48]
	#DEBUG_VALUE: USB_StandardRequests:sp <- R6
	#DEBUG_VALUE: USB_StandardRequests:cfgDesc_hs <- undef
	{
		ldaw r11, sp[16]
		mkmsk r0, 1
	}
	.loc	1 228 0                 # /Users/rkn/Documents/xTIMEcomposer/workspace/module_usb_device/src/usb_device.xc:228:0
	{
		or r0, r11, r0
		ldc r1, 0
	}
	.loc	1 228 0                 # /Users/rkn/Documents/xTIMEcomposer/workspace/module_usb_device/src/usb_device.xc:228:0
	st8 r1, r0[r1]
	{
		mkmsk r0, 3
		ldw r2, sp[55]
	}
	{
		nop
		ld8u r0, r2[r0]
	}
	.loc	1 234 0                 # /Users/rkn/Documents/xTIMEcomposer/workspace/module_usb_device/src/usb_device.xc:234:0
	{
		shr r0, r0, 6
		nop
	}
	.loc	1 234 0                 # /Users/rkn/Documents/xTIMEcomposer/workspace/module_usb_device/src/usb_device.xc:234:0
	{
		zext r0, 1
		nop
	}
	.loc	1 234 0                 # /Users/rkn/Documents/xTIMEcomposer/workspace/module_usb_device/src/usb_device.xc:234:0
	st8 r0, r11[r1]
	.loc	1 236 21                # /Users/rkn/Documents/xTIMEcomposer/workspace/module_usb_device/src/usb_device.xc:236:21
	{
		add r0, r6, 8
		nop
	}
	{
		nop
		ld16s r0, r0[r1]
	}
	.loc	1 236 21                # /Users/rkn/Documents/xTIMEcomposer/workspace/module_usb_device/src/usb_device.xc:236:21
	{
		zext r0, 16
		nop
	}
	{
		nop
		stw r0, sp[1]
	}
	ldc r0, 120
	.loc	1 236 21                # /Users/rkn/Documents/xTIMEcomposer/workspace/module_usb_device/src/usb_device.xc:236:21
	{
		ldc r3, 2
		stw r0, sp[2]
	}
.Ltmp80:
.LBB0_76:                               # %return
	{
		nop
		ldw r0, sp[11]
	}
	.loc	1 320 37                # /Users/rkn/Documents/xTIMEcomposer/workspace/module_usb_device/src/usb_device.xc:320:37
.Ltmp81:
	{
		mov r2, r11
		ldw r1, sp[12]
	}
	bu .LBB0_137
.Ltmp82:
.LBB0_25:                               # %switchcase11
.Lxtalabel49:
	#DEBUG_VALUE: USB_StandardRequests:ep_out <- [SP+44]
	#DEBUG_VALUE: USB_StandardRequests:ep_in <- [SP+48]
	#DEBUG_VALUE: USB_StandardRequests:sp <- R6
	{
		eq r0, r1, 8
		nop
	}
	bf r0, .LBB0_12
.Ltmp83:
# BB#26:                                # %switchcase162
.Lxtalabel50:
	#DEBUG_VALUE: USB_StandardRequests:ep_out <- [SP+44]
	#DEBUG_VALUE: USB_StandardRequests:ep_in <- [SP+48]
	#DEBUG_VALUE: USB_StandardRequests:sp <- R6
	.loc	1 242 21                # /Users/rkn/Documents/xTIMEcomposer/workspace/module_usb_device/src/usb_device.xc:242:21
	{
		add r1, r6, 4
		ldc r0, 0
	}
	{
		nop
		ld16s r1, r1[r0]
	}
	.loc	1 242 21                # /Users/rkn/Documents/xTIMEcomposer/workspace/module_usb_device/src/usb_device.xc:242:21
	{
		zext r1, 16
		nop
	}
	bt r1, .LBB0_12
.Ltmp84:
# BB#27:                                # %lhsfalse188
	#DEBUG_VALUE: USB_StandardRequests:ep_out <- [SP+44]
	#DEBUG_VALUE: USB_StandardRequests:ep_in <- [SP+48]
	#DEBUG_VALUE: USB_StandardRequests:sp <- R6
	.loc	1 242 21                # /Users/rkn/Documents/xTIMEcomposer/workspace/module_usb_device/src/usb_device.xc:242:21
	{
		add r1, r6, 6
		nop
	}
	{
		nop
		ld16s r1, r1[r0]
	}
	.loc	1 242 21                # /Users/rkn/Documents/xTIMEcomposer/workspace/module_usb_device/src/usb_device.xc:242:21
	{
		zext r1, 16
		nop
	}
	bt r1, .LBB0_12
.Ltmp85:
# BB#28:                                # %lhsfalse200
	#DEBUG_VALUE: USB_StandardRequests:ep_out <- [SP+44]
	#DEBUG_VALUE: USB_StandardRequests:ep_in <- [SP+48]
	#DEBUG_VALUE: USB_StandardRequests:sp <- R6
	.loc	1 242 21                # /Users/rkn/Documents/xTIMEcomposer/workspace/module_usb_device/src/usb_device.xc:242:21
	{
		add r1, r6, 8
		nop
	}
	{
		nop
		ld16s r1, r1[r0]
	}
	.loc	1 242 21                # /Users/rkn/Documents/xTIMEcomposer/workspace/module_usb_device/src/usb_device.xc:242:21
	{
		zext r1, 16
		nop
	}
	.loc	1 242 21                # /Users/rkn/Documents/xTIMEcomposer/workspace/module_usb_device/src/usb_device.xc:242:21
	{
		eq r1, r1, 1
		nop
	}
	bf r1, .LBB0_12
.Ltmp86:
# BB#29:                                # %iftrue178
.Lxtalabel51:
	#DEBUG_VALUE: USB_StandardRequests:ep_out <- [SP+44]
	#DEBUG_VALUE: USB_StandardRequests:ep_in <- [SP+48]
	.loc	1 244 0                 # /Users/rkn/Documents/xTIMEcomposer/workspace/module_usb_device/src/usb_device.xc:244:0
	ldaw r1, dp[g_currentConfig]
	{
		ldaw r2, sp[16]
		ld8u r1, r1[r0]
	}
	.loc	1 244 0                 # /Users/rkn/Documents/xTIMEcomposer/workspace/module_usb_device/src/usb_device.xc:244:0
	st8 r1, r2[r0]
	bu .LBB0_30
.Ltmp87:
.LBB0_5:                                # %switchcase664
.Lxtalabel52:
	#DEBUG_VALUE: USB_StandardRequests:ep_out <- [SP+44]
	#DEBUG_VALUE: USB_StandardRequests:ep_in <- [SP+48]
	#DEBUG_VALUE: USB_StandardRequests:sp <- R6
	{
		eq r0, r0, 3
		nop
	}
	bf r0, .LBB0_12
.Ltmp88:
# BB#6:                                 # %switchcase760
.Lxtalabel53:
	#DEBUG_VALUE: USB_StandardRequests:ep_out <- [SP+44]
	#DEBUG_VALUE: USB_StandardRequests:ep_in <- [SP+48]
	#DEBUG_VALUE: USB_StandardRequests:sp <- R6
	.loc	1 520 21                # /Users/rkn/Documents/xTIMEcomposer/workspace/module_usb_device/src/usb_device.xc:520:21
	{
		add r1, r6, 8
		ldc r0, 0
	}
	{
		nop
		ld16s r1, r1[r0]
	}
	.loc	1 520 21                # /Users/rkn/Documents/xTIMEcomposer/workspace/module_usb_device/src/usb_device.xc:520:21
	{
		zext r1, 16
		nop
	}
	bt r1, .LBB0_12
.Ltmp89:
# BB#7:                                 # %iftrue762
.Lxtalabel54:
	#DEBUG_VALUE: USB_StandardRequests:ep_out <- [SP+44]
	#DEBUG_VALUE: USB_StandardRequests:ep_in <- [SP+48]
	#DEBUG_VALUE: USB_StandardRequests:sp <- R6
	.loc	1 523 25                # /Users/rkn/Documents/xTIMEcomposer/workspace/module_usb_device/src/usb_device.xc:523:25
	{
		add r1, r6, 4
		nop
	}
	{
		nop
		ld16s r1, r1[r0]
	}
	.loc	1 523 25                # /Users/rkn/Documents/xTIMEcomposer/workspace/module_usb_device/src/usb_device.xc:523:25
	{
		zext r1, 16
		nop
	}
	bt r1, .LBB0_12
.Ltmp90:
# BB#8:                                 # %iftrue770
.Lxtalabel55:
	#DEBUG_VALUE: USB_StandardRequests:ep_out <- [SP+44]
	#DEBUG_VALUE: USB_StandardRequests:ep_in <- [SP+48]
	#DEBUG_VALUE: USB_StandardRequests:sp <- R6
	.loc	1 526 29                # /Users/rkn/Documents/xTIMEcomposer/workspace/module_usb_device/src/usb_device.xc:526:29
	{
		add r1, r6, 6
		nop
	}
	{
		nop
		ld16s r0, r1[r0]
	}
	.loc	1 526 29                # /Users/rkn/Documents/xTIMEcomposer/workspace/module_usb_device/src/usb_device.xc:526:29
	{
		zext r0, 16
		mkmsk r1, 1
	}
.Ltmp91:
.LBB0_125:                              # %iftrue797
.Lxtalabel56:
	.loc	1 543 29                # /Users/rkn/Documents/xTIMEcomposer/workspace/module_usb_device/src/usb_device.xc:543:29
.Lxta.call_labels4:
	bl SetEndpointHalt
	bt r0, .LBB0_12
.LBB0_22:                               # %iftrue778
.Lxtalabel57:
.Ltmp92:
	#DEBUG_VALUE: USB_StandardRequests:ep_in <- [SP+48]
	{
		nop
		ldw r0, sp[12]
	}
	.loc	1 528 33                # /Users/rkn/Documents/xTIMEcomposer/workspace/module_usb_device/src/usb_device.xc:528:33
.Lxta.call_labels5:
	bl XUD_DoSetRequestStatus
	bu .LBB0_138
.Ltmp93:
.LBB0_55:                               # %switchcase177
.Lxtalabel58:
	#DEBUG_VALUE: USB_StandardRequests:ep_out <- [SP+44]
	#DEBUG_VALUE: USB_StandardRequests:ep_in <- [SP+48]
	#DEBUG_VALUE: USB_StandardRequests:devDesc_hs <- R7
	#DEBUG_VALUE: USB_StandardRequests:devDescLength_hs <- [SP+24]
	#DEBUG_VALUE: USB_StandardRequests:usbBusSpeed <- [SP+40]
	#DEBUG_VALUE: USB_StandardRequests:strDescsLength <- R0
	#DEBUG_VALUE: USB_StandardRequests:sp <- R6
	#DEBUG_VALUE: USB_StandardRequests:cfgDescLength_fs <- [SP+36]
	#DEBUG_VALUE: USB_StandardRequests:strDescs <- R9
	#DEBUG_VALUE: USB_StandardRequests:devDescLength_fs <- R3
	#DEBUG_VALUE: USB_StandardRequests:cfgDesc_fs <- [SP+28]
	#DEBUG_VALUE: USB_StandardRequests:cfgDescLength_hs <- [SP+32]
	#DEBUG_VALUE: USB_StandardRequests:devDesc_fs <- R4
	#DEBUG_VALUE: USB_StandardRequests:cfgDesc_hs <- undef
	ldc r2, 767
	{
		lss r2, r2, r1
		nop
	}
	bt r2, .LBB0_61
.Ltmp94:
# BB#56:                                # %switchcase177
.Lxtalabel59:
	#DEBUG_VALUE: USB_StandardRequests:ep_out <- [SP+44]
	#DEBUG_VALUE: USB_StandardRequests:ep_in <- [SP+48]
	#DEBUG_VALUE: USB_StandardRequests:usbBusSpeed <- [SP+40]
	#DEBUG_VALUE: USB_StandardRequests:sp <- R6
	#DEBUG_VALUE: USB_StandardRequests:cfgDescLength_fs <- [SP+36]
	#DEBUG_VALUE: USB_StandardRequests:cfgDesc_fs <- [SP+28]
	#DEBUG_VALUE: USB_StandardRequests:cfgDescLength_hs <- [SP+32]
	#DEBUG_VALUE: USB_StandardRequests:cfgDesc_hs <- undef
	ldc r0, 512
	{
		eq r0, r1, r0
		nop
	}
	bf r0, .LBB0_12
.Ltmp95:
# BB#57:                                # %switchcase225
.Lxtalabel60:
	#DEBUG_VALUE: USB_StandardRequests:ep_out <- [SP+44]
	#DEBUG_VALUE: USB_StandardRequests:ep_in <- [SP+48]
	#DEBUG_VALUE: USB_StandardRequests:usbBusSpeed <- [SP+40]
	#DEBUG_VALUE: USB_StandardRequests:sp <- R6
	#DEBUG_VALUE: USB_StandardRequests:cfgDescLength_fs <- [SP+36]
	#DEBUG_VALUE: USB_StandardRequests:cfgDesc_fs <- [SP+28]
	#DEBUG_VALUE: USB_StandardRequests:cfgDescLength_hs <- [SP+32]
	#DEBUG_VALUE: USB_StandardRequests:cfgDesc_hs <- undef
	{
		nop
		ldw r0, sp[10]
	}
.Ltmp96:
	#DEBUG_VALUE: USB_StandardRequests:cfgDescLength_fs <- R3
	.loc	1 282 33                # /Users/rkn/Documents/xTIMEcomposer/workspace/module_usb_device/src/usb_device.xc:282:33
	{
		eq r0, r0, 1
		ldw r3, sp[9]
	}
.Ltmp97:
	bf r0, .LBB0_69
.Ltmp98:
# BB#58:                                # %switchcase225
.Lxtalabel61:
	#DEBUG_VALUE: USB_StandardRequests:ep_out <- [SP+44]
	#DEBUG_VALUE: USB_StandardRequests:ep_in <- [SP+48]
	#DEBUG_VALUE: USB_StandardRequests:sp <- R6
	#DEBUG_VALUE: USB_StandardRequests:cfgDescLength_fs <- R3
	#DEBUG_VALUE: USB_StandardRequests:cfgDesc_fs <- [SP+28]
	#DEBUG_VALUE: USB_StandardRequests:cfgDescLength_hs <- [SP+32]
	#DEBUG_VALUE: USB_StandardRequests:cfgDesc_hs <- undef
	bf r3, .LBB0_69
.Ltmp99:
# BB#59:                                # %iftrue274
.Lxtalabel62:
	#DEBUG_VALUE: USB_StandardRequests:ep_out <- [SP+44]
	#DEBUG_VALUE: USB_StandardRequests:ep_in <- [SP+48]
	#DEBUG_VALUE: USB_StandardRequests:sp <- R6
	#DEBUG_VALUE: USB_StandardRequests:cfgDescLength_fs <- R3
	#DEBUG_VALUE: USB_StandardRequests:cfgDesc_fs <- [SP+28]
	{
		mkmsk r0, 1
		ldc r1, 2
	}
	{
		nop
		ldw r2, sp[7]
	}
.Ltmp100:
	#DEBUG_VALUE: USB_StandardRequests:cfgDesc_fs <- R2
	.loc	1 285 0                 # /Users/rkn/Documents/xTIMEcomposer/workspace/module_usb_device/src/usb_device.xc:285:0
	st8 r1, r2[r0]
.Ltrap_info1:
	{
		ecallf r2
		nop
	}
	#DEBUG_VALUE: USB_StandardRequests:ep_out <- [SP+44]
	#DEBUG_VALUE: USB_StandardRequests:ep_in <- [SP+48]
	#DEBUG_VALUE: USB_StandardRequests:sp <- R6
	#DEBUG_VALUE: USB_StandardRequests:cfgDescLength_fs <- R3
	#DEBUG_VALUE: USB_StandardRequests:cfgDesc_fs <- R2
	.loc	1 286 37                # /Users/rkn/Documents/xTIMEcomposer/workspace/module_usb_device/src/usb_device.xc:286:37
	{
		add r0, r6, 8
		ldc r1, 0
	}
	{
		nop
		ld16s r0, r0[r1]
	}
	bu .LBB0_60
.Ltmp101:
.LBB0_108:                              # %iffalse620.critedge
.Lxtalabel63:
	#DEBUG_VALUE: USB_StandardRequests:ep_in <- [SP+48]
	#DEBUG_VALUE: USB_StandardRequests:sp <- R6
	#DEBUG_VALUE: USB_StandardRequests:cfgDescLength_hs <- [SP+32]
	#DEBUG_VALUE: USB_StandardRequests:cfgDesc_hs <- undef
	#DEBUG_VALUE: numInterfaces <- 0
	{
		mov r1, r0
		ldw r2, sp[8]
	}
	bf r2, .LBB0_104
.Ltmp102:
# BB#109:                               # %iftrue624
.Lxtalabel64:
	#DEBUG_VALUE: USB_StandardRequests:ep_in <- [SP+48]
	#DEBUG_VALUE: USB_StandardRequests:sp <- R6
	#DEBUG_VALUE: USB_StandardRequests:cfgDesc_hs <- undef
	#DEBUG_VALUE: numInterfaces <- 0
	{
		ldc r1, 4
		ldw r2, sp[55]
	}
.Ltmp103:
.LBB0_103:                              # %ifdone605
.Lxtalabel65:
	{
		nop
		ld8u r1, r2[r1]
	}
.LBB0_104:                              # %ifdone605
.Lxtalabel66:
.Ltmp104:
	#DEBUG_VALUE: USB_StandardRequests:ep_in <- [SP+48]
	#DEBUG_VALUE: USB_StandardRequests:sp <- R6
	#DEBUG_VALUE: numInterfaces <- 0
	.loc	1 458 25                # /Users/rkn/Documents/xTIMEcomposer/workspace/module_usb_device/src/usb_device.xc:458:25
	{
		add r2, r6, 6
		nop
	}
	{
		nop
		ld16s r3, r2[r0]
	}
	.loc	1 458 25                # /Users/rkn/Documents/xTIMEcomposer/workspace/module_usb_device/src/usb_device.xc:458:25
	{
		zext r3, 16
		nop
	}
.Ltmp105:
	#DEBUG_VALUE: USB_StandardRequests:ep_in <- R0
	.loc	1 458 25                # /Users/rkn/Documents/xTIMEcomposer/workspace/module_usb_device/src/usb_device.xc:458:25
	{
		lsu r1, r3, r1
		ldw r0, sp[12]
	}
.Ltmp106:
	bf r1, .LBB0_107
.Ltmp107:
# BB#105:                               # %ifdone605
.Lxtalabel67:
	#DEBUG_VALUE: USB_StandardRequests:ep_in <- R0
	#DEBUG_VALUE: USB_StandardRequests:sp <- R6
	{
		shr r1, r3, 4
		nop
	}
	bt r1, .LBB0_107
.Ltmp108:
# BB#106:                               # %iftrue633
.Lxtalabel68:
	#DEBUG_VALUE: USB_StandardRequests:ep_in <- R0
	#DEBUG_VALUE: USB_StandardRequests:sp <- R6
	.loc	1 464 0                 # /Users/rkn/Documents/xTIMEcomposer/workspace/module_usb_device/src/usb_device.xc:464:0
	ldaw r1, dp[g_interfaceAlt]
	{
		ldc r2, 4
		nop
	}
	{
		nop
		ld8u r2, r6[r2]
	}
	.loc	1 464 0                 # /Users/rkn/Documents/xTIMEcomposer/workspace/module_usb_device/src/usb_device.xc:464:0
	st8 r2, r1[r3]
.Ltmp109:
.LBB0_107:                              # %ifdone634
.Lxtalabel69:
	#DEBUG_VALUE: USB_StandardRequests:ep_in <- R0
	#DEBUG_VALUE: numInterfaces <- 0
	.loc	1 468 25                # /Users/rkn/Documents/xTIMEcomposer/workspace/module_usb_device/src/usb_device.xc:468:25
.Lxta.call_labels6:
	bl XUD_DoSetRequestStatus
.Ltmp110:
	bu .LBB0_138
.Ltmp111:
.LBB0_61:                               # %switchcase177
.Lxtalabel70:
	#DEBUG_VALUE: USB_StandardRequests:ep_out <- [SP+44]
	#DEBUG_VALUE: USB_StandardRequests:ep_in <- [SP+48]
	#DEBUG_VALUE: USB_StandardRequests:devDesc_hs <- R7
	#DEBUG_VALUE: USB_StandardRequests:devDescLength_hs <- [SP+24]
	#DEBUG_VALUE: USB_StandardRequests:usbBusSpeed <- [SP+40]
	#DEBUG_VALUE: USB_StandardRequests:strDescsLength <- R0
	#DEBUG_VALUE: USB_StandardRequests:sp <- R6
	#DEBUG_VALUE: USB_StandardRequests:cfgDescLength_fs <- [SP+36]
	#DEBUG_VALUE: USB_StandardRequests:strDescs <- R9
	#DEBUG_VALUE: USB_StandardRequests:devDescLength_fs <- R3
	#DEBUG_VALUE: USB_StandardRequests:cfgDesc_fs <- [SP+28]
	#DEBUG_VALUE: USB_StandardRequests:cfgDescLength_hs <- [SP+32]
	#DEBUG_VALUE: USB_StandardRequests:devDesc_fs <- R4
	#DEBUG_VALUE: USB_StandardRequests:cfgDesc_hs <- undef
	{
		mov r8, r5
		nop
	}
	ldc r2, 768
	{
		eq r2, r1, r2
		nop
	}
	bt r2, .LBB0_82
.Ltmp112:
# BB#62:                                # %switchcase177
.Lxtalabel71:
	#DEBUG_VALUE: USB_StandardRequests:ep_out <- [SP+44]
	#DEBUG_VALUE: USB_StandardRequests:ep_in <- [SP+48]
	#DEBUG_VALUE: USB_StandardRequests:devDesc_hs <- R7
	#DEBUG_VALUE: USB_StandardRequests:devDescLength_hs <- [SP+24]
	#DEBUG_VALUE: USB_StandardRequests:usbBusSpeed <- [SP+40]
	#DEBUG_VALUE: USB_StandardRequests:sp <- R6
	#DEBUG_VALUE: USB_StandardRequests:cfgDescLength_fs <- [SP+36]
	#DEBUG_VALUE: USB_StandardRequests:devDescLength_fs <- R3
	#DEBUG_VALUE: USB_StandardRequests:cfgDesc_fs <- [SP+28]
	#DEBUG_VALUE: USB_StandardRequests:cfgDescLength_hs <- [SP+32]
	#DEBUG_VALUE: USB_StandardRequests:devDesc_fs <- R4
	#DEBUG_VALUE: USB_StandardRequests:cfgDesc_hs <- undef
	ldc r0, 1536
	{
		eq r0, r1, r0
		nop
	}
	bf r0, .LBB0_63
.Ltmp113:
# BB#71:                                # %switchcase273
.Lxtalabel72:
	#DEBUG_VALUE: USB_StandardRequests:ep_out <- [SP+44]
	#DEBUG_VALUE: USB_StandardRequests:ep_in <- [SP+48]
	#DEBUG_VALUE: USB_StandardRequests:devDesc_hs <- R7
	#DEBUG_VALUE: USB_StandardRequests:devDescLength_hs <- [SP+24]
	#DEBUG_VALUE: USB_StandardRequests:usbBusSpeed <- [SP+40]
	#DEBUG_VALUE: USB_StandardRequests:sp <- R6
	#DEBUG_VALUE: USB_StandardRequests:devDescLength_fs <- R3
	#DEBUG_VALUE: USB_StandardRequests:devDesc_fs <- R4
	{
		nop
		ldw r0, sp[3]
	}
	.loc	1 300 29                # /Users/rkn/Documents/xTIMEcomposer/workspace/module_usb_device/src/usb_device.xc:300:29
	{
		zext r0, 8
		nop
	}
	bt r0, .LBB0_12
.Ltmp114:
# BB#72:                                # %iftrue322
.Lxtalabel73:
	#DEBUG_VALUE: USB_StandardRequests:ep_out <- [SP+44]
	#DEBUG_VALUE: USB_StandardRequests:ep_in <- [SP+48]
	#DEBUG_VALUE: USB_StandardRequests:devDesc_hs <- R7
	#DEBUG_VALUE: USB_StandardRequests:devDescLength_hs <- [SP+24]
	#DEBUG_VALUE: USB_StandardRequests:usbBusSpeed <- [SP+40]
	#DEBUG_VALUE: USB_StandardRequests:sp <- R6
	#DEBUG_VALUE: USB_StandardRequests:devDescLength_fs <- R3
	#DEBUG_VALUE: USB_StandardRequests:devDesc_fs <- R4
	#DEBUG_VALUE: devQualDesc <- [SP+52]
	{
		nop
		ldw r0, sp[10]
	}
	.loc	1 305 33                # /Users/rkn/Documents/xTIMEcomposer/workspace/module_usb_device/src/usb_device.xc:305:33
.Ltmp115:
	{
		eq r0, r0, 2
		nop
	}
	bf r0, .LBB0_77
.Ltmp116:
# BB#73:                                # %iftrue322
.Lxtalabel74:
	#DEBUG_VALUE: USB_StandardRequests:ep_out <- [SP+44]
	#DEBUG_VALUE: USB_StandardRequests:ep_in <- [SP+48]
	#DEBUG_VALUE: USB_StandardRequests:devDesc_hs <- R7
	#DEBUG_VALUE: USB_StandardRequests:devDescLength_hs <- [SP+24]
	#DEBUG_VALUE: USB_StandardRequests:sp <- R6
	#DEBUG_VALUE: USB_StandardRequests:devDescLength_fs <- R3
	#DEBUG_VALUE: USB_StandardRequests:devDesc_fs <- R4
	bf r3, .LBB0_77
.Ltmp117:
# BB#74:                                # %iftrue331
.Lxtalabel75:
	#DEBUG_VALUE: USB_StandardRequests:ep_out <- [SP+44]
	#DEBUG_VALUE: USB_StandardRequests:ep_in <- [SP+48]
	#DEBUG_VALUE: USB_StandardRequests:sp <- R6
	#DEBUG_VALUE: USB_StandardRequests:devDesc_fs <- R4
	{
		ldaw r11, sp[13]
		ldc r3, 10
	}
	.loc	1 308 0                 # /Users/rkn/Documents/xTIMEcomposer/workspace/module_usb_device/src/usb_device.xc:308:0
	st8 r3, r11[r10]
	{
		mkmsk r0, 1
		nop
	}
	.loc	1 309 0                 # /Users/rkn/Documents/xTIMEcomposer/workspace/module_usb_device/src/usb_device.xc:309:0
	{
		or r0, r11, r0
		ldc r1, 6
	}
	.loc	1 309 0                 # /Users/rkn/Documents/xTIMEcomposer/workspace/module_usb_device/src/usb_device.xc:309:0
	st8 r1, r0[r10]
	{
		ldc r0, 2
		nop
	}
	{
		mov r2, r0
		nop
	}
	.loc	1 310 0                 # /Users/rkn/Documents/xTIMEcomposer/workspace/module_usb_device/src/usb_device.xc:310:0
	{
		or r0, r11, r2
		ld8u r2, r4[r2]
	}
	.loc	1 310 0                 # /Users/rkn/Documents/xTIMEcomposer/workspace/module_usb_device/src/usb_device.xc:310:0
	st8 r2, r0[r10]
	.loc	1 311 0                 # /Users/rkn/Documents/xTIMEcomposer/workspace/module_usb_device/src/usb_device.xc:311:0
	{
		or r0, r11, r8
		ld8u r2, r4[r8]
	}
	.loc	1 311 0                 # /Users/rkn/Documents/xTIMEcomposer/workspace/module_usb_device/src/usb_device.xc:311:0
	st8 r2, r0[r10]
	{
		ldc r0, 4
		nop
	}
	{
		nop
		ld8u r2, r4[r0]
	}
	.loc	1 312 0                 # /Users/rkn/Documents/xTIMEcomposer/workspace/module_usb_device/src/usb_device.xc:312:0
	st8 r2, r11[r0]
	{
		ldc r0, 5
		nop
	}
	{
		nop
		ld8u r2, r4[r0]
	}
	.loc	1 313 0                 # /Users/rkn/Documents/xTIMEcomposer/workspace/module_usb_device/src/usb_device.xc:313:0
	st8 r2, r11[r0]
	{
		nop
		ld8u r0, r4[r1]
	}
	.loc	1 314 0                 # /Users/rkn/Documents/xTIMEcomposer/workspace/module_usb_device/src/usb_device.xc:314:0
	st8 r0, r11[r1]
	{
		mkmsk r0, 3
		nop
	}
	{
		nop
		ld8u r1, r4[r0]
	}
	.loc	1 315 0                 # /Users/rkn/Documents/xTIMEcomposer/workspace/module_usb_device/src/usb_device.xc:315:0
	st8 r1, r11[r0]
	{
		ldc r0, 17
		nop
	}
	{
		nop
		ld8u r0, r4[r0]
	}
	bu .LBB0_75
.Ltmp118:
.LBB0_120:                              # %iffalse708.critedge
.Lxtalabel76:
	#DEBUG_VALUE: USB_StandardRequests:ep_out <- [SP+44]
	#DEBUG_VALUE: USB_StandardRequests:ep_in <- [SP+48]
	#DEBUG_VALUE: USB_StandardRequests:sp <- R6
	#DEBUG_VALUE: USB_StandardRequests:cfgDescLength_hs <- [SP+32]
	#DEBUG_VALUE: USB_StandardRequests:cfgDesc_hs <- undef
	#DEBUG_VALUE: numInterfaces <- 0
	{
		mov r0, r5
		ldw r1, sp[8]
	}
	bf r1, .LBB0_117
.Ltmp119:
# BB#121:                               # %iftrue712
.Lxtalabel77:
	#DEBUG_VALUE: USB_StandardRequests:ep_out <- [SP+44]
	#DEBUG_VALUE: USB_StandardRequests:ep_in <- [SP+48]
	#DEBUG_VALUE: USB_StandardRequests:sp <- R6
	#DEBUG_VALUE: USB_StandardRequests:cfgDesc_hs <- undef
	#DEBUG_VALUE: numInterfaces <- 0
	{
		ldc r0, 4
		ldw r1, sp[55]
	}
.Ltmp120:
.LBB0_116:                              # %ifdone693
.Lxtalabel78:
	{
		nop
		ld8u r0, r1[r0]
	}
.LBB0_117:                              # %ifdone693
.Lxtalabel79:
.Ltmp121:
	#DEBUG_VALUE: USB_StandardRequests:ep_out <- [SP+44]
	#DEBUG_VALUE: USB_StandardRequests:ep_in <- [SP+48]
	#DEBUG_VALUE: USB_StandardRequests:sp <- R6
	#DEBUG_VALUE: numInterfaces <- 0
	.loc	1 498 25                # /Users/rkn/Documents/xTIMEcomposer/workspace/module_usb_device/src/usb_device.xc:498:25
	{
		add r1, r6, 6
		nop
	}
	.loc	1 498 25                # /Users/rkn/Documents/xTIMEcomposer/workspace/module_usb_device/src/usb_device.xc:498:25
	{
		mov r3, r5
		ld16s r1, r1[r5]
	}
	{
		zext r1, 16
		nop
	}
	.loc	1 498 25                # /Users/rkn/Documents/xTIMEcomposer/workspace/module_usb_device/src/usb_device.xc:498:25
	{
		lsu r0, r1, r0
		nop
	}
	bf r0, .LBB0_12
.Ltmp122:
# BB#118:                               # %ifdone693
.Lxtalabel80:
	#DEBUG_VALUE: USB_StandardRequests:ep_out <- [SP+44]
	#DEBUG_VALUE: USB_StandardRequests:ep_in <- [SP+48]
	{
		shr r0, r1, 4
		nop
	}
	bt r0, .LBB0_12
.Ltmp123:
# BB#119:                               # %iftrue721
.Lxtalabel81:
	#DEBUG_VALUE: USB_StandardRequests:ep_out <- [SP+44]
	#DEBUG_VALUE: USB_StandardRequests:ep_in <- [SP+48]
	.loc	1 500 0                 # /Users/rkn/Documents/xTIMEcomposer/workspace/module_usb_device/src/usb_device.xc:500:0
	ldaw r0, dp[g_interfaceAlt]
	.loc	1 500 0                 # /Users/rkn/Documents/xTIMEcomposer/workspace/module_usb_device/src/usb_device.xc:500:0
	{
		ldaw r2, sp[16]
		ld8u r0, r0[r1]
	}
	.loc	1 500 0                 # /Users/rkn/Documents/xTIMEcomposer/workspace/module_usb_device/src/usb_device.xc:500:0
	st8 r0, r2[r3]
.Ltmp124:
.LBB0_30:                               # %return
	ldc r0, 120
	.loc	1 245 25                # /Users/rkn/Documents/xTIMEcomposer/workspace/module_usb_device/src/usb_device.xc:245:25
	{
		mkmsk r3, 1
		stw r0, sp[2]
	}
	bu .LBB0_135
.LBB0_41:                               # %iftrue111
.Lxtalabel82:
.Ltmp125:
	#DEBUG_VALUE: USB_StandardRequests:ep_out <- [SP+44]
	#DEBUG_VALUE: USB_StandardRequests:ep_in <- [SP+48]
	ldc r1, 767
	{
		lss r1, r1, r0
		nop
	}
	bt r1, .LBB0_43
.Ltmp126:
# BB#42:                                # %iftrue111
.Lxtalabel83:
	#DEBUG_VALUE: USB_StandardRequests:ep_out <- [SP+44]
	#DEBUG_VALUE: USB_StandardRequests:ep_in <- [SP+48]
	ldc r1, 512
	bu .LBB0_38
.Ltmp127:
.LBB0_82:                               # %switchcase415
.Lxtalabel84:
	#DEBUG_VALUE: USB_StandardRequests:ep_out <- [SP+44]
	#DEBUG_VALUE: USB_StandardRequests:ep_in <- [SP+48]
	#DEBUG_VALUE: USB_StandardRequests:strDescsLength <- R0
	#DEBUG_VALUE: USB_StandardRequests:sp <- R6
	#DEBUG_VALUE: USB_StandardRequests:strDescs <- R9
	{
		ldaw r5, sp[16]
		mkmsk r1, 1
	}
	.loc	1 371 0                 # /Users/rkn/Documents/xTIMEcomposer/workspace/module_usb_device/src/usb_device.xc:371:0
	{
		or r1, r5, r1
		nop
	}
	.loc	1 371 0                 # /Users/rkn/Documents/xTIMEcomposer/workspace/module_usb_device/src/usb_device.xc:371:0
	st8 r8, r1[r10]
	{
		nop
		ldw r1, sp[3]
	}
	.loc	1 375 0                 # /Users/rkn/Documents/xTIMEcomposer/workspace/module_usb_device/src/usb_device.xc:375:0
	{
		zext r1, 8
		nop
	}
.Ltmp128:
	#DEBUG_VALUE: stringID <- R1
	.loc	1 378 29                # /Users/rkn/Documents/xTIMEcomposer/workspace/module_usb_device/src/usb_device.xc:378:29
	{
		lss r0, r1, r0
		nop
	}
.Ltmp129:
	bf r0, .LBB0_12
.Ltmp130:
# BB#83:                                # %iftrue471
.Lxtalabel85:
	#DEBUG_VALUE: USB_StandardRequests:ep_out <- [SP+44]
	#DEBUG_VALUE: USB_StandardRequests:ep_in <- [SP+48]
	#DEBUG_VALUE: stringID <- R1
	#DEBUG_VALUE: USB_StandardRequests:sp <- R6
	#DEBUG_VALUE: USB_StandardRequests:strDescs <- R9
	{
		mov r7, r1
		nop
	}
.Ltmp131:
	#DEBUG_VALUE: stringID <- R7
	.loc	1 382 0                 # /Users/rkn/Documents/xTIMEcomposer/workspace/module_usb_device/src/usb_device.xc:382:0
	{
		mkmsk r1, 32
		ldw r4, r9[r7]
	}
	.loc	1 382 0                 # /Users/rkn/Documents/xTIMEcomposer/workspace/module_usb_device/src/usb_device.xc:382:0
	{
		mov r0, r4
		nop
	}
.Lxta.call_labels7:
	bl _safe_strlen
.Ltmp132:
	#DEBUG_VALUE: datalength <- R0
	.loc	1 385 33                # /Users/rkn/Documents/xTIMEcomposer/workspace/module_usb_device/src/usb_device.xc:385:33
	bf r7, .LBB0_84
.Ltmp133:
# BB#92:                                # %iffalse484
.Lxtalabel86:
	#DEBUG_VALUE: USB_StandardRequests:ep_out <- [SP+44]
	#DEBUG_VALUE: USB_StandardRequests:ep_in <- [SP+48]
	#DEBUG_VALUE: USB_StandardRequests:sp <- R6
	#DEBUG_VALUE: datalength <- R0
	{
		ldc r11, 2
		nop
	}
	.loc	1 403 0                 # /Users/rkn/Documents/xTIMEcomposer/workspace/module_usb_device/src/usb_device.xc:403:0
	lda16 r1, r11[r0]
	.loc	1 403 0                 # /Users/rkn/Documents/xTIMEcomposer/workspace/module_usb_device/src/usb_device.xc:403:0
	st8 r1, r5[r10]
	.loc	1 405 37                # /Users/rkn/Documents/xTIMEcomposer/workspace/module_usb_device/src/usb_device.xc:405:37
	{
		add r2, r6, 8
		nop
	}
	{
		nop
		ld16s r6, r2[r10]
	}
.Ltmp134:
	.loc	1 405 37                # /Users/rkn/Documents/xTIMEcomposer/workspace/module_usb_device/src/usb_device.xc:405:37
	{
		zext r6, 16
		nop
	}
	.loc	1 405 37                # /Users/rkn/Documents/xTIMEcomposer/workspace/module_usb_device/src/usb_device.xc:405:37
	{
		lss r1, r6, r1
		nop
	}
.Ltmp135:
	#DEBUG_VALUE: i <- 0
	.loc	1 405 37                # /Users/rkn/Documents/xTIMEcomposer/workspace/module_usb_device/src/usb_device.xc:405:37
	bt r1, .LBB0_93
.Ltmp136:
# BB#94:                                # %iffalse484
.Lxtalabel87:
	#DEBUG_VALUE: USB_StandardRequests:ep_out <- [SP+44]
	#DEBUG_VALUE: USB_StandardRequests:ep_in <- [SP+48]
	#DEBUG_VALUE: datalength <- R0
	.loc	1 400 0                 # /Users/rkn/Documents/xTIMEcomposer/workspace/module_usb_device/src/usb_device.xc:400:0
	{
		shl r7, r0, 1
		nop
	}
	bu .LBB0_95
.Ltmp137:
.LBB0_63:                               # %switchcase177
.Lxtalabel88:
	#DEBUG_VALUE: USB_StandardRequests:ep_out <- [SP+44]
	#DEBUG_VALUE: USB_StandardRequests:ep_in <- [SP+48]
	#DEBUG_VALUE: USB_StandardRequests:usbBusSpeed <- [SP+40]
	#DEBUG_VALUE: USB_StandardRequests:sp <- R6
	#DEBUG_VALUE: USB_StandardRequests:cfgDescLength_fs <- [SP+36]
	#DEBUG_VALUE: USB_StandardRequests:cfgDesc_fs <- [SP+28]
	#DEBUG_VALUE: USB_StandardRequests:cfgDescLength_hs <- [SP+32]
	#DEBUG_VALUE: USB_StandardRequests:cfgDesc_hs <- undef
	ldc r0, 1792
	{
		eq r0, r1, r0
		nop
	}
	bf r0, .LBB0_12
.Ltmp138:
# BB#64:                                # %switchcase321
.Lxtalabel89:
	#DEBUG_VALUE: USB_StandardRequests:ep_out <- [SP+44]
	#DEBUG_VALUE: USB_StandardRequests:ep_in <- [SP+48]
	#DEBUG_VALUE: USB_StandardRequests:usbBusSpeed <- [SP+40]
	#DEBUG_VALUE: USB_StandardRequests:sp <- R6
	#DEBUG_VALUE: USB_StandardRequests:cfgDescLength_fs <- [SP+36]
	#DEBUG_VALUE: USB_StandardRequests:cfgDesc_fs <- [SP+28]
	#DEBUG_VALUE: USB_StandardRequests:cfgDescLength_hs <- [SP+32]
	#DEBUG_VALUE: USB_StandardRequests:cfgDesc_hs <- undef
	{
		nop
		ldw r0, sp[10]
	}
.Ltmp139:
	#DEBUG_VALUE: USB_StandardRequests:cfgDescLength_fs <- R3
	.loc	1 351 33                # /Users/rkn/Documents/xTIMEcomposer/workspace/module_usb_device/src/usb_device.xc:351:33
	{
		eq r0, r0, 2
		ldw r3, sp[9]
	}
.Ltmp140:
	bf r0, .LBB0_79
.Ltmp141:
# BB#65:                                # %switchcase321
.Lxtalabel90:
	#DEBUG_VALUE: USB_StandardRequests:ep_out <- [SP+44]
	#DEBUG_VALUE: USB_StandardRequests:ep_in <- [SP+48]
	#DEBUG_VALUE: USB_StandardRequests:sp <- R6
	#DEBUG_VALUE: USB_StandardRequests:cfgDescLength_fs <- R3
	#DEBUG_VALUE: USB_StandardRequests:cfgDesc_fs <- [SP+28]
	#DEBUG_VALUE: USB_StandardRequests:cfgDescLength_hs <- [SP+32]
	#DEBUG_VALUE: USB_StandardRequests:cfgDesc_hs <- undef
	bf r3, .LBB0_79
.Ltmp142:
# BB#66:                                # %iftrue416
.Lxtalabel91:
	#DEBUG_VALUE: USB_StandardRequests:ep_out <- [SP+44]
	#DEBUG_VALUE: USB_StandardRequests:ep_in <- [SP+48]
	#DEBUG_VALUE: USB_StandardRequests:sp <- R6
	#DEBUG_VALUE: USB_StandardRequests:cfgDescLength_fs <- R3
	#DEBUG_VALUE: USB_StandardRequests:cfgDesc_fs <- [SP+28]
	{
		mkmsk r0, 3
		mkmsk r1, 1
	}
	{
		nop
		ldw r2, sp[7]
	}
.Ltmp143:
	#DEBUG_VALUE: USB_StandardRequests:cfgDesc_fs <- R2
	.loc	1 353 0                 # /Users/rkn/Documents/xTIMEcomposer/workspace/module_usb_device/src/usb_device.xc:353:0
	st8 r0, r2[r1]
.Ltrap_info2:
	{
		ecallf r2
		nop
	}
	#DEBUG_VALUE: USB_StandardRequests:ep_out <- [SP+44]
	#DEBUG_VALUE: USB_StandardRequests:ep_in <- [SP+48]
	#DEBUG_VALUE: USB_StandardRequests:sp <- R6
	#DEBUG_VALUE: USB_StandardRequests:cfgDescLength_fs <- R3
	#DEBUG_VALUE: USB_StandardRequests:cfgDesc_fs <- R2
	.loc	1 354 37                # /Users/rkn/Documents/xTIMEcomposer/workspace/module_usb_device/src/usb_device.xc:354:37
	{
		add r0, r6, 8
		nop
	}
	{
		nop
		ld16s r0, r0[r10]
	}
.Ltmp144:
.LBB0_60:                               # %return
	.loc	1 354 37                # /Users/rkn/Documents/xTIMEcomposer/workspace/module_usb_device/src/usb_device.xc:354:37
	{
		zext r0, 16
		nop
	}
	{
		nop
		stw r0, sp[1]
	}
	{
		nop
		ldw r0, sp[5]
	}
	{
		nop
		stw r0, sp[2]
	}
	bu .LBB0_136
.LBB0_69:                               # %iffalse289.critedge
.Lxtalabel92:
.Ltmp145:
	#DEBUG_VALUE: USB_StandardRequests:ep_out <- [SP+44]
	#DEBUG_VALUE: USB_StandardRequests:ep_in <- [SP+48]
	#DEBUG_VALUE: USB_StandardRequests:sp <- R6
	#DEBUG_VALUE: USB_StandardRequests:cfgDescLength_hs <- [SP+32]
	#DEBUG_VALUE: USB_StandardRequests:cfgDesc_hs <- undef
	{
		nop
		ldw r0, sp[8]
	}
	bf r0, .LBB0_12
.Ltmp146:
# BB#70:                                # %iftrue302
.Lxtalabel93:
	#DEBUG_VALUE: USB_StandardRequests:ep_out <- [SP+44]
	#DEBUG_VALUE: USB_StandardRequests:ep_in <- [SP+48]
	#DEBUG_VALUE: USB_StandardRequests:sp <- R6
	#DEBUG_VALUE: USB_StandardRequests:cfgDescLength_hs <- [SP+32]
	#DEBUG_VALUE: USB_StandardRequests:cfgDesc_hs <- undef
	{
		mkmsk r0, 1
		ldc r1, 2
	}
	{
		nop
		ldw r2, sp[55]
	}
.Ltmp147:
	#DEBUG_VALUE: USB_StandardRequests:cfgDesc_hs <- R2
	.loc	1 291 0                 # /Users/rkn/Documents/xTIMEcomposer/workspace/module_usb_device/src/usb_device.xc:291:0
	st8 r1, r2[r0]
.Ltrap_info3:
	{
		ecallf r2
		nop
	}
	#DEBUG_VALUE: USB_StandardRequests:ep_out <- [SP+44]
	#DEBUG_VALUE: USB_StandardRequests:ep_in <- [SP+48]
	#DEBUG_VALUE: USB_StandardRequests:sp <- R6
	#DEBUG_VALUE: USB_StandardRequests:cfgDescLength_hs <- [SP+32]
	#DEBUG_VALUE: USB_StandardRequests:cfgDesc_hs <- R2
	.loc	1 292 37                # /Users/rkn/Documents/xTIMEcomposer/workspace/module_usb_device/src/usb_device.xc:292:37
	{
		add r0, r6, 8
		ldc r1, 0
	}
	{
		nop
		ld16s r0, r0[r1]
	}
	bu .LBB0_81
.Ltmp148:
.LBB0_67:                               # %iffalse249.critedge
.Lxtalabel94:
	#DEBUG_VALUE: USB_StandardRequests:ep_out <- [SP+44]
	#DEBUG_VALUE: USB_StandardRequests:ep_in <- [SP+48]
	#DEBUG_VALUE: USB_StandardRequests:devDesc_hs <- R7
	#DEBUG_VALUE: USB_StandardRequests:devDescLength_hs <- [SP+24]
	#DEBUG_VALUE: USB_StandardRequests:sp <- R6
	{
		nop
		ldw r0, sp[6]
	}
	bf r0, .LBB0_12
.Ltmp149:
# BB#68:                                # %iftrue257
.Lxtalabel95:
	#DEBUG_VALUE: USB_StandardRequests:ep_out <- [SP+44]
	#DEBUG_VALUE: USB_StandardRequests:ep_in <- [SP+48]
	#DEBUG_VALUE: USB_StandardRequests:devDesc_hs <- R7
	#DEBUG_VALUE: USB_StandardRequests:devDescLength_hs <- [SP+24]
	#DEBUG_VALUE: USB_StandardRequests:sp <- R6
	{
		mov r2, r7
		nop
	}
.Ltmp150:
	#DEBUG_VALUE: USB_StandardRequests:devDesc_hs <- R2
.Ltrap_info4:
	{
		ecallf r2
		nop
	}
	#DEBUG_VALUE: USB_StandardRequests:ep_out <- [SP+44]
	#DEBUG_VALUE: USB_StandardRequests:ep_in <- [SP+48]
	#DEBUG_VALUE: USB_StandardRequests:devDesc_hs <- R2
	#DEBUG_VALUE: USB_StandardRequests:devDescLength_hs <- [SP+24]
	#DEBUG_VALUE: USB_StandardRequests:sp <- R6
	.loc	1 270 37                # /Users/rkn/Documents/xTIMEcomposer/workspace/module_usb_device/src/usb_device.xc:270:37
	{
		add r0, r6, 8
		ldc r1, 0
	}
	{
		nop
		ld16s r0, r0[r1]
	}
	.loc	1 270 37                # /Users/rkn/Documents/xTIMEcomposer/workspace/module_usb_device/src/usb_device.xc:270:37
	{
		zext r0, 16
		nop
	}
	{
		nop
		stw r0, sp[1]
	}
	{
		nop
		stw r11, sp[2]
	}
	{
		nop
		ldw r0, sp[11]
	}
	{
		nop
		ldw r1, sp[12]
	}
	{
		nop
		ldw r3, sp[6]
	}
	bu .LBB0_137
.Ltmp151:
.LBB0_43:                               # %iftrue111
.Lxtalabel96:
	#DEBUG_VALUE: USB_StandardRequests:ep_out <- [SP+44]
	#DEBUG_VALUE: USB_StandardRequests:ep_in <- [SP+48]
	ldc r1, 768
	{
		eq r1, r0, r1
		nop
	}
	bt r1, .LBB0_39
.Ltmp152:
# BB#44:                                # %iftrue111
.Lxtalabel97:
	#DEBUG_VALUE: USB_StandardRequests:ep_out <- [SP+44]
	#DEBUG_VALUE: USB_StandardRequests:ep_in <- [SP+48]
	ldc r1, 1024
	{
		eq r1, r0, r1
		nop
	}
	bt r1, .LBB0_39
.Ltmp153:
# BB#45:                                # %iftrue111
.Lxtalabel98:
	#DEBUG_VALUE: USB_StandardRequests:ep_out <- [SP+44]
	#DEBUG_VALUE: USB_StandardRequests:ep_in <- [SP+48]
	ldc r1, 1280
.Ltmp154:
.LBB0_38:                               # %iftrue111
.Lxtalabel99:
	{
		eq r0, r0, r1
		nop
	}
	bf r0, .LBB0_12
.LBB0_39:                               # %switchcase140
.Lxtalabel100:
.Ltmp155:
	#DEBUG_VALUE: USB_StandardRequests:ep_out <- [SP+44]
	#DEBUG_VALUE: USB_StandardRequests:ep_in <- [SP+48]
	{
		nop
		ldw r0, sp[12]
	}
.Ltmp156:
	#DEBUG_VALUE: USB_StandardRequests:ep_in <- R0
	.loc	1 207 33                # /Users/rkn/Documents/xTIMEcomposer/workspace/module_usb_device/src/usb_device.xc:207:33
.Lxta.call_labels8:
	bl XUD_DoSetRequestStatus
.Ltmp157:
	#DEBUG_VALUE: result <- R0
	bt r0, .LBB0_138
.Ltmp158:
# BB#40:                                # %ifdone143
.Lxtalabel101:
	#DEBUG_VALUE: USB_StandardRequests:ep_out <- [SP+44]
	#DEBUG_VALUE: USB_StandardRequests:ep_in <- R0
	#DEBUG_VALUE: USB_StandardRequests:ep_in <- [SP+48]
	{
		nop
		ld16s r1, r5[r4]
	}
	.loc	1 210 0                 # /Users/rkn/Documents/xTIMEcomposer/workspace/module_usb_device/src/usb_device.xc:210:0
	{
		zext r1, 16
		ldw r0, sp[11]
	}
	.loc	1 210 0                 # /Users/rkn/Documents/xTIMEcomposer/workspace/module_usb_device/src/usb_device.xc:210:0
.Lxta.call_labels9:
	bl XUD_SetTestMode
	bu .LBB0_12
.Ltmp159:
.LBB0_132:                              # %iffalse852
.Lxtalabel102:
	#DEBUG_VALUE: USB_StandardRequests:ep_out <- [SP+44]
	#DEBUG_VALUE: USB_StandardRequests:ep_in <- [SP+48]
	.loc	1 584 29                # /Users/rkn/Documents/xTIMEcomposer/workspace/module_usb_device/src/usb_device.xc:584:29
	{
		shr r3, r1, 5
		nop
	}
	bt r3, .LBB0_12
.Ltmp160:
# BB#133:                               # %iftrue886
.Lxtalabel103:
	#DEBUG_VALUE: USB_StandardRequests:ep_out <- [SP+44]
	#DEBUG_VALUE: USB_StandardRequests:ep_in <- [SP+48]
	.loc	1 586 0                 # /Users/rkn/Documents/xTIMEcomposer/workspace/module_usb_device/src/usb_device.xc:586:0
	ldaw r3, dp[g_epStatusOut]
.Ltmp161:
.LBB0_134:                              # %return
	{
		nop
		ld16s r1, r3[r1]
	}
	.loc	1 586 0                 # /Users/rkn/Documents/xTIMEcomposer/workspace/module_usb_device/src/usb_device.xc:586:0
	st8 r1, r2[r11]
	.loc	1 587 0                 # /Users/rkn/Documents/xTIMEcomposer/workspace/module_usb_device/src/usb_device.xc:587:0
	{
		shr r1, r1, 8
		nop
	}
	.loc	1 587 0                 # /Users/rkn/Documents/xTIMEcomposer/workspace/module_usb_device/src/usb_device.xc:587:0
	st8 r1, r0[r11]
	ldc r0, 120
	.loc	1 588 33                # /Users/rkn/Documents/xTIMEcomposer/workspace/module_usb_device/src/usb_device.xc:588:33
	{
		ldc r3, 2
		stw r0, sp[2]
	}
.LBB0_135:                              # %return
	{
		nop
		stw r3, sp[1]
	}
.LBB0_136:                              # %return
	{
		nop
		ldw r0, sp[11]
	}
	{
		nop
		ldw r1, sp[12]
	}
.LBB0_137:                              # %return
.Lxta.call_labels10:
	bl XUD_DoGetRequest
	bu .LBB0_138
.LBB0_79:                               # %iffalse432.critedge
.Lxtalabel104:
.Ltmp162:
	#DEBUG_VALUE: USB_StandardRequests:ep_out <- [SP+44]
	#DEBUG_VALUE: USB_StandardRequests:ep_in <- [SP+48]
	#DEBUG_VALUE: USB_StandardRequests:sp <- R6
	#DEBUG_VALUE: USB_StandardRequests:cfgDescLength_hs <- [SP+32]
	#DEBUG_VALUE: USB_StandardRequests:cfgDesc_hs <- undef
	{
		nop
		ldw r0, sp[8]
	}
	bf r0, .LBB0_12
.Ltmp163:
# BB#80:                                # %iftrue446
.Lxtalabel105:
	#DEBUG_VALUE: USB_StandardRequests:ep_out <- [SP+44]
	#DEBUG_VALUE: USB_StandardRequests:ep_in <- [SP+48]
	#DEBUG_VALUE: USB_StandardRequests:sp <- R6
	#DEBUG_VALUE: USB_StandardRequests:cfgDescLength_hs <- [SP+32]
	#DEBUG_VALUE: USB_StandardRequests:cfgDesc_hs <- undef
	{
		mkmsk r0, 3
		mkmsk r1, 1
	}
	{
		nop
		ldw r2, sp[55]
	}
.Ltmp164:
	#DEBUG_VALUE: USB_StandardRequests:cfgDesc_hs <- R2
	.loc	1 358 0                 # /Users/rkn/Documents/xTIMEcomposer/workspace/module_usb_device/src/usb_device.xc:358:0
	st8 r0, r2[r1]
.Ltrap_info5:
	{
		ecallf r2
		nop
	}
	#DEBUG_VALUE: USB_StandardRequests:ep_out <- [SP+44]
	#DEBUG_VALUE: USB_StandardRequests:ep_in <- [SP+48]
	#DEBUG_VALUE: USB_StandardRequests:sp <- R6
	#DEBUG_VALUE: USB_StandardRequests:cfgDescLength_hs <- [SP+32]
	#DEBUG_VALUE: USB_StandardRequests:cfgDesc_hs <- R2
	.loc	1 359 37                # /Users/rkn/Documents/xTIMEcomposer/workspace/module_usb_device/src/usb_device.xc:359:37
	{
		add r0, r6, 8
		nop
	}
	{
		nop
		ld16s r0, r0[r10]
	}
.Ltmp165:
.LBB0_81:                               # %return
	.loc	1 359 37                # /Users/rkn/Documents/xTIMEcomposer/workspace/module_usb_device/src/usb_device.xc:359:37
	{
		zext r0, 16
		nop
	}
	{
		nop
		stw r0, sp[1]
	}
	{
		nop
		ldw r0, sp[4]
	}
	{
		nop
		stw r0, sp[2]
	}
	{
		nop
		ldw r0, sp[11]
	}
	{
		nop
		ldw r1, sp[12]
	}
	{
		nop
		ldw r3, sp[8]
	}
	bu .LBB0_137
.LBB0_77:                               # %iffalse347.critedge
.Lxtalabel106:
.Ltmp166:
	#DEBUG_VALUE: USB_StandardRequests:ep_out <- [SP+44]
	#DEBUG_VALUE: USB_StandardRequests:ep_in <- [SP+48]
	#DEBUG_VALUE: USB_StandardRequests:devDesc_hs <- R7
	#DEBUG_VALUE: USB_StandardRequests:devDescLength_hs <- [SP+24]
	#DEBUG_VALUE: USB_StandardRequests:sp <- R6
	#DEBUG_VALUE: devQualDesc <- [SP+52]
	{
		nop
		ldw r0, sp[6]
	}
	bf r0, .LBB0_12
.Ltmp167:
# BB#78:                                # %iftrue378
.Lxtalabel107:
	#DEBUG_VALUE: USB_StandardRequests:ep_out <- [SP+44]
	#DEBUG_VALUE: USB_StandardRequests:ep_in <- [SP+48]
	#DEBUG_VALUE: USB_StandardRequests:devDesc_hs <- R7
	#DEBUG_VALUE: USB_StandardRequests:sp <- R6
	#DEBUG_VALUE: devQualDesc <- [SP+52]
	{
		ldaw r11, sp[13]
		ldc r3, 10
	}
	.loc	1 325 0                 # /Users/rkn/Documents/xTIMEcomposer/workspace/module_usb_device/src/usb_device.xc:325:0
.Ltmp168:
	st8 r3, r11[r10]
	{
		mkmsk r0, 1
		nop
	}
	.loc	1 326 0                 # /Users/rkn/Documents/xTIMEcomposer/workspace/module_usb_device/src/usb_device.xc:326:0
	{
		or r0, r11, r0
		ldc r1, 6
	}
	.loc	1 326 0                 # /Users/rkn/Documents/xTIMEcomposer/workspace/module_usb_device/src/usb_device.xc:326:0
	st8 r1, r0[r10]
	{
		ldc r0, 2
		nop
	}
	{
		mov r2, r0
		nop
	}
	.loc	1 327 0                 # /Users/rkn/Documents/xTIMEcomposer/workspace/module_usb_device/src/usb_device.xc:327:0
	{
		or r0, r11, r2
		ld8u r2, r7[r2]
	}
	.loc	1 327 0                 # /Users/rkn/Documents/xTIMEcomposer/workspace/module_usb_device/src/usb_device.xc:327:0
	st8 r2, r0[r10]
	.loc	1 328 0                 # /Users/rkn/Documents/xTIMEcomposer/workspace/module_usb_device/src/usb_device.xc:328:0
	{
		or r0, r11, r8
		ld8u r2, r7[r8]
	}
	.loc	1 328 0                 # /Users/rkn/Documents/xTIMEcomposer/workspace/module_usb_device/src/usb_device.xc:328:0
	st8 r2, r0[r10]
	{
		ldc r0, 4
		nop
	}
	{
		nop
		ld8u r2, r7[r0]
	}
	.loc	1 329 0                 # /Users/rkn/Documents/xTIMEcomposer/workspace/module_usb_device/src/usb_device.xc:329:0
	st8 r2, r11[r0]
	{
		ldc r0, 5
		nop
	}
	{
		nop
		ld8u r2, r7[r0]
	}
	.loc	1 330 0                 # /Users/rkn/Documents/xTIMEcomposer/workspace/module_usb_device/src/usb_device.xc:330:0
	st8 r2, r11[r0]
	{
		nop
		ld8u r0, r7[r1]
	}
	.loc	1 331 0                 # /Users/rkn/Documents/xTIMEcomposer/workspace/module_usb_device/src/usb_device.xc:331:0
	st8 r0, r11[r1]
	{
		mkmsk r0, 3
		nop
	}
	{
		nop
		ld8u r1, r7[r0]
	}
	.loc	1 332 0                 # /Users/rkn/Documents/xTIMEcomposer/workspace/module_usb_device/src/usb_device.xc:332:0
	st8 r1, r11[r0]
	{
		ldc r0, 17
		nop
	}
	{
		nop
		ld8u r0, r7[r0]
	}
.Ltmp169:
.LBB0_75:                               # %return
	{
		ldc r1, 8
		nop
	}
	.loc	1 316 0                 # /Users/rkn/Documents/xTIMEcomposer/workspace/module_usb_device/src/usb_device.xc:316:0
	st8 r0, r11[r1]
	{
		ldc r0, 9
		nop
	}
	.loc	1 317 0                 # /Users/rkn/Documents/xTIMEcomposer/workspace/module_usb_device/src/usb_device.xc:317:0
	st8 r10, r11[r0]
	.loc	1 320 37                # /Users/rkn/Documents/xTIMEcomposer/workspace/module_usb_device/src/usb_device.xc:320:37
	{
		add r0, r6, 8
		nop
	}
	{
		nop
		ld16s r0, r0[r10]
	}
	.loc	1 320 37                # /Users/rkn/Documents/xTIMEcomposer/workspace/module_usb_device/src/usb_device.xc:320:37
	{
		zext r0, 16
		nop
	}
	{
		nop
		stw r0, sp[1]
	}
	{
		nop
		stw r3, sp[2]
	}
	bu .LBB0_76
.Ltmp170:
.LBB0_12:                               # %switchdone
.Lxtalabel108:
	#DEBUG_VALUE: USB_StandardRequests:ep_out <- [SP+44]
	#DEBUG_VALUE: USB_StandardRequests:ep_in <- [SP+48]
	#DEBUG_VALUE: stringID <- 0
	{
		nop
		ldw r0, sp[11]
	}
	.loc	1 607 0                 # /Users/rkn/Documents/xTIMEcomposer/workspace/module_usb_device/src/usb_device.xc:607:0
.Lxta.call_labels11:
	bl XUD_SetStall
	{
		nop
		ldw r0, sp[12]
	}
	.loc	1 608 0                 # /Users/rkn/Documents/xTIMEcomposer/workspace/module_usb_device/src/usb_device.xc:608:0
.Lxta.call_labels12:
	bl XUD_SetStall
	{
		mkmsk r0, 1
		nop
	}
.Ltmp171:
.LBB0_138:                              # %return
	{
		nop
		ldw r10, sp[52]
	}
	{
		nop
		ldw r8, sp[50]
	}
	{
		nop
		ldw r9, sp[51]
	}
	{
		nop
		ldw r6, sp[48]
	}
	{
		nop
		ldw r7, sp[49]
	}
	{
		nop
		ldw r4, sp[46]
	}
	{
		nop
		ldw r5, sp[47]
	}
	{
		nop
		retsp 54
	}
	# RETURN_REG_HOLDER
.LBB0_84:                               # %iftrue478
.Lxtalabel109:
.Ltmp172:
	#DEBUG_VALUE: USB_StandardRequests:ep_out <- [SP+44]
	#DEBUG_VALUE: USB_StandardRequests:ep_in <- [SP+48]
	#DEBUG_VALUE: USB_StandardRequests:sp <- R6
	#DEBUG_VALUE: datalength <- R0
	.loc	1 387 0                 # /Users/rkn/Documents/xTIMEcomposer/workspace/module_usb_device/src/usb_device.xc:387:0
	{
		add r1, r0, 2
		ldc r2, 0
	}
	.loc	1 387 0                 # /Users/rkn/Documents/xTIMEcomposer/workspace/module_usb_device/src/usb_device.xc:387:0
	st8 r1, r5[r2]
	.loc	1 388 37                # /Users/rkn/Documents/xTIMEcomposer/workspace/module_usb_device/src/usb_device.xc:388:37
	{
		add r3, r6, 8
		nop
	}
	{
		nop
		ld16s r6, r3[r2]
	}
.Ltmp173:
	.loc	1 388 37                # /Users/rkn/Documents/xTIMEcomposer/workspace/module_usb_device/src/usb_device.xc:388:37
	{
		zext r6, 16
		nop
	}
	.loc	1 388 37                # /Users/rkn/Documents/xTIMEcomposer/workspace/module_usb_device/src/usb_device.xc:388:37
	{
		lss r1, r6, r1
		nop
	}
	.loc	1 388 37                # /Users/rkn/Documents/xTIMEcomposer/workspace/module_usb_device/src/usb_device.xc:388:37
	bt r1, .LBB0_85
.Ltmp174:
# BB#86:                                # %iftrue478
.Lxtalabel110:
	#DEBUG_VALUE: USB_StandardRequests:ep_out <- [SP+44]
	#DEBUG_VALUE: USB_StandardRequests:ep_in <- [SP+48]
	#DEBUG_VALUE: datalength <- R0
	{
		mov r7, r0
		nop
	}
	bu .LBB0_87
.Ltmp175:
.LBB0_93:
	#DEBUG_VALUE: USB_StandardRequests:ep_out <- [SP+44]
	#DEBUG_VALUE: USB_StandardRequests:ep_in <- [SP+48]
	.loc	1 407 0                 # /Users/rkn/Documents/xTIMEcomposer/workspace/module_usb_device/src/usb_device.xc:407:0
	{
		sub r7, r6, 2
		nop
	}
.Ltmp176:
.LBB0_95:                               # %iffalse484
.Lxtalabel111:
	#DEBUG_VALUE: datalength <- R7
	#DEBUG_VALUE: USB_StandardRequests:ep_in <- R9
	#DEBUG_VALUE: USB_StandardRequests:ep_out <- [SP+44]
	#DEBUG_VALUE: USB_StandardRequests:ep_in <- R9
	#DEBUG_VALUE: i <- 0
	{
		mkmsk r0, 1
		ldw r9, sp[12]
	}
.Ltmp177:
	.loc	1 410 0                 # /Users/rkn/Documents/xTIMEcomposer/workspace/module_usb_device/src/usb_device.xc:410:0
	{
		lss r0, r7, r0
		nop
	}
	bt r0, .LBB0_91
.Ltmp178:
# BB#96:
	#DEBUG_VALUE: USB_StandardRequests:ep_out <- [SP+44]
	#DEBUG_VALUE: USB_StandardRequests:ep_in <- R9
	{
		ldc r0, 0
		nop
	}
.Ltmp179:
.LBB0_97:                               # %LoopBody556
                                        # =>This Inner Loop Header: Depth=1
.Lxtalabel112:
	#DEBUG_VALUE: USB_StandardRequests:ep_out <- [SP+44]
	#DEBUG_VALUE: USB_StandardRequests:ep_in <- R9
	.loc	1 412 0                 # /Users/rkn/Documents/xTIMEcomposer/workspace/module_usb_device/src/usb_device.xc:412:0
	{
		add r1, r10, 2
		nop
	}
.Ltmp180:
	#DEBUG_VALUE: i <- R1
	.loc	1 412 0                 # /Users/rkn/Documents/xTIMEcomposer/workspace/module_usb_device/src/usb_device.xc:412:0
	ashr r2, r10, 1
	.loc	1 412 0                 # /Users/rkn/Documents/xTIMEcomposer/workspace/module_usb_device/src/usb_device.xc:412:0
	{
		add r3, r5, r10
		ld8u r2, r4[r2]
	}
	.loc	1 412 0                 # /Users/rkn/Documents/xTIMEcomposer/workspace/module_usb_device/src/usb_device.xc:412:0
	st8 r2, r3[r11]
	.loc	1 413 0                 # /Users/rkn/Documents/xTIMEcomposer/workspace/module_usb_device/src/usb_device.xc:413:0
	st8 r0, r3[r8]
	.loc	1 410 0                 # /Users/rkn/Documents/xTIMEcomposer/workspace/module_usb_device/src/usb_device.xc:410:0
	{
		lss r2, r1, r7
		nop
	}
.Lxta.loop_labels2:
	# LOOPMARKER 0
	{
		mov r10, r1
		nop
	}
.Ltmp181:
	#DEBUG_VALUE: i <- R10
	bt r2, .LBB0_97
	bu .LBB0_91
.Ltmp182:
.LBB0_85:
	#DEBUG_VALUE: USB_StandardRequests:ep_out <- [SP+44]
	#DEBUG_VALUE: USB_StandardRequests:ep_in <- [SP+48]
	#DEBUG_VALUE: datalength <- R0
	.loc	1 390 0                 # /Users/rkn/Documents/xTIMEcomposer/workspace/module_usb_device/src/usb_device.xc:390:0
	{
		sub r7, r6, 2
		nop
	}
.Ltmp183:
.LBB0_87:                               # %iftrue478
.Lxtalabel113:
	#DEBUG_VALUE: USB_StandardRequests:ep_in <- R9
	#DEBUG_VALUE: USB_StandardRequests:ep_out <- [SP+44]
	#DEBUG_VALUE: USB_StandardRequests:ep_in <- R9
	#DEBUG_VALUE: datalength <- R0
	#DEBUG_VALUE: i <- 0
	{
		mkmsk r1, 1
		ldw r9, sp[12]
	}
.Ltmp184:
	.loc	1 392 0                 # /Users/rkn/Documents/xTIMEcomposer/workspace/module_usb_device/src/usb_device.xc:392:0
	{
		lss r1, r7, r1
		ldc r11, 2
	}
	bt r1, .LBB0_91
.Ltmp185:
# BB#88:                                # %LoopBody510.preheader
	#DEBUG_VALUE: USB_StandardRequests:ep_out <- [SP+44]
	#DEBUG_VALUE: USB_StandardRequests:ep_in <- R9
	#DEBUG_VALUE: datalength <- R0
	#DEBUG_VALUE: i <- 0
	.loc	1 394 0                 # /Users/rkn/Documents/xTIMEcomposer/workspace/module_usb_device/src/usb_device.xc:394:0
	{
		not r2, r6
		nop
	}
	ldw r1, cp[.LCPI0_0]
	.loc	1 394 0                 # /Users/rkn/Documents/xTIMEcomposer/workspace/module_usb_device/src/usb_device.xc:394:0
	{
		sub r0, r1, r0
		nop
	}
.Ltmp186:
	{
		lss r3, r0, r2
		nop
	}
	bt r3, .LBB0_90
.Ltmp187:
# BB#89:                                # %LoopBody510.preheader
	#DEBUG_VALUE: USB_StandardRequests:ep_out <- [SP+44]
	#DEBUG_VALUE: USB_StandardRequests:ep_in <- R9
	{
		mov r2, r0
		nop
	}
.Ltmp188:
.LBB0_90:                               # %LoopBody510.preheader
	#DEBUG_VALUE: USB_StandardRequests:ep_out <- [SP+44]
	#DEBUG_VALUE: USB_StandardRequests:ep_in <- R9
	#DEBUG_VALUE: i <- 0
	.loc	1 394 0                 # /Users/rkn/Documents/xTIMEcomposer/workspace/module_usb_device/src/usb_device.xc:394:0
	{
		sub r2, r1, r2
		or r0, r5, r11
	}
	.loc	1 394 0                 # /Users/rkn/Documents/xTIMEcomposer/workspace/module_usb_device/src/usb_device.xc:394:0
	{
		mov r1, r4
		nop
	}
	bl memcpy
.Ltmp189:
.LBB0_91:                               # %ifdone479
.Lxtalabel114:
	#DEBUG_VALUE: USB_StandardRequests:ep_out <- [SP+44]
	#DEBUG_VALUE: USB_StandardRequests:ep_in <- R9
	.loc	1 419 33                # /Users/rkn/Documents/xTIMEcomposer/workspace/module_usb_device/src/usb_device.xc:419:33
	{
		add r3, r7, 2
		nop
	}
	ldc r0, 120
	{
		nop
		stw r0, sp[2]
	}
	.loc	1 419 33                # /Users/rkn/Documents/xTIMEcomposer/workspace/module_usb_device/src/usb_device.xc:419:33
	{
		ldaw r2, sp[16]
		stw r6, sp[1]
	}
	{
		mov r1, r9
		ldw r0, sp[11]
	}
	bu .LBB0_137
.Ltmp190:
	.cc_bottom USB_StandardRequests.function
	.set	USB_StandardRequests.nstackwords,((XUD_SetTestMode.nstackwords $M XUD_SetStall.nstackwords $M XUD_SetDevAddr.nstackwords $M XUD_ResetEpStateByAddr.nstackwords $M XUD_DoSetRequestStatus.nstackwords $M SetEndpointHalt.nstackwords $M XUD_DoGetRequest.nstackwords $M _safe_strlen.nstackwords $M memcpy.nstackwords) + 54)
	.globl	USB_StandardRequests.nstackwords
	.set	USB_StandardRequests.maxcores,SetEndpointHalt.maxcores $M XUD_DoGetRequest.maxcores $M XUD_DoSetRequestStatus.maxcores $M XUD_ResetEpStateByAddr.maxcores $M XUD_SetDevAddr.maxcores $M XUD_SetStall.maxcores $M XUD_SetTestMode.maxcores $M _safe_strlen.maxcores $M 1
	.globl	USB_StandardRequests.maxcores
	.set	USB_StandardRequests.maxtimers,SetEndpointHalt.maxtimers $M XUD_DoGetRequest.maxtimers $M XUD_DoSetRequestStatus.maxtimers $M XUD_ResetEpStateByAddr.maxtimers $M XUD_SetDevAddr.maxtimers $M XUD_SetStall.maxtimers $M XUD_SetTestMode.maxtimers $M _safe_strlen.maxtimers $M 0
	.globl	USB_StandardRequests.maxtimers
	.set	USB_StandardRequests.maxchanends,SetEndpointHalt.maxchanends $M XUD_DoGetRequest.maxchanends $M XUD_DoSetRequestStatus.maxchanends $M XUD_ResetEpStateByAddr.maxchanends $M XUD_SetDevAddr.maxchanends $M XUD_SetStall.maxchanends $M XUD_SetTestMode.maxchanends $M _safe_strlen.maxchanends $M 0
	.globl	USB_StandardRequests.maxchanends
.Ltmp191:
	.size	USB_StandardRequests, .Ltmp191-USB_StandardRequests
.Lfunc_end0:
	.cfi_endproc

	.globl	USB_GetSetupPacket
	.align	4
	.type	USB_GetSetupPacket,@function
	.cc_top USB_GetSetupPacket.function,USB_GetSetupPacket
USB_GetSetupPacket:                     # @USB_GetSetupPacket
.Lfunc_begin1:
	.loc	1 32 0                  # /Users/rkn/Documents/xTIMEcomposer/workspace/module_usb_device/src/usb_device.xc:32:0
	.cfi_startproc
	.issue_mode dual
# BB#0:                                 # %allocas
.Lxtalabel115:
	{
		nop
		dualentsp 34
	}
.Ltmp192:
	.cfi_def_cfa_offset 136
.Ltmp193:
	.cfi_offset 15, 0
	{
		nop
		stw r4, sp[32]
	}
.Ltmp194:
	.cfi_offset 4, -8
.Ltmp195:
	.cfi_offset 5, -4
	#DEBUG_VALUE: USB_GetSetupPacket:ep_out <- R0
	#DEBUG_VALUE: USB_GetSetupPacket:ep_in <- R1
	#DEBUG_VALUE: USB_GetSetupPacket:sp <- R2
.Ltmp196:
	#DEBUG_VALUE: USB_GetSetupPacket:sp <- R4
	{
		mov r4, r2
		stw r5, sp[33]
	}
.Ltmp197:
	#DEBUG_VALUE: length <- [R2+0]
	{
		ldaw r1, sp[2]
		ldaw r2, sp[1]
	}
.Ltmp198:
	ldc r3, 120
	.loc	1 38 5 prologue_end     # /Users/rkn/Documents/xTIMEcomposer/workspace/module_usb_device/src/usb_device.xc:38:5
.Ltmp199:
.Lxta.call_labels13:
	bl XUD_GetSetupBuffer
.Ltmp200:
	{
		mov r5, r0
		nop
	}
.Ltmp201:
	#DEBUG_VALUE: result <- R5
	bt r5, .LBB1_2
.Ltmp202:
# BB#1:                                 # %ifdone
.Lxtalabel116:
	#DEBUG_VALUE: USB_GetSetupPacket:ep_in <- R1
	#DEBUG_VALUE: USB_GetSetupPacket:sp <- R4
	#DEBUG_VALUE: result <- R5
	{
		ldaw r0, sp[2]
		nop
	}
	ldc r2, 120
	.loc	1 44 0                  # /Users/rkn/Documents/xTIMEcomposer/workspace/module_usb_device/src/usb_device.xc:44:0
	{
		mov r1, r4
		nop
	}
.Ltmp203:
.Lxta.call_labels14:
	bl USB_ParseSetupPacket
.Ltmp204:
.LBB1_2:                                # %return
	#DEBUG_VALUE: USB_GetSetupPacket:ep_in <- R1
	{
		mov r0, r5
		ldw r4, sp[32]
	}
	{
		nop
		ldw r5, sp[33]
	}
	{
		nop
		retsp 34
	}
	# RETURN_REG_HOLDER
	.cc_bottom USB_GetSetupPacket.function
	.set	USB_GetSetupPacket.nstackwords,((XUD_GetSetupBuffer.nstackwords $M USB_ParseSetupPacket.nstackwords) + 34)
	.globl	USB_GetSetupPacket.nstackwords
	.set	USB_GetSetupPacket.maxcores,USB_ParseSetupPacket.maxcores $M XUD_GetSetupBuffer.maxcores $M 1
	.globl	USB_GetSetupPacket.maxcores
	.set	USB_GetSetupPacket.maxtimers,USB_ParseSetupPacket.maxtimers $M XUD_GetSetupBuffer.maxtimers $M 0
	.globl	USB_GetSetupPacket.maxtimers
	.set	USB_GetSetupPacket.maxchanends,USB_ParseSetupPacket.maxchanends $M XUD_GetSetupBuffer.maxchanends $M 0
	.globl	USB_GetSetupPacket.maxchanends
.Ltmp205:
	.size	USB_GetSetupPacket, .Ltmp205-USB_GetSetupPacket
.Lfunc_end1:
	.cfi_endproc

	.globl	SetEndpointHalt
	.align	4
	.type	SetEndpointHalt,@function
	.cc_top SetEndpointHalt.function,SetEndpointHalt
SetEndpointHalt:                        # @SetEndpointHalt
.Lfunc_begin2:
	.loc	1 52 0                  # /Users/rkn/Documents/xTIMEcomposer/workspace/module_usb_device/src/usb_device.xc:52:0
	.cfi_startproc
	.issue_mode dual
# BB#0:                                 # %allocas
.Lxtalabel117:
	{
		nop
		dualentsp 2
	}
.Ltmp206:
	.cfi_def_cfa_offset 8
.Ltmp207:
	.cfi_offset 15, 0
	#DEBUG_VALUE: SetEndpointHalt:epNum <- R0
	#DEBUG_VALUE: SetEndpointHalt:halt <- R1
	ldc r2, 128
	.loc	1 54 5 prologue_end     # /Users/rkn/Documents/xTIMEcomposer/workspace/module_usb_device/src/usb_device.xc:54:5
.Ltmp208:
	{
		and r2, r0, r2
		nop
	}
	.loc	1 54 5                  # /Users/rkn/Documents/xTIMEcomposer/workspace/module_usb_device/src/usb_device.xc:54:5
	bf r2, .LBB2_3
.Ltmp209:
# BB#1:                                 # %iftrue
.Lxtalabel118:
	#DEBUG_VALUE: SetEndpointHalt:epNum <- R0
	#DEBUG_VALUE: SetEndpointHalt:halt <- R1
	.loc	1 57 9                  # /Users/rkn/Documents/xTIMEcomposer/workspace/module_usb_device/src/usb_device.xc:57:9
	{
		mov r2, r0
		nop
	}
	{
		zext r2, 7
		nop
	}
	.loc	1 57 9                  # /Users/rkn/Documents/xTIMEcomposer/workspace/module_usb_device/src/usb_device.xc:57:9
	{
		shr r3, r2, 5
		nop
	}
	.loc	1 57 9                  # /Users/rkn/Documents/xTIMEcomposer/workspace/module_usb_device/src/usb_device.xc:57:9
	bt r3, .LBB2_2
.Ltmp210:
# BB#5:                                 # %afterboundcheck
.Lxtalabel119:
	#DEBUG_VALUE: SetEndpointHalt:epNum <- R0
	#DEBUG_VALUE: SetEndpointHalt:halt <- R1
	.loc	1 59 0                  # /Users/rkn/Documents/xTIMEcomposer/workspace/module_usb_device/src/usb_device.xc:59:0
	ldaw r3, dp[g_epStatusIn]
	.loc	1 59 0                  # /Users/rkn/Documents/xTIMEcomposer/workspace/module_usb_device/src/usb_device.xc:59:0
	st16 r1, r3[r2]
	bt r1, .LBB2_6
	bu .LBB2_8
.Ltmp211:
.LBB2_3:                                # %iffalse
.Lxtalabel120:
	#DEBUG_VALUE: SetEndpointHalt:epNum <- R0
	#DEBUG_VALUE: SetEndpointHalt:halt <- R1
	.loc	1 69 9                  # /Users/rkn/Documents/xTIMEcomposer/workspace/module_usb_device/src/usb_device.xc:69:9
	{
		shr r2, r0, 5
		nop
	}
	.loc	1 69 9                  # /Users/rkn/Documents/xTIMEcomposer/workspace/module_usb_device/src/usb_device.xc:69:9
	bt r2, .LBB2_4
.Ltmp212:
# BB#7:                                 # %afterboundcheck23
.Lxtalabel121:
	#DEBUG_VALUE: SetEndpointHalt:epNum <- R0
	#DEBUG_VALUE: SetEndpointHalt:halt <- R1
	.loc	1 71 0                  # /Users/rkn/Documents/xTIMEcomposer/workspace/module_usb_device/src/usb_device.xc:71:0
	ldaw r2, dp[g_epStatusOut]
	.loc	1 71 0                  # /Users/rkn/Documents/xTIMEcomposer/workspace/module_usb_device/src/usb_device.xc:71:0
	st16 r1, r2[r0]
	bf r1, .LBB2_8
.Ltmp213:
.LBB2_6:                                # %iftrue9
.Lxtalabel122:
	#DEBUG_VALUE: SetEndpointHalt:epNum <- R0
	.loc	1 61 0                  # /Users/rkn/Documents/xTIMEcomposer/workspace/module_usb_device/src/usb_device.xc:61:0
.Lxta.call_labels15:
	bl XUD_SetStallByAddr
.Ltmp214:
	bu .LBB2_9
.LBB2_2:
	{
		mkmsk r0, 1
		retsp 2
	}
	# RETURN_REG_HOLDER
.LBB2_4:
	{
		mkmsk r0, 1
		retsp 2
	}
	# RETURN_REG_HOLDER
.LBB2_8:                                # %iffalse33
.Lxtalabel123:
.Ltmp215:
	#DEBUG_VALUE: SetEndpointHalt:epNum <- R0
	.loc	1 75 0                  # /Users/rkn/Documents/xTIMEcomposer/workspace/module_usb_device/src/usb_device.xc:75:0
.Lxta.call_labels16:
	bl XUD_ClearStallByAddr
.Ltmp216:
.LBB2_9:                                # %return
	{
		ldc r0, 0
		retsp 2
	}
	# RETURN_REG_HOLDER
	.cc_bottom SetEndpointHalt.function
	.set	SetEndpointHalt.nstackwords,((XUD_ClearStallByAddr.nstackwords $M XUD_SetStallByAddr.nstackwords) + 2)
	.globl	SetEndpointHalt.nstackwords
	.set	SetEndpointHalt.maxcores,XUD_ClearStallByAddr.maxcores $M XUD_SetStallByAddr.maxcores $M 1
	.globl	SetEndpointHalt.maxcores
	.set	SetEndpointHalt.maxtimers,XUD_ClearStallByAddr.maxtimers $M XUD_SetStallByAddr.maxtimers $M 0
	.globl	SetEndpointHalt.maxtimers
	.set	SetEndpointHalt.maxchanends,XUD_ClearStallByAddr.maxchanends $M XUD_SetStallByAddr.maxchanends $M 0
	.globl	SetEndpointHalt.maxchanends
.Ltmp217:
	.size	SetEndpointHalt, .Ltmp217-SetEndpointHalt
.Lfunc_end2:
	.cfi_endproc

	.section	.dp.bss.4,"awd",@nobits
	.cc_top g_currentConfig.data,g_currentConfig
	.globl	g_currentConfig
	.align	4
	.type	g_currentConfig,@object
	.size	g_currentConfig, 1
g_currentConfig:
	.byte	0                       # 0x0
	.space	3
	.cc_bottom g_currentConfig.data
	.section	.dp.bss,"awd",@nobits
	.cc_top g_interfaceAlt.data,g_interfaceAlt
	.globl	g_interfaceAlt.globound
g_interfaceAlt.globound = 16
	.globl	g_interfaceAlt
	.align	8
	.type	g_interfaceAlt,@object
	.size	g_interfaceAlt, 16
g_interfaceAlt:
	.space	16
	.cc_bottom g_interfaceAlt.data
	.cc_top g_epStatusOut.data,g_epStatusOut
	.globl	g_epStatusOut.globound
g_epStatusOut.globound = 32
	.globl	g_epStatusOut
	.align	8
	.type	g_epStatusOut,@object
	.size	g_epStatusOut, 64
g_epStatusOut:
	.space	64
	.cc_bottom g_epStatusOut.data
	.cc_top g_epStatusIn.data,g_epStatusIn
	.globl	g_epStatusIn.globound
g_epStatusIn.globound = 32
	.globl	g_epStatusIn
	.align	8
	.type	g_epStatusIn,@object
	.size	g_epStatusIn, 64
g_epStatusIn:
	.space	64
	.cc_bottom g_epStatusIn.data
	.section	.dp.bss.4,"awd",@nobits
.Ldebug_end0:
	.section	.dp.bss,"awd",@nobits
.Ldebug_end1:
	.text
.Ldebug_end2:
	.file	3 "/Applications/XMOS_xTIMEcomposer_Community_14.3.2/target/include/timer.h"
	.file	4 "/Applications/XMOS_xTIMEcomposer_Community_14.3.2/target/include/xc/safe/string.h"
	.section	.xtacalltable,"",@progbits
.Lentries_start0:
	.long	.Lentries_end1-.Lentries_start0
	.long	0
	.ascii	"/Users/rkn/Documents/xTIMEcomposer/workspace/app_usb_aud_xk_216_mc/.build_2i32o32xxxxx_tdm8"
	.byte	0
.cc_top cc_0,.Lxta.call_labels13
	.ascii	"/Users/rkn/Documents/xTIMEcomposer/workspace/module_usb_device/src/usb_device.xc"
	.byte	0
	.long	38
	.long	.Lxta.call_labels13
.cc_bottom cc_0
.cc_top cc_1,.Lxta.call_labels14
	.ascii	"/Users/rkn/Documents/xTIMEcomposer/workspace/module_usb_device/src/usb_device.xc"
	.byte	0
	.long	44
	.long	.Lxta.call_labels14
.cc_bottom cc_1
.cc_top cc_2,.Lxta.call_labels15
	.ascii	"/Users/rkn/Documents/xTIMEcomposer/workspace/module_usb_device/src/usb_device.xc"
	.byte	0
	.long	61
	.long	.Lxta.call_labels15
.cc_bottom cc_2
.cc_top cc_3,.Lxta.call_labels16
	.ascii	"/Users/rkn/Documents/xTIMEcomposer/workspace/module_usb_device/src/usb_device.xc"
	.byte	0
	.long	75
	.long	.Lxta.call_labels16
.cc_bottom cc_3
.cc_top cc_4,.Lxta.call_labels0
	.ascii	"/Users/rkn/Documents/xTIMEcomposer/workspace/module_usb_device/src/usb_device.xc"
	.byte	0
	.long	130
	.long	.Lxta.call_labels0
.cc_bottom cc_4
.cc_top cc_5,.Lxta.call_labels1
	.ascii	"/Users/rkn/Documents/xTIMEcomposer/workspace/module_usb_device/src/usb_device.xc"
	.byte	0
	.long	145
	.long	.Lxta.call_labels1
.cc_bottom cc_5
.cc_top cc_6,.Lxta.call_labels2
	.ascii	"/Users/rkn/Documents/xTIMEcomposer/workspace/module_usb_device/src/usb_device.xc"
	.byte	0
	.long	165
	.long	.Lxta.call_labels2
.cc_bottom cc_6
.cc_top cc_7,.Lxta.call_labels3
	.ascii	"/Users/rkn/Documents/xTIMEcomposer/workspace/module_usb_device/src/usb_device.xc"
	.byte	0
	.long	170
	.long	.Lxta.call_labels3
.cc_bottom cc_7
.cc_top cc_8,.Lxta.call_labels8
	.ascii	"/Users/rkn/Documents/xTIMEcomposer/workspace/module_usb_device/src/usb_device.xc"
	.byte	0
	.long	207
	.long	.Lxta.call_labels8
.cc_bottom cc_8
.cc_top cc_9,.Lxta.call_labels9
	.ascii	"/Users/rkn/Documents/xTIMEcomposer/workspace/module_usb_device/src/usb_device.xc"
	.byte	0
	.long	210
	.long	.Lxta.call_labels9
.cc_bottom cc_9
.cc_top cc_10,.Lxta.call_labels7
	.ascii	"/Users/rkn/Documents/xTIMEcomposer/workspace/module_usb_device/src/usb_device.xc"
	.byte	0
	.long	382
	.long	.Lxta.call_labels7
.cc_bottom cc_10
.cc_top cc_11,.Lxta.call_labels6
	.ascii	"/Users/rkn/Documents/xTIMEcomposer/workspace/module_usb_device/src/usb_device.xc"
	.byte	0
	.long	468
	.long	.Lxta.call_labels6
.cc_bottom cc_11
.cc_top cc_12,.Lxta.call_labels5
	.ascii	"/Users/rkn/Documents/xTIMEcomposer/workspace/module_usb_device/src/usb_device.xc"
	.byte	0
	.long	528
	.long	.Lxta.call_labels5
.cc_bottom cc_12
.cc_top cc_13,.Lxta.call_labels4
	.ascii	"/Users/rkn/Documents/xTIMEcomposer/workspace/module_usb_device/src/usb_device.xc"
	.byte	0
	.long	543
	.long	.Lxta.call_labels4
.cc_bottom cc_13
.cc_top cc_14,.Lxta.call_labels10
	.ascii	"/Users/rkn/Documents/xTIMEcomposer/workspace/module_usb_device/src/usb_device.xc"
	.byte	0
	.long	588
	.long	.Lxta.call_labels10
.cc_bottom cc_14
.cc_top cc_15,.Lxta.call_labels11
	.ascii	"/Users/rkn/Documents/xTIMEcomposer/workspace/module_usb_device/src/usb_device.xc"
	.byte	0
	.long	607
	.long	.Lxta.call_labels11
.cc_bottom cc_15
.cc_top cc_16,.Lxta.call_labels12
	.ascii	"/Users/rkn/Documents/xTIMEcomposer/workspace/module_usb_device/src/usb_device.xc"
	.byte	0
	.long	608
	.long	.Lxta.call_labels12
.cc_bottom cc_16
.Lentries_end1:
	.section	.xtaendpointtable,"",@progbits
.Lentries_start2:
	.long	.Lentries_end3-.Lentries_start2
	.long	0
	.ascii	"/Users/rkn/Documents/xTIMEcomposer/workspace/app_usb_aud_xk_216_mc/.build_2i32o32xxxxx_tdm8"
	.byte	0
.cc_top cc_17,.Lxta.endpoint_labels0
	.ascii	"/Users/rkn/Documents/xTIMEcomposer/workspace/module_usb_device/src/usb_device.xc"
	.byte	0
	.long	141
	.long	.Lxta.endpoint_labels0
.cc_bottom cc_17
.Lentries_end3:
	.section	.xtalabeltable,"",@progbits
.Lentries_start4:
	.long	.Lentries_end5-.Lentries_start4
	.long	0
	.ascii	"/Users/rkn/Documents/xTIMEcomposer/workspace/app_usb_aud_xk_216_mc/.build_2i32o32xxxxx_tdm8"
	.byte	0
.cc_top cc_18,.Lxtalabel115
	.ascii	"/Users/rkn/Documents/xTIMEcomposer/workspace/module_usb_device/src/usb_device.xc"
	.byte	0
	.long	32
	.long	34
	.long	.Lxtalabel115
.cc_bottom cc_18
.cc_top cc_19,.Lxtalabel115
	.ascii	"/Users/rkn/Documents/xTIMEcomposer/workspace/module_usb_device/src/usb_device.xc"
	.byte	0
	.long	36
	.long	36
	.long	.Lxtalabel115
.cc_bottom cc_19
.cc_top cc_20,.Lxtalabel115
	.ascii	"/Users/rkn/Documents/xTIMEcomposer/workspace/module_usb_device/src/usb_device.xc"
	.byte	0
	.long	38
	.long	38
	.long	.Lxtalabel115
.cc_bottom cc_20
.cc_top cc_21,.Lxtalabel115
	.ascii	"/Users/rkn/Documents/xTIMEcomposer/workspace/module_usb_device/src/usb_device.xc"
	.byte	0
	.long	39
	.long	41
	.long	.Lxtalabel115
.cc_bottom cc_21
.cc_top cc_22,.Lxtalabel116
	.ascii	"/Users/rkn/Documents/xTIMEcomposer/workspace/module_usb_device/src/usb_device.xc"
	.byte	0
	.long	44
	.long	44
	.long	.Lxtalabel116
.cc_bottom cc_22
.cc_top cc_23,.Lxtalabel116
	.ascii	"/Users/rkn/Documents/xTIMEcomposer/workspace/module_usb_device/src/usb_device.xc"
	.byte	0
	.long	47
	.long	48
	.long	.Lxtalabel116
.cc_bottom cc_23
.cc_top cc_24,.Lxtalabel117
	.ascii	"/Users/rkn/Documents/xTIMEcomposer/workspace/module_usb_device/src/usb_device.xc"
	.byte	0
	.long	52
	.long	52
	.long	.Lxtalabel117
.cc_bottom cc_24
.cc_top cc_25,.Lxtalabel117
	.ascii	"/Users/rkn/Documents/xTIMEcomposer/workspace/module_usb_device/src/usb_device.xc"
	.byte	0
	.long	54
	.long	54
	.long	.Lxtalabel117
.cc_bottom cc_25
.cc_top cc_26,.Lxtalabel118
	.ascii	"/Users/rkn/Documents/xTIMEcomposer/workspace/module_usb_device/src/usb_device.xc"
	.byte	0
	.long	55
	.long	55
	.long	.Lxtalabel118
.cc_bottom cc_26
.cc_top cc_27,.Lxtalabel118
	.ascii	"/Users/rkn/Documents/xTIMEcomposer/workspace/module_usb_device/src/usb_device.xc"
	.byte	0
	.long	57
	.long	57
	.long	.Lxtalabel118
.cc_bottom cc_27
.cc_top cc_28,.Lxtalabel119
	.ascii	"/Users/rkn/Documents/xTIMEcomposer/workspace/module_usb_device/src/usb_device.xc"
	.byte	0
	.long	58
	.long	60
	.long	.Lxtalabel119
.cc_bottom cc_28
.cc_top cc_29,.Lxtalabel122
	.ascii	"/Users/rkn/Documents/xTIMEcomposer/workspace/module_usb_device/src/usb_device.xc"
	.byte	0
	.long	61
	.long	61
	.long	.Lxtalabel122
.cc_bottom cc_29
.cc_top cc_30,.Lxtalabel118
	.ascii	"/Users/rkn/Documents/xTIMEcomposer/workspace/module_usb_device/src/usb_device.xc"
	.byte	0
	.long	66
	.long	66
	.long	.Lxtalabel118
.cc_bottom cc_30
.cc_top cc_31,.Lxtalabel120
	.ascii	"/Users/rkn/Documents/xTIMEcomposer/workspace/module_usb_device/src/usb_device.xc"
	.byte	0
	.long	67
	.long	69
	.long	.Lxtalabel120
.cc_bottom cc_31
.cc_top cc_32,.Lxtalabel121
	.ascii	"/Users/rkn/Documents/xTIMEcomposer/workspace/module_usb_device/src/usb_device.xc"
	.byte	0
	.long	70
	.long	72
	.long	.Lxtalabel121
.cc_bottom cc_32
.cc_top cc_33,.Lxtalabel123
	.ascii	"/Users/rkn/Documents/xTIMEcomposer/workspace/module_usb_device/src/usb_device.xc"
	.byte	0
	.long	74
	.long	75
	.long	.Lxtalabel123
.cc_bottom cc_33
.cc_top cc_34,.Lxtalabel120
	.ascii	"/Users/rkn/Documents/xTIMEcomposer/workspace/module_usb_device/src/usb_device.xc"
	.byte	0
	.long	79
	.long	79
	.long	.Lxtalabel120
.cc_bottom cc_34
.cc_top cc_35,.Lxtalabel0
	.ascii	"/Users/rkn/Documents/xTIMEcomposer/workspace/module_usb_device/src/usb_device.xc"
	.byte	0
	.long	92
	.long	92
	.long	.Lxtalabel0
.cc_bottom cc_35
.cc_top cc_36,.Lxtalabel20
	.ascii	"/Users/rkn/Documents/xTIMEcomposer/workspace/module_usb_device/src/usb_device.xc"
	.byte	0
	.long	92
	.long	92
	.long	.Lxtalabel20
.cc_bottom cc_36
.cc_top cc_37,.Lxtalabel9
	.ascii	"/Users/rkn/Documents/xTIMEcomposer/workspace/module_usb_device/src/usb_device.xc"
	.byte	0
	.long	92
	.long	92
	.long	.Lxtalabel9
.cc_bottom cc_37
.cc_top cc_38,.Lxtalabel8
	.ascii	"/Users/rkn/Documents/xTIMEcomposer/workspace/module_usb_device/src/usb_device.xc"
	.byte	0
	.long	92
	.long	92
	.long	.Lxtalabel8
.cc_bottom cc_38
.cc_top cc_39,.Lxtalabel33
	.ascii	"/Users/rkn/Documents/xTIMEcomposer/workspace/module_usb_device/src/usb_device.xc"
	.byte	0
	.long	92
	.long	92
	.long	.Lxtalabel33
.cc_bottom cc_39
.cc_top cc_40,.Lxtalabel2
	.ascii	"/Users/rkn/Documents/xTIMEcomposer/workspace/module_usb_device/src/usb_device.xc"
	.byte	0
	.long	92
	.long	92
	.long	.Lxtalabel2
.cc_bottom cc_40
.cc_top cc_41,.Lxtalabel1
	.ascii	"/Users/rkn/Documents/xTIMEcomposer/workspace/module_usb_device/src/usb_device.xc"
	.byte	0
	.long	92
	.long	92
	.long	.Lxtalabel1
.cc_bottom cc_41
.cc_top cc_42,.Lxtalabel2
	.ascii	"/Users/rkn/Documents/xTIMEcomposer/workspace/module_usb_device/src/usb_device.xc"
	.byte	0
	.long	94
	.long	95
	.long	.Lxtalabel2
.cc_bottom cc_42
.cc_top cc_43,.Lxtalabel1
	.ascii	"/Users/rkn/Documents/xTIMEcomposer/workspace/module_usb_device/src/usb_device.xc"
	.byte	0
	.long	94
	.long	95
	.long	.Lxtalabel1
.cc_bottom cc_43
.cc_top cc_44,.Lxtalabel33
	.ascii	"/Users/rkn/Documents/xTIMEcomposer/workspace/module_usb_device/src/usb_device.xc"
	.byte	0
	.long	94
	.long	95
	.long	.Lxtalabel33
.cc_bottom cc_44
.cc_top cc_45,.Lxtalabel20
	.ascii	"/Users/rkn/Documents/xTIMEcomposer/workspace/module_usb_device/src/usb_device.xc"
	.byte	0
	.long	94
	.long	95
	.long	.Lxtalabel20
.cc_bottom cc_45
.cc_top cc_46,.Lxtalabel8
	.ascii	"/Users/rkn/Documents/xTIMEcomposer/workspace/module_usb_device/src/usb_device.xc"
	.byte	0
	.long	94
	.long	95
	.long	.Lxtalabel8
.cc_bottom cc_46
.cc_top cc_47,.Lxtalabel9
	.ascii	"/Users/rkn/Documents/xTIMEcomposer/workspace/module_usb_device/src/usb_device.xc"
	.byte	0
	.long	94
	.long	95
	.long	.Lxtalabel9
.cc_bottom cc_47
.cc_top cc_48,.Lxtalabel0
	.ascii	"/Users/rkn/Documents/xTIMEcomposer/workspace/module_usb_device/src/usb_device.xc"
	.byte	0
	.long	94
	.long	95
	.long	.Lxtalabel0
.cc_bottom cc_48
.cc_top cc_49,.Lxtalabel33
	.ascii	"/Users/rkn/Documents/xTIMEcomposer/workspace/module_usb_device/src/usb_device.xc"
	.byte	0
	.long	98
	.long	98
	.long	.Lxtalabel33
.cc_bottom cc_49
.cc_top cc_50,.Lxtalabel20
	.ascii	"/Users/rkn/Documents/xTIMEcomposer/workspace/module_usb_device/src/usb_device.xc"
	.byte	0
	.long	98
	.long	98
	.long	.Lxtalabel20
.cc_bottom cc_50
.cc_top cc_51,.Lxtalabel1
	.ascii	"/Users/rkn/Documents/xTIMEcomposer/workspace/module_usb_device/src/usb_device.xc"
	.byte	0
	.long	98
	.long	98
	.long	.Lxtalabel1
.cc_bottom cc_51
.cc_top cc_52,.Lxtalabel8
	.ascii	"/Users/rkn/Documents/xTIMEcomposer/workspace/module_usb_device/src/usb_device.xc"
	.byte	0
	.long	98
	.long	98
	.long	.Lxtalabel8
.cc_bottom cc_52
.cc_top cc_53,.Lxtalabel9
	.ascii	"/Users/rkn/Documents/xTIMEcomposer/workspace/module_usb_device/src/usb_device.xc"
	.byte	0
	.long	98
	.long	98
	.long	.Lxtalabel9
.cc_bottom cc_53
.cc_top cc_54,.Lxtalabel2
	.ascii	"/Users/rkn/Documents/xTIMEcomposer/workspace/module_usb_device/src/usb_device.xc"
	.byte	0
	.long	98
	.long	98
	.long	.Lxtalabel2
.cc_bottom cc_54
.cc_top cc_55,.Lxtalabel0
	.ascii	"/Users/rkn/Documents/xTIMEcomposer/workspace/module_usb_device/src/usb_device.xc"
	.byte	0
	.long	98
	.long	98
	.long	.Lxtalabel0
.cc_bottom cc_55
.cc_top cc_56,.Lxtalabel9
	.ascii	"/Users/rkn/Documents/xTIMEcomposer/workspace/module_usb_device/src/usb_device.xc"
	.byte	0
	.long	101
	.long	101
	.long	.Lxtalabel9
.cc_bottom cc_56
.cc_top cc_57,.Lxtalabel1
	.ascii	"/Users/rkn/Documents/xTIMEcomposer/workspace/module_usb_device/src/usb_device.xc"
	.byte	0
	.long	101
	.long	101
	.long	.Lxtalabel1
.cc_bottom cc_57
.cc_top cc_58,.Lxtalabel20
	.ascii	"/Users/rkn/Documents/xTIMEcomposer/workspace/module_usb_device/src/usb_device.xc"
	.byte	0
	.long	101
	.long	101
	.long	.Lxtalabel20
.cc_bottom cc_58
.cc_top cc_59,.Lxtalabel33
	.ascii	"/Users/rkn/Documents/xTIMEcomposer/workspace/module_usb_device/src/usb_device.xc"
	.byte	0
	.long	101
	.long	101
	.long	.Lxtalabel33
.cc_bottom cc_59
.cc_top cc_60,.Lxtalabel8
	.ascii	"/Users/rkn/Documents/xTIMEcomposer/workspace/module_usb_device/src/usb_device.xc"
	.byte	0
	.long	101
	.long	101
	.long	.Lxtalabel8
.cc_bottom cc_60
.cc_top cc_61,.Lxtalabel2
	.ascii	"/Users/rkn/Documents/xTIMEcomposer/workspace/module_usb_device/src/usb_device.xc"
	.byte	0
	.long	101
	.long	101
	.long	.Lxtalabel2
.cc_bottom cc_61
.cc_top cc_62,.Lxtalabel0
	.ascii	"/Users/rkn/Documents/xTIMEcomposer/workspace/module_usb_device/src/usb_device.xc"
	.byte	0
	.long	101
	.long	101
	.long	.Lxtalabel0
.cc_bottom cc_62
.cc_top cc_63,.Lxtalabel1
	.ascii	"/Users/rkn/Documents/xTIMEcomposer/workspace/module_usb_device/src/usb_device.xc"
	.byte	0
	.long	103
	.long	104
	.long	.Lxtalabel1
.cc_bottom cc_63
.cc_top cc_64,.Lxtalabel0
	.ascii	"/Users/rkn/Documents/xTIMEcomposer/workspace/module_usb_device/src/usb_device.xc"
	.byte	0
	.long	103
	.long	104
	.long	.Lxtalabel0
.cc_bottom cc_64
.cc_top cc_65,.Lxtalabel9
	.ascii	"/Users/rkn/Documents/xTIMEcomposer/workspace/module_usb_device/src/usb_device.xc"
	.byte	0
	.long	103
	.long	104
	.long	.Lxtalabel9
.cc_bottom cc_65
.cc_top cc_66,.Lxtalabel8
	.ascii	"/Users/rkn/Documents/xTIMEcomposer/workspace/module_usb_device/src/usb_device.xc"
	.byte	0
	.long	103
	.long	104
	.long	.Lxtalabel8
.cc_bottom cc_66
.cc_top cc_67,.Lxtalabel33
	.ascii	"/Users/rkn/Documents/xTIMEcomposer/workspace/module_usb_device/src/usb_device.xc"
	.byte	0
	.long	103
	.long	104
	.long	.Lxtalabel33
.cc_bottom cc_67
.cc_top cc_68,.Lxtalabel20
	.ascii	"/Users/rkn/Documents/xTIMEcomposer/workspace/module_usb_device/src/usb_device.xc"
	.byte	0
	.long	103
	.long	104
	.long	.Lxtalabel20
.cc_bottom cc_68
.cc_top cc_69,.Lxtalabel2
	.ascii	"/Users/rkn/Documents/xTIMEcomposer/workspace/module_usb_device/src/usb_device.xc"
	.byte	0
	.long	103
	.long	104
	.long	.Lxtalabel2
.cc_bottom cc_69
.cc_top cc_70,.Lxtalabel2
	.ascii	"/Users/rkn/Documents/xTIMEcomposer/workspace/module_usb_device/src/usb_device.xc"
	.byte	0
	.long	106
	.long	106
	.long	.Lxtalabel2
.cc_bottom cc_70
.cc_top cc_71,.Lxtalabel0
	.ascii	"/Users/rkn/Documents/xTIMEcomposer/workspace/module_usb_device/src/usb_device.xc"
	.byte	0
	.long	106
	.long	106
	.long	.Lxtalabel0
.cc_bottom cc_71
.cc_top cc_72,.Lxtalabel33
	.ascii	"/Users/rkn/Documents/xTIMEcomposer/workspace/module_usb_device/src/usb_device.xc"
	.byte	0
	.long	106
	.long	106
	.long	.Lxtalabel33
.cc_bottom cc_72
.cc_top cc_73,.Lxtalabel20
	.ascii	"/Users/rkn/Documents/xTIMEcomposer/workspace/module_usb_device/src/usb_device.xc"
	.byte	0
	.long	106
	.long	106
	.long	.Lxtalabel20
.cc_bottom cc_73
.cc_top cc_74,.Lxtalabel9
	.ascii	"/Users/rkn/Documents/xTIMEcomposer/workspace/module_usb_device/src/usb_device.xc"
	.byte	0
	.long	106
	.long	106
	.long	.Lxtalabel9
.cc_bottom cc_74
.cc_top cc_75,.Lxtalabel8
	.ascii	"/Users/rkn/Documents/xTIMEcomposer/workspace/module_usb_device/src/usb_device.xc"
	.byte	0
	.long	106
	.long	106
	.long	.Lxtalabel8
.cc_bottom cc_75
.cc_top cc_76,.Lxtalabel1
	.ascii	"/Users/rkn/Documents/xTIMEcomposer/workspace/module_usb_device/src/usb_device.xc"
	.byte	0
	.long	106
	.long	106
	.long	.Lxtalabel1
.cc_bottom cc_76
.cc_top cc_77,.Lxtalabel16
	.ascii	"/Users/rkn/Documents/xTIMEcomposer/workspace/module_usb_device/src/usb_device.xc"
	.byte	0
	.long	109
	.long	110
	.long	.Lxtalabel16
.cc_bottom cc_77
.cc_top cc_78,.Lxtalabel42
	.ascii	"/Users/rkn/Documents/xTIMEcomposer/workspace/module_usb_device/src/usb_device.xc"
	.byte	0
	.long	109
	.long	110
	.long	.Lxtalabel42
.cc_bottom cc_78
.cc_top cc_79,.Lxtalabel15
	.ascii	"/Users/rkn/Documents/xTIMEcomposer/workspace/module_usb_device/src/usb_device.xc"
	.byte	0
	.long	109
	.long	110
	.long	.Lxtalabel15
.cc_bottom cc_79
.cc_top cc_80,.Lxtalabel16
	.ascii	"/Users/rkn/Documents/xTIMEcomposer/workspace/module_usb_device/src/usb_device.xc"
	.byte	0
	.long	112
	.long	112
	.long	.Lxtalabel16
.cc_bottom cc_80
.cc_top cc_81,.Lxtalabel42
	.ascii	"/Users/rkn/Documents/xTIMEcomposer/workspace/module_usb_device/src/usb_device.xc"
	.byte	0
	.long	112
	.long	112
	.long	.Lxtalabel42
.cc_bottom cc_81
.cc_top cc_82,.Lxtalabel15
	.ascii	"/Users/rkn/Documents/xTIMEcomposer/workspace/module_usb_device/src/usb_device.xc"
	.byte	0
	.long	112
	.long	112
	.long	.Lxtalabel15
.cc_bottom cc_82
.cc_top cc_83,.Lxtalabel16
	.ascii	"/Users/rkn/Documents/xTIMEcomposer/workspace/module_usb_device/src/usb_device.xc"
	.byte	0
	.long	119
	.long	119
	.long	.Lxtalabel16
.cc_bottom cc_83
.cc_top cc_84,.Lxtalabel15
	.ascii	"/Users/rkn/Documents/xTIMEcomposer/workspace/module_usb_device/src/usb_device.xc"
	.byte	0
	.long	119
	.long	119
	.long	.Lxtalabel15
.cc_bottom cc_84
.cc_top cc_85,.Lxtalabel42
	.ascii	"/Users/rkn/Documents/xTIMEcomposer/workspace/module_usb_device/src/usb_device.xc"
	.byte	0
	.long	119
	.long	119
	.long	.Lxtalabel42
.cc_bottom cc_85
.cc_top cc_86,.Lxtalabel16
	.ascii	"/Users/rkn/Documents/xTIMEcomposer/workspace/module_usb_device/src/usb_device.xc"
	.byte	0
	.long	123
	.long	123
	.long	.Lxtalabel16
.cc_bottom cc_86
.cc_top cc_87,.Lxtalabel42
	.ascii	"/Users/rkn/Documents/xTIMEcomposer/workspace/module_usb_device/src/usb_device.xc"
	.byte	0
	.long	123
	.long	123
	.long	.Lxtalabel42
.cc_bottom cc_87
.cc_top cc_88,.Lxtalabel15
	.ascii	"/Users/rkn/Documents/xTIMEcomposer/workspace/module_usb_device/src/usb_device.xc"
	.byte	0
	.long	123
	.long	123
	.long	.Lxtalabel15
.cc_bottom cc_88
.cc_top cc_89,.Lxtalabel17
	.ascii	"/Users/rkn/Documents/xTIMEcomposer/workspace/module_usb_device/src/usb_device.xc"
	.byte	0
	.long	125
	.long	125
	.long	.Lxtalabel17
.cc_bottom cc_89
.cc_top cc_90,.Lxtalabel18
	.ascii	"/Users/rkn/Documents/xTIMEcomposer/workspace/module_usb_device/src/usb_device.xc"
	.byte	0
	.long	126
	.long	127
	.long	.Lxtalabel18
.cc_bottom cc_90
.cc_top cc_91,.Lxtalabel18
	.ascii	"/Users/rkn/Documents/xTIMEcomposer/workspace/module_usb_device/src/usb_device.xc"
	.byte	0
	.long	130
	.long	130
	.long	.Lxtalabel18
.cc_bottom cc_91
.cc_top cc_92,.Lxtalabel18
	.ascii	"/Users/rkn/Documents/xTIMEcomposer/workspace/module_usb_device/src/usb_device.xc"
	.byte	0
	.long	131
	.long	133
	.long	.Lxtalabel18
.cc_bottom cc_92
.cc_top cc_93,.Lxtalabel19
	.ascii	"/Users/rkn/Documents/xTIMEcomposer/workspace/module_usb_device/src/usb_device.xc"
	.byte	0
	.long	137
	.long	142
	.long	.Lxtalabel19
.cc_bottom cc_93
.cc_top cc_94,.Lxtalabel19
	.ascii	"/Users/rkn/Documents/xTIMEcomposer/workspace/module_usb_device/src/usb_device.xc"
	.byte	0
	.long	145
	.long	145
	.long	.Lxtalabel19
.cc_bottom cc_94
.cc_top cc_95,.Lxtalabel19
	.ascii	"/Users/rkn/Documents/xTIMEcomposer/workspace/module_usb_device/src/usb_device.xc"
	.byte	0
	.long	147
	.long	147
	.long	.Lxtalabel19
.cc_bottom cc_95
.cc_top cc_96,.Lxtalabel18
	.ascii	"/Users/rkn/Documents/xTIMEcomposer/workspace/module_usb_device/src/usb_device.xc"
	.byte	0
	.long	148
	.long	148
	.long	.Lxtalabel18
.cc_bottom cc_96
.cc_top cc_97,.Lxtalabel18
	.ascii	"/Users/rkn/Documents/xTIMEcomposer/workspace/module_usb_device/src/usb_device.xc"
	.byte	0
	.long	151
	.long	151
	.long	.Lxtalabel18
.cc_bottom cc_97
.cc_top cc_98,.Lxtalabel43
	.ascii	"/Users/rkn/Documents/xTIMEcomposer/workspace/module_usb_device/src/usb_device.xc"
	.byte	0
	.long	153
	.long	153
	.long	.Lxtalabel43
.cc_bottom cc_98
.cc_top cc_99,.Lxtalabel44
	.ascii	"/Users/rkn/Documents/xTIMEcomposer/workspace/module_usb_device/src/usb_device.xc"
	.byte	0
	.long	154
	.long	154
	.long	.Lxtalabel44
.cc_bottom cc_99
.cc_top cc_100,.Lxtalabel44
	.ascii	"/Users/rkn/Documents/xTIMEcomposer/workspace/module_usb_device/src/usb_device.xc"
	.byte	0
	.long	163
	.long	163
	.long	.Lxtalabel44
.cc_bottom cc_100
.cc_top cc_101,.Lxtalabel45
	.ascii	"/Users/rkn/Documents/xTIMEcomposer/workspace/module_usb_device/src/usb_device.xc"
	.byte	0
	.long	164
	.long	166
	.long	.Lxtalabel45
.cc_bottom cc_101
.cc_top cc_102,.Lxtalabel45
	.ascii	"/Users/rkn/Documents/xTIMEcomposer/workspace/module_usb_device/src/usb_device.xc"
	.byte	0
	.long	168
	.long	168
	.long	.Lxtalabel45
.cc_bottom cc_102
.cc_top cc_103,.Lxtalabel46
	.ascii	"/Users/rkn/Documents/xTIMEcomposer/workspace/module_usb_device/src/usb_device.xc"
	.byte	0
	.long	169
	.long	171
	.long	.Lxtalabel46
.cc_bottom cc_103
.cc_top cc_104,.Lxtalabel47
	.ascii	"/Users/rkn/Documents/xTIMEcomposer/workspace/module_usb_device/src/usb_device.xc"
	.byte	0
	.long	177
	.long	177
	.long	.Lxtalabel47
.cc_bottom cc_104
.cc_top cc_105,.Lxtalabel47
	.ascii	"/Users/rkn/Documents/xTIMEcomposer/workspace/module_usb_device/src/usb_device.xc"
	.byte	0
	.long	180
	.long	181
	.long	.Lxtalabel47
.cc_bottom cc_105
.cc_top cc_106,.Lxtalabel44
	.ascii	"/Users/rkn/Documents/xTIMEcomposer/workspace/module_usb_device/src/usb_device.xc"
	.byte	0
	.long	182
	.long	182
	.long	.Lxtalabel44
.cc_bottom cc_106
.cc_top cc_107,.Lxtalabel44
	.ascii	"/Users/rkn/Documents/xTIMEcomposer/workspace/module_usb_device/src/usb_device.xc"
	.byte	0
	.long	185
	.long	185
	.long	.Lxtalabel44
.cc_bottom cc_107
.cc_top cc_108,.Lxtalabel16
	.ascii	"/Users/rkn/Documents/xTIMEcomposer/workspace/module_usb_device/src/usb_device.xc"
	.byte	0
	.long	190
	.long	190
	.long	.Lxtalabel16
.cc_bottom cc_108
.cc_top cc_109,.Lxtalabel42
	.ascii	"/Users/rkn/Documents/xTIMEcomposer/workspace/module_usb_device/src/usb_device.xc"
	.byte	0
	.long	190
	.long	190
	.long	.Lxtalabel42
.cc_bottom cc_109
.cc_top cc_110,.Lxtalabel15
	.ascii	"/Users/rkn/Documents/xTIMEcomposer/workspace/module_usb_device/src/usb_device.xc"
	.byte	0
	.long	190
	.long	190
	.long	.Lxtalabel15
.cc_bottom cc_110
.cc_top cc_111,.Lxtalabel42
	.ascii	"/Users/rkn/Documents/xTIMEcomposer/workspace/module_usb_device/src/usb_device.xc"
	.byte	0
	.long	193
	.long	193
	.long	.Lxtalabel42
.cc_bottom cc_111
.cc_top cc_112,.Lxtalabel16
	.ascii	"/Users/rkn/Documents/xTIMEcomposer/workspace/module_usb_device/src/usb_device.xc"
	.byte	0
	.long	193
	.long	193
	.long	.Lxtalabel16
.cc_bottom cc_112
.cc_top cc_113,.Lxtalabel15
	.ascii	"/Users/rkn/Documents/xTIMEcomposer/workspace/module_usb_device/src/usb_device.xc"
	.byte	0
	.long	193
	.long	193
	.long	.Lxtalabel15
.cc_bottom cc_113
.cc_top cc_114,.Lxtalabel39
	.ascii	"/Users/rkn/Documents/xTIMEcomposer/workspace/module_usb_device/src/usb_device.xc"
	.byte	0
	.long	195
	.long	195
	.long	.Lxtalabel39
.cc_bottom cc_114
.cc_top cc_115,.Lxtalabel82
	.ascii	"/Users/rkn/Documents/xTIMEcomposer/workspace/module_usb_device/src/usb_device.xc"
	.byte	0
	.long	196
	.long	196
	.long	.Lxtalabel82
.cc_bottom cc_115
.cc_top cc_116,.Lxtalabel83
	.ascii	"/Users/rkn/Documents/xTIMEcomposer/workspace/module_usb_device/src/usb_device.xc"
	.byte	0
	.long	196
	.long	196
	.long	.Lxtalabel83
.cc_bottom cc_116
.cc_top cc_117,.Lxtalabel98
	.ascii	"/Users/rkn/Documents/xTIMEcomposer/workspace/module_usb_device/src/usb_device.xc"
	.byte	0
	.long	196
	.long	196
	.long	.Lxtalabel98
.cc_bottom cc_117
.cc_top cc_118,.Lxtalabel99
	.ascii	"/Users/rkn/Documents/xTIMEcomposer/workspace/module_usb_device/src/usb_device.xc"
	.byte	0
	.long	196
	.long	196
	.long	.Lxtalabel99
.cc_bottom cc_118
.cc_top cc_119,.Lxtalabel96
	.ascii	"/Users/rkn/Documents/xTIMEcomposer/workspace/module_usb_device/src/usb_device.xc"
	.byte	0
	.long	196
	.long	196
	.long	.Lxtalabel96
.cc_bottom cc_119
.cc_top cc_120,.Lxtalabel97
	.ascii	"/Users/rkn/Documents/xTIMEcomposer/workspace/module_usb_device/src/usb_device.xc"
	.byte	0
	.long	196
	.long	196
	.long	.Lxtalabel97
.cc_bottom cc_120
.cc_top cc_121,.Lxtalabel41
	.ascii	"/Users/rkn/Documents/xTIMEcomposer/workspace/module_usb_device/src/usb_device.xc"
	.byte	0
	.long	196
	.long	196
	.long	.Lxtalabel41
.cc_bottom cc_121
.cc_top cc_122,.Lxtalabel40
	.ascii	"/Users/rkn/Documents/xTIMEcomposer/workspace/module_usb_device/src/usb_device.xc"
	.byte	0
	.long	196
	.long	196
	.long	.Lxtalabel40
.cc_bottom cc_122
.cc_top cc_123,.Lxtalabel96
	.ascii	"/Users/rkn/Documents/xTIMEcomposer/workspace/module_usb_device/src/usb_device.xc"
	.byte	0
	.long	198
	.long	200
	.long	.Lxtalabel96
.cc_bottom cc_123
.cc_top cc_124,.Lxtalabel82
	.ascii	"/Users/rkn/Documents/xTIMEcomposer/workspace/module_usb_device/src/usb_device.xc"
	.byte	0
	.long	198
	.long	200
	.long	.Lxtalabel82
.cc_bottom cc_124
.cc_top cc_125,.Lxtalabel83
	.ascii	"/Users/rkn/Documents/xTIMEcomposer/workspace/module_usb_device/src/usb_device.xc"
	.byte	0
	.long	198
	.long	200
	.long	.Lxtalabel83
.cc_bottom cc_125
.cc_top cc_126,.Lxtalabel98
	.ascii	"/Users/rkn/Documents/xTIMEcomposer/workspace/module_usb_device/src/usb_device.xc"
	.byte	0
	.long	198
	.long	200
	.long	.Lxtalabel98
.cc_bottom cc_126
.cc_top cc_127,.Lxtalabel97
	.ascii	"/Users/rkn/Documents/xTIMEcomposer/workspace/module_usb_device/src/usb_device.xc"
	.byte	0
	.long	198
	.long	200
	.long	.Lxtalabel97
.cc_bottom cc_127
.cc_top cc_128,.Lxtalabel99
	.ascii	"/Users/rkn/Documents/xTIMEcomposer/workspace/module_usb_device/src/usb_device.xc"
	.byte	0
	.long	198
	.long	200
	.long	.Lxtalabel99
.cc_bottom cc_128
.cc_top cc_129,.Lxtalabel41
	.ascii	"/Users/rkn/Documents/xTIMEcomposer/workspace/module_usb_device/src/usb_device.xc"
	.byte	0
	.long	198
	.long	200
	.long	.Lxtalabel41
.cc_bottom cc_129
.cc_top cc_130,.Lxtalabel40
	.ascii	"/Users/rkn/Documents/xTIMEcomposer/workspace/module_usb_device/src/usb_device.xc"
	.byte	0
	.long	198
	.long	200
	.long	.Lxtalabel40
.cc_bottom cc_130
.cc_top cc_131,.Lxtalabel41
	.ascii	"/Users/rkn/Documents/xTIMEcomposer/workspace/module_usb_device/src/usb_device.xc"
	.byte	0
	.long	201
	.long	201
	.long	.Lxtalabel41
.cc_bottom cc_131
.cc_top cc_132,.Lxtalabel82
	.ascii	"/Users/rkn/Documents/xTIMEcomposer/workspace/module_usb_device/src/usb_device.xc"
	.byte	0
	.long	201
	.long	201
	.long	.Lxtalabel82
.cc_bottom cc_132
.cc_top cc_133,.Lxtalabel96
	.ascii	"/Users/rkn/Documents/xTIMEcomposer/workspace/module_usb_device/src/usb_device.xc"
	.byte	0
	.long	201
	.long	201
	.long	.Lxtalabel96
.cc_bottom cc_133
.cc_top cc_134,.Lxtalabel99
	.ascii	"/Users/rkn/Documents/xTIMEcomposer/workspace/module_usb_device/src/usb_device.xc"
	.byte	0
	.long	201
	.long	201
	.long	.Lxtalabel99
.cc_bottom cc_134
.cc_top cc_135,.Lxtalabel97
	.ascii	"/Users/rkn/Documents/xTIMEcomposer/workspace/module_usb_device/src/usb_device.xc"
	.byte	0
	.long	201
	.long	201
	.long	.Lxtalabel97
.cc_bottom cc_135
.cc_top cc_136,.Lxtalabel98
	.ascii	"/Users/rkn/Documents/xTIMEcomposer/workspace/module_usb_device/src/usb_device.xc"
	.byte	0
	.long	201
	.long	201
	.long	.Lxtalabel98
.cc_bottom cc_136
.cc_top cc_137,.Lxtalabel40
	.ascii	"/Users/rkn/Documents/xTIMEcomposer/workspace/module_usb_device/src/usb_device.xc"
	.byte	0
	.long	201
	.long	201
	.long	.Lxtalabel40
.cc_bottom cc_137
.cc_top cc_138,.Lxtalabel83
	.ascii	"/Users/rkn/Documents/xTIMEcomposer/workspace/module_usb_device/src/usb_device.xc"
	.byte	0
	.long	201
	.long	201
	.long	.Lxtalabel83
.cc_bottom cc_138
.cc_top cc_139,.Lxtalabel100
	.ascii	"/Users/rkn/Documents/xTIMEcomposer/workspace/module_usb_device/src/usb_device.xc"
	.byte	0
	.long	205
	.long	207
	.long	.Lxtalabel100
.cc_bottom cc_139
.cc_top cc_140,.Lxtalabel100
	.ascii	"/Users/rkn/Documents/xTIMEcomposer/workspace/module_usb_device/src/usb_device.xc"
	.byte	0
	.long	208
	.long	208
	.long	.Lxtalabel100
.cc_bottom cc_140
.cc_top cc_141,.Lxtalabel101
	.ascii	"/Users/rkn/Documents/xTIMEcomposer/workspace/module_usb_device/src/usb_device.xc"
	.byte	0
	.long	210
	.long	213
	.long	.Lxtalabel101
.cc_bottom cc_141
.cc_top cc_142,.Lxtalabel26
	.ascii	"/Users/rkn/Documents/xTIMEcomposer/workspace/module_usb_device/src/usb_device.xc"
	.byte	0
	.long	222
	.long	223
	.long	.Lxtalabel26
.cc_bottom cc_142
.cc_top cc_143,.Lxtalabel25
	.ascii	"/Users/rkn/Documents/xTIMEcomposer/workspace/module_usb_device/src/usb_device.xc"
	.byte	0
	.long	222
	.long	223
	.long	.Lxtalabel25
.cc_bottom cc_143
.cc_top cc_144,.Lxtalabel49
	.ascii	"/Users/rkn/Documents/xTIMEcomposer/workspace/module_usb_device/src/usb_device.xc"
	.byte	0
	.long	222
	.long	223
	.long	.Lxtalabel49
.cc_bottom cc_144
.cc_top cc_145,.Lxtalabel49
	.ascii	"/Users/rkn/Documents/xTIMEcomposer/workspace/module_usb_device/src/usb_device.xc"
	.byte	0
	.long	225
	.long	225
	.long	.Lxtalabel49
.cc_bottom cc_145
.cc_top cc_146,.Lxtalabel26
	.ascii	"/Users/rkn/Documents/xTIMEcomposer/workspace/module_usb_device/src/usb_device.xc"
	.byte	0
	.long	225
	.long	225
	.long	.Lxtalabel26
.cc_bottom cc_146
.cc_top cc_147,.Lxtalabel25
	.ascii	"/Users/rkn/Documents/xTIMEcomposer/workspace/module_usb_device/src/usb_device.xc"
	.byte	0
	.long	225
	.long	225
	.long	.Lxtalabel25
.cc_bottom cc_147
.cc_top cc_148,.Lxtalabel48
	.ascii	"/Users/rkn/Documents/xTIMEcomposer/workspace/module_usb_device/src/usb_device.xc"
	.byte	0
	.long	228
	.long	228
	.long	.Lxtalabel48
.cc_bottom cc_148
.cc_top cc_149,.Lxtalabel48
	.ascii	"/Users/rkn/Documents/xTIMEcomposer/workspace/module_usb_device/src/usb_device.xc"
	.byte	0
	.long	231
	.long	231
	.long	.Lxtalabel48
.cc_bottom cc_149
.cc_top cc_150,.Lxtalabel48
	.ascii	"/Users/rkn/Documents/xTIMEcomposer/workspace/module_usb_device/src/usb_device.xc"
	.byte	0
	.long	236
	.long	236
	.long	.Lxtalabel48
.cc_bottom cc_150
.cc_top cc_151,.Lxtalabel48
	.ascii	"/Users/rkn/Documents/xTIMEcomposer/workspace/module_usb_device/src/usb_device.xc"
	.byte	0
	.long	239
	.long	239
	.long	.Lxtalabel48
.cc_bottom cc_151
.cc_top cc_152,.Lxtalabel50
	.ascii	"/Users/rkn/Documents/xTIMEcomposer/workspace/module_usb_device/src/usb_device.xc"
	.byte	0
	.long	242
	.long	242
	.long	.Lxtalabel50
.cc_bottom cc_152
.cc_top cc_153,.Lxtalabel51
	.ascii	"/Users/rkn/Documents/xTIMEcomposer/workspace/module_usb_device/src/usb_device.xc"
	.byte	0
	.long	243
	.long	246
	.long	.Lxtalabel51
.cc_bottom cc_153
.cc_top cc_154,.Lxtalabel51
	.ascii	"/Users/rkn/Documents/xTIMEcomposer/workspace/module_usb_device/src/usb_device.xc"
	.byte	0
	.long	247
	.long	247
	.long	.Lxtalabel51
.cc_bottom cc_154
.cc_top cc_155,.Lxtalabel51
	.ascii	"/Users/rkn/Documents/xTIMEcomposer/workspace/module_usb_device/src/usb_device.xc"
	.byte	0
	.long	250
	.long	250
	.long	.Lxtalabel51
.cc_bottom cc_155
.cc_top cc_156,.Lxtalabel59
	.ascii	"/Users/rkn/Documents/xTIMEcomposer/workspace/module_usb_device/src/usb_device.xc"
	.byte	0
	.long	253
	.long	254
	.long	.Lxtalabel59
.cc_bottom cc_156
.cc_top cc_157,.Lxtalabel27
	.ascii	"/Users/rkn/Documents/xTIMEcomposer/workspace/module_usb_device/src/usb_device.xc"
	.byte	0
	.long	253
	.long	254
	.long	.Lxtalabel27
.cc_bottom cc_157
.cc_top cc_158,.Lxtalabel58
	.ascii	"/Users/rkn/Documents/xTIMEcomposer/workspace/module_usb_device/src/usb_device.xc"
	.byte	0
	.long	253
	.long	254
	.long	.Lxtalabel58
.cc_bottom cc_158
.cc_top cc_159,.Lxtalabel28
	.ascii	"/Users/rkn/Documents/xTIMEcomposer/workspace/module_usb_device/src/usb_device.xc"
	.byte	0
	.long	253
	.long	254
	.long	.Lxtalabel28
.cc_bottom cc_159
.cc_top cc_160,.Lxtalabel71
	.ascii	"/Users/rkn/Documents/xTIMEcomposer/workspace/module_usb_device/src/usb_device.xc"
	.byte	0
	.long	253
	.long	254
	.long	.Lxtalabel71
.cc_bottom cc_160
.cc_top cc_161,.Lxtalabel88
	.ascii	"/Users/rkn/Documents/xTIMEcomposer/workspace/module_usb_device/src/usb_device.xc"
	.byte	0
	.long	253
	.long	254
	.long	.Lxtalabel88
.cc_bottom cc_161
.cc_top cc_162,.Lxtalabel70
	.ascii	"/Users/rkn/Documents/xTIMEcomposer/workspace/module_usb_device/src/usb_device.xc"
	.byte	0
	.long	253
	.long	254
	.long	.Lxtalabel70
.cc_bottom cc_162
.cc_top cc_163,.Lxtalabel58
	.ascii	"/Users/rkn/Documents/xTIMEcomposer/workspace/module_usb_device/src/usb_device.xc"
	.byte	0
	.long	256
	.long	256
	.long	.Lxtalabel58
.cc_bottom cc_163
.cc_top cc_164,.Lxtalabel88
	.ascii	"/Users/rkn/Documents/xTIMEcomposer/workspace/module_usb_device/src/usb_device.xc"
	.byte	0
	.long	256
	.long	256
	.long	.Lxtalabel88
.cc_bottom cc_164
.cc_top cc_165,.Lxtalabel70
	.ascii	"/Users/rkn/Documents/xTIMEcomposer/workspace/module_usb_device/src/usb_device.xc"
	.byte	0
	.long	256
	.long	256
	.long	.Lxtalabel70
.cc_bottom cc_165
.cc_top cc_166,.Lxtalabel28
	.ascii	"/Users/rkn/Documents/xTIMEcomposer/workspace/module_usb_device/src/usb_device.xc"
	.byte	0
	.long	256
	.long	256
	.long	.Lxtalabel28
.cc_bottom cc_166
.cc_top cc_167,.Lxtalabel59
	.ascii	"/Users/rkn/Documents/xTIMEcomposer/workspace/module_usb_device/src/usb_device.xc"
	.byte	0
	.long	256
	.long	256
	.long	.Lxtalabel59
.cc_bottom cc_167
.cc_top cc_168,.Lxtalabel71
	.ascii	"/Users/rkn/Documents/xTIMEcomposer/workspace/module_usb_device/src/usb_device.xc"
	.byte	0
	.long	256
	.long	256
	.long	.Lxtalabel71
.cc_bottom cc_168
.cc_top cc_169,.Lxtalabel27
	.ascii	"/Users/rkn/Documents/xTIMEcomposer/workspace/module_usb_device/src/usb_device.xc"
	.byte	0
	.long	256
	.long	256
	.long	.Lxtalabel27
.cc_bottom cc_169
.cc_top cc_170,.Lxtalabel29
	.ascii	"/Users/rkn/Documents/xTIMEcomposer/workspace/module_usb_device/src/usb_device.xc"
	.byte	0
	.long	259
	.long	259
	.long	.Lxtalabel29
.cc_bottom cc_170
.cc_top cc_171,.Lxtalabel31
	.ascii	"/Users/rkn/Documents/xTIMEcomposer/workspace/module_usb_device/src/usb_device.xc"
	.byte	0
	.long	260
	.long	261
	.long	.Lxtalabel31
.cc_bottom cc_171
.cc_top cc_172,.Lxtalabel30
	.ascii	"/Users/rkn/Documents/xTIMEcomposer/workspace/module_usb_device/src/usb_device.xc"
	.byte	0
	.long	260
	.long	261
	.long	.Lxtalabel30
.cc_bottom cc_172
.cc_top cc_173,.Lxtalabel32
	.ascii	"/Users/rkn/Documents/xTIMEcomposer/workspace/module_usb_device/src/usb_device.xc"
	.byte	0
	.long	262
	.long	262
	.long	.Lxtalabel32
.cc_bottom cc_173
.cc_top cc_174,.Lxtalabel32
	.ascii	"/Users/rkn/Documents/xTIMEcomposer/workspace/module_usb_device/src/usb_device.xc"
	.byte	0
	.long	264
	.long	265
	.long	.Lxtalabel32
.cc_bottom cc_174
.cc_top cc_175,.Lxtalabel94
	.ascii	"/Users/rkn/Documents/xTIMEcomposer/workspace/module_usb_device/src/usb_device.xc"
	.byte	0
	.long	266
	.long	266
	.long	.Lxtalabel94
.cc_bottom cc_175
.cc_top cc_176,.Lxtalabel95
	.ascii	"/Users/rkn/Documents/xTIMEcomposer/workspace/module_usb_device/src/usb_device.xc"
	.byte	0
	.long	267
	.long	267
	.long	.Lxtalabel95
.cc_bottom cc_176
.cc_top cc_177,.Lxtalabel95
	.ascii	"/Users/rkn/Documents/xTIMEcomposer/workspace/module_usb_device/src/usb_device.xc"
	.byte	0
	.long	270
	.long	271
	.long	.Lxtalabel95
.cc_bottom cc_177
.cc_top cc_178,.Lxtalabel94
	.ascii	"/Users/rkn/Documents/xTIMEcomposer/workspace/module_usb_device/src/usb_device.xc"
	.byte	0
	.long	272
	.long	272
	.long	.Lxtalabel94
.cc_bottom cc_178
.cc_top cc_179,.Lxtalabel61
	.ascii	"/Users/rkn/Documents/xTIMEcomposer/workspace/module_usb_device/src/usb_device.xc"
	.byte	0
	.long	281
	.long	282
	.long	.Lxtalabel61
.cc_bottom cc_179
.cc_top cc_180,.Lxtalabel60
	.ascii	"/Users/rkn/Documents/xTIMEcomposer/workspace/module_usb_device/src/usb_device.xc"
	.byte	0
	.long	281
	.long	282
	.long	.Lxtalabel60
.cc_bottom cc_180
.cc_top cc_181,.Lxtalabel62
	.ascii	"/Users/rkn/Documents/xTIMEcomposer/workspace/module_usb_device/src/usb_device.xc"
	.byte	0
	.long	283
	.long	283
	.long	.Lxtalabel62
.cc_bottom cc_181
.cc_top cc_182,.Lxtalabel62
	.ascii	"/Users/rkn/Documents/xTIMEcomposer/workspace/module_usb_device/src/usb_device.xc"
	.byte	0
	.long	285
	.long	287
	.long	.Lxtalabel62
.cc_bottom cc_182
.cc_top cc_183,.Lxtalabel92
	.ascii	"/Users/rkn/Documents/xTIMEcomposer/workspace/module_usb_device/src/usb_device.xc"
	.byte	0
	.long	288
	.long	288
	.long	.Lxtalabel92
.cc_bottom cc_183
.cc_top cc_184,.Lxtalabel93
	.ascii	"/Users/rkn/Documents/xTIMEcomposer/workspace/module_usb_device/src/usb_device.xc"
	.byte	0
	.long	289
	.long	289
	.long	.Lxtalabel93
.cc_bottom cc_184
.cc_top cc_185,.Lxtalabel93
	.ascii	"/Users/rkn/Documents/xTIMEcomposer/workspace/module_usb_device/src/usb_device.xc"
	.byte	0
	.long	291
	.long	293
	.long	.Lxtalabel93
.cc_bottom cc_185
.cc_top cc_186,.Lxtalabel92
	.ascii	"/Users/rkn/Documents/xTIMEcomposer/workspace/module_usb_device/src/usb_device.xc"
	.byte	0
	.long	294
	.long	295
	.long	.Lxtalabel92
.cc_bottom cc_186
.cc_top cc_187,.Lxtalabel92
	.ascii	"/Users/rkn/Documents/xTIMEcomposer/workspace/module_usb_device/src/usb_device.xc"
	.byte	0
	.long	298
	.long	298
	.long	.Lxtalabel92
.cc_bottom cc_187
.cc_top cc_188,.Lxtalabel72
	.ascii	"/Users/rkn/Documents/xTIMEcomposer/workspace/module_usb_device/src/usb_device.xc"
	.byte	0
	.long	300
	.long	300
	.long	.Lxtalabel72
.cc_bottom cc_188
.cc_top cc_189,.Lxtalabel74
	.ascii	"/Users/rkn/Documents/xTIMEcomposer/workspace/module_usb_device/src/usb_device.xc"
	.byte	0
	.long	301
	.long	301
	.long	.Lxtalabel74
.cc_bottom cc_189
.cc_top cc_190,.Lxtalabel73
	.ascii	"/Users/rkn/Documents/xTIMEcomposer/workspace/module_usb_device/src/usb_device.xc"
	.byte	0
	.long	301
	.long	301
	.long	.Lxtalabel73
.cc_bottom cc_190
.cc_top cc_191,.Lxtalabel74
	.ascii	"/Users/rkn/Documents/xTIMEcomposer/workspace/module_usb_device/src/usb_device.xc"
	.byte	0
	.long	303
	.long	303
	.long	.Lxtalabel74
.cc_bottom cc_191
.cc_top cc_192,.Lxtalabel73
	.ascii	"/Users/rkn/Documents/xTIMEcomposer/workspace/module_usb_device/src/usb_device.xc"
	.byte	0
	.long	303
	.long	303
	.long	.Lxtalabel73
.cc_bottom cc_192
.cc_top cc_193,.Lxtalabel74
	.ascii	"/Users/rkn/Documents/xTIMEcomposer/workspace/module_usb_device/src/usb_device.xc"
	.byte	0
	.long	305
	.long	305
	.long	.Lxtalabel74
.cc_bottom cc_193
.cc_top cc_194,.Lxtalabel73
	.ascii	"/Users/rkn/Documents/xTIMEcomposer/workspace/module_usb_device/src/usb_device.xc"
	.byte	0
	.long	305
	.long	305
	.long	.Lxtalabel73
.cc_bottom cc_194
.cc_top cc_195,.Lxtalabel75
	.ascii	"/Users/rkn/Documents/xTIMEcomposer/workspace/module_usb_device/src/usb_device.xc"
	.byte	0
	.long	306
	.long	306
	.long	.Lxtalabel75
.cc_bottom cc_195
.cc_top cc_196,.Lxtalabel75
	.ascii	"/Users/rkn/Documents/xTIMEcomposer/workspace/module_usb_device/src/usb_device.xc"
	.byte	0
	.long	308
	.long	317
	.long	.Lxtalabel75
.cc_bottom cc_196
.cc_top cc_197,.Lxtalabel75
	.ascii	"/Users/rkn/Documents/xTIMEcomposer/workspace/module_usb_device/src/usb_device.xc"
	.byte	0
	.long	320
	.long	321
	.long	.Lxtalabel75
.cc_bottom cc_197
.cc_top cc_198,.Lxtalabel106
	.ascii	"/Users/rkn/Documents/xTIMEcomposer/workspace/module_usb_device/src/usb_device.xc"
	.byte	0
	.long	322
	.long	322
	.long	.Lxtalabel106
.cc_bottom cc_198
.cc_top cc_199,.Lxtalabel107
	.ascii	"/Users/rkn/Documents/xTIMEcomposer/workspace/module_usb_device/src/usb_device.xc"
	.byte	0
	.long	323
	.long	323
	.long	.Lxtalabel107
.cc_bottom cc_199
.cc_top cc_200,.Lxtalabel107
	.ascii	"/Users/rkn/Documents/xTIMEcomposer/workspace/module_usb_device/src/usb_device.xc"
	.byte	0
	.long	325
	.long	334
	.long	.Lxtalabel107
.cc_bottom cc_200
.cc_top cc_201,.Lxtalabel107
	.ascii	"/Users/rkn/Documents/xTIMEcomposer/workspace/module_usb_device/src/usb_device.xc"
	.byte	0
	.long	337
	.long	338
	.long	.Lxtalabel107
.cc_bottom cc_201
.cc_top cc_202,.Lxtalabel106
	.ascii	"/Users/rkn/Documents/xTIMEcomposer/workspace/module_usb_device/src/usb_device.xc"
	.byte	0
	.long	342
	.long	342
	.long	.Lxtalabel106
.cc_bottom cc_202
.cc_top cc_203,.Lxtalabel89
	.ascii	"/Users/rkn/Documents/xTIMEcomposer/workspace/module_usb_device/src/usb_device.xc"
	.byte	0
	.long	350
	.long	351
	.long	.Lxtalabel89
.cc_bottom cc_203
.cc_top cc_204,.Lxtalabel90
	.ascii	"/Users/rkn/Documents/xTIMEcomposer/workspace/module_usb_device/src/usb_device.xc"
	.byte	0
	.long	350
	.long	351
	.long	.Lxtalabel90
.cc_bottom cc_204
.cc_top cc_205,.Lxtalabel91
	.ascii	"/Users/rkn/Documents/xTIMEcomposer/workspace/module_usb_device/src/usb_device.xc"
	.byte	0
	.long	352
	.long	355
	.long	.Lxtalabel91
.cc_bottom cc_205
.cc_top cc_206,.Lxtalabel104
	.ascii	"/Users/rkn/Documents/xTIMEcomposer/workspace/module_usb_device/src/usb_device.xc"
	.byte	0
	.long	356
	.long	356
	.long	.Lxtalabel104
.cc_bottom cc_206
.cc_top cc_207,.Lxtalabel105
	.ascii	"/Users/rkn/Documents/xTIMEcomposer/workspace/module_usb_device/src/usb_device.xc"
	.byte	0
	.long	357
	.long	360
	.long	.Lxtalabel105
.cc_bottom cc_207
.cc_top cc_208,.Lxtalabel104
	.ascii	"/Users/rkn/Documents/xTIMEcomposer/workspace/module_usb_device/src/usb_device.xc"
	.byte	0
	.long	364
	.long	365
	.long	.Lxtalabel104
.cc_bottom cc_208
.cc_top cc_209,.Lxtalabel104
	.ascii	"/Users/rkn/Documents/xTIMEcomposer/workspace/module_usb_device/src/usb_device.xc"
	.byte	0
	.long	368
	.long	368
	.long	.Lxtalabel104
.cc_bottom cc_209
.cc_top cc_210,.Lxtalabel84
	.ascii	"/Users/rkn/Documents/xTIMEcomposer/workspace/module_usb_device/src/usb_device.xc"
	.byte	0
	.long	371
	.long	371
	.long	.Lxtalabel84
.cc_bottom cc_210
.cc_top cc_211,.Lxtalabel84
	.ascii	"/Users/rkn/Documents/xTIMEcomposer/workspace/module_usb_device/src/usb_device.xc"
	.byte	0
	.long	375
	.long	375
	.long	.Lxtalabel84
.cc_bottom cc_211
.cc_top cc_212,.Lxtalabel84
	.ascii	"/Users/rkn/Documents/xTIMEcomposer/workspace/module_usb_device/src/usb_device.xc"
	.byte	0
	.long	378
	.long	378
	.long	.Lxtalabel84
.cc_bottom cc_212
.cc_top cc_213,.Lxtalabel85
	.ascii	"/Users/rkn/Documents/xTIMEcomposer/workspace/module_usb_device/src/usb_device.xc"
	.byte	0
	.long	379
	.long	382
	.long	.Lxtalabel85
.cc_bottom cc_213
.cc_top cc_214,.Lxtalabel85
	.ascii	"/Users/rkn/Documents/xTIMEcomposer/workspace/module_usb_device/src/usb_device.xc"
	.byte	0
	.long	385
	.long	385
	.long	.Lxtalabel85
.cc_bottom cc_214
.cc_top cc_215,.Lxtalabel113
	.ascii	"/Users/rkn/Documents/xTIMEcomposer/workspace/module_usb_device/src/usb_device.xc"
	.byte	0
	.long	386
	.long	388
	.long	.Lxtalabel113
.cc_bottom cc_215
.cc_top cc_216,.Lxtalabel110
	.ascii	"/Users/rkn/Documents/xTIMEcomposer/workspace/module_usb_device/src/usb_device.xc"
	.byte	0
	.long	386
	.long	388
	.long	.Lxtalabel110
.cc_bottom cc_216
.cc_top cc_217,.Lxtalabel109
	.ascii	"/Users/rkn/Documents/xTIMEcomposer/workspace/module_usb_device/src/usb_device.xc"
	.byte	0
	.long	386
	.long	388
	.long	.Lxtalabel109
.cc_bottom cc_217
.cc_top cc_218,.Lxtalabel109
	.ascii	"/Users/rkn/Documents/xTIMEcomposer/workspace/module_usb_device/src/usb_device.xc"
	.byte	0
	.long	389
	.long	391
	.long	.Lxtalabel109
.cc_bottom cc_218
.cc_top cc_219,.Lxtalabel110
	.ascii	"/Users/rkn/Documents/xTIMEcomposer/workspace/module_usb_device/src/usb_device.xc"
	.byte	0
	.long	389
	.long	391
	.long	.Lxtalabel110
.cc_bottom cc_219
.cc_top cc_220,.Lxtalabel113
	.ascii	"/Users/rkn/Documents/xTIMEcomposer/workspace/module_usb_device/src/usb_device.xc"
	.byte	0
	.long	389
	.long	391
	.long	.Lxtalabel113
.cc_bottom cc_220
.cc_top cc_221,.Lxtalabel109
	.ascii	"/Users/rkn/Documents/xTIMEcomposer/workspace/module_usb_device/src/usb_device.xc"
	.byte	0
	.long	392
	.long	392
	.long	.Lxtalabel109
.cc_bottom cc_221
.cc_top cc_222,.Lxtalabel113
	.ascii	"/Users/rkn/Documents/xTIMEcomposer/workspace/module_usb_device/src/usb_device.xc"
	.byte	0
	.long	392
	.long	392
	.long	.Lxtalabel113
.cc_bottom cc_222
.cc_top cc_223,.Lxtalabel110
	.ascii	"/Users/rkn/Documents/xTIMEcomposer/workspace/module_usb_device/src/usb_device.xc"
	.byte	0
	.long	392
	.long	392
	.long	.Lxtalabel110
.cc_bottom cc_223
.cc_top cc_224,.Lxtalabel87
	.ascii	"/Users/rkn/Documents/xTIMEcomposer/workspace/module_usb_device/src/usb_device.xc"
	.byte	0
	.long	397
	.long	398
	.long	.Lxtalabel87
.cc_bottom cc_224
.cc_top cc_225,.Lxtalabel111
	.ascii	"/Users/rkn/Documents/xTIMEcomposer/workspace/module_usb_device/src/usb_device.xc"
	.byte	0
	.long	397
	.long	398
	.long	.Lxtalabel111
.cc_bottom cc_225
.cc_top cc_226,.Lxtalabel86
	.ascii	"/Users/rkn/Documents/xTIMEcomposer/workspace/module_usb_device/src/usb_device.xc"
	.byte	0
	.long	397
	.long	398
	.long	.Lxtalabel86
.cc_bottom cc_226
.cc_top cc_227,.Lxtalabel86
	.ascii	"/Users/rkn/Documents/xTIMEcomposer/workspace/module_usb_device/src/usb_device.xc"
	.byte	0
	.long	400
	.long	400
	.long	.Lxtalabel86
.cc_bottom cc_227
.cc_top cc_228,.Lxtalabel87
	.ascii	"/Users/rkn/Documents/xTIMEcomposer/workspace/module_usb_device/src/usb_device.xc"
	.byte	0
	.long	400
	.long	400
	.long	.Lxtalabel87
.cc_bottom cc_228
.cc_top cc_229,.Lxtalabel111
	.ascii	"/Users/rkn/Documents/xTIMEcomposer/workspace/module_usb_device/src/usb_device.xc"
	.byte	0
	.long	400
	.long	400
	.long	.Lxtalabel111
.cc_bottom cc_229
.cc_top cc_230,.Lxtalabel111
	.ascii	"/Users/rkn/Documents/xTIMEcomposer/workspace/module_usb_device/src/usb_device.xc"
	.byte	0
	.long	403
	.long	403
	.long	.Lxtalabel111
.cc_bottom cc_230
.cc_top cc_231,.Lxtalabel87
	.ascii	"/Users/rkn/Documents/xTIMEcomposer/workspace/module_usb_device/src/usb_device.xc"
	.byte	0
	.long	403
	.long	403
	.long	.Lxtalabel87
.cc_bottom cc_231
.cc_top cc_232,.Lxtalabel86
	.ascii	"/Users/rkn/Documents/xTIMEcomposer/workspace/module_usb_device/src/usb_device.xc"
	.byte	0
	.long	403
	.long	403
	.long	.Lxtalabel86
.cc_bottom cc_232
.cc_top cc_233,.Lxtalabel87
	.ascii	"/Users/rkn/Documents/xTIMEcomposer/workspace/module_usb_device/src/usb_device.xc"
	.byte	0
	.long	405
	.long	405
	.long	.Lxtalabel87
.cc_bottom cc_233
.cc_top cc_234,.Lxtalabel111
	.ascii	"/Users/rkn/Documents/xTIMEcomposer/workspace/module_usb_device/src/usb_device.xc"
	.byte	0
	.long	405
	.long	405
	.long	.Lxtalabel111
.cc_bottom cc_234
.cc_top cc_235,.Lxtalabel86
	.ascii	"/Users/rkn/Documents/xTIMEcomposer/workspace/module_usb_device/src/usb_device.xc"
	.byte	0
	.long	405
	.long	405
	.long	.Lxtalabel86
.cc_bottom cc_235
.cc_top cc_236,.Lxtalabel86
	.ascii	"/Users/rkn/Documents/xTIMEcomposer/workspace/module_usb_device/src/usb_device.xc"
	.byte	0
	.long	406
	.long	408
	.long	.Lxtalabel86
.cc_bottom cc_236
.cc_top cc_237,.Lxtalabel87
	.ascii	"/Users/rkn/Documents/xTIMEcomposer/workspace/module_usb_device/src/usb_device.xc"
	.byte	0
	.long	406
	.long	408
	.long	.Lxtalabel87
.cc_bottom cc_237
.cc_top cc_238,.Lxtalabel111
	.ascii	"/Users/rkn/Documents/xTIMEcomposer/workspace/module_usb_device/src/usb_device.xc"
	.byte	0
	.long	406
	.long	408
	.long	.Lxtalabel111
.cc_bottom cc_238
.cc_top cc_239,.Lxtalabel86
	.ascii	"/Users/rkn/Documents/xTIMEcomposer/workspace/module_usb_device/src/usb_device.xc"
	.byte	0
	.long	410
	.long	410
	.long	.Lxtalabel86
.cc_bottom cc_239
.cc_top cc_240,.Lxtalabel87
	.ascii	"/Users/rkn/Documents/xTIMEcomposer/workspace/module_usb_device/src/usb_device.xc"
	.byte	0
	.long	410
	.long	410
	.long	.Lxtalabel87
.cc_bottom cc_240
.cc_top cc_241,.Lxtalabel111
	.ascii	"/Users/rkn/Documents/xTIMEcomposer/workspace/module_usb_device/src/usb_device.xc"
	.byte	0
	.long	410
	.long	410
	.long	.Lxtalabel111
.cc_bottom cc_241
.cc_top cc_242,.Lxtalabel112
	.ascii	"/Users/rkn/Documents/xTIMEcomposer/workspace/module_usb_device/src/usb_device.xc"
	.byte	0
	.long	411
	.long	414
	.long	.Lxtalabel112
.cc_bottom cc_242
.cc_top cc_243,.Lxtalabel114
	.ascii	"/Users/rkn/Documents/xTIMEcomposer/workspace/module_usb_device/src/usb_device.xc"
	.byte	0
	.long	416
	.long	416
	.long	.Lxtalabel114
.cc_bottom cc_243
.cc_top cc_244,.Lxtalabel114
	.ascii	"/Users/rkn/Documents/xTIMEcomposer/workspace/module_usb_device/src/usb_device.xc"
	.byte	0
	.long	419
	.long	420
	.long	.Lxtalabel114
.cc_bottom cc_244
.cc_top cc_245,.Lxtalabel84
	.ascii	"/Users/rkn/Documents/xTIMEcomposer/workspace/module_usb_device/src/usb_device.xc"
	.byte	0
	.long	422
	.long	423
	.long	.Lxtalabel84
.cc_bottom cc_245
.cc_top cc_246,.Lxtalabel3
	.ascii	"/Users/rkn/Documents/xTIMEcomposer/workspace/module_usb_device/src/usb_device.xc"
	.byte	0
	.long	435
	.long	436
	.long	.Lxtalabel3
.cc_bottom cc_246
.cc_top cc_247,.Lxtalabel3
	.ascii	"/Users/rkn/Documents/xTIMEcomposer/workspace/module_usb_device/src/usb_device.xc"
	.byte	0
	.long	438
	.long	438
	.long	.Lxtalabel3
.cc_bottom cc_247
.cc_top cc_248,.Lxtalabel4
	.ascii	"/Users/rkn/Documents/xTIMEcomposer/workspace/module_usb_device/src/usb_device.xc"
	.byte	0
	.long	443
	.long	443
	.long	.Lxtalabel4
.cc_bottom cc_248
.cc_top cc_249,.Lxtalabel6
	.ascii	"/Users/rkn/Documents/xTIMEcomposer/workspace/module_usb_device/src/usb_device.xc"
	.byte	0
	.long	444
	.long	445
	.long	.Lxtalabel6
.cc_bottom cc_249
.cc_top cc_250,.Lxtalabel5
	.ascii	"/Users/rkn/Documents/xTIMEcomposer/workspace/module_usb_device/src/usb_device.xc"
	.byte	0
	.long	444
	.long	445
	.long	.Lxtalabel5
.cc_bottom cc_250
.cc_top cc_251,.Lxtalabel6
	.ascii	"/Users/rkn/Documents/xTIMEcomposer/workspace/module_usb_device/src/usb_device.xc"
	.byte	0
	.long	448
	.long	448
	.long	.Lxtalabel6
.cc_bottom cc_251
.cc_top cc_252,.Lxtalabel5
	.ascii	"/Users/rkn/Documents/xTIMEcomposer/workspace/module_usb_device/src/usb_device.xc"
	.byte	0
	.long	448
	.long	448
	.long	.Lxtalabel5
.cc_bottom cc_252
.cc_top cc_253,.Lxtalabel7
	.ascii	"/Users/rkn/Documents/xTIMEcomposer/workspace/module_usb_device/src/usb_device.xc"
	.byte	0
	.long	449
	.long	451
	.long	.Lxtalabel7
.cc_bottom cc_253
.cc_top cc_254,.Lxtalabel63
	.ascii	"/Users/rkn/Documents/xTIMEcomposer/workspace/module_usb_device/src/usb_device.xc"
	.byte	0
	.long	452
	.long	452
	.long	.Lxtalabel63
.cc_bottom cc_254
.cc_top cc_255,.Lxtalabel64
	.ascii	"/Users/rkn/Documents/xTIMEcomposer/workspace/module_usb_device/src/usb_device.xc"
	.byte	0
	.long	453
	.long	455
	.long	.Lxtalabel64
.cc_bottom cc_255
.cc_top cc_256,.Lxtalabel67
	.ascii	"/Users/rkn/Documents/xTIMEcomposer/workspace/module_usb_device/src/usb_device.xc"
	.byte	0
	.long	458
	.long	458
	.long	.Lxtalabel67
.cc_bottom cc_256
.cc_top cc_257,.Lxtalabel66
	.ascii	"/Users/rkn/Documents/xTIMEcomposer/workspace/module_usb_device/src/usb_device.xc"
	.byte	0
	.long	458
	.long	458
	.long	.Lxtalabel66
.cc_bottom cc_257
.cc_top cc_258,.Lxtalabel65
	.ascii	"/Users/rkn/Documents/xTIMEcomposer/workspace/module_usb_device/src/usb_device.xc"
	.byte	0
	.long	458
	.long	458
	.long	.Lxtalabel65
.cc_bottom cc_258
.cc_top cc_259,.Lxtalabel68
	.ascii	"/Users/rkn/Documents/xTIMEcomposer/workspace/module_usb_device/src/usb_device.xc"
	.byte	0
	.long	459
	.long	459
	.long	.Lxtalabel68
.cc_bottom cc_259
.cc_top cc_260,.Lxtalabel68
	.ascii	"/Users/rkn/Documents/xTIMEcomposer/workspace/module_usb_device/src/usb_device.xc"
	.byte	0
	.long	464
	.long	465
	.long	.Lxtalabel68
.cc_bottom cc_260
.cc_top cc_261,.Lxtalabel69
	.ascii	"/Users/rkn/Documents/xTIMEcomposer/workspace/module_usb_device/src/usb_device.xc"
	.byte	0
	.long	468
	.long	469
	.long	.Lxtalabel69
.cc_bottom cc_261
.cc_top cc_262,.Lxtalabel4
	.ascii	"/Users/rkn/Documents/xTIMEcomposer/workspace/module_usb_device/src/usb_device.xc"
	.byte	0
	.long	470
	.long	471
	.long	.Lxtalabel4
.cc_bottom cc_262
.cc_top cc_263,.Lxtalabel10
	.ascii	"/Users/rkn/Documents/xTIMEcomposer/workspace/module_usb_device/src/usb_device.xc"
	.byte	0
	.long	480
	.long	482
	.long	.Lxtalabel10
.cc_bottom cc_263
.cc_top cc_264,.Lxtalabel11
	.ascii	"/Users/rkn/Documents/xTIMEcomposer/workspace/module_usb_device/src/usb_device.xc"
	.byte	0
	.long	484
	.long	484
	.long	.Lxtalabel11
.cc_bottom cc_264
.cc_top cc_265,.Lxtalabel13
	.ascii	"/Users/rkn/Documents/xTIMEcomposer/workspace/module_usb_device/src/usb_device.xc"
	.byte	0
	.long	485
	.long	486
	.long	.Lxtalabel13
.cc_bottom cc_265
.cc_top cc_266,.Lxtalabel12
	.ascii	"/Users/rkn/Documents/xTIMEcomposer/workspace/module_usb_device/src/usb_device.xc"
	.byte	0
	.long	485
	.long	486
	.long	.Lxtalabel12
.cc_bottom cc_266
.cc_top cc_267,.Lxtalabel12
	.ascii	"/Users/rkn/Documents/xTIMEcomposer/workspace/module_usb_device/src/usb_device.xc"
	.byte	0
	.long	489
	.long	489
	.long	.Lxtalabel12
.cc_bottom cc_267
.cc_top cc_268,.Lxtalabel13
	.ascii	"/Users/rkn/Documents/xTIMEcomposer/workspace/module_usb_device/src/usb_device.xc"
	.byte	0
	.long	489
	.long	489
	.long	.Lxtalabel13
.cc_bottom cc_268
.cc_top cc_269,.Lxtalabel14
	.ascii	"/Users/rkn/Documents/xTIMEcomposer/workspace/module_usb_device/src/usb_device.xc"
	.byte	0
	.long	490
	.long	492
	.long	.Lxtalabel14
.cc_bottom cc_269
.cc_top cc_270,.Lxtalabel76
	.ascii	"/Users/rkn/Documents/xTIMEcomposer/workspace/module_usb_device/src/usb_device.xc"
	.byte	0
	.long	493
	.long	493
	.long	.Lxtalabel76
.cc_bottom cc_270
.cc_top cc_271,.Lxtalabel77
	.ascii	"/Users/rkn/Documents/xTIMEcomposer/workspace/module_usb_device/src/usb_device.xc"
	.byte	0
	.long	494
	.long	496
	.long	.Lxtalabel77
.cc_bottom cc_271
.cc_top cc_272,.Lxtalabel78
	.ascii	"/Users/rkn/Documents/xTIMEcomposer/workspace/module_usb_device/src/usb_device.xc"
	.byte	0
	.long	498
	.long	498
	.long	.Lxtalabel78
.cc_bottom cc_272
.cc_top cc_273,.Lxtalabel80
	.ascii	"/Users/rkn/Documents/xTIMEcomposer/workspace/module_usb_device/src/usb_device.xc"
	.byte	0
	.long	498
	.long	498
	.long	.Lxtalabel80
.cc_bottom cc_273
.cc_top cc_274,.Lxtalabel79
	.ascii	"/Users/rkn/Documents/xTIMEcomposer/workspace/module_usb_device/src/usb_device.xc"
	.byte	0
	.long	498
	.long	498
	.long	.Lxtalabel79
.cc_bottom cc_274
.cc_top cc_275,.Lxtalabel81
	.ascii	"/Users/rkn/Documents/xTIMEcomposer/workspace/module_usb_device/src/usb_device.xc"
	.byte	0
	.long	499
	.long	500
	.long	.Lxtalabel81
.cc_bottom cc_275
.cc_top cc_276,.Lxtalabel81
	.ascii	"/Users/rkn/Documents/xTIMEcomposer/workspace/module_usb_device/src/usb_device.xc"
	.byte	0
	.long	502
	.long	503
	.long	.Lxtalabel81
.cc_bottom cc_276
.cc_top cc_277,.Lxtalabel81
	.ascii	"/Users/rkn/Documents/xTIMEcomposer/workspace/module_usb_device/src/usb_device.xc"
	.byte	0
	.long	504
	.long	504
	.long	.Lxtalabel81
.cc_bottom cc_277
.cc_top cc_278,.Lxtalabel21
	.ascii	"/Users/rkn/Documents/xTIMEcomposer/workspace/module_usb_device/src/usb_device.xc"
	.byte	0
	.long	515
	.long	516
	.long	.Lxtalabel21
.cc_bottom cc_278
.cc_top cc_279,.Lxtalabel52
	.ascii	"/Users/rkn/Documents/xTIMEcomposer/workspace/module_usb_device/src/usb_device.xc"
	.byte	0
	.long	515
	.long	516
	.long	.Lxtalabel52
.cc_bottom cc_279
.cc_top cc_280,.Lxtalabel52
	.ascii	"/Users/rkn/Documents/xTIMEcomposer/workspace/module_usb_device/src/usb_device.xc"
	.byte	0
	.long	518
	.long	518
	.long	.Lxtalabel52
.cc_bottom cc_280
.cc_top cc_281,.Lxtalabel21
	.ascii	"/Users/rkn/Documents/xTIMEcomposer/workspace/module_usb_device/src/usb_device.xc"
	.byte	0
	.long	518
	.long	518
	.long	.Lxtalabel21
.cc_bottom cc_281
.cc_top cc_282,.Lxtalabel53
	.ascii	"/Users/rkn/Documents/xTIMEcomposer/workspace/module_usb_device/src/usb_device.xc"
	.byte	0
	.long	520
	.long	520
	.long	.Lxtalabel53
.cc_bottom cc_282
.cc_top cc_283,.Lxtalabel54
	.ascii	"/Users/rkn/Documents/xTIMEcomposer/workspace/module_usb_device/src/usb_device.xc"
	.byte	0
	.long	521
	.long	521
	.long	.Lxtalabel54
.cc_bottom cc_283
.cc_top cc_284,.Lxtalabel54
	.ascii	"/Users/rkn/Documents/xTIMEcomposer/workspace/module_usb_device/src/usb_device.xc"
	.byte	0
	.long	523
	.long	523
	.long	.Lxtalabel54
.cc_bottom cc_284
.cc_top cc_285,.Lxtalabel55
	.ascii	"/Users/rkn/Documents/xTIMEcomposer/workspace/module_usb_device/src/usb_device.xc"
	.byte	0
	.long	524
	.long	524
	.long	.Lxtalabel55
.cc_bottom cc_285
.cc_top cc_286,.Lxtalabel55
	.ascii	"/Users/rkn/Documents/xTIMEcomposer/workspace/module_usb_device/src/usb_device.xc"
	.byte	0
	.long	526
	.long	526
	.long	.Lxtalabel55
.cc_bottom cc_286
.cc_top cc_287,.Lxtalabel57
	.ascii	"/Users/rkn/Documents/xTIMEcomposer/workspace/module_usb_device/src/usb_device.xc"
	.byte	0
	.long	527
	.long	529
	.long	.Lxtalabel57
.cc_bottom cc_287
.cc_top cc_288,.Lxtalabel55
	.ascii	"/Users/rkn/Documents/xTIMEcomposer/workspace/module_usb_device/src/usb_device.xc"
	.byte	0
	.long	530
	.long	530
	.long	.Lxtalabel55
.cc_bottom cc_288
.cc_top cc_289,.Lxtalabel22
	.ascii	"/Users/rkn/Documents/xTIMEcomposer/workspace/module_usb_device/src/usb_device.xc"
	.byte	0
	.long	537
	.long	537
	.long	.Lxtalabel22
.cc_bottom cc_289
.cc_top cc_290,.Lxtalabel23
	.ascii	"/Users/rkn/Documents/xTIMEcomposer/workspace/module_usb_device/src/usb_device.xc"
	.byte	0
	.long	538
	.long	538
	.long	.Lxtalabel23
.cc_bottom cc_290
.cc_top cc_291,.Lxtalabel23
	.ascii	"/Users/rkn/Documents/xTIMEcomposer/workspace/module_usb_device/src/usb_device.xc"
	.byte	0
	.long	540
	.long	540
	.long	.Lxtalabel23
.cc_bottom cc_291
.cc_top cc_292,.Lxtalabel24
	.ascii	"/Users/rkn/Documents/xTIMEcomposer/workspace/module_usb_device/src/usb_device.xc"
	.byte	0
	.long	541
	.long	541
	.long	.Lxtalabel24
.cc_bottom cc_292
.cc_top cc_293,.Lxtalabel56
	.ascii	"/Users/rkn/Documents/xTIMEcomposer/workspace/module_usb_device/src/usb_device.xc"
	.byte	0
	.long	541
	.long	541
	.long	.Lxtalabel56
.cc_bottom cc_293
.cc_top cc_294,.Lxtalabel24
	.ascii	"/Users/rkn/Documents/xTIMEcomposer/workspace/module_usb_device/src/usb_device.xc"
	.byte	0
	.long	543
	.long	543
	.long	.Lxtalabel24
.cc_bottom cc_294
.cc_top cc_295,.Lxtalabel56
	.ascii	"/Users/rkn/Documents/xTIMEcomposer/workspace/module_usb_device/src/usb_device.xc"
	.byte	0
	.long	543
	.long	543
	.long	.Lxtalabel56
.cc_bottom cc_295
.cc_top cc_296,.Lxtalabel56
	.ascii	"/Users/rkn/Documents/xTIMEcomposer/workspace/module_usb_device/src/usb_device.xc"
	.byte	0
	.long	547
	.long	547
	.long	.Lxtalabel56
.cc_bottom cc_296
.cc_top cc_297,.Lxtalabel24
	.ascii	"/Users/rkn/Documents/xTIMEcomposer/workspace/module_usb_device/src/usb_device.xc"
	.byte	0
	.long	547
	.long	547
	.long	.Lxtalabel24
.cc_bottom cc_297
.cc_top cc_298,.Lxtalabel34
	.ascii	"/Users/rkn/Documents/xTIMEcomposer/workspace/module_usb_device/src/usb_device.xc"
	.byte	0
	.long	559
	.long	560
	.long	.Lxtalabel34
.cc_bottom cc_298
.cc_top cc_299,.Lxtalabel34
	.ascii	"/Users/rkn/Documents/xTIMEcomposer/workspace/module_usb_device/src/usb_device.xc"
	.byte	0
	.long	562
	.long	562
	.long	.Lxtalabel34
.cc_bottom cc_299
.cc_top cc_300,.Lxtalabel35
	.ascii	"/Users/rkn/Documents/xTIMEcomposer/workspace/module_usb_device/src/usb_device.xc"
	.byte	0
	.long	566
	.long	566
	.long	.Lxtalabel35
.cc_bottom cc_300
.cc_top cc_301,.Lxtalabel36
	.ascii	"/Users/rkn/Documents/xTIMEcomposer/workspace/module_usb_device/src/usb_device.xc"
	.byte	0
	.long	567
	.long	569
	.long	.Lxtalabel36
.cc_bottom cc_301
.cc_top cc_302,.Lxtalabel36
	.ascii	"/Users/rkn/Documents/xTIMEcomposer/workspace/module_usb_device/src/usb_device.xc"
	.byte	0
	.long	571
	.long	571
	.long	.Lxtalabel36
.cc_bottom cc_302
.cc_top cc_303,.Lxtalabel37
	.ascii	"/Users/rkn/Documents/xTIMEcomposer/workspace/module_usb_device/src/usb_device.xc"
	.byte	0
	.long	572
	.long	572
	.long	.Lxtalabel37
.cc_bottom cc_303
.cc_top cc_304,.Lxtalabel37
	.ascii	"/Users/rkn/Documents/xTIMEcomposer/workspace/module_usb_device/src/usb_device.xc"
	.byte	0
	.long	574
	.long	574
	.long	.Lxtalabel37
.cc_bottom cc_304
.cc_top cc_305,.Lxtalabel38
	.ascii	"/Users/rkn/Documents/xTIMEcomposer/workspace/module_usb_device/src/usb_device.xc"
	.byte	0
	.long	575
	.long	579
	.long	.Lxtalabel38
.cc_bottom cc_305
.cc_top cc_306,.Lxtalabel37
	.ascii	"/Users/rkn/Documents/xTIMEcomposer/workspace/module_usb_device/src/usb_device.xc"
	.byte	0
	.long	580
	.long	580
	.long	.Lxtalabel37
.cc_bottom cc_306
.cc_top cc_307,.Lxtalabel102
	.ascii	"/Users/rkn/Documents/xTIMEcomposer/workspace/module_usb_device/src/usb_device.xc"
	.byte	0
	.long	581
	.long	582
	.long	.Lxtalabel102
.cc_bottom cc_307
.cc_top cc_308,.Lxtalabel102
	.ascii	"/Users/rkn/Documents/xTIMEcomposer/workspace/module_usb_device/src/usb_device.xc"
	.byte	0
	.long	584
	.long	584
	.long	.Lxtalabel102
.cc_bottom cc_308
.cc_top cc_309,.Lxtalabel103
	.ascii	"/Users/rkn/Documents/xTIMEcomposer/workspace/module_usb_device/src/usb_device.xc"
	.byte	0
	.long	585
	.long	589
	.long	.Lxtalabel103
.cc_bottom cc_309
.cc_top cc_310,.Lxtalabel102
	.ascii	"/Users/rkn/Documents/xTIMEcomposer/workspace/module_usb_device/src/usb_device.xc"
	.byte	0
	.long	590
	.long	590
	.long	.Lxtalabel102
.cc_bottom cc_310
.cc_top cc_311,.Lxtalabel108
	.ascii	"/Users/rkn/Documents/xTIMEcomposer/workspace/module_usb_device/src/usb_device.xc"
	.byte	0
	.long	607
	.long	610
	.long	.Lxtalabel108
.cc_bottom cc_311
.Lentries_end5:
	.section	.xtalooplabeltable,"",@progbits
.Lentries_start6:
	.long	.Lentries_end7-.Lentries_start6
	.long	0
	.ascii	"/Users/rkn/Documents/xTIMEcomposer/workspace/app_usb_aud_xk_216_mc/.build_2i32o32xxxxx_tdm8"
	.byte	0
.cc_top cc_312,.Lxta.loop_labels0
	.ascii	"/Users/rkn/Documents/xTIMEcomposer/workspace/module_usb_device/src/usb_device.xc"
	.byte	0
	.long	164
	.long	166
	.long	.Lxta.loop_labels0
.cc_bottom cc_312
.cc_top cc_313,.Lxta.loop_labels1
	.ascii	"/Users/rkn/Documents/xTIMEcomposer/workspace/module_usb_device/src/usb_device.xc"
	.byte	0
	.long	169
	.long	171
	.long	.Lxta.loop_labels1
.cc_bottom cc_313
.cc_top cc_314,.Lxta.loop_labels2
	.ascii	"/Users/rkn/Documents/xTIMEcomposer/workspace/module_usb_device/src/usb_device.xc"
	.byte	0
	.long	411
	.long	414
	.long	.Lxta.loop_labels2
.cc_bottom cc_314
.Lentries_end7:
	.section	.trap_info,"",@progbits
.Ltrap_info_entries_start0:
	.long	.Ltrap_info_entries_end0-.Ltrap_info_entries_start0
	.long	1
	.section	.trap_info_str,"MS",@progbits
.Ltrap_info_str0:
.asciiz"/Users/rkn/Documents/xTIMEcomposer/workspace/module_usb_device/src/usb_device.xc:264:76: error: passing null argument to a non-null parameter\n                                    return XUD_DoGetRequest(ep_out, ep_in, devDesc_fs, devDescLength_fs, sp.wLength);\n                                                                           ^~~~~~~~~~\n"
	.section	.trap_info,"",@progbits
.cc_top cc_trapinfo_0,.Ltrap_info0
	.long	.Ltrap_info0
	.long	.Ltrap_info_str0
.cc_bottom cc_trapinfo_0
	.section	.trap_info_str,"MS",@progbits
.Ltrap_info_str1:
.asciiz"/Users/rkn/Documents/xTIMEcomposer/workspace/module_usb_device/src/usb_device.xc:286:76: error: passing null argument to a non-null parameter\n                                    return XUD_DoGetRequest(ep_out, ep_in, cfgDesc_fs, cfgDescLength_fs, sp.wLength);\n                                                                           ^~~~~~~~~~\n"
	.section	.trap_info,"",@progbits
.cc_top cc_trapinfo_1,.Ltrap_info1
	.long	.Ltrap_info1
	.long	.Ltrap_info_str1
.cc_bottom cc_trapinfo_1
	.section	.trap_info_str,"MS",@progbits
.Ltrap_info_str2:
.asciiz"/Users/rkn/Documents/xTIMEcomposer/workspace/module_usb_device/src/usb_device.xc:354:78: error: passing null argument to a non-null parameter\n                                    return  XUD_DoGetRequest(ep_out, ep_in,  cfgDesc_fs, cfgDescLength_fs, sp.wLength);\n                                                                             ^~~~~~~~~~\n"
	.section	.trap_info,"",@progbits
.cc_top cc_trapinfo_2,.Ltrap_info2
	.long	.Ltrap_info2
	.long	.Ltrap_info_str2
.cc_bottom cc_trapinfo_2
	.section	.trap_info_str,"MS",@progbits
.Ltrap_info_str3:
.asciiz"/Users/rkn/Documents/xTIMEcomposer/workspace/module_usb_device/src/usb_device.xc:292:77: error: passing null argument to a non-null parameter\n                                    return XUD_DoGetRequest(ep_out, ep_in,  cfgDesc_hs, cfgDescLength_hs, sp.wLength);\n                                                                            ^~~~~~~~~~\n"
	.section	.trap_info,"",@progbits
.cc_top cc_trapinfo_3,.Ltrap_info3
	.long	.Ltrap_info3
	.long	.Ltrap_info_str3
.cc_bottom cc_trapinfo_3
	.section	.trap_info_str,"MS",@progbits
.Ltrap_info_str4:
.asciiz"/Users/rkn/Documents/xTIMEcomposer/workspace/module_usb_device/src/usb_device.xc:270:76: error: passing null argument to a non-null parameter\n                                    return XUD_DoGetRequest(ep_out, ep_in, devDesc_hs, devDescLength_hs, sp.wLength);\n                                                                           ^~~~~~~~~~\n"
	.section	.trap_info,"",@progbits
.cc_top cc_trapinfo_4,.Ltrap_info4
	.long	.Ltrap_info4
	.long	.Ltrap_info_str4
.cc_bottom cc_trapinfo_4
	.section	.trap_info_str,"MS",@progbits
.Ltrap_info_str5:
.asciiz"/Users/rkn/Documents/xTIMEcomposer/workspace/module_usb_device/src/usb_device.xc:359:78: error: passing null argument to a non-null parameter\n                                    return  XUD_DoGetRequest(ep_out, ep_in,  cfgDesc_hs, cfgDescLength_hs, sp.wLength);\n                                                                             ^~~~~~~~~~\n"
	.section	.trap_info,"",@progbits
.cc_top cc_trapinfo_5,.Ltrap_info5
	.long	.Ltrap_info5
	.long	.Ltrap_info_str5
.cc_bottom cc_trapinfo_5
.Ltrap_info_entries_end0: