	.text
	.file	"/Users/rkn/Documents/xTIMEcomposer/workspace/module_usb_audio/usb_buffer/usb_buffer.xc"
                                        # Start of file scope inline assembly
	.inline_definition delay_seconds
	.inline_definition delay_milliseconds
	.inline_definition delay_microseconds
	.inline_definition array_to_xc_ptr
	.inline_definition XUD_SetReady_Out
	.inline_definition XUD_SetReady_OutPtr
	.inline_definition XUD_SetReady_InPtr
	.inline_definition XUD_SetReady_In
	.set usage.anon.0,0
	.set usage.anon.1,0
	.set usage.anon.2,0
	.set usage.anon.3,0
	.set usage.anon.4,0
	.set usage.anon.5,0
	.set usage.anon.6,0
	.set usage.anon.7,0
	.set usage.anon.8,0
	.globwrite buffer,fb_clocks,"/Users/rkn/Documents/xTIMEcomposer/workspace/module_usb_audio/usb_buffer/usb_buffer.xc:379:56: note: object used here\n                            XUD_SetReady_In(ep_aud_fb, fb_clocks, 4);\n                                                       ^~~~~~~~~"
	.globwrite buffer,fb_clocks,0,4,"/Users/rkn/Documents/xTIMEcomposer/workspace/module_usb_audio/usb_buffer/usb_buffer.xc:242:5: note: object used here (bytes 0..4)\n    (fb_clocks, unsigned[])[0] = 0;\n    ^~~~~~~~~~~~~~~~~~~~~~~~~~"
	.globwrite buffer,g_speed,"/Users/rkn/Documents/xTIMEcomposer/workspace/module_usb_audio/usb_buffer/usb_buffer.xc:330:29: note: object used here\n                            g_speed = mid<<16;\n                            ^~~~~~~"
	.globwrite buffer,g_hidData,"/Users/rkn/Documents/xTIMEcomposer/workspace/module_usb_audio/usb_buffer/usb_buffer.xc:258:29: note: object used here\n    XUD_SetReady_In(ep_hid, g_hidData, 1);\n                            ^~~~~~~~~"
	.call buffer,usage.anon.8
	.call buffer,usage.anon.7
	.call buffer,XUD_SetData_Select
	.call buffer,XUD_InitEp
	.call buffer,XUD_GetData_Select
	.call buffer,UserReadHIDButtons
	.call buffer,GetADCCounts
	.call usage.anon.7,usage.anon.6
	.call usage.anon.2,delay_ticks_longlong
	.call usage.anon.1,delay_ticks_longlong
	.call usage.anon.0,delay_ticks_longlong
	.set usage.anon.3.locnoside, 0
	.set usage.anon.4.locnoside, 0
	.set usage.anon.7.locnoside, 0
	.set usage.anon.8.locnoside, 0
	.set buffer.locnoside, 0
	.set buffer.locnoglobalaccess, 0
	.globpassesref usage.anon.7, g_hidData,"/Users/rkn/Documents/xTIMEcomposer/workspace/module_usb_audio/usb_buffer/usb_buffer.xc:730:17: error: call to `XUD_SetReady_In\' in `buffer\' makes alias of global \'g_hidData\'\n                XUD_SetReady_In(ep_hid, g_hidData, 1);\n                ^~~~~~~~~~~~~~~~~~~~~~~~~~~~~~~~~~~~~"
	.globpassesref UserReadHIDButtons, g_hidData,"/Users/rkn/Documents/xTIMEcomposer/workspace/module_usb_audio/usb_buffer/usb_buffer.xc:729:17: error: call to `UserReadHIDButtons\' in `buffer\' makes alias of global \'g_hidData\'\n                UserReadHIDButtons(g_hidData);\n                ^~~~~~~~~~~~~~~~~~~~~~~~~~~~~"
	.globpassesref usage.anon.7, fb_clocks,"/Users/rkn/Documents/xTIMEcomposer/workspace/module_usb_audio/usb_buffer/usb_buffer.xc:570:21: error: call to `XUD_SetReady_In\' in `buffer\' makes alias of global \'fb_clocks\'\n                    XUD_SetReady_In(ep_aud_fb, fb_clocks, 3);\n                    ^~~~~~~~~~~~~~~~~~~~~~~~~~~~~~~~~~~~~~~~"
	.globpassesref usage.anon.7, fb_clocks,"/Users/rkn/Documents/xTIMEcomposer/workspace/module_usb_audio/usb_buffer/usb_buffer.xc:566:21: error: call to `XUD_SetReady_In\' in `buffer\' makes alias of global \'fb_clocks\'\n                    XUD_SetReady_In(ep_aud_fb, fb_clocks, 4);\n                    ^~~~~~~~~~~~~~~~~~~~~~~~~~~~~~~~~~~~~~~~"
	.globpassesref usage.anon.7, fb_clocks,"/Users/rkn/Documents/xTIMEcomposer/workspace/module_usb_audio/usb_buffer/usb_buffer.xc:383:29: error: call to `XUD_SetReady_In\' in `buffer\' makes alias of global \'fb_clocks\'\n                            XUD_SetReady_In(ep_aud_fb, fb_clocks, 3);\n                            ^~~~~~~~~~~~~~~~~~~~~~~~~~~~~~~~~~~~~~~~"
	.globpassesref usage.anon.7, fb_clocks,"/Users/rkn/Documents/xTIMEcomposer/workspace/module_usb_audio/usb_buffer/usb_buffer.xc:379:29: error: call to `XUD_SetReady_In\' in `buffer\' makes alias of global \'fb_clocks\'\n                            XUD_SetReady_In(ep_aud_fb, fb_clocks, 4);\n                            ^~~~~~~~~~~~~~~~~~~~~~~~~~~~~~~~~~~~~~~~"
	.globpassesref usage.anon.7, g_hidData,"/Users/rkn/Documents/xTIMEcomposer/workspace/module_usb_audio/usb_buffer/usb_buffer.xc:258:5: error: call to `XUD_SetReady_In\' in `buffer\' makes alias of global \'g_hidData\'\n    XUD_SetReady_In(ep_hid, g_hidData, 1);\n    ^~~~~~~~~~~~~~~~~~~~~~~~~~~~~~~~~~~~~"

                                        # End of file scope inline assembly
	.section	.cp.rodata.cst4,"aMc",@progbits,4
	.cc_top .LCPI0_0.data,.LCPI0_0
	.align	4
	.type	.LCPI0_0,@object
	.size	.LCPI0_0, 4
.LCPI0_0:
	.long	24576000                # 0x1770000
	.cc_bottom .LCPI0_0.data
	.cc_top .LCPI0_1.data,.LCPI0_1
	.align	4
	.type	.LCPI0_1,@object
	.size	.LCPI0_1, 4
.LCPI0_1:
	.long	305419896               # 0x12345678
	.cc_bottom .LCPI0_1.data
	.cc_top .LCPI0_2.data,.LCPI0_2
	.align	4
	.type	.LCPI0_2,@object
	.size	.LCPI0_2, 4
.LCPI0_2:
	.long	22579200                # 0x1588800
	.cc_bottom .LCPI0_2.data
	.text
	.globl	buffer
	.align	4
	.type	buffer,@function
	.cc_top buffer.function,buffer
buffer:                                 # @buffer
.Lfunc_begin0:
	.loc	1 134 0                 # /Users/rkn/Documents/xTIMEcomposer/workspace/module_usb_audio/usb_buffer/usb_buffer.xc:134:0
	.cfi_startproc
	.issue_mode dual
# BB#0:                                 # %allocas
.Lxtalabel0:
	{
		nop
		dualentsp 38
	}
.Ltmp0:
	.cfi_def_cfa_offset 152
.Ltmp1:
	.cfi_offset 15, 0
	{
		nop
		stw r4, sp[30]
	}
	{
		nop
		stw r5, sp[31]
	}
.Ltmp2:
	.cfi_offset 4, -32
.Ltmp3:
	.cfi_offset 5, -28
	{
		nop
		stw r6, sp[32]
	}
	{
		nop
		stw r7, sp[33]
	}
.Ltmp4:
	.cfi_offset 6, -24
.Ltmp5:
	.cfi_offset 7, -20
	{
		nop
		stw r8, sp[34]
	}
	{
		nop
		stw r9, sp[35]
	}
.Ltmp6:
	.cfi_offset 8, -16
.Ltmp7:
	.cfi_offset 9, -12
.Ltmp8:
	.cfi_offset 10, -8
	#DEBUG_VALUE: buffer:c_aud_out <- R0
	#DEBUG_VALUE: buffer:c_aud_in <- R1
	#DEBUG_VALUE: buffer:c_aud_fb <- R2
	#DEBUG_VALUE: buffer:c_sof <- R3
.Ltmp9:
	#DEBUG_VALUE: buffer:c_sof <- R4
	{
		mov r4, r3
		stw r10, sp[36]
	}
.Ltmp10:
	#DEBUG_VALUE: buffer:c_aud_fb <- R6
	{
		mov r6, r2
		stw r4, sp[20]
	}
.Ltmp11:
	#DEBUG_VALUE: buffer:c_aud_in <- R7
	{
		mov r7, r1
		stw r0, sp[23]
	}
.Ltmp12:
	{
		nop
		ldw r1, sp[40]
	}
	{
		nop
		ldw r9, sp[41]
	}
	#DEBUG_VALUE: buffer:c_hid <- R9
	#DEBUG_VALUE: buffer:p_off_mclk <- [SP+68]
	{
		nop
		stw r1, sp[17]
	}
	{
		nop
		stw r9, sp[24]
	}
	{
		nop
		ldw r8, sp[39]
	}
.Ltmp13:
	#DEBUG_VALUE: buffer:c_aud_out <- [SP+92]
	.loc	1 135 0 prologue_end    # /Users/rkn/Documents/xTIMEcomposer/workspace/module_usb_audio/usb_buffer/usb_buffer.xc:135:0
.Lxta.call_labels0:
	bl XUD_InitEp
	{
		mov r10, r0
		nop
	}
.Ltmp14:
	#DEBUG_VALUE: ep_aud_out <- R10
	.loc	1 136 0                 # /Users/rkn/Documents/xTIMEcomposer/workspace/module_usb_audio/usb_buffer/usb_buffer.xc:136:0
	{
		mov r0, r7
		stw r10, sp[16]
	}
.Lxta.call_labels1:
	bl XUD_InitEp
	{
		mov r5, r0
		nop
	}
.Ltmp15:
	#DEBUG_VALUE: ep_aud_in <- R5
	.loc	1 138 0                 # /Users/rkn/Documents/xTIMEcomposer/workspace/module_usb_audio/usb_buffer/usb_buffer.xc:138:0
	{
		mov r0, r6
		stw r5, sp[15]
	}
.Lxta.call_labels2:
	bl XUD_InitEp
.Ltmp16:
	#DEBUG_VALUE: ep_aud_fb <- [SP+88]
	#DEBUG_VALUE: XUD_SetReady_In:ep <- [SP+88]
	#DEBUG_VALUE: XUD_SetReady_InPtr:ep <- [SP+88]
	#DEBUG_VALUE: XUD_SetReady_In:ep <- [SP+88]
	#DEBUG_VALUE: XUD_SetReady_InPtr:ep <- [SP+88]
	#DEBUG_VALUE: XUD_SetReady_In:ep <- [SP+88]
	#DEBUG_VALUE: XUD_SetReady_InPtr:ep <- [SP+88]
	#DEBUG_VALUE: XUD_SetReady_In:ep <- [SP+88]
	#DEBUG_VALUE: XUD_SetReady_InPtr:ep <- [SP+88]
	#DEBUG_VALUE: buffer:c_hid <- [SP+96]
	{
		mov r0, r9
		stw r0, sp[22]
	}
	.loc	1 160 0                 # /Users/rkn/Documents/xTIMEcomposer/workspace/module_usb_audio/usb_buffer/usb_buffer.xc:160:0
.Ltmp17:
.Lxta.call_labels3:
	bl XUD_InitEp
.Ltmp18:
	#DEBUG_VALUE: aud_from_host_buffer <- 0
	#DEBUG_VALUE: mod_from_last_time <- 0
	#DEBUG_VALUE: freqChange <- 0
	#DEBUG_VALUE: sofCount <- 0
	#DEBUG_VALUE: remnant <- 0
	#DEBUG_VALUE: bufferIn <- 1
	#DEBUG_VALUE: clockcounter <- 0
	#DEBUG_VALUE: clocks <- 0
	#DEBUG_VALUE: lastClock <- 0
	#DEBUG_VALUE: masterClockFreq <- 24576000
	#DEBUG_VALUE: sampleFreq <- 48000
	#DEBUG_VALUE: ep_hid <- R0
	#DEBUG_VALUE: XUD_SetReady_In:ep <- R0
	#DEBUG_VALUE: XUD_SetReady_InPtr:ep <- R0
	#DEBUG_VALUE: XUD_SetReady_In:ep <- R0
	#DEBUG_VALUE: XUD_SetReady_InPtr:ep <- R0
	{
		mov r3, r8
		stw r0, sp[21]
	}
	.loc	1 226 0                 # /Users/rkn/Documents/xTIMEcomposer/workspace/module_usb_audio/usb_buffer/usb_buffer.xc:226:0
.Ltmp19:
	#APP
	stw r10, dp[aud_from_host_usb_ep]
	#NO_APP
.Ltmp20:
	#DEBUG_VALUE: ep_aud_out <- [SP+64]
	.loc	1 227 0                 # /Users/rkn/Documents/xTIMEcomposer/workspace/module_usb_audio/usb_buffer/usb_buffer.xc:227:0
	#APP
	stw r5, dp[aud_to_host_usb_ep]
	#NO_APP
.Ltmp21:
	#DEBUG_VALUE: ep_aud_in <- [SP+60]
	.loc	1 228 0                 # /Users/rkn/Documents/xTIMEcomposer/workspace/module_usb_audio/usb_buffer/usb_buffer.xc:228:0
	#APP
	stw r3, dp[buffer_aud_ctl_chan]
	#NO_APP
	{
		mkmsk r10, 1
		nop
	}
	.loc	1 235 0                 # /Users/rkn/Documents/xTIMEcomposer/workspace/module_usb_audio/usb_buffer/usb_buffer.xc:235:0
	#APP
	stw r10, dp[g_aud_from_host_flag]
	#NO_APP
	.loc	1 239 0                 # /Users/rkn/Documents/xTIMEcomposer/workspace/module_usb_audio/usb_buffer/usb_buffer.xc:239:0
	#APP
	stw r10, dp[g_aud_to_host_flag]
	#NO_APP
	{
		ldc r2, 0
		nop
	}
	.loc	1 242 0                 # /Users/rkn/Documents/xTIMEcomposer/workspace/module_usb_audio/usb_buffer/usb_buffer.xc:242:0
	stw r2, dp[fb_clocks]
.Ltmp22:
	#DEBUG_VALUE: XUD_SetReady_In:len <- 1
	.loc	2 508 0                 # /Users/rkn/Documents/xTIMEcomposer/workspace/module_xud/include/xud.h:508:0
	ldaw r9, dp[g_hidData]
	#APP
	mov r5, r9
	#NO_APP
.Ltmp23:
	#DEBUG_VALUE: XUD_SetReady_InPtr:len <- 1
	#DEBUG_VALUE: XUD_SetReady_InPtr:addr <- R5
	#DEBUG_VALUE: addr <- R5
	.loc	2 463 0                 # /Users/rkn/Documents/xTIMEcomposer/workspace/module_xud/include/xud.h:463:0
	#APP
	ldw r1, r0[9]
	#NO_APP
.Ltmp24:
	#DEBUG_VALUE: XUD_SetReady_In:buffer <- R9
	#DEBUG_VALUE: reset <- R1
	#DEBUG_VALUE: ep_hid <- [SP+84]
	#DEBUG_VALUE: XUD_SetReady_In:ep <- [SP+84]
	#DEBUG_VALUE: XUD_SetReady_InPtr:ep <- [SP+84]
	#DEBUG_VALUE: XUD_SetReady_In:ep <- [SP+84]
	#DEBUG_VALUE: XUD_SetReady_InPtr:ep <- [SP+84]
	bt r1, .LBB0_2
.Ltmp25:
# BB#1:                                 # %ifdone.i.i
.Lxtalabel1:
	#DEBUG_VALUE: buffer:c_aud_out <- [SP+92]
	#DEBUG_VALUE: buffer:c_aud_in <- R7
	#DEBUG_VALUE: buffer:c_aud_fb <- R6
	#DEBUG_VALUE: buffer:c_sof <- R4
	#DEBUG_VALUE: buffer:p_off_mclk <- [SP+68]
	#DEBUG_VALUE: buffer:c_hid <- [SP+96]
	#DEBUG_VALUE: ep_aud_out <- [SP+64]
	#DEBUG_VALUE: ep_aud_in <- [SP+60]
	#DEBUG_VALUE: ep_aud_fb <- [SP+88]
	#DEBUG_VALUE: XUD_SetReady_InPtr:ep <- [SP+84]
	#DEBUG_VALUE: XUD_SetReady_In:ep <- [SP+84]
	#DEBUG_VALUE: ep_hid <- [SP+84]
	#DEBUG_VALUE: sampleFreq <- 48000
	#DEBUG_VALUE: masterClockFreq <- 24576000
	#DEBUG_VALUE: lastClock <- 0
	#DEBUG_VALUE: clocks <- 0
	#DEBUG_VALUE: clockcounter <- 0
	#DEBUG_VALUE: bufferIn <- 1
	#DEBUG_VALUE: remnant <- 0
	#DEBUG_VALUE: sofCount <- 0
	#DEBUG_VALUE: freqChange <- 0
	#DEBUG_VALUE: mod_from_last_time <- 0
	#DEBUG_VALUE: aud_from_host_buffer <- 0
	#DEBUG_VALUE: XUD_SetReady_In:len <- 1
	#DEBUG_VALUE: addr <- R5
	#DEBUG_VALUE: XUD_SetReady_InPtr:addr <- R5
	#DEBUG_VALUE: XUD_SetReady_InPtr:len <- 1
	#DEBUG_VALUE: XUD_SetReady_In:buffer <- R9
	#DEBUG_VALUE: wordlength <- 0
	{
		ldc r1, 32
		nop
	}
.Ltmp26:
	#DEBUG_VALUE: taillength <- R1
	#DEBUG_VALUE: XUD_SetReady_In:buffer <- undef
	#DEBUG_VALUE: ep_hid <- R9
	#DEBUG_VALUE: XUD_SetReady_In:ep <- R9
	#DEBUG_VALUE: XUD_SetReady_InPtr:ep <- R9
	.loc	2 473 0                 # /Users/rkn/Documents/xTIMEcomposer/workspace/module_xud/include/xud.h:473:0
	{
		zext r1, 7
		ldw r9, sp[21]
	}
.Ltmp27:
	.loc	2 475 0                 # /Users/rkn/Documents/xTIMEcomposer/workspace/module_xud/include/xud.h:475:0
	#APP
	ldw r8, r9[0]
	#NO_APP
.Ltmp28:
	#DEBUG_VALUE: chan_array_ptr <- R8
	{
		mov r11, r3
		ldc r3, 0
	}
	.loc	2 478 0                 # /Users/rkn/Documents/xTIMEcomposer/workspace/module_xud/include/xud.h:478:0
	#APP
	add r0, r5, r3
	#NO_APP
.Ltmp29:
	#DEBUG_VALUE: tmp <- R0
	.loc	2 480 0                 # /Users/rkn/Documents/xTIMEcomposer/workspace/module_xud/include/xud.h:480:0
	#APP
	neg r3, r3
	#NO_APP
.Ltmp30:
	#DEBUG_VALUE: tmp2 <- R3
	.loc	2 483 0                 # /Users/rkn/Documents/xTIMEcomposer/workspace/module_xud/include/xud.h:483:0
	#APP
	stw r3, r9[6]
	#NO_APP
	{
		mov r3, r11
		nop
	}
.Ltmp31:
	.loc	2 486 0                 # /Users/rkn/Documents/xTIMEcomposer/workspace/module_xud/include/xud.h:486:0
	#APP
	stw r0, r9[3]
	#NO_APP
	.loc	2 489 0                 # /Users/rkn/Documents/xTIMEcomposer/workspace/module_xud/include/xud.h:489:0
	#APP
	stw r1, r9[7]
	#NO_APP
	.loc	2 491 0                 # /Users/rkn/Documents/xTIMEcomposer/workspace/module_xud/include/xud.h:491:0
	#APP
	stw r9, r8[0]
	#NO_APP
.Ltmp32:
	.loc	2 508 0                 # /Users/rkn/Documents/xTIMEcomposer/workspace/module_xud/include/xud.h:508:0
	ldaw r9, dp[g_hidData]
.Ltmp33:
	#DEBUG_VALUE: XUD_SetReady_In:buffer <- R9
	#DEBUG_VALUE: ep_hid <- [SP+84]
	#DEBUG_VALUE: XUD_SetReady_In:ep <- [SP+84]
	#DEBUG_VALUE: XUD_SetReady_InPtr:ep <- [SP+84]
.LBB0_2:                                # %LoopBody.preheader
	#DEBUG_VALUE: buffer:c_aud_out <- [SP+92]
	#DEBUG_VALUE: buffer:c_aud_in <- R7
	#DEBUG_VALUE: buffer:c_aud_fb <- R6
	#DEBUG_VALUE: buffer:c_sof <- R4
	#DEBUG_VALUE: buffer:p_off_mclk <- [SP+68]
	#DEBUG_VALUE: buffer:c_hid <- [SP+96]
	#DEBUG_VALUE: ep_aud_out <- [SP+64]
	#DEBUG_VALUE: ep_aud_in <- [SP+60]
	#DEBUG_VALUE: XUD_SetReady_InPtr:ep <- [SP+88]
	#DEBUG_VALUE: XUD_SetReady_In:ep <- [SP+88]
	#DEBUG_VALUE: XUD_SetReady_InPtr:ep <- [SP+88]
	#DEBUG_VALUE: XUD_SetReady_In:ep <- [SP+88]
	#DEBUG_VALUE: ep_aud_fb <- [SP+88]
	#DEBUG_VALUE: XUD_SetReady_InPtr:ep <- [SP+84]
	#DEBUG_VALUE: XUD_SetReady_In:ep <- [SP+84]
	#DEBUG_VALUE: ep_hid <- [SP+84]
	#DEBUG_VALUE: sampleFreq <- 48000
	#DEBUG_VALUE: masterClockFreq <- 24576000
	#DEBUG_VALUE: lastClock <- 0
	#DEBUG_VALUE: clocks <- 0
	#DEBUG_VALUE: clockcounter <- 0
	#DEBUG_VALUE: bufferIn <- 1
	#DEBUG_VALUE: remnant <- 0
	#DEBUG_VALUE: sofCount <- 0
	#DEBUG_VALUE: freqChange <- 0
	#DEBUG_VALUE: mod_from_last_time <- 0
	#DEBUG_VALUE: aud_from_host_buffer <- 0
	#DEBUG_VALUE: buffer:c_aud_ctl <- R3
	ldap r11, .Ltmp34
	.loc	1 267 9                 # /Users/rkn/Documents/xTIMEcomposer/workspace/module_usb_audio/usb_buffer/usb_buffer.xc:267:9
.Ltmp35:
	{
		setv res[r4], r11
		nop
	}
	ldc r0, 48000
	{
		nop
		stw r0, sp[14]
	}
	ldw r1, cp[.LCPI0_0]
	.loc	2 508 0                 # /Users/rkn/Documents/xTIMEcomposer/workspace/module_xud/include/xud.h:508:0
.Ltmp36:
	ldaw r0, dp[fb_clocks]
	#APP
	mov r0, r0
	#NO_APP
	{
		nop
		stw r0, sp[10]
	}
	ldc r0, 128
	.loc	2 473 0                 # /Users/rkn/Documents/xTIMEcomposer/workspace/module_xud/include/xud.h:473:0
.Ltmp37:
	{
		zext r0, 7
		nop
	}
	{
		nop
		stw r0, sp[6]
	}
	.loc	2 480 0                 # /Users/rkn/Documents/xTIMEcomposer/workspace/module_xud/include/xud.h:480:0
	#APP
	neg r0, r10
	#NO_APP
	{
		nop
		stw r0, sp[5]
	}
	ldc r0, 96
.Ltmp38:
	.loc	2 473 0                 # /Users/rkn/Documents/xTIMEcomposer/workspace/module_xud/include/xud.h:473:0
	{
		zext r0, 7
		nop
	}
	{
		nop
		stw r0, sp[4]
	}
	.loc	2 480 0                 # /Users/rkn/Documents/xTIMEcomposer/workspace/module_xud/include/xud.h:480:0
	#APP
	neg r0, r2
	#NO_APP
	{
		nop
		stw r0, sp[13]
	}
.Ltmp39:
	.loc	2 508 0                 # /Users/rkn/Documents/xTIMEcomposer/workspace/module_xud/include/xud.h:508:0
	#APP
	mov r0, r9
	#NO_APP
	{
		ldc r0, 32
		stw r0, sp[9]
	}
	.loc	2 473 0                 # /Users/rkn/Documents/xTIMEcomposer/workspace/module_xud/include/xud.h:473:0
.Ltmp40:
	{
		zext r0, 7
		nop
	}
	{
		nop
		stw r0, sp[8]
	}
	{
		mov r8, r2
		stw r2, sp[11]
	}
	{
		nop
		stw r2, sp[19]
	}
	{
		mov r9, r2
		stw r2, sp[18]
	}
	{
		nop
		stw r1, sp[7]
	}
	bu .LBB0_3
.Ltmp41:
.Ltmp42:                                # Block address taken
.LBB0_5:                                # %selectcase10
                                        #   in Loop: Header=BB0_3 Depth=1
.Lxtalabel2:
	#DEBUG_VALUE: buffer:c_aud_out <- [SP+92]
	#DEBUG_VALUE: buffer:c_aud_in <- R7
	#DEBUG_VALUE: buffer:c_aud_fb <- R6
	#DEBUG_VALUE: buffer:c_sof <- R4
	#DEBUG_VALUE: buffer:p_off_mclk <- [SP+68]
	#DEBUG_VALUE: buffer:c_hid <- [SP+96]
	#DEBUG_VALUE: ep_aud_out <- [SP+64]
	#DEBUG_VALUE: ep_aud_in <- [SP+60]
	#DEBUG_VALUE: ep_aud_fb <- [SP+88]
	#DEBUG_VALUE: ep_hid <- [SP+84]
	#DEBUG_VALUE: sampleFreq <- 48000
	#DEBUG_VALUE: masterClockFreq <- 24576000
	#DEBUG_VALUE: lastClock <- 0
	#DEBUG_VALUE: clocks <- 0
	#DEBUG_VALUE: clockcounter <- 0
	#DEBUG_VALUE: bufferIn <- 1
	#DEBUG_VALUE: remnant <- 0
	#DEBUG_VALUE: sofCount <- 0
	#DEBUG_VALUE: freqChange <- 0
	#DEBUG_VALUE: mod_from_last_time <- 0
	#DEBUG_VALUE: aud_from_host_buffer <- 0
	#DEBUG_VALUE: buffer:c_aud_ctl <- R3
	#DEBUG_VALUE: length <- undef
	#DEBUG_VALUE: result <- undef
	{
		nop
		ldw r0, sp[23]
	}
	.loc	1 576 0                 # /Users/rkn/Documents/xTIMEcomposer/workspace/module_usb_audio/usb_buffer/usb_buffer.xc:576:0
	{
		ldaw r2, sp[28]
		ldw r1, sp[16]
	}
.Ltmp43:
	#DEBUG_VALUE: buffer:c_aud_ctl <- R5
	{
		mov r5, r3
		ldaw r3, sp[29]
	}
.Ltmp44:
.Lxta.call_labels4:
	bl XUD_GetData_Select
	{
		mov r3, r5
		nop
	}
.Ltmp45:
	#DEBUG_VALUE: buffer:c_aud_ctl <- R3
	.loc	1 578 0                 # /Users/rkn/Documents/xTIMEcomposer/workspace/module_usb_audio/usb_buffer/usb_buffer.xc:578:0
	#APP
	ldw r0, dp[g_aud_from_host_buffer]
	#NO_APP
.Ltmp46:
	#DEBUG_VALUE: aud_from_host_buffer <- R0
	{
		nop
		ldw r1, sp[28]
	}
	.loc	1 580 0                 # /Users/rkn/Documents/xTIMEcomposer/workspace/module_usb_audio/usb_buffer/usb_buffer.xc:580:0
	#APP
	stw r1, r0[0]
	#NO_APP
	{
		mkmsk r0, 1
		nop
	}
.Ltmp47:
	.loc	1 583 0                 # /Users/rkn/Documents/xTIMEcomposer/workspace/module_usb_audio/usb_buffer/usb_buffer.xc:583:0
	#APP
	stw r0, dp[g_aud_from_host_flag]
	#NO_APP
	{
		mov r9, r10
		nop
	}
.Ltmp48:
.LBB0_3:                                # %LoopBody
                                        # =>This Inner Loop Header: Depth=1
.Lxtalabel3:
	#DEBUG_VALUE: buffer:c_aud_out <- [SP+92]
	#DEBUG_VALUE: buffer:c_aud_in <- R7
	#DEBUG_VALUE: buffer:c_aud_fb <- R6
	#DEBUG_VALUE: buffer:c_sof <- R4
	#DEBUG_VALUE: buffer:p_off_mclk <- [SP+68]
	#DEBUG_VALUE: buffer:c_hid <- [SP+96]
	#DEBUG_VALUE: ep_aud_out <- [SP+64]
	#DEBUG_VALUE: ep_aud_in <- [SP+60]
	#DEBUG_VALUE: ep_aud_fb <- [SP+88]
	#DEBUG_VALUE: ep_hid <- [SP+84]
	#DEBUG_VALUE: sampleFreq <- 48000
	#DEBUG_VALUE: masterClockFreq <- 24576000
	#DEBUG_VALUE: lastClock <- 0
	#DEBUG_VALUE: clocks <- 0
	#DEBUG_VALUE: clockcounter <- 0
	#DEBUG_VALUE: bufferIn <- 1
	#DEBUG_VALUE: remnant <- 0
	#DEBUG_VALUE: sofCount <- 0
	#DEBUG_VALUE: freqChange <- 0
	#DEBUG_VALUE: mod_from_last_time <- 0
	#DEBUG_VALUE: aud_from_host_buffer <- 0
	#DEBUG_VALUE: buffer:c_aud_ctl <- R3
	{
		clre
		mov r10, r9
	}
	ldap r11, .Ltmp49
	.loc	1 267 9                 # /Users/rkn/Documents/xTIMEcomposer/workspace/module_usb_audio/usb_buffer/usb_buffer.xc:267:9
	{
		setv res[r3], r11
		nop
	}
	.loc	1 267 9                 # /Users/rkn/Documents/xTIMEcomposer/workspace/module_usb_audio/usb_buffer/usb_buffer.xc:267:9
	{
		eeu res[r3]
		nop
	}
	.loc	1 267 9                 # /Users/rkn/Documents/xTIMEcomposer/workspace/module_usb_audio/usb_buffer/usb_buffer.xc:267:9
	{
		eeu res[r4]
		nop
	}
	ldap r11, .Ltmp50
	.loc	1 267 9                 # /Users/rkn/Documents/xTIMEcomposer/workspace/module_usb_audio/usb_buffer/usb_buffer.xc:267:9
	{
		setv res[r7], r11
		nop
	}
	.loc	1 267 9                 # /Users/rkn/Documents/xTIMEcomposer/workspace/module_usb_audio/usb_buffer/usb_buffer.xc:267:9
	{
		eeu res[r7]
		nop
	}
	ldap r11, .Ltmp51
	.loc	1 267 9                 # /Users/rkn/Documents/xTIMEcomposer/workspace/module_usb_audio/usb_buffer/usb_buffer.xc:267:9
	{
		setv res[r6], r11
		nop
	}
	.loc	1 267 9                 # /Users/rkn/Documents/xTIMEcomposer/workspace/module_usb_audio/usb_buffer/usb_buffer.xc:267:9
	{
		eeu res[r6]
		nop
	}
	ldap r11, .Ltmp42
	{
		nop
		ldw r0, sp[23]
	}
.Ltmp52:
	#DEBUG_VALUE: buffer:c_aud_out <- R0
	.loc	1 267 9                 # /Users/rkn/Documents/xTIMEcomposer/workspace/module_usb_audio/usb_buffer/usb_buffer.xc:267:9
	{
		setv res[r0], r11
		nop
	}
	.loc	1 267 9                 # /Users/rkn/Documents/xTIMEcomposer/workspace/module_usb_audio/usb_buffer/usb_buffer.xc:267:9
	{
		eeu res[r0]
		nop
	}
.Ltmp53:
	#DEBUG_VALUE: buffer:c_aud_out <- [SP+92]
	ldap r11, .Ltmp54
	{
		nop
		ldw r0, sp[24]
	}
.Ltmp55:
	#DEBUG_VALUE: buffer:c_hid <- R0
	.loc	1 267 9                 # /Users/rkn/Documents/xTIMEcomposer/workspace/module_usb_audio/usb_buffer/usb_buffer.xc:267:9
	{
		setv res[r0], r11
		nop
	}
	.loc	1 267 9                 # /Users/rkn/Documents/xTIMEcomposer/workspace/module_usb_audio/usb_buffer/usb_buffer.xc:267:9
	{
		eeu res[r0]
		nop
	}
.Ltmp56:
	#DEBUG_VALUE: buffer:c_hid <- [SP+96]
	.loc	1 732 0                 # /Users/rkn/Documents/xTIMEcomposer/workspace/module_usb_audio/usb_buffer/usb_buffer.xc:732:0

	.xtabranch .LBB0_8, .LBB0_26, .LBB0_4, .LBB0_37, .LBB0_5, .LBB0_6
	{
		waiteu
		nop
	}
.Ltmp57:
.Ltmp49:                                # Block address taken
.LBB0_8:                                # %selectcase
                                        #   in Loop: Header=BB0_3 Depth=1
.Lxtalabel4:
	#DEBUG_VALUE: buffer:c_aud_out <- [SP+92]
	#DEBUG_VALUE: buffer:c_aud_in <- R7
	#DEBUG_VALUE: buffer:c_aud_fb <- R6
	#DEBUG_VALUE: buffer:c_sof <- R4
	#DEBUG_VALUE: buffer:p_off_mclk <- [SP+68]
	#DEBUG_VALUE: buffer:c_hid <- [SP+96]
	#DEBUG_VALUE: ep_aud_out <- [SP+64]
	#DEBUG_VALUE: ep_aud_in <- [SP+60]
	#DEBUG_VALUE: ep_aud_fb <- [SP+88]
	#DEBUG_VALUE: ep_hid <- [SP+84]
	#DEBUG_VALUE: sampleFreq <- 48000
	#DEBUG_VALUE: masterClockFreq <- 24576000
	#DEBUG_VALUE: lastClock <- 0
	#DEBUG_VALUE: clocks <- 0
	#DEBUG_VALUE: clockcounter <- 0
	#DEBUG_VALUE: bufferIn <- 1
	#DEBUG_VALUE: remnant <- 0
	#DEBUG_VALUE: sofCount <- 0
	#DEBUG_VALUE: freqChange <- 0
	#DEBUG_VALUE: mod_from_last_time <- 0
	#DEBUG_VALUE: aud_from_host_buffer <- 0
	#DEBUG_VALUE: buffer:c_aud_ctl <- R3
	#DEBUG_VALUE: testct_byref:c <- R3
	.file	3 "/Users/rkn/Documents/xTIMEcomposer/workspace/module_usb_audio/usb_buffer/testct_byref.h"
	.loc	3 8 5                   # /Users/rkn/Documents/xTIMEcomposer/workspace/module_usb_audio/usb_buffer/testct_byref.h:8:5
	{
		testct r0, res[r3]
		nop
	}
.Ltmp58:
	.loc	1 297 17                # /Users/rkn/Documents/xTIMEcomposer/workspace/module_usb_audio/usb_buffer/usb_buffer.xc:297:17
	bt r0, .LBB0_13
.Ltmp59:
# BB#9:                                 # %iffalse
                                        #   in Loop: Header=BB0_3 Depth=1
.Lxtalabel5:
	#DEBUG_VALUE: buffer:c_aud_out <- [SP+92]
	#DEBUG_VALUE: buffer:c_aud_in <- R7
	#DEBUG_VALUE: buffer:c_aud_fb <- R6
	#DEBUG_VALUE: buffer:c_sof <- R4
	#DEBUG_VALUE: buffer:c_sof <- [SP+80]
	#DEBUG_VALUE: buffer:p_off_mclk <- [SP+68]
	#DEBUG_VALUE: buffer:c_hid <- [SP+96]
	#DEBUG_VALUE: ep_aud_out <- [SP+64]
	#DEBUG_VALUE: ep_aud_in <- [SP+60]
	#DEBUG_VALUE: ep_aud_fb <- [SP+88]
	#DEBUG_VALUE: ep_hid <- [SP+84]
	#DEBUG_VALUE: sampleFreq <- 48000
	#DEBUG_VALUE: masterClockFreq <- 24576000
	#DEBUG_VALUE: lastClock <- 0
	#DEBUG_VALUE: clocks <- 0
	#DEBUG_VALUE: clockcounter <- 0
	#DEBUG_VALUE: bufferIn <- 1
	#DEBUG_VALUE: remnant <- 0
	#DEBUG_VALUE: sofCount <- 0
	#DEBUG_VALUE: freqChange <- 0
	#DEBUG_VALUE: mod_from_last_time <- 0
	#DEBUG_VALUE: aud_from_host_buffer <- 0
	#DEBUG_VALUE: buffer:c_aud_ctl <- R3
	.loc	1 306 0                 # /Users/rkn/Documents/xTIMEcomposer/workspace/module_usb_audio/usb_buffer/usb_buffer.xc:306:0
.Lxta.endpoint_labels0:
	{
		in r4, res[r3]
		nop
	}
.Ltmp60:
	#DEBUG_VALUE: cmd <- R4
	.loc	1 308 21                # /Users/rkn/Documents/xTIMEcomposer/workspace/module_usb_audio/usb_buffer/usb_buffer.xc:308:21
	{
		eq r0, r4, 4
		nop
	}
	bt r0, .LBB0_15
.Ltmp61:
# BB#10:                                # %iffalse
                                        #   in Loop: Header=BB0_3 Depth=1
.Lxtalabel6:
	#DEBUG_VALUE: buffer:c_aud_out <- [SP+92]
	#DEBUG_VALUE: buffer:c_aud_in <- R7
	#DEBUG_VALUE: buffer:c_aud_fb <- R6
	#DEBUG_VALUE: buffer:c_sof <- [SP+80]
	#DEBUG_VALUE: buffer:p_off_mclk <- [SP+68]
	#DEBUG_VALUE: buffer:c_hid <- [SP+96]
	#DEBUG_VALUE: buffer:c_aud_ctl <- R3
	{
		eq r0, r4, 8
		nop
	}
	bf r0, .LBB0_11
.Ltmp62:
# BB#20:                                # %iftrue58
                                        #   in Loop: Header=BB0_3 Depth=1
.Lxtalabel7:
	#DEBUG_VALUE: buffer:c_aud_out <- [SP+92]
	#DEBUG_VALUE: buffer:c_aud_in <- R7
	#DEBUG_VALUE: buffer:c_aud_fb <- R6
	#DEBUG_VALUE: buffer:c_sof <- [SP+80]
	#DEBUG_VALUE: buffer:p_off_mclk <- [SP+68]
	#DEBUG_VALUE: buffer:c_hid <- [SP+96]
	#DEBUG_VALUE: buffer:c_aud_ctl <- R3
	.loc	1 361 0                 # /Users/rkn/Documents/xTIMEcomposer/workspace/module_usb_audio/usb_buffer/usb_buffer.xc:361:0
.Lxta.endpoint_labels1:
	{
		in r0, res[r3]
		nop
	}
.Ltmp63:
	#DEBUG_VALUE: formatChange_DataFormat <- R0
	.loc	1 362 0                 # /Users/rkn/Documents/xTIMEcomposer/workspace/module_usb_audio/usb_buffer/usb_buffer.xc:362:0
.Lxta.endpoint_labels2:
	{
		in r1, res[r3]
		nop
	}
.Ltmp64:
	#DEBUG_VALUE: formatChange_NumChans <- R1
	.loc	1 363 0                 # /Users/rkn/Documents/xTIMEcomposer/workspace/module_usb_audio/usb_buffer/usb_buffer.xc:363:0
.Lxta.endpoint_labels3:
	{
		in r2, res[r3]
		nop
	}
.Ltmp65:
	#DEBUG_VALUE: formatChange_SubSlot <- R2
	.loc	1 364 0                 # /Users/rkn/Documents/xTIMEcomposer/workspace/module_usb_audio/usb_buffer/usb_buffer.xc:364:0
.Lxta.endpoint_labels4:
	{
		in r3, res[r3]
		nop
	}
.Ltmp66:
	#DEBUG_VALUE: formatChange_SampRes <- R3
	#DEBUG_VALUE: buffer:c_aud_ctl <- [SP+48]
	.loc	1 366 0                 # /Users/rkn/Documents/xTIMEcomposer/workspace/module_usb_audio/usb_buffer/usb_buffer.xc:366:0
	#APP
	stw r1, dp[g_formatChange_NumChans]
	#NO_APP
	.loc	1 367 0                 # /Users/rkn/Documents/xTIMEcomposer/workspace/module_usb_audio/usb_buffer/usb_buffer.xc:367:0
	#APP
	stw r2, dp[g_formatChange_SubSlot]
	#NO_APP
	.loc	1 368 0                 # /Users/rkn/Documents/xTIMEcomposer/workspace/module_usb_audio/usb_buffer/usb_buffer.xc:368:0
	#APP
	stw r0, dp[g_formatChange_DataFormat]
	#NO_APP
	.loc	1 369 0                 # /Users/rkn/Documents/xTIMEcomposer/workspace/module_usb_audio/usb_buffer/usb_buffer.xc:369:0
	#APP
	stw r3, dp[g_formatChange_SampRes]
	#NO_APP
	.loc	1 375 0                 # /Users/rkn/Documents/xTIMEcomposer/workspace/module_usb_audio/usb_buffer/usb_buffer.xc:375:0
	#APP
	ldw r1, dp[g_curUsbSpeed]
	#NO_APP
.Ltmp67:
	#DEBUG_VALUE: addr <- [SP+40]
	#DEBUG_VALUE: XUD_SetReady_InPtr:addr <- [SP+40]
	#DEBUG_VALUE: addr <- [SP+40]
	#DEBUG_VALUE: XUD_SetReady_InPtr:addr <- [SP+40]
	#DEBUG_VALUE: busSpeed <- R1
	{
		nop
		ldw r0, sp[22]
	}
.Ltmp68:
	.loc	2 463 0                 # /Users/rkn/Documents/xTIMEcomposer/workspace/module_xud/include/xud.h:463:0
	#APP
	ldw r0, r0[9]
	#NO_APP
.Ltmp69:
	#DEBUG_VALUE: reset <- R0
	#DEBUG_VALUE: reset <- R0
	.loc	1 377 25                # /Users/rkn/Documents/xTIMEcomposer/workspace/module_usb_audio/usb_buffer/usb_buffer.xc:377:25
	{
		eq r1, r1, 2
		nop
	}
.Ltmp70:
	#DEBUG_VALUE: XUD_SetReady_In:buffer <- R0
	bf r1, .LBB0_23
.Ltmp71:
# BB#21:                                # %iftrue72
                                        #   in Loop: Header=BB0_3 Depth=1
.Lxtalabel8:
	#DEBUG_VALUE: buffer:c_aud_out <- [SP+92]
	#DEBUG_VALUE: buffer:c_aud_in <- R7
	#DEBUG_VALUE: buffer:c_aud_fb <- R6
	#DEBUG_VALUE: buffer:c_sof <- [SP+80]
	#DEBUG_VALUE: buffer:p_off_mclk <- [SP+68]
	#DEBUG_VALUE: buffer:c_hid <- [SP+96]
	#DEBUG_VALUE: buffer:c_aud_ctl <- [SP+48]
	#DEBUG_VALUE: XUD_SetReady_InPtr:addr <- [SP+40]
	#DEBUG_VALUE: addr <- [SP+40]
	#DEBUG_VALUE: reset <- R0
	#DEBUG_VALUE: XUD_SetReady_In:len <- 4
	#DEBUG_VALUE: XUD_SetReady_InPtr:len <- 4
	bt r0, .LBB0_25
.Ltmp72:
# BB#22:                                # %ifdone.i.i178
                                        #   in Loop: Header=BB0_3 Depth=1
.Lxtalabel9:
	#DEBUG_VALUE: buffer:c_aud_out <- [SP+92]
	#DEBUG_VALUE: buffer:c_aud_in <- R7
	#DEBUG_VALUE: buffer:c_aud_fb <- R6
	#DEBUG_VALUE: buffer:c_sof <- [SP+80]
	#DEBUG_VALUE: buffer:p_off_mclk <- [SP+68]
	#DEBUG_VALUE: buffer:c_hid <- [SP+96]
	#DEBUG_VALUE: buffer:c_aud_ctl <- [SP+48]
	#DEBUG_VALUE: XUD_SetReady_InPtr:addr <- [SP+40]
	#DEBUG_VALUE: addr <- [SP+40]
	#DEBUG_VALUE: XUD_SetReady_In:len <- 4
	#DEBUG_VALUE: XUD_SetReady_InPtr:len <- 4
	#DEBUG_VALUE: wordlength <- 4
	#DEBUG_VALUE: taillength <- [SP+24]
	{
		nop
		ldw r2, sp[22]
	}
	.loc	2 475 0                 # /Users/rkn/Documents/xTIMEcomposer/workspace/module_xud/include/xud.h:475:0
.Ltmp73:
	#APP
	ldw r0, r2[0]
	#NO_APP
.Ltmp74:
	#DEBUG_VALUE: chan_array_ptr <- R0
	.loc	2 478 0                 # /Users/rkn/Documents/xTIMEcomposer/workspace/module_xud/include/xud.h:478:0
	{
		ldc r3, 4
		ldw r1, sp[10]
	}
	#APP
	add r1, r1, r3
	#NO_APP
.Ltmp75:
	#DEBUG_VALUE: tmp2 <- [SP+20]
	#DEBUG_VALUE: tmp <- R1
	{
		nop
		ldw r3, sp[5]
	}
	.loc	2 483 0                 # /Users/rkn/Documents/xTIMEcomposer/workspace/module_xud/include/xud.h:483:0
	#APP
	stw r3, r2[6]
	#NO_APP
	.loc	2 486 0                 # /Users/rkn/Documents/xTIMEcomposer/workspace/module_xud/include/xud.h:486:0
	#APP
	stw r1, r2[3]
	#NO_APP
	{
		nop
		ldw r1, sp[6]
	}
.Ltmp76:
	.loc	2 489 0                 # /Users/rkn/Documents/xTIMEcomposer/workspace/module_xud/include/xud.h:489:0
	#APP
	stw r1, r2[7]
	#NO_APP
	.loc	2 491 0                 # /Users/rkn/Documents/xTIMEcomposer/workspace/module_xud/include/xud.h:491:0
	#APP
	stw r2, r0[0]
	#NO_APP
	bu .LBB0_25
.Ltmp77:
.Ltmp34:                                # Block address taken
.LBB0_26:                               # %selectcase2
                                        #   in Loop: Header=BB0_3 Depth=1
.Lxtalabel10:
	#DEBUG_VALUE: buffer:c_aud_out <- [SP+92]
	#DEBUG_VALUE: buffer:c_aud_in <- R7
	#DEBUG_VALUE: buffer:c_aud_fb <- R6
	#DEBUG_VALUE: buffer:c_sof <- R4
	#DEBUG_VALUE: buffer:p_off_mclk <- [SP+68]
	#DEBUG_VALUE: buffer:c_hid <- [SP+96]
	#DEBUG_VALUE: ep_aud_out <- [SP+64]
	#DEBUG_VALUE: ep_aud_in <- [SP+60]
	#DEBUG_VALUE: ep_aud_fb <- [SP+88]
	#DEBUG_VALUE: ep_hid <- [SP+84]
	#DEBUG_VALUE: sampleFreq <- 48000
	#DEBUG_VALUE: masterClockFreq <- 24576000
	#DEBUG_VALUE: lastClock <- 0
	#DEBUG_VALUE: clocks <- 0
	#DEBUG_VALUE: clockcounter <- 0
	#DEBUG_VALUE: bufferIn <- 1
	#DEBUG_VALUE: remnant <- 0
	#DEBUG_VALUE: sofCount <- 0
	#DEBUG_VALUE: freqChange <- 0
	#DEBUG_VALUE: mod_from_last_time <- 0
	#DEBUG_VALUE: aud_from_host_buffer <- 0
	#DEBUG_VALUE: buffer:c_aud_ctl <- R3
	.loc	1 400 0                 # /Users/rkn/Documents/xTIMEcomposer/workspace/module_usb_audio/usb_buffer/usb_buffer.xc:400:0
.Lxta.endpoint_labels5:
	{
		in r0, res[r4]
		nop
	}
.Ltmp78:
	#DEBUG_VALUE: testct_byref:isCt <- R0
	#DEBUG_VALUE: u_tmp <- R0
	{
		nop
		ldw r0, sp[17]
	}
.Ltmp79:
	.loc	1 406 0                 # /Users/rkn/Documents/xTIMEcomposer/workspace/module_usb_audio/usb_buffer/usb_buffer.xc:406:0
	#APP
	 getts r9, res[r0]
	#NO_APP
.Ltmp80:
	#DEBUG_VALUE: testct_byref:isCt <- R9
	#DEBUG_VALUE: u_tmp <- R9
	#DEBUG_VALUE: lastClock <- R9
	.loc	1 408 0                 # /Users/rkn/Documents/xTIMEcomposer/workspace/module_usb_audio/usb_buffer/usb_buffer.xc:408:0
	#APP
	ldw r0, dp[g_freqChange]
	#NO_APP
.Ltmp81:
	#DEBUG_VALUE: freqChange <- R0
	.loc	1 409 17                # /Users/rkn/Documents/xTIMEcomposer/workspace/module_usb_audio/usb_buffer/usb_buffer.xc:409:17
	{
		eq r0, r0, 4
		nop
	}
.Ltmp82:
	bt r0, .LBB0_3
.Ltmp83:
# BB#27:                                # %iffalse87
                                        #   in Loop: Header=BB0_3 Depth=1
.Lxtalabel11:
	#DEBUG_VALUE: buffer:c_aud_out <- [SP+92]
	#DEBUG_VALUE: buffer:c_aud_in <- R7
	#DEBUG_VALUE: buffer:c_aud_fb <- R6
	#DEBUG_VALUE: buffer:c_sof <- R4
	#DEBUG_VALUE: buffer:p_off_mclk <- [SP+68]
	#DEBUG_VALUE: buffer:c_hid <- [SP+96]
	#DEBUG_VALUE: ep_aud_out <- [SP+64]
	#DEBUG_VALUE: ep_aud_in <- [SP+60]
	#DEBUG_VALUE: ep_aud_fb <- [SP+88]
	#DEBUG_VALUE: ep_hid <- [SP+84]
	#DEBUG_VALUE: sampleFreq <- 48000
	#DEBUG_VALUE: masterClockFreq <- 24576000
	#DEBUG_VALUE: lastClock <- R9
	#DEBUG_VALUE: clocks <- 0
	#DEBUG_VALUE: clockcounter <- 0
	#DEBUG_VALUE: bufferIn <- 1
	#DEBUG_VALUE: remnant <- 0
	#DEBUG_VALUE: sofCount <- 0
	#DEBUG_VALUE: mod_from_last_time <- 0
	#DEBUG_VALUE: aud_from_host_buffer <- 0
	#DEBUG_VALUE: buffer:c_aud_ctl <- R3
	#DEBUG_VALUE: buffer:c_aud_ctl <- undef
	#DEBUG_VALUE: u_tmp <- R9
	.loc	1 417 0                 # /Users/rkn/Documents/xTIMEcomposer/workspace/module_usb_audio/usb_buffer/usb_buffer.xc:417:0
	#APP
	ldw r0, dp[g_curUsbSpeed]
	#NO_APP
.Ltmp84:
	#DEBUG_VALUE: feedbackMul <- 64
	#DEBUG_VALUE: usb_speed <- R0
	.loc	1 479 21                # /Users/rkn/Documents/xTIMEcomposer/workspace/module_usb_audio/usb_buffer/usb_buffer.xc:479:21
	{
		eq r1, r0, 2
		nop
	}
.Ltmp85:
	#DEBUG_VALUE: feedbackMul <- 8
	ldc r0, 64
.Ltmp86:
	{
		nop
		stw r1, sp[12]
	}
	bt r1, .LBB0_29
.Ltmp87:
# BB#28:                                # %iffalse87
                                        #   in Loop: Header=BB0_3 Depth=1
.Lxtalabel12:
	#DEBUG_VALUE: buffer:c_aud_out <- [SP+92]
	#DEBUG_VALUE: buffer:c_aud_in <- R7
	#DEBUG_VALUE: buffer:c_aud_fb <- R6
	#DEBUG_VALUE: buffer:c_sof <- R4
	#DEBUG_VALUE: buffer:p_off_mclk <- [SP+68]
	#DEBUG_VALUE: buffer:c_hid <- [SP+96]
	#DEBUG_VALUE: ep_aud_out <- [SP+64]
	#DEBUG_VALUE: ep_aud_in <- [SP+60]
	#DEBUG_VALUE: ep_aud_fb <- [SP+88]
	#DEBUG_VALUE: ep_hid <- [SP+84]
	#DEBUG_VALUE: sampleFreq <- 48000
	#DEBUG_VALUE: masterClockFreq <- 24576000
	#DEBUG_VALUE: lastClock <- R9
	#DEBUG_VALUE: clocks <- 0
	#DEBUG_VALUE: clockcounter <- 0
	#DEBUG_VALUE: bufferIn <- 1
	#DEBUG_VALUE: remnant <- 0
	#DEBUG_VALUE: sofCount <- 0
	#DEBUG_VALUE: mod_from_last_time <- 0
	#DEBUG_VALUE: aud_from_host_buffer <- 0
	#DEBUG_VALUE: buffer:c_aud_ctl <- undef
	#DEBUG_VALUE: u_tmp <- R9
	#DEBUG_VALUE: feedbackMul <- 8
	{
		ldc r0, 8
		nop
	}
.Ltmp88:
.LBB0_29:                               # %iffalse87
                                        #   in Loop: Header=BB0_3 Depth=1
.Lxtalabel13:
	#DEBUG_VALUE: buffer:c_aud_out <- [SP+92]
	#DEBUG_VALUE: buffer:c_aud_in <- R7
	#DEBUG_VALUE: buffer:c_aud_fb <- R6
	#DEBUG_VALUE: buffer:c_sof <- R4
	#DEBUG_VALUE: buffer:p_off_mclk <- [SP+68]
	#DEBUG_VALUE: buffer:c_hid <- [SP+96]
	#DEBUG_VALUE: ep_aud_out <- [SP+64]
	#DEBUG_VALUE: ep_aud_in <- [SP+60]
	#DEBUG_VALUE: ep_aud_fb <- [SP+88]
	#DEBUG_VALUE: ep_hid <- [SP+84]
	#DEBUG_VALUE: sampleFreq <- 48000
	#DEBUG_VALUE: masterClockFreq <- 24576000
	#DEBUG_VALUE: lastClock <- R9
	#DEBUG_VALUE: clocks <- 0
	#DEBUG_VALUE: clockcounter <- 0
	#DEBUG_VALUE: bufferIn <- 1
	#DEBUG_VALUE: remnant <- 0
	#DEBUG_VALUE: sofCount <- 0
	#DEBUG_VALUE: mod_from_last_time <- 0
	#DEBUG_VALUE: aud_from_host_buffer <- 0
	#DEBUG_VALUE: buffer:c_aud_ctl <- undef
	#DEBUG_VALUE: u_tmp <- R9
	#DEBUG_VALUE: feedbackMul <- 8
	.loc	1 483 0                 # /Users/rkn/Documents/xTIMEcomposer/workspace/module_usb_audio/usb_buffer/usb_buffer.xc:483:0
	{
		sub r1, r9, r10
		nop
	}
	.loc	1 483 0                 # /Users/rkn/Documents/xTIMEcomposer/workspace/module_usb_audio/usb_buffer/usb_buffer.xc:483:0
	{
		sext r1, 16
		nop
	}
.Ltmp89:
	#DEBUG_VALUE: count <- R1
	.loc	1 485 0                 # /Users/rkn/Documents/xTIMEcomposer/workspace/module_usb_audio/usb_buffer/usb_buffer.xc:485:0
	ashr r2, r1, 32
	{
		ldc r5, 0
		ldw r11, sp[14]
	}
	.loc	1 485 0                 # /Users/rkn/Documents/xTIMEcomposer/workspace/module_usb_audio/usb_buffer/usb_buffer.xc:485:0
	lmul r1, r3, r1, r11, r5, r5
.Ltmp90:
	mul r2, r2, r11
	{
		add r1, r1, r2
		nop
	}
	.loc	1 485 0                 # /Users/rkn/Documents/xTIMEcomposer/workspace/module_usb_audio/usb_buffer/usb_buffer.xc:485:0
	mul r1, r1, r0
	{
		nop
		ldw r2, sp[19]
	}
	{
		nop
		ldw r11, sp[18]
	}
	.loc	1 487 0                 # /Users/rkn/Documents/xTIMEcomposer/workspace/module_usb_audio/usb_buffer/usb_buffer.xc:487:0
	maccu r11, r2, r3, r0
	{
		mov r3, r11
		nop
	}
	{
		add r3, r3, r1
		nop
	}
	ldc r0, 128
	.loc	1 494 21                # /Users/rkn/Documents/xTIMEcomposer/workspace/module_usb_audio/usb_buffer/usb_buffer.xc:494:21
	{
		eq r0, r8, r0
		nop
	}
	bf r0, .LBB0_30
.Ltmp91:
# BB#31:                                # %iftrue105
                                        #   in Loop: Header=BB0_3 Depth=1
.Lxtalabel14:
	#DEBUG_VALUE: buffer:c_aud_out <- [SP+92]
	#DEBUG_VALUE: buffer:c_aud_in <- R7
	#DEBUG_VALUE: buffer:c_aud_fb <- R6
	#DEBUG_VALUE: buffer:c_sof <- R4
	#DEBUG_VALUE: buffer:p_off_mclk <- [SP+68]
	#DEBUG_VALUE: buffer:c_hid <- [SP+96]
	#DEBUG_VALUE: ep_aud_out <- [SP+64]
	#DEBUG_VALUE: ep_aud_in <- [SP+60]
	#DEBUG_VALUE: ep_aud_fb <- [SP+88]
	#DEBUG_VALUE: ep_hid <- [SP+84]
	#DEBUG_VALUE: sampleFreq <- 48000
	#DEBUG_VALUE: masterClockFreq <- 24576000
	#DEBUG_VALUE: lastClock <- R9
	#DEBUG_VALUE: clocks <- 0
	#DEBUG_VALUE: clockcounter <- 0
	#DEBUG_VALUE: bufferIn <- 1
	#DEBUG_VALUE: remnant <- 0
	#DEBUG_VALUE: sofCount <- 0
	#DEBUG_VALUE: mod_from_last_time <- 0
	#DEBUG_VALUE: aud_from_host_buffer <- 0
	#DEBUG_VALUE: buffer:c_aud_ctl <- undef
	#DEBUG_VALUE: u_tmp <- R9
	#DEBUG_VALUE: feedbackMul <- 8
	{
		nop
		ldw r0, sp[11]
	}
.Ltmp92:
	#DEBUG_VALUE: buffer:c_sof <- [SP+80]
	.loc	1 498 0                 # /Users/rkn/Documents/xTIMEcomposer/workspace/module_usb_audio/usb_buffer/usb_buffer.xc:498:0
	ladd r0, r10, r2, r0, r5
	{
		add r4, r3, r0
		mov r0, r10
	}
	.loc	1 499 0                 # /Users/rkn/Documents/xTIMEcomposer/workspace/module_usb_audio/usb_buffer/usb_buffer.xc:499:0
	{
		mov r1, r4
		ldw r8, sp[7]
	}
	{
		mov r2, r8
		mov r3, r5
	}
	bl __divdi3
	{
		mov r0, r10
		stw r0, sp[19]
	}
	.loc	1 500 0                 # /Users/rkn/Documents/xTIMEcomposer/workspace/module_usb_audio/usb_buffer/usb_buffer.xc:500:0
	{
		mov r1, r4
		mov r2, r8
	}
	{
		mov r3, r5
		nop
	}
	bl __moddi3
	{
		mkmsk r0, 2
		stw r0, sp[11]
	}
	{
		nop
		ldw r1, sp[12]
	}
	bt r1, .LBB0_33
.Ltmp93:
# BB#32:                                # %iftrue105
                                        #   in Loop: Header=BB0_3 Depth=1
.Lxtalabel15:
	#DEBUG_VALUE: buffer:c_aud_out <- [SP+92]
	#DEBUG_VALUE: buffer:c_aud_in <- R7
	#DEBUG_VALUE: buffer:c_aud_fb <- R6
	#DEBUG_VALUE: buffer:c_sof <- [SP+80]
	#DEBUG_VALUE: buffer:p_off_mclk <- [SP+68]
	#DEBUG_VALUE: buffer:c_hid <- [SP+96]
	#DEBUG_VALUE: ep_aud_out <- [SP+64]
	#DEBUG_VALUE: ep_aud_in <- [SP+60]
	#DEBUG_VALUE: ep_aud_fb <- [SP+88]
	#DEBUG_VALUE: ep_hid <- [SP+84]
	#DEBUG_VALUE: sampleFreq <- 48000
	#DEBUG_VALUE: masterClockFreq <- 24576000
	#DEBUG_VALUE: lastClock <- R9
	#DEBUG_VALUE: clocks <- 0
	#DEBUG_VALUE: clockcounter <- 0
	#DEBUG_VALUE: bufferIn <- 1
	#DEBUG_VALUE: remnant <- 0
	#DEBUG_VALUE: sofCount <- 0
	#DEBUG_VALUE: mod_from_last_time <- 0
	#DEBUG_VALUE: aud_from_host_buffer <- 0
	#DEBUG_VALUE: buffer:c_aud_ctl <- undef
	#DEBUG_VALUE: u_tmp <- R9
	#DEBUG_VALUE: feedbackMul <- 8
	{
		ldc r0, 6
		nop
	}
.Ltmp94:
.LBB0_33:                               # %iftrue105
                                        #   in Loop: Header=BB0_3 Depth=1
.Lxtalabel16:
	#DEBUG_VALUE: buffer:c_aud_out <- [SP+92]
	#DEBUG_VALUE: buffer:c_aud_in <- R7
	#DEBUG_VALUE: buffer:c_aud_fb <- R6
	#DEBUG_VALUE: buffer:c_sof <- [SP+80]
	#DEBUG_VALUE: buffer:p_off_mclk <- [SP+68]
	#DEBUG_VALUE: buffer:c_hid <- [SP+96]
	#DEBUG_VALUE: ep_aud_out <- [SP+64]
	#DEBUG_VALUE: ep_aud_in <- [SP+60]
	#DEBUG_VALUE: ep_aud_fb <- [SP+88]
	#DEBUG_VALUE: ep_hid <- [SP+84]
	#DEBUG_VALUE: sampleFreq <- 48000
	#DEBUG_VALUE: masterClockFreq <- 24576000
	#DEBUG_VALUE: lastClock <- R9
	#DEBUG_VALUE: clocks <- 0
	#DEBUG_VALUE: clockcounter <- 0
	#DEBUG_VALUE: bufferIn <- 1
	#DEBUG_VALUE: remnant <- 0
	#DEBUG_VALUE: sofCount <- 0
	#DEBUG_VALUE: mod_from_last_time <- 0
	#DEBUG_VALUE: aud_from_host_buffer <- 0
	#DEBUG_VALUE: buffer:c_aud_ctl <- undef
	#DEBUG_VALUE: u_tmp <- R9
	#DEBUG_VALUE: feedbackMul <- 8
	{
		nop
		ldw r1, sp[19]
	}
	.loc	1 502 25                # /Users/rkn/Documents/xTIMEcomposer/workspace/module_usb_audio/usb_buffer/usb_buffer.xc:502:25
	{
		shl r0, r1, r0
		nop
	}
	.loc	1 517 0                 # /Users/rkn/Documents/xTIMEcomposer/workspace/module_usb_audio/usb_buffer/usb_buffer.xc:517:0
.Ltmp95:
	#APP
	stw r0, dp[g_speed]
	#NO_APP
	.loc	1 519 0                 # /Users/rkn/Documents/xTIMEcomposer/workspace/module_usb_audio/usb_buffer/usb_buffer.xc:519:0
	#APP
	ldw r1, dp[g_curUsbSpeed]
	#NO_APP
.Ltmp96:
	#DEBUG_VALUE: usb_speed <- R1
	#DEBUG_VALUE: buffer:c_sof <- R4
	.loc	1 521 29                # /Users/rkn/Documents/xTIMEcomposer/workspace/module_usb_audio/usb_buffer/usb_buffer.xc:521:29
	{
		eq r1, r1, 2
		ldw r4, sp[20]
	}
.Ltmp97:
	{
		nop
		ldw r3, sp[39]
	}
.Ltmp98:
	#DEBUG_VALUE: buffer:c_aud_ctl <- R3
	bt r1, .LBB0_35
.Ltmp99:
# BB#34:                                # %iftrue105
                                        #   in Loop: Header=BB0_3 Depth=1
.Lxtalabel17:
	#DEBUG_VALUE: buffer:c_aud_out <- [SP+92]
	#DEBUG_VALUE: buffer:c_aud_in <- R7
	#DEBUG_VALUE: buffer:c_aud_fb <- R6
	#DEBUG_VALUE: buffer:c_sof <- R4
	#DEBUG_VALUE: buffer:p_off_mclk <- [SP+68]
	#DEBUG_VALUE: buffer:c_hid <- [SP+96]
	#DEBUG_VALUE: ep_aud_out <- [SP+64]
	#DEBUG_VALUE: ep_aud_in <- [SP+60]
	#DEBUG_VALUE: ep_aud_fb <- [SP+88]
	#DEBUG_VALUE: ep_hid <- [SP+84]
	#DEBUG_VALUE: sampleFreq <- 48000
	#DEBUG_VALUE: masterClockFreq <- 24576000
	#DEBUG_VALUE: lastClock <- R9
	#DEBUG_VALUE: clocks <- 0
	#DEBUG_VALUE: clockcounter <- 0
	#DEBUG_VALUE: bufferIn <- 1
	#DEBUG_VALUE: remnant <- 0
	#DEBUG_VALUE: sofCount <- 0
	#DEBUG_VALUE: mod_from_last_time <- 0
	#DEBUG_VALUE: aud_from_host_buffer <- 0
	#DEBUG_VALUE: buffer:c_aud_ctl <- R3
	#DEBUG_VALUE: u_tmp <- R9
	#DEBUG_VALUE: feedbackMul <- 8
	.loc	1 527 0                 # /Users/rkn/Documents/xTIMEcomposer/workspace/module_usb_audio/usb_buffer/usb_buffer.xc:527:0
	{
		shr r0, r0, 2
		nop
	}
.Ltmp100:
.LBB0_35:                               # %iftrue105
                                        #   in Loop: Header=BB0_3 Depth=1
.Lxtalabel18:
	#DEBUG_VALUE: buffer:c_aud_out <- [SP+92]
	#DEBUG_VALUE: buffer:c_aud_in <- R7
	#DEBUG_VALUE: buffer:c_aud_fb <- R6
	#DEBUG_VALUE: buffer:c_sof <- R4
	#DEBUG_VALUE: buffer:p_off_mclk <- [SP+68]
	#DEBUG_VALUE: buffer:c_hid <- [SP+96]
	#DEBUG_VALUE: ep_aud_out <- [SP+64]
	#DEBUG_VALUE: ep_aud_in <- [SP+60]
	#DEBUG_VALUE: ep_aud_fb <- [SP+88]
	#DEBUG_VALUE: ep_hid <- [SP+84]
	#DEBUG_VALUE: sampleFreq <- 48000
	#DEBUG_VALUE: masterClockFreq <- 24576000
	#DEBUG_VALUE: lastClock <- R9
	#DEBUG_VALUE: clocks <- 0
	#DEBUG_VALUE: clockcounter <- 0
	#DEBUG_VALUE: bufferIn <- 1
	#DEBUG_VALUE: remnant <- 0
	#DEBUG_VALUE: sofCount <- 0
	#DEBUG_VALUE: mod_from_last_time <- 0
	#DEBUG_VALUE: aud_from_host_buffer <- 0
	#DEBUG_VALUE: buffer:c_aud_ctl <- R3
	#DEBUG_VALUE: u_tmp <- R9
	#DEBUG_VALUE: feedbackMul <- 8
	.loc	1 527 0                 # /Users/rkn/Documents/xTIMEcomposer/workspace/module_usb_audio/usb_buffer/usb_buffer.xc:527:0
	stw r0, dp[fb_clocks]
	{
		mov r8, r5
		stw r5, sp[19]
	}
	#DEBUG_VALUE: buffer:c_aud_out <- [SP+92]
	#DEBUG_VALUE: buffer:c_aud_in <- R7
	#DEBUG_VALUE: buffer:c_aud_fb <- R6
	#DEBUG_VALUE: buffer:c_sof <- R4
	#DEBUG_VALUE: buffer:p_off_mclk <- [SP+68]
	#DEBUG_VALUE: buffer:c_hid <- [SP+96]
	#DEBUG_VALUE: ep_aud_out <- [SP+64]
	#DEBUG_VALUE: ep_aud_in <- [SP+60]
	#DEBUG_VALUE: ep_aud_fb <- [SP+88]
	#DEBUG_VALUE: ep_hid <- [SP+84]
	#DEBUG_VALUE: sampleFreq <- 48000
	#DEBUG_VALUE: masterClockFreq <- 24576000
	#DEBUG_VALUE: lastClock <- R9
	#DEBUG_VALUE: clocks <- 0
	#DEBUG_VALUE: clockcounter <- 0
	#DEBUG_VALUE: bufferIn <- 1
	#DEBUG_VALUE: remnant <- 0
	#DEBUG_VALUE: sofCount <- 0
	#DEBUG_VALUE: mod_from_last_time <- 0
	#DEBUG_VALUE: aud_from_host_buffer <- 0
	#DEBUG_VALUE: buffer:c_aud_ctl <- R3
	#DEBUG_VALUE: u_tmp <- R9
	#DEBUG_VALUE: feedbackMul <- 8
.Ltmp101:
	#DEBUG_VALUE: sofCount <- R8
	{
		add r8, r8, 1
		stw r5, sp[18]
	}
.Ltmp102:
	bu .LBB0_3
.Ltmp103:
.Ltmp50:                                # Block address taken
.LBB0_4:                                # %selectcase4
                                        #   in Loop: Header=BB0_3 Depth=1
.Lxtalabel19:
	#DEBUG_VALUE: buffer:c_aud_out <- [SP+92]
	#DEBUG_VALUE: buffer:c_aud_in <- R7
	#DEBUG_VALUE: buffer:c_aud_fb <- R6
	#DEBUG_VALUE: buffer:c_sof <- R4
	#DEBUG_VALUE: buffer:p_off_mclk <- [SP+68]
	#DEBUG_VALUE: buffer:c_hid <- [SP+96]
	#DEBUG_VALUE: ep_aud_out <- [SP+64]
	#DEBUG_VALUE: ep_aud_in <- [SP+60]
	#DEBUG_VALUE: ep_aud_fb <- [SP+88]
	#DEBUG_VALUE: ep_hid <- [SP+84]
	#DEBUG_VALUE: sampleFreq <- 48000
	#DEBUG_VALUE: masterClockFreq <- 24576000
	#DEBUG_VALUE: lastClock <- 0
	#DEBUG_VALUE: clocks <- 0
	#DEBUG_VALUE: clockcounter <- 0
	#DEBUG_VALUE: bufferIn <- 1
	#DEBUG_VALUE: remnant <- 0
	#DEBUG_VALUE: sofCount <- 0
	#DEBUG_VALUE: freqChange <- 0
	#DEBUG_VALUE: mod_from_last_time <- 0
	#DEBUG_VALUE: aud_from_host_buffer <- 0
	#DEBUG_VALUE: buffer:c_aud_ctl <- R3
	#DEBUG_VALUE: result <- undef
	.loc	1 547 0                 # /Users/rkn/Documents/xTIMEcomposer/workspace/module_usb_audio/usb_buffer/usb_buffer.xc:547:0
	{
		mov r0, r7
		ldw r1, sp[15]
	}
.Ltmp104:
	#DEBUG_VALUE: buffer:c_aud_ctl <- R5
	{
		ldaw r2, sp[29]
		mov r5, r3
	}
.Ltmp105:
.Lxta.call_labels5:
	bl XUD_SetData_Select
.Ltmp106:
	#DEBUG_VALUE: buffer:c_aud_ctl <- R3
	{
		mov r3, r5
		ldc r0, 2
	}
.Ltmp107:
	.loc	1 550 0                 # /Users/rkn/Documents/xTIMEcomposer/workspace/module_usb_audio/usb_buffer/usb_buffer.xc:550:0
	#APP
	stw r0, dp[g_aud_to_host_flag]
	#NO_APP
	{
		mov r9, r10
		nop
	}
	bu .LBB0_3
.Ltmp108:
.Ltmp51:                                # Block address taken
.LBB0_37:                               # %selectcase7
                                        #   in Loop: Header=BB0_3 Depth=1
.Lxtalabel20:
	#DEBUG_VALUE: buffer:c_aud_out <- [SP+92]
	#DEBUG_VALUE: buffer:c_aud_in <- R7
	#DEBUG_VALUE: buffer:c_aud_fb <- R6
	#DEBUG_VALUE: buffer:c_sof <- R4
	#DEBUG_VALUE: buffer:p_off_mclk <- [SP+68]
	#DEBUG_VALUE: buffer:c_hid <- [SP+96]
	#DEBUG_VALUE: ep_aud_out <- [SP+64]
	#DEBUG_VALUE: ep_aud_in <- [SP+60]
	#DEBUG_VALUE: ep_aud_fb <- [SP+88]
	#DEBUG_VALUE: ep_hid <- [SP+84]
	#DEBUG_VALUE: sampleFreq <- 48000
	#DEBUG_VALUE: masterClockFreq <- 24576000
	#DEBUG_VALUE: lastClock <- 0
	#DEBUG_VALUE: clocks <- 0
	#DEBUG_VALUE: clockcounter <- 0
	#DEBUG_VALUE: bufferIn <- 1
	#DEBUG_VALUE: remnant <- 0
	#DEBUG_VALUE: sofCount <- 0
	#DEBUG_VALUE: freqChange <- 0
	#DEBUG_VALUE: mod_from_last_time <- 0
	#DEBUG_VALUE: aud_from_host_buffer <- 0
	#DEBUG_VALUE: buffer:c_aud_ctl <- R3
	#DEBUG_VALUE: buffer:c_aud_ctl <- R5
	#DEBUG_VALUE: result <- undef
	{
		mov r5, r3
		mov r0, r6
	}
.Ltmp109:
	{
		nop
		ldw r9, sp[22]
	}
.Ltmp110:
	#DEBUG_VALUE: ep_aud_fb <- R9
	.loc	1 558 0                 # /Users/rkn/Documents/xTIMEcomposer/workspace/module_usb_audio/usb_buffer/usb_buffer.xc:558:0
	{
		mov r1, r9
		ldaw r2, sp[29]
	}
.Lxta.call_labels6:
	bl XUD_SetData_Select
	.loc	1 562 0                 # /Users/rkn/Documents/xTIMEcomposer/workspace/module_usb_audio/usb_buffer/usb_buffer.xc:562:0
.Ltmp111:
	#APP
	ldw r0, dp[g_curUsbSpeed]
	#NO_APP
.Ltmp112:
	#DEBUG_VALUE: busSpeed <- R0
	.loc	1 564 17                # /Users/rkn/Documents/xTIMEcomposer/workspace/module_usb_audio/usb_buffer/usb_buffer.xc:564:17
	{
		eq r1, r0, 2
		nop
	}
.Ltmp113:
	#DEBUG_VALUE: addr <- [SP+40]
	#DEBUG_VALUE: XUD_SetReady_InPtr:addr <- [SP+40]
	#DEBUG_VALUE: addr <- [SP+40]
	#DEBUG_VALUE: XUD_SetReady_InPtr:addr <- [SP+40]
	.loc	2 463 0                 # /Users/rkn/Documents/xTIMEcomposer/workspace/module_xud/include/xud.h:463:0
	#APP
	ldw r0, r9[9]
	#NO_APP
.Ltmp114:
	#DEBUG_VALUE: reset <- R0
	#DEBUG_VALUE: reset <- R0
	#DEBUG_VALUE: ep_aud_fb <- [SP+88]
	#DEBUG_VALUE: buffer:c_aud_out <- [SP+92]
	#DEBUG_VALUE: buffer:c_aud_in <- R7
	#DEBUG_VALUE: buffer:c_aud_fb <- R6
	#DEBUG_VALUE: buffer:c_sof <- R4
	#DEBUG_VALUE: buffer:p_off_mclk <- [SP+68]
	#DEBUG_VALUE: buffer:c_hid <- [SP+96]
	#DEBUG_VALUE: ep_aud_out <- [SP+64]
	#DEBUG_VALUE: ep_aud_in <- [SP+60]
	#DEBUG_VALUE: ep_aud_fb <- [SP+88]
	#DEBUG_VALUE: ep_hid <- [SP+84]
	#DEBUG_VALUE: sampleFreq <- 48000
	#DEBUG_VALUE: masterClockFreq <- 24576000
	#DEBUG_VALUE: lastClock <- 0
	#DEBUG_VALUE: clocks <- 0
	#DEBUG_VALUE: clockcounter <- 0
	#DEBUG_VALUE: bufferIn <- 1
	#DEBUG_VALUE: remnant <- 0
	#DEBUG_VALUE: sofCount <- 0
	#DEBUG_VALUE: freqChange <- 0
	#DEBUG_VALUE: mod_from_last_time <- 0
	#DEBUG_VALUE: aud_from_host_buffer <- 0
	#DEBUG_VALUE: buffer:c_aud_ctl <- R5
	#DEBUG_VALUE: result <- undef
	#DEBUG_VALUE: XUD_SetReady_InPtr:addr <- [SP+40]
	#DEBUG_VALUE: addr <- [SP+40]
	#DEBUG_VALUE: reset <- R0
	#DEBUG_VALUE: XUD_SetReady_In:len <- 3
	#DEBUG_VALUE: XUD_SetReady_InPtr:len <- 3
	#DEBUG_VALUE: buffer:c_aud_ctl <- R3
	{
		mov r9, r10
		mov r3, r5
	}
.Ltmp115:
	.loc	1 564 17                # /Users/rkn/Documents/xTIMEcomposer/workspace/module_usb_audio/usb_buffer/usb_buffer.xc:564:17
	bf r1, .LBB0_40
.Ltmp116:
# BB#38:                                # %iftrue156
                                        #   in Loop: Header=BB0_3 Depth=1
.Lxtalabel21:
	bt r0, .LBB0_3
# BB#39:                                # %ifdone.i.i186
                                        #   in Loop: Header=BB0_3 Depth=1
.Lxtalabel22:
.Ltmp117:
	#DEBUG_VALUE: buffer:c_aud_out <- [SP+92]
	#DEBUG_VALUE: buffer:c_aud_in <- R7
	#DEBUG_VALUE: buffer:c_aud_fb <- R6
	#DEBUG_VALUE: buffer:c_sof <- R4
	#DEBUG_VALUE: buffer:p_off_mclk <- [SP+68]
	#DEBUG_VALUE: buffer:c_hid <- [SP+96]
	#DEBUG_VALUE: ep_aud_out <- [SP+64]
	#DEBUG_VALUE: ep_aud_in <- [SP+60]
	#DEBUG_VALUE: ep_aud_fb <- [SP+88]
	#DEBUG_VALUE: ep_hid <- [SP+84]
	#DEBUG_VALUE: sampleFreq <- 48000
	#DEBUG_VALUE: masterClockFreq <- 24576000
	#DEBUG_VALUE: lastClock <- 0
	#DEBUG_VALUE: clocks <- 0
	#DEBUG_VALUE: clockcounter <- 0
	#DEBUG_VALUE: bufferIn <- 1
	#DEBUG_VALUE: remnant <- 0
	#DEBUG_VALUE: sofCount <- 0
	#DEBUG_VALUE: freqChange <- 0
	#DEBUG_VALUE: mod_from_last_time <- 0
	#DEBUG_VALUE: aud_from_host_buffer <- 0
	#DEBUG_VALUE: buffer:c_aud_ctl <- R3
	#DEBUG_VALUE: result <- undef
	#DEBUG_VALUE: XUD_SetReady_InPtr:addr <- [SP+40]
	#DEBUG_VALUE: addr <- [SP+40]
	#DEBUG_VALUE: XUD_SetReady_In:len <- 4
	#DEBUG_VALUE: XUD_SetReady_InPtr:len <- 4
	#DEBUG_VALUE: wordlength <- 4
	#DEBUG_VALUE: taillength <- [SP+24]
	{
		nop
		ldw r2, sp[22]
	}
.Ltmp118:
	#DEBUG_VALUE: ep_aud_fb <- R2
	.loc	2 475 0                 # /Users/rkn/Documents/xTIMEcomposer/workspace/module_xud/include/xud.h:475:0
	#APP
	ldw r0, r2[0]
	#NO_APP
.Ltmp119:
	#DEBUG_VALUE: chan_array_ptr <- R0
	.loc	2 478 0                 # /Users/rkn/Documents/xTIMEcomposer/workspace/module_xud/include/xud.h:478:0
	{
		ldc r11, 4
		ldw r1, sp[10]
	}
	#APP
	add r1, r1, r11
	#NO_APP
.Ltmp120:
	#DEBUG_VALUE: tmp2 <- [SP+20]
	#DEBUG_VALUE: tmp <- R1
	{
		nop
		ldw r11, sp[5]
	}
	.loc	2 483 0                 # /Users/rkn/Documents/xTIMEcomposer/workspace/module_xud/include/xud.h:483:0
	#APP
	stw r11, r2[6]
	#NO_APP
	.loc	2 486 0                 # /Users/rkn/Documents/xTIMEcomposer/workspace/module_xud/include/xud.h:486:0
	#APP
	stw r1, r2[3]
	#NO_APP
	{
		nop
		ldw r1, sp[6]
	}
.Ltmp121:
	.loc	2 489 0                 # /Users/rkn/Documents/xTIMEcomposer/workspace/module_xud/include/xud.h:489:0
	#APP
	stw r1, r2[7]
	#NO_APP
	.loc	2 491 0                 # /Users/rkn/Documents/xTIMEcomposer/workspace/module_xud/include/xud.h:491:0
	#APP
	stw r2, r0[0]
	#NO_APP
.Ltmp122:
	#DEBUG_VALUE: ep_aud_fb <- [SP+88]
	{
		mov r9, r10
		nop
	}
	bu .LBB0_3
.Ltmp123:
.Ltmp54:                                # Block address taken
.LBB0_6:                                # %selectcase13
                                        #   in Loop: Header=BB0_3 Depth=1
.Lxtalabel23:
	#DEBUG_VALUE: buffer:c_aud_out <- [SP+92]
	#DEBUG_VALUE: buffer:c_aud_in <- R7
	#DEBUG_VALUE: buffer:c_aud_fb <- R6
	#DEBUG_VALUE: buffer:c_sof <- R4
	#DEBUG_VALUE: buffer:p_off_mclk <- [SP+68]
	#DEBUG_VALUE: buffer:c_hid <- [SP+96]
	#DEBUG_VALUE: ep_aud_out <- [SP+64]
	#DEBUG_VALUE: ep_aud_in <- [SP+60]
	#DEBUG_VALUE: ep_aud_fb <- [SP+88]
	#DEBUG_VALUE: ep_hid <- [SP+84]
	#DEBUG_VALUE: sampleFreq <- 48000
	#DEBUG_VALUE: masterClockFreq <- 24576000
	#DEBUG_VALUE: lastClock <- 0
	#DEBUG_VALUE: clocks <- 0
	#DEBUG_VALUE: clockcounter <- 0
	#DEBUG_VALUE: bufferIn <- 1
	#DEBUG_VALUE: remnant <- 0
	#DEBUG_VALUE: sofCount <- 0
	#DEBUG_VALUE: freqChange <- 0
	#DEBUG_VALUE: mod_from_last_time <- 0
	#DEBUG_VALUE: aud_from_host_buffer <- 0
	#DEBUG_VALUE: buffer:c_aud_ctl <- R3
	#DEBUG_VALUE: result <- undef
	{
		nop
		ldw r0, sp[24]
	}
	{
		nop
		ldw r9, sp[21]
	}
.Ltmp124:
	#DEBUG_VALUE: ep_hid <- R9
	.loc	1 726 0                 # /Users/rkn/Documents/xTIMEcomposer/workspace/module_usb_audio/usb_buffer/usb_buffer.xc:726:0
	{
		mov r1, r9
		ldaw r2, sp[29]
	}
	{
		mov r5, r3
		nop
	}
.Ltmp125:
	#DEBUG_VALUE: buffer:c_aud_ctl <- R5
.Lxta.call_labels7:
	bl XUD_SetData_Select
	{
		ldc r0, 0
		nop
	}
.Ltmp126:
	.loc	2 508 0                 # /Users/rkn/Documents/xTIMEcomposer/workspace/module_xud/include/xud.h:508:0
	ldaw r1, dp[g_hidData]
.Ltmp127:
	.loc	1 728 0                 # /Users/rkn/Documents/xTIMEcomposer/workspace/module_usb_audio/usb_buffer/usb_buffer.xc:728:0
	st8 r0, r1[r0]
	.loc	1 729 0                 # /Users/rkn/Documents/xTIMEcomposer/workspace/module_usb_audio/usb_buffer/usb_buffer.xc:729:0
	{
		mov r0, r1
		mkmsk r1, 1
	}
.Lxta.call_labels8:
	bl UserReadHIDButtons
.Ltmp128:
	#DEBUG_VALUE: XUD_SetReady_In:len <- 1
	{
		mov r3, r5
		nop
	}
.Ltmp129:
	#DEBUG_VALUE: buffer:c_aud_ctl <- R3
	#DEBUG_VALUE: XUD_SetReady_InPtr:len <- 1
	#DEBUG_VALUE: XUD_SetReady_InPtr:addr <- [SP+36]
	#DEBUG_VALUE: addr <- [SP+36]
	.loc	2 463 0                 # /Users/rkn/Documents/xTIMEcomposer/workspace/module_xud/include/xud.h:463:0
	#APP
	ldw r0, r9[9]
	#NO_APP
.Ltmp130:
	#DEBUG_VALUE: XUD_SetReady_In:buffer <- [SP+8]
	#DEBUG_VALUE: reset <- R0
	#DEBUG_VALUE: ep_hid <- [SP+84]
	{
		mov r9, r10
		nop
	}
	bt r0, .LBB0_3
.Ltmp131:
# BB#7:                                 # %ifdone.i.i174
                                        #   in Loop: Header=BB0_3 Depth=1
.Lxtalabel24:
	#DEBUG_VALUE: buffer:c_aud_out <- [SP+92]
	#DEBUG_VALUE: buffer:c_aud_in <- R7
	#DEBUG_VALUE: buffer:c_aud_fb <- R6
	#DEBUG_VALUE: buffer:c_sof <- R4
	#DEBUG_VALUE: buffer:p_off_mclk <- [SP+68]
	#DEBUG_VALUE: buffer:c_hid <- [SP+96]
	#DEBUG_VALUE: ep_aud_out <- [SP+64]
	#DEBUG_VALUE: ep_aud_in <- [SP+60]
	#DEBUG_VALUE: ep_aud_fb <- [SP+88]
	#DEBUG_VALUE: ep_hid <- [SP+84]
	#DEBUG_VALUE: sampleFreq <- 48000
	#DEBUG_VALUE: masterClockFreq <- 24576000
	#DEBUG_VALUE: lastClock <- 0
	#DEBUG_VALUE: clocks <- 0
	#DEBUG_VALUE: clockcounter <- 0
	#DEBUG_VALUE: bufferIn <- 1
	#DEBUG_VALUE: remnant <- 0
	#DEBUG_VALUE: sofCount <- 0
	#DEBUG_VALUE: freqChange <- 0
	#DEBUG_VALUE: mod_from_last_time <- 0
	#DEBUG_VALUE: aud_from_host_buffer <- 0
	#DEBUG_VALUE: buffer:c_aud_ctl <- R3
	#DEBUG_VALUE: result <- undef
	#DEBUG_VALUE: XUD_SetReady_In:len <- 1
	#DEBUG_VALUE: addr <- [SP+36]
	#DEBUG_VALUE: XUD_SetReady_InPtr:addr <- [SP+36]
	#DEBUG_VALUE: XUD_SetReady_InPtr:len <- 1
	#DEBUG_VALUE: XUD_SetReady_In:buffer <- [SP+8]
	#DEBUG_VALUE: wordlength <- 0
	#DEBUG_VALUE: taillength <- [SP+32]
	{
		nop
		ldw r2, sp[21]
	}
.Ltmp132:
	#DEBUG_VALUE: ep_hid <- R2
	.loc	2 475 0                 # /Users/rkn/Documents/xTIMEcomposer/workspace/module_xud/include/xud.h:475:0
	#APP
	ldw r0, r2[0]
	#NO_APP
.Ltmp133:
	#DEBUG_VALUE: chan_array_ptr <- R0
	{
		ldc r1, 0
		ldw r11, sp[9]
	}
	.loc	2 478 0                 # /Users/rkn/Documents/xTIMEcomposer/workspace/module_xud/include/xud.h:478:0
	#APP
	add r1, r11, r1
	#NO_APP
.Ltmp134:
	#DEBUG_VALUE: tmp2 <- [SP+52]
	#DEBUG_VALUE: tmp <- R1
	{
		nop
		ldw r11, sp[13]
	}
	.loc	2 483 0                 # /Users/rkn/Documents/xTIMEcomposer/workspace/module_xud/include/xud.h:483:0
	#APP
	stw r11, r2[6]
	#NO_APP
	.loc	2 486 0                 # /Users/rkn/Documents/xTIMEcomposer/workspace/module_xud/include/xud.h:486:0
	#APP
	stw r1, r2[3]
	#NO_APP
	{
		nop
		ldw r1, sp[8]
	}
.Ltmp135:
	.loc	2 489 0                 # /Users/rkn/Documents/xTIMEcomposer/workspace/module_xud/include/xud.h:489:0
	#APP
	stw r1, r2[7]
	#NO_APP
	.loc	2 491 0                 # /Users/rkn/Documents/xTIMEcomposer/workspace/module_xud/include/xud.h:491:0
	#APP
	stw r2, r0[0]
	#NO_APP
.Ltmp136:
	#DEBUG_VALUE: ep_hid <- [SP+84]
	{
		mov r9, r10
		nop
	}
	bu .LBB0_3
.Ltmp137:
.LBB0_40:                               # %iffalse161
                                        #   in Loop: Header=BB0_3 Depth=1
.Lxtalabel25:
	bt r0, .LBB0_3
# BB#41:                                # %ifdone.i.i190
                                        #   in Loop: Header=BB0_3 Depth=1
.Lxtalabel26:
.Ltmp138:
	#DEBUG_VALUE: buffer:c_aud_out <- [SP+92]
	#DEBUG_VALUE: buffer:c_aud_in <- R7
	#DEBUG_VALUE: buffer:c_aud_fb <- R6
	#DEBUG_VALUE: buffer:c_sof <- R4
	#DEBUG_VALUE: buffer:p_off_mclk <- [SP+68]
	#DEBUG_VALUE: buffer:c_hid <- [SP+96]
	#DEBUG_VALUE: ep_aud_out <- [SP+64]
	#DEBUG_VALUE: ep_aud_in <- [SP+60]
	#DEBUG_VALUE: ep_aud_fb <- [SP+88]
	#DEBUG_VALUE: ep_hid <- [SP+84]
	#DEBUG_VALUE: sampleFreq <- 48000
	#DEBUG_VALUE: masterClockFreq <- 24576000
	#DEBUG_VALUE: lastClock <- 0
	#DEBUG_VALUE: clocks <- 0
	#DEBUG_VALUE: clockcounter <- 0
	#DEBUG_VALUE: bufferIn <- 1
	#DEBUG_VALUE: remnant <- 0
	#DEBUG_VALUE: sofCount <- 0
	#DEBUG_VALUE: freqChange <- 0
	#DEBUG_VALUE: mod_from_last_time <- 0
	#DEBUG_VALUE: aud_from_host_buffer <- 0
	#DEBUG_VALUE: buffer:c_aud_ctl <- R3
	#DEBUG_VALUE: result <- undef
	#DEBUG_VALUE: XUD_SetReady_InPtr:addr <- [SP+40]
	#DEBUG_VALUE: addr <- [SP+40]
	#DEBUG_VALUE: XUD_SetReady_In:len <- 3
	#DEBUG_VALUE: XUD_SetReady_InPtr:len <- 3
	#DEBUG_VALUE: wordlength <- 0
	#DEBUG_VALUE: taillength <- [SP+16]
	{
		nop
		ldw r2, sp[22]
	}
.Ltmp139:
	#DEBUG_VALUE: ep_aud_fb <- R2
	.loc	2 475 0                 # /Users/rkn/Documents/xTIMEcomposer/workspace/module_xud/include/xud.h:475:0
	#APP
	ldw r0, r2[0]
	#NO_APP
.Ltmp140:
	#DEBUG_VALUE: chan_array_ptr <- R0
	{
		ldc r1, 0
		ldw r11, sp[10]
	}
	.loc	2 478 0                 # /Users/rkn/Documents/xTIMEcomposer/workspace/module_xud/include/xud.h:478:0
	#APP
	add r1, r11, r1
	#NO_APP
.Ltmp141:
	#DEBUG_VALUE: tmp2 <- [SP+52]
	#DEBUG_VALUE: tmp <- R1
	{
		nop
		ldw r11, sp[13]
	}
	.loc	2 483 0                 # /Users/rkn/Documents/xTIMEcomposer/workspace/module_xud/include/xud.h:483:0
	#APP
	stw r11, r2[6]
	#NO_APP
	.loc	2 486 0                 # /Users/rkn/Documents/xTIMEcomposer/workspace/module_xud/include/xud.h:486:0
	#APP
	stw r1, r2[3]
	#NO_APP
	{
		nop
		ldw r1, sp[4]
	}
.Ltmp142:
	.loc	2 489 0                 # /Users/rkn/Documents/xTIMEcomposer/workspace/module_xud/include/xud.h:489:0
	#APP
	stw r1, r2[7]
	#NO_APP
	.loc	2 491 0                 # /Users/rkn/Documents/xTIMEcomposer/workspace/module_xud/include/xud.h:491:0
	#APP
	stw r2, r0[0]
	#NO_APP
.Ltmp143:
	#DEBUG_VALUE: ep_aud_fb <- [SP+88]
	{
		mov r9, r10
		nop
	}
	bu .LBB0_3
.Ltmp144:
.LBB0_15:                               # %iftrue27
                                        #   in Loop: Header=BB0_3 Depth=1
.Lxtalabel27:
	#DEBUG_VALUE: buffer:c_aud_out <- [SP+92]
	#DEBUG_VALUE: buffer:c_aud_in <- R7
	#DEBUG_VALUE: buffer:c_aud_fb <- R6
	#DEBUG_VALUE: buffer:c_sof <- [SP+80]
	#DEBUG_VALUE: buffer:p_off_mclk <- [SP+68]
	#DEBUG_VALUE: buffer:c_hid <- [SP+96]
	#DEBUG_VALUE: ep_aud_out <- [SP+64]
	#DEBUG_VALUE: ep_aud_in <- [SP+60]
	#DEBUG_VALUE: ep_aud_fb <- [SP+88]
	#DEBUG_VALUE: ep_hid <- [SP+84]
	#DEBUG_VALUE: sampleFreq <- 48000
	#DEBUG_VALUE: masterClockFreq <- 24576000
	#DEBUG_VALUE: lastClock <- 0
	#DEBUG_VALUE: clocks <- 0
	#DEBUG_VALUE: clockcounter <- 0
	#DEBUG_VALUE: bufferIn <- 1
	#DEBUG_VALUE: remnant <- 0
	#DEBUG_VALUE: sofCount <- 0
	#DEBUG_VALUE: freqChange <- 0
	#DEBUG_VALUE: mod_from_last_time <- 0
	#DEBUG_VALUE: aud_from_host_buffer <- 0
	#DEBUG_VALUE: buffer:c_aud_ctl <- R3
	#DEBUG_VALUE: cmd <- R4
	.loc	1 310 0                 # /Users/rkn/Documents/xTIMEcomposer/workspace/module_usb_audio/usb_buffer/usb_buffer.xc:310:0
.Lxta.endpoint_labels6:
	{
		in r5, res[r3]
		nop
	}
.Ltmp145:
	#DEBUG_VALUE: sampleFreq <- R5
	ldw r0, cp[.LCPI0_1]
.Ltmp146:
	#DEBUG_VALUE: buffer:c_aud_ctl <- [SP+48]
	.loc	1 313 25                # /Users/rkn/Documents/xTIMEcomposer/workspace/module_usb_audio/usb_buffer/usb_buffer.xc:313:25
	{
		eq r0, r5, r0
		nop
	}
	bt r0, .LBB0_19
.Ltmp147:
# BB#16:                                # %iftrue32
                                        #   in Loop: Header=BB0_3 Depth=1
.Lxtalabel28:
	#DEBUG_VALUE: buffer:c_aud_out <- [SP+92]
	#DEBUG_VALUE: buffer:c_aud_in <- R7
	#DEBUG_VALUE: buffer:c_aud_fb <- R6
	#DEBUG_VALUE: buffer:c_sof <- [SP+80]
	#DEBUG_VALUE: buffer:p_off_mclk <- [SP+68]
	#DEBUG_VALUE: buffer:c_hid <- [SP+96]
	#DEBUG_VALUE: ep_aud_out <- [SP+64]
	#DEBUG_VALUE: ep_aud_in <- [SP+60]
	#DEBUG_VALUE: ep_aud_fb <- [SP+88]
	#DEBUG_VALUE: ep_hid <- [SP+84]
	#DEBUG_VALUE: sampleFreq <- R5
	#DEBUG_VALUE: masterClockFreq <- 24576000
	#DEBUG_VALUE: lastClock <- 0
	#DEBUG_VALUE: clocks <- 0
	#DEBUG_VALUE: clockcounter <- 0
	#DEBUG_VALUE: bufferIn <- 1
	#DEBUG_VALUE: remnant <- 0
	#DEBUG_VALUE: sofCount <- 1
	#DEBUG_VALUE: freqChange <- 0
	#DEBUG_VALUE: mod_from_last_time <- 0
	#DEBUG_VALUE: aud_from_host_buffer <- 0
	#DEBUG_VALUE: buffer:c_aud_ctl <- [SP+48]
	#DEBUG_VALUE: cmd <- R4
	#DEBUG_VALUE: max <- undef
	#DEBUG_VALUE: mid <- undef
	#DEBUG_VALUE: min <- undef
	.loc	1 329 0                 # /Users/rkn/Documents/xTIMEcomposer/workspace/module_usb_audio/usb_buffer/usb_buffer.xc:329:0
	{
		mov r0, r5
		ldaw r1, sp[27]
	}
	{
		ldaw r2, sp[26]
		ldaw r3, sp[25]
	}
.Lxta.call_labels9:
	bl GetADCCounts
	{
		nop
		ldw r0, sp[26]
	}
	.loc	1 330 0                 # /Users/rkn/Documents/xTIMEcomposer/workspace/module_usb_audio/usb_buffer/usb_buffer.xc:330:0
	{
		shl r0, r0, 16
		nop
	}
	.loc	1 330 0                 # /Users/rkn/Documents/xTIMEcomposer/workspace/module_usb_audio/usb_buffer/usb_buffer.xc:330:0
	stw r0, dp[g_speed]
	ldw r0, cp[.LCPI0_0]
	.loc	1 332 29                # /Users/rkn/Documents/xTIMEcomposer/workspace/module_usb_audio/usb_buffer/usb_buffer.xc:332:29
	remu r0, r0, r5
	ldw r1, cp[.LCPI0_2]
	{
		nop
		stw r1, sp[7]
	}
	bt r0, .LBB0_18
.Ltmp148:
# BB#17:                                # %iftrue32
                                        #   in Loop: Header=BB0_3 Depth=1
.Lxtalabel29:
	#DEBUG_VALUE: buffer:c_aud_out <- [SP+92]
	#DEBUG_VALUE: buffer:c_aud_in <- R7
	#DEBUG_VALUE: buffer:c_aud_fb <- R6
	#DEBUG_VALUE: buffer:c_sof <- [SP+80]
	#DEBUG_VALUE: buffer:p_off_mclk <- [SP+68]
	#DEBUG_VALUE: buffer:c_hid <- [SP+96]
	#DEBUG_VALUE: ep_aud_out <- [SP+64]
	#DEBUG_VALUE: ep_aud_in <- [SP+60]
	#DEBUG_VALUE: ep_aud_fb <- [SP+88]
	#DEBUG_VALUE: ep_hid <- [SP+84]
	#DEBUG_VALUE: sampleFreq <- R5
	#DEBUG_VALUE: masterClockFreq <- 24576000
	#DEBUG_VALUE: lastClock <- 0
	#DEBUG_VALUE: clocks <- 0
	#DEBUG_VALUE: clockcounter <- 0
	#DEBUG_VALUE: bufferIn <- 1
	#DEBUG_VALUE: remnant <- 0
	#DEBUG_VALUE: sofCount <- 1
	#DEBUG_VALUE: freqChange <- 0
	#DEBUG_VALUE: mod_from_last_time <- 0
	#DEBUG_VALUE: aud_from_host_buffer <- 0
	#DEBUG_VALUE: buffer:c_aud_ctl <- [SP+48]
	#DEBUG_VALUE: cmd <- R4
	#DEBUG_VALUE: min <- undef
	#DEBUG_VALUE: mid <- undef
	#DEBUG_VALUE: max <- undef
	ldw r0, cp[.LCPI0_0]
	{
		nop
		stw r0, sp[7]
	}
.Ltmp149:
.LBB0_18:                               # %iftrue32
                                        #   in Loop: Header=BB0_3 Depth=1
.Lxtalabel30:
	#DEBUG_VALUE: buffer:c_aud_out <- [SP+92]
	#DEBUG_VALUE: buffer:c_aud_in <- R7
	#DEBUG_VALUE: buffer:c_aud_fb <- R6
	#DEBUG_VALUE: buffer:c_sof <- [SP+80]
	#DEBUG_VALUE: buffer:p_off_mclk <- [SP+68]
	#DEBUG_VALUE: buffer:c_hid <- [SP+96]
	#DEBUG_VALUE: buffer:c_aud_ctl <- [SP+48]
	{
		ldc r0, 0
		nop
	}
	{
		mov r1, r0
		nop
	}
	{
		mkmsk r0, 1
		stw r1, sp[11]
	}
	{
		mov r8, r0
		stw r1, sp[19]
	}
	{
		nop
		stw r1, sp[18]
	}
.Ltmp150:
.LBB0_19:                               # %ifdone33
                                        #   in Loop: Header=BB0_3 Depth=1
.Lxtalabel31:
	#DEBUG_VALUE: buffer:c_aud_out <- [SP+92]
	#DEBUG_VALUE: buffer:c_aud_in <- R7
	#DEBUG_VALUE: buffer:c_aud_fb <- R6
	#DEBUG_VALUE: buffer:c_sof <- [SP+80]
	#DEBUG_VALUE: buffer:p_off_mclk <- [SP+68]
	#DEBUG_VALUE: buffer:c_hid <- [SP+96]
	#DEBUG_VALUE: ep_aud_out <- [SP+64]
	#DEBUG_VALUE: ep_aud_in <- [SP+60]
	#DEBUG_VALUE: ep_aud_fb <- [SP+88]
	#DEBUG_VALUE: ep_hid <- [SP+84]
	#DEBUG_VALUE: sampleFreq <- R5
	#DEBUG_VALUE: masterClockFreq <- 24576000
	#DEBUG_VALUE: lastClock <- 0
	#DEBUG_VALUE: clocks <- 0
	#DEBUG_VALUE: clockcounter <- 0
	#DEBUG_VALUE: bufferIn <- 1
	#DEBUG_VALUE: remnant <- 0
	#DEBUG_VALUE: sofCount <- 0
	#DEBUG_VALUE: freqChange <- 0
	#DEBUG_VALUE: mod_from_last_time <- 0
	#DEBUG_VALUE: aud_from_host_buffer <- 0
	#DEBUG_VALUE: buffer:c_aud_ctl <- [SP+48]
	#DEBUG_VALUE: cmd <- R4
	.loc	1 344 0                 # /Users/rkn/Documents/xTIMEcomposer/workspace/module_usb_audio/usb_buffer/usb_buffer.xc:344:0
	#APP
	stw r5, dp[g_freqChange_sampFreq]
	#NO_APP
	{
		nop
		stw r5, sp[14]
	}
.Ltmp151:
	#DEBUG_VALUE: sampleFreq <- [SP+56]
	bu .LBB0_25
.Ltmp152:
.LBB0_11:                               # %iffalse
                                        #   in Loop: Header=BB0_3 Depth=1
.Lxtalabel32:
	#DEBUG_VALUE: buffer:c_aud_out <- [SP+92]
	#DEBUG_VALUE: buffer:c_aud_in <- R7
	#DEBUG_VALUE: buffer:c_aud_fb <- R6
	#DEBUG_VALUE: buffer:c_sof <- [SP+80]
	#DEBUG_VALUE: buffer:p_off_mclk <- [SP+68]
	#DEBUG_VALUE: buffer:c_hid <- [SP+96]
	#DEBUG_VALUE: buffer:c_aud_ctl <- R3
	{
		eq r0, r4, 9
		nop
	}
	bf r0, .LBB0_25
.Ltmp153:
# BB#12:                                # %iftrue47
                                        #   in Loop: Header=BB0_3 Depth=1
.Lxtalabel33:
	#DEBUG_VALUE: buffer:c_aud_out <- [SP+92]
	#DEBUG_VALUE: buffer:c_aud_in <- R7
	#DEBUG_VALUE: buffer:c_aud_fb <- R6
	#DEBUG_VALUE: buffer:c_sof <- [SP+80]
	#DEBUG_VALUE: buffer:p_off_mclk <- [SP+68]
	#DEBUG_VALUE: buffer:c_hid <- [SP+96]
	#DEBUG_VALUE: buffer:c_aud_ctl <- R3
	.loc	1 348 0                 # /Users/rkn/Documents/xTIMEcomposer/workspace/module_usb_audio/usb_buffer/usb_buffer.xc:348:0
.Lxta.endpoint_labels7:
	{
		in r0, res[r3]
		nop
	}
.Ltmp154:
	#DEBUG_VALUE: formatChange_DataFormat <- R0
	.loc	1 349 0                 # /Users/rkn/Documents/xTIMEcomposer/workspace/module_usb_audio/usb_buffer/usb_buffer.xc:349:0
.Lxta.endpoint_labels8:
	{
		in r1, res[r3]
		nop
	}
.Ltmp155:
	#DEBUG_VALUE: formatChange_NumChans <- R1
	.loc	1 350 0                 # /Users/rkn/Documents/xTIMEcomposer/workspace/module_usb_audio/usb_buffer/usb_buffer.xc:350:0
.Lxta.endpoint_labels9:
	{
		in r2, res[r3]
		nop
	}
.Ltmp156:
	#DEBUG_VALUE: formatChange_SubSlot <- R2
	.loc	1 351 0                 # /Users/rkn/Documents/xTIMEcomposer/workspace/module_usb_audio/usb_buffer/usb_buffer.xc:351:0
.Lxta.endpoint_labels10:
	{
		in r3, res[r3]
		nop
	}
.Ltmp157:
	#DEBUG_VALUE: formatChange_SampRes <- R3
	#DEBUG_VALUE: buffer:c_aud_ctl <- [SP+48]
	.loc	1 353 0                 # /Users/rkn/Documents/xTIMEcomposer/workspace/module_usb_audio/usb_buffer/usb_buffer.xc:353:0
	#APP
	stw r1, dp[g_formatChange_NumChans]
	#NO_APP
	.loc	1 354 0                 # /Users/rkn/Documents/xTIMEcomposer/workspace/module_usb_audio/usb_buffer/usb_buffer.xc:354:0
	#APP
	stw r2, dp[g_formatChange_SubSlot]
	#NO_APP
	.loc	1 355 0                 # /Users/rkn/Documents/xTIMEcomposer/workspace/module_usb_audio/usb_buffer/usb_buffer.xc:355:0
	#APP
	stw r0, dp[g_formatChange_DataFormat]
	#NO_APP
	.loc	1 356 0                 # /Users/rkn/Documents/xTIMEcomposer/workspace/module_usb_audio/usb_buffer/usb_buffer.xc:356:0
	#APP
	stw r3, dp[g_formatChange_SampRes]
	#NO_APP
	bu .LBB0_25
.Ltmp158:
.LBB0_30:                               #   in Loop: Header=BB0_3 Depth=1
	#DEBUG_VALUE: buffer:c_aud_out <- [SP+92]
	#DEBUG_VALUE: buffer:c_aud_in <- R7
	#DEBUG_VALUE: buffer:c_aud_fb <- R6
	#DEBUG_VALUE: buffer:c_sof <- R4
	#DEBUG_VALUE: buffer:p_off_mclk <- [SP+68]
	#DEBUG_VALUE: buffer:c_hid <- [SP+96]
	#DEBUG_VALUE: buffer:c_aud_ctl <- undef
	{
		nop
		stw r3, sp[18]
	}
	{
		nop
		stw r2, sp[19]
	}
.Ltmp159:
	#DEBUG_VALUE: buffer:c_aud_ctl <- R3
	#DEBUG_VALUE: buffer:c_aud_out <- [SP+92]
	#DEBUG_VALUE: buffer:c_aud_in <- R7
	#DEBUG_VALUE: buffer:c_aud_fb <- R6
	#DEBUG_VALUE: buffer:c_sof <- R4
	#DEBUG_VALUE: buffer:p_off_mclk <- [SP+68]
	#DEBUG_VALUE: buffer:c_hid <- [SP+96]
	#DEBUG_VALUE: ep_aud_out <- [SP+64]
	#DEBUG_VALUE: ep_aud_in <- [SP+60]
	#DEBUG_VALUE: ep_aud_fb <- [SP+88]
	#DEBUG_VALUE: ep_hid <- [SP+84]
	#DEBUG_VALUE: sampleFreq <- 48000
	#DEBUG_VALUE: masterClockFreq <- 24576000
	#DEBUG_VALUE: lastClock <- R9
	#DEBUG_VALUE: clocks <- 0
	#DEBUG_VALUE: clockcounter <- 0
	#DEBUG_VALUE: bufferIn <- 1
	#DEBUG_VALUE: remnant <- 0
	#DEBUG_VALUE: sofCount <- 0
	#DEBUG_VALUE: mod_from_last_time <- 0
	#DEBUG_VALUE: aud_from_host_buffer <- 0
	#DEBUG_VALUE: buffer:c_aud_ctl <- R3
	#DEBUG_VALUE: u_tmp <- R9
	#DEBUG_VALUE: feedbackMul <- 8
	#DEBUG_VALUE: sofCount <- R8
	{
		add r8, r8, 1
		ldw r3, sp[39]
	}
.Ltmp160:
	bu .LBB0_3
.Ltmp161:
.LBB0_23:                               # %iffalse77
                                        #   in Loop: Header=BB0_3 Depth=1
.Lxtalabel34:
	#DEBUG_VALUE: buffer:c_aud_out <- [SP+92]
	#DEBUG_VALUE: buffer:c_aud_in <- R7
	#DEBUG_VALUE: buffer:c_aud_fb <- R6
	#DEBUG_VALUE: buffer:c_sof <- [SP+80]
	#DEBUG_VALUE: buffer:p_off_mclk <- [SP+68]
	#DEBUG_VALUE: buffer:c_hid <- [SP+96]
	#DEBUG_VALUE: buffer:c_aud_ctl <- [SP+48]
	#DEBUG_VALUE: XUD_SetReady_InPtr:addr <- [SP+40]
	#DEBUG_VALUE: addr <- [SP+40]
	#DEBUG_VALUE: reset <- R0
	#DEBUG_VALUE: XUD_SetReady_In:len <- 3
	#DEBUG_VALUE: XUD_SetReady_InPtr:len <- 3
	bt r0, .LBB0_25
.Ltmp162:
# BB#24:                                # %ifdone.i.i182
                                        #   in Loop: Header=BB0_3 Depth=1
.Lxtalabel35:
	#DEBUG_VALUE: buffer:c_aud_out <- [SP+92]
	#DEBUG_VALUE: buffer:c_aud_in <- R7
	#DEBUG_VALUE: buffer:c_aud_fb <- R6
	#DEBUG_VALUE: buffer:c_sof <- [SP+80]
	#DEBUG_VALUE: buffer:p_off_mclk <- [SP+68]
	#DEBUG_VALUE: buffer:c_hid <- [SP+96]
	#DEBUG_VALUE: buffer:c_aud_ctl <- [SP+48]
	#DEBUG_VALUE: XUD_SetReady_InPtr:addr <- [SP+40]
	#DEBUG_VALUE: addr <- [SP+40]
	#DEBUG_VALUE: XUD_SetReady_In:len <- 3
	#DEBUG_VALUE: XUD_SetReady_InPtr:len <- 3
	#DEBUG_VALUE: wordlength <- 0
	#DEBUG_VALUE: taillength <- [SP+16]
	{
		nop
		ldw r2, sp[22]
	}
	.loc	2 475 0                 # /Users/rkn/Documents/xTIMEcomposer/workspace/module_xud/include/xud.h:475:0
.Ltmp163:
	#APP
	ldw r0, r2[0]
	#NO_APP
.Ltmp164:
	#DEBUG_VALUE: chan_array_ptr <- R0
	{
		ldc r1, 0
		ldw r3, sp[10]
	}
	.loc	2 478 0                 # /Users/rkn/Documents/xTIMEcomposer/workspace/module_xud/include/xud.h:478:0
	#APP
	add r1, r3, r1
	#NO_APP
.Ltmp165:
	#DEBUG_VALUE: tmp2 <- [SP+52]
	#DEBUG_VALUE: tmp <- R1
	{
		nop
		ldw r3, sp[13]
	}
	.loc	2 483 0                 # /Users/rkn/Documents/xTIMEcomposer/workspace/module_xud/include/xud.h:483:0
	#APP
	stw r3, r2[6]
	#NO_APP
	.loc	2 486 0                 # /Users/rkn/Documents/xTIMEcomposer/workspace/module_xud/include/xud.h:486:0
	#APP
	stw r1, r2[3]
	#NO_APP
	{
		nop
		ldw r1, sp[4]
	}
.Ltmp166:
	.loc	2 489 0                 # /Users/rkn/Documents/xTIMEcomposer/workspace/module_xud/include/xud.h:489:0
	#APP
	stw r1, r2[7]
	#NO_APP
	.loc	2 491 0                 # /Users/rkn/Documents/xTIMEcomposer/workspace/module_xud/include/xud.h:491:0
	#APP
	stw r2, r0[0]
	#NO_APP
.Ltmp167:
.LBB0_25:                               # %ifdone28
                                        #   in Loop: Header=BB0_3 Depth=1
.Lxtalabel36:
	#DEBUG_VALUE: buffer:c_aud_out <- [SP+92]
	#DEBUG_VALUE: buffer:c_aud_in <- R7
	#DEBUG_VALUE: buffer:c_aud_fb <- R6
	#DEBUG_VALUE: buffer:c_sof <- [SP+80]
	#DEBUG_VALUE: buffer:p_off_mclk <- [SP+68]
	#DEBUG_VALUE: buffer:c_hid <- [SP+96]
	#DEBUG_VALUE: ep_aud_out <- [SP+64]
	#DEBUG_VALUE: ep_aud_in <- [SP+60]
	#DEBUG_VALUE: ep_aud_fb <- [SP+88]
	#DEBUG_VALUE: ep_hid <- [SP+84]
	#DEBUG_VALUE: sampleFreq <- 48000
	#DEBUG_VALUE: masterClockFreq <- 24576000
	#DEBUG_VALUE: lastClock <- 0
	#DEBUG_VALUE: clocks <- 0
	#DEBUG_VALUE: clockcounter <- 0
	#DEBUG_VALUE: bufferIn <- 1
	#DEBUG_VALUE: remnant <- 0
	#DEBUG_VALUE: sofCount <- 0
	#DEBUG_VALUE: freqChange <- 0
	#DEBUG_VALUE: mod_from_last_time <- 0
	#DEBUG_VALUE: aud_from_host_buffer <- 0
	#DEBUG_VALUE: buffer:c_aud_ctl <- [SP+48]
	#DEBUG_VALUE: cmd <- R4
	.loc	1 389 0                 # /Users/rkn/Documents/xTIMEcomposer/workspace/module_usb_audio/usb_buffer/usb_buffer.xc:389:0
	#APP
	stw r4, dp[g_freqChange]
	#NO_APP
	.loc	1 390 0                 # /Users/rkn/Documents/xTIMEcomposer/workspace/module_usb_audio/usb_buffer/usb_buffer.xc:390:0
	#APP
	stw r4, dp[g_freqChange_flag]
	#NO_APP
.Ltmp168:
	#DEBUG_VALUE: buffer:c_sof <- R4
	{
		mov r9, r10
		ldw r4, sp[20]
	}
.Ltmp169:
	{
		nop
		ldw r3, sp[39]
	}
.Ltmp170:
	#DEBUG_VALUE: buffer:c_aud_ctl <- R3
	bu .LBB0_3
.Ltmp171:
.LBB0_13:                               # %iftrue17
.Lxtalabel37:
	#DEBUG_VALUE: sampleFreq <- 48000
	#DEBUG_VALUE: masterClockFreq <- 24576000
	#DEBUG_VALUE: lastClock <- 0
	#DEBUG_VALUE: clocks <- 0
	#DEBUG_VALUE: clockcounter <- 0
	#DEBUG_VALUE: bufferIn <- 1
	#DEBUG_VALUE: remnant <- 0
	#DEBUG_VALUE: sofCount <- 0
	#DEBUG_VALUE: freqChange <- 0
	#DEBUG_VALUE: mod_from_last_time <- 0
	#DEBUG_VALUE: aud_from_host_buffer <- 0
	#DEBUG_VALUE: buffer:c_aud_ctl <- R3
	.loc	1 300 0                 # /Users/rkn/Documents/xTIMEcomposer/workspace/module_usb_audio/usb_buffer/usb_buffer.xc:300:0
.Lxta.endpoint_labels11:
	{
		inct r0, res[r3]
		nop
	}
	.loc	1 301 0                 # /Users/rkn/Documents/xTIMEcomposer/workspace/module_usb_audio/usb_buffer/usb_buffer.xc:301:0
.Lxta.endpoint_labels12:
	{
		outct res[r3], 1
		nop
	}
.Ltmp172:
.LBB0_14:                               # %LoopTest23
                                        # =>This Inner Loop Header: Depth=1
	#DEBUG_VALUE: sampleFreq <- 48000
	#DEBUG_VALUE: masterClockFreq <- 24576000
	#DEBUG_VALUE: lastClock <- 0
	#DEBUG_VALUE: clocks <- 0
	#DEBUG_VALUE: clockcounter <- 0
	#DEBUG_VALUE: bufferIn <- 1
	#DEBUG_VALUE: remnant <- 0
	#DEBUG_VALUE: sofCount <- 0
	#DEBUG_VALUE: freqChange <- 0
	#DEBUG_VALUE: mod_from_last_time <- 0
	#DEBUG_VALUE: aud_from_host_buffer <- 0
	.loc	1 302 20                # /Users/rkn/Documents/xTIMEcomposer/workspace/module_usb_audio/usb_buffer/usb_buffer.xc:302:20
	bu .LBB0_14
.Ltmp173:
	.cc_bottom buffer.function
	.set	buffer.nstackwords,((XUD_InitEp.nstackwords $M GetADCCounts.nstackwords $M __divdi3.nstackwords $M __moddi3.nstackwords $M XUD_GetData_Select.nstackwords $M XUD_SetData_Select.nstackwords $M UserReadHIDButtons.nstackwords) + 38)
	.globl	buffer.nstackwords
	.set	buffer.maxcores,GetADCCounts.maxcores $M UserReadHIDButtons.maxcores $M XUD_GetData_Select.maxcores $M XUD_InitEp.maxcores $M XUD_SetData_Select.maxcores $M 1
	.globl	buffer.maxcores
	.set	buffer.maxtimers,GetADCCounts.maxtimers $M UserReadHIDButtons.maxtimers $M XUD_GetData_Select.maxtimers $M XUD_InitEp.maxtimers $M XUD_SetData_Select.maxtimers $M 0
	.globl	buffer.maxtimers
	.set	buffer.maxchanends,GetADCCounts.maxchanends $M UserReadHIDButtons.maxchanends $M XUD_GetData_Select.maxchanends $M XUD_InitEp.maxchanends $M XUD_SetData_Select.maxchanends $M 0
	.globl	buffer.maxchanends
.Ltmp174:
	.size	buffer, .Ltmp174-buffer
.Lfunc_end0:
	.cfi_endproc

	.section	.dp.bss,"awd",@nobits
	.cc_top g_hidData.data,g_hidData
	.globl	g_hidData.globound
g_hidData.globound = 1
	.globl	g_hidData
	.align	8
	.type	g_hidData,@object
	.size	g_hidData, 1
g_hidData:
	.space	1
	.space	3
	.cc_bottom g_hidData.data
	.section	.dp.bss.4,"awd",@nobits
	.cc_top g_speed.data,g_speed
	.globl	g_speed
	.align	4
	.type	g_speed,@object
	.size	g_speed, 4
g_speed:
	.long	0                       # 0x0
	.cc_bottom g_speed.data
	.cc_top g_freqChange.data,g_freqChange
	.globl	g_freqChange
	.align	4
	.type	g_freqChange,@object
	.size	g_freqChange, 4
g_freqChange:
	.long	0                       # 0x0
	.cc_bottom g_freqChange.data
	.section	.dp.bss,"awd",@nobits
	.cc_top fb_clocks.data,fb_clocks
	.globl	fb_clocks.globound
fb_clocks.globound = 16
	.globl	fb_clocks
	.align	8
	.type	fb_clocks,@object
	.size	fb_clocks, 16
fb_clocks:
	.space	16
	.cc_bottom fb_clocks.data
	.section	.dp.bss.4,"awd",@nobits
.Ldebug_end0:
	.section	.dp.bss,"awd",@nobits
.Ldebug_end1:
	.text
.Ldebug_end2:
	.file	4 "/Applications/XMOS_xTIMEcomposer_Community_14.3.2/target/include/timer.h"
	.file	5 "/Users/rkn/Documents/xTIMEcomposer/workspace/module_usb_audio/usb_buffer/xc_ptr.h"
	.section	.xtacalltable,"",@progbits
.Lentries_start0:
	.long	.Lentries_end1-.Lentries_start0
	.long	0
	.ascii	"/Users/rkn/Documents/xTIMEcomposer/workspace/app_usb_aud_xk_216_mc/.build_2i32o32xxxxx_tdm8"
	.byte	0
.cc_top cc_0,.Lxta.call_labels0
	.ascii	"/Users/rkn/Documents/xTIMEcomposer/workspace/module_usb_audio/usb_buffer/usb_buffer.xc"
	.byte	0
	.long	135
	.long	.Lxta.call_labels0
.cc_bottom cc_0
.cc_top cc_1,.Lxta.call_labels1
	.ascii	"/Users/rkn/Documents/xTIMEcomposer/workspace/module_usb_audio/usb_buffer/usb_buffer.xc"
	.byte	0
	.long	136
	.long	.Lxta.call_labels1
.cc_bottom cc_1
.cc_top cc_2,.Lxta.call_labels2
	.ascii	"/Users/rkn/Documents/xTIMEcomposer/workspace/module_usb_audio/usb_buffer/usb_buffer.xc"
	.byte	0
	.long	138
	.long	.Lxta.call_labels2
.cc_bottom cc_2
.cc_top cc_3,.Lxta.call_labels3
	.ascii	"/Users/rkn/Documents/xTIMEcomposer/workspace/module_usb_audio/usb_buffer/usb_buffer.xc"
	.byte	0
	.long	160
	.long	.Lxta.call_labels3
.cc_bottom cc_3
.cc_top cc_4,.Lxta.call_labels9
	.ascii	"/Users/rkn/Documents/xTIMEcomposer/workspace/module_usb_audio/usb_buffer/usb_buffer.xc"
	.byte	0
	.long	329
	.long	.Lxta.call_labels9
.cc_bottom cc_4
.cc_top cc_5,.Lxta.call_labels5
	.ascii	"/Users/rkn/Documents/xTIMEcomposer/workspace/module_usb_audio/usb_buffer/usb_buffer.xc"
	.byte	0
	.long	547
	.long	.Lxta.call_labels5
.cc_bottom cc_5
.cc_top cc_6,.Lxta.call_labels6
	.ascii	"/Users/rkn/Documents/xTIMEcomposer/workspace/module_usb_audio/usb_buffer/usb_buffer.xc"
	.byte	0
	.long	558
	.long	.Lxta.call_labels6
.cc_bottom cc_6
.cc_top cc_7,.Lxta.call_labels4
	.ascii	"/Users/rkn/Documents/xTIMEcomposer/workspace/module_usb_audio/usb_buffer/usb_buffer.xc"
	.byte	0
	.long	576
	.long	.Lxta.call_labels4
.cc_bottom cc_7
.cc_top cc_8,.Lxta.call_labels7
	.ascii	"/Users/rkn/Documents/xTIMEcomposer/workspace/module_usb_audio/usb_buffer/usb_buffer.xc"
	.byte	0
	.long	726
	.long	.Lxta.call_labels7
.cc_bottom cc_8
.cc_top cc_9,.Lxta.call_labels8
	.ascii	"/Users/rkn/Documents/xTIMEcomposer/workspace/module_usb_audio/usb_buffer/usb_buffer.xc"
	.byte	0
	.long	729
	.long	.Lxta.call_labels8
.cc_bottom cc_9
.Lentries_end1:
	.section	.xtaendpointtable,"",@progbits
.Lentries_start2:
	.long	.Lentries_end3-.Lentries_start2
	.long	0
	.ascii	"/Users/rkn/Documents/xTIMEcomposer/workspace/app_usb_aud_xk_216_mc/.build_2i32o32xxxxx_tdm8"
	.byte	0
.cc_top cc_10,.Lxta.endpoint_labels11
	.ascii	"/Users/rkn/Documents/xTIMEcomposer/workspace/module_usb_audio/usb_buffer/usb_buffer.xc"
	.byte	0
	.long	300
	.long	.Lxta.endpoint_labels11
.cc_bottom cc_10
.cc_top cc_11,.Lxta.endpoint_labels12
	.ascii	"/Users/rkn/Documents/xTIMEcomposer/workspace/module_usb_audio/usb_buffer/usb_buffer.xc"
	.byte	0
	.long	301
	.long	.Lxta.endpoint_labels12
.cc_bottom cc_11
.cc_top cc_12,.Lxta.endpoint_labels0
	.ascii	"/Users/rkn/Documents/xTIMEcomposer/workspace/module_usb_audio/usb_buffer/usb_buffer.xc"
	.byte	0
	.long	306
	.long	.Lxta.endpoint_labels0
.cc_bottom cc_12
.cc_top cc_13,.Lxta.endpoint_labels6
	.ascii	"/Users/rkn/Documents/xTIMEcomposer/workspace/module_usb_audio/usb_buffer/usb_buffer.xc"
	.byte	0
	.long	310
	.long	.Lxta.endpoint_labels6
.cc_bottom cc_13
.cc_top cc_14,.Lxta.endpoint_labels7
	.ascii	"/Users/rkn/Documents/xTIMEcomposer/workspace/module_usb_audio/usb_buffer/usb_buffer.xc"
	.byte	0
	.long	348
	.long	.Lxta.endpoint_labels7
.cc_bottom cc_14
.cc_top cc_15,.Lxta.endpoint_labels8
	.ascii	"/Users/rkn/Documents/xTIMEcomposer/workspace/module_usb_audio/usb_buffer/usb_buffer.xc"
	.byte	0
	.long	349
	.long	.Lxta.endpoint_labels8
.cc_bottom cc_15
.cc_top cc_16,.Lxta.endpoint_labels9
	.ascii	"/Users/rkn/Documents/xTIMEcomposer/workspace/module_usb_audio/usb_buffer/usb_buffer.xc"
	.byte	0
	.long	350
	.long	.Lxta.endpoint_labels9
.cc_bottom cc_16
.cc_top cc_17,.Lxta.endpoint_labels10
	.ascii	"/Users/rkn/Documents/xTIMEcomposer/workspace/module_usb_audio/usb_buffer/usb_buffer.xc"
	.byte	0
	.long	351
	.long	.Lxta.endpoint_labels10
.cc_bottom cc_17
.cc_top cc_18,.Lxta.endpoint_labels1
	.ascii	"/Users/rkn/Documents/xTIMEcomposer/workspace/module_usb_audio/usb_buffer/usb_buffer.xc"
	.byte	0
	.long	361
	.long	.Lxta.endpoint_labels1
.cc_bottom cc_18
.cc_top cc_19,.Lxta.endpoint_labels2
	.ascii	"/Users/rkn/Documents/xTIMEcomposer/workspace/module_usb_audio/usb_buffer/usb_buffer.xc"
	.byte	0
	.long	362
	.long	.Lxta.endpoint_labels2
.cc_bottom cc_19
.cc_top cc_20,.Lxta.endpoint_labels3
	.ascii	"/Users/rkn/Documents/xTIMEcomposer/workspace/module_usb_audio/usb_buffer/usb_buffer.xc"
	.byte	0
	.long	363
	.long	.Lxta.endpoint_labels3
.cc_bottom cc_20
.cc_top cc_21,.Lxta.endpoint_labels4
	.ascii	"/Users/rkn/Documents/xTIMEcomposer/workspace/module_usb_audio/usb_buffer/usb_buffer.xc"
	.byte	0
	.long	364
	.long	.Lxta.endpoint_labels4
.cc_bottom cc_21
.cc_top cc_22,.Lxta.endpoint_labels5
	.ascii	"/Users/rkn/Documents/xTIMEcomposer/workspace/module_usb_audio/usb_buffer/usb_buffer.xc"
	.byte	0
	.long	400
	.long	.Lxta.endpoint_labels5
.cc_bottom cc_22
.Lentries_end3:
	.section	.xtalabeltable,"",@progbits
.Lentries_start4:
	.long	.Lentries_end5-.Lentries_start4
	.long	0
	.ascii	"/Users/rkn/Documents/xTIMEcomposer/workspace/app_usb_aud_xk_216_mc/.build_2i32o32xxxxx_tdm8"
	.byte	0
.cc_top cc_23,.Lxtalabel4
	.ascii	"/Users/rkn/Documents/xTIMEcomposer/workspace/module_usb_audio/usb_buffer/testct_byref.h"
	.byte	0
	.long	7
	.long	8
	.long	.Lxtalabel4
.cc_bottom cc_23
.cc_top cc_24,.Lxtalabel4
	.ascii	"/Users/rkn/Documents/xTIMEcomposer/workspace/module_usb_audio/usb_buffer/testct_byref.h"
	.byte	0
	.long	16
	.long	16
	.long	.Lxtalabel4
.cc_bottom cc_24
.cc_top cc_25,.Lxtalabel0
	.ascii	"/Users/rkn/Documents/xTIMEcomposer/workspace/module_usb_audio/usb_buffer/usb_buffer.xc"
	.byte	0
	.long	134
	.long	136
	.long	.Lxtalabel0
.cc_bottom cc_25
.cc_top cc_26,.Lxtalabel0
	.ascii	"/Users/rkn/Documents/xTIMEcomposer/workspace/module_usb_audio/usb_buffer/usb_buffer.xc"
	.byte	0
	.long	138
	.long	138
	.long	.Lxtalabel0
.cc_bottom cc_26
.cc_top cc_27,.Lxtalabel0
	.ascii	"/Users/rkn/Documents/xTIMEcomposer/workspace/module_usb_audio/usb_buffer/usb_buffer.xc"
	.byte	0
	.long	160
	.long	160
	.long	.Lxtalabel0
.cc_bottom cc_27
.cc_top cc_28,.Lxtalabel0
	.ascii	"/Users/rkn/Documents/xTIMEcomposer/workspace/module_usb_audio/usb_buffer/usb_buffer.xc"
	.byte	0
	.long	162
	.long	165
	.long	.Lxtalabel0
.cc_bottom cc_28
.cc_top cc_29,.Lxtalabel0
	.ascii	"/Users/rkn/Documents/xTIMEcomposer/workspace/module_usb_audio/usb_buffer/usb_buffer.xc"
	.byte	0
	.long	167
	.long	168
	.long	.Lxtalabel0
.cc_bottom cc_29
.cc_top cc_30,.Lxtalabel0
	.ascii	"/Users/rkn/Documents/xTIMEcomposer/workspace/module_usb_audio/usb_buffer/usb_buffer.xc"
	.byte	0
	.long	172
	.long	172
	.long	.Lxtalabel0
.cc_bottom cc_30
.cc_top cc_31,.Lxtalabel0
	.ascii	"/Users/rkn/Documents/xTIMEcomposer/workspace/module_usb_audio/usb_buffer/usb_buffer.xc"
	.byte	0
	.long	174
	.long	176
	.long	.Lxtalabel0
.cc_bottom cc_31
.cc_top cc_32,.Lxtalabel0
	.ascii	"/Users/rkn/Documents/xTIMEcomposer/workspace/module_usb_audio/usb_buffer/usb_buffer.xc"
	.byte	0
	.long	178
	.long	178
	.long	.Lxtalabel0
.cc_bottom cc_32
.cc_top cc_33,.Lxtalabel0
	.ascii	"/Users/rkn/Documents/xTIMEcomposer/workspace/module_usb_audio/usb_buffer/usb_buffer.xc"
	.byte	0
	.long	183
	.long	183
	.long	.Lxtalabel0
.cc_bottom cc_33
.cc_top cc_34,.Lxtalabel0
	.ascii	"/Users/rkn/Documents/xTIMEcomposer/workspace/module_usb_audio/usb_buffer/usb_buffer.xc"
	.byte	0
	.long	226
	.long	228
	.long	.Lxtalabel0
.cc_bottom cc_34
.cc_top cc_35,.Lxtalabel0
	.ascii	"/Users/rkn/Documents/xTIMEcomposer/workspace/module_usb_audio/usb_buffer/usb_buffer.xc"
	.byte	0
	.long	235
	.long	235
	.long	.Lxtalabel0
.cc_bottom cc_35
.cc_top cc_36,.Lxtalabel0
	.ascii	"/Users/rkn/Documents/xTIMEcomposer/workspace/module_usb_audio/usb_buffer/usb_buffer.xc"
	.byte	0
	.long	239
	.long	239
	.long	.Lxtalabel0
.cc_bottom cc_36
.cc_top cc_37,.Lxtalabel0
	.ascii	"/Users/rkn/Documents/xTIMEcomposer/workspace/module_usb_audio/usb_buffer/usb_buffer.xc"
	.byte	0
	.long	242
	.long	242
	.long	.Lxtalabel0
.cc_bottom cc_37
.cc_top cc_38,.Lxtalabel0
	.ascii	"/Users/rkn/Documents/xTIMEcomposer/workspace/module_usb_audio/usb_buffer/usb_buffer.xc"
	.byte	0
	.long	258
	.long	258
	.long	.Lxtalabel0
.cc_bottom cc_38
.cc_top cc_39,.Lxtalabel0
	.ascii	"/Users/rkn/Documents/xTIMEcomposer/workspace/module_usb_audio/usb_buffer/usb_buffer.xc"
	.byte	0
	.long	261
	.long	261
	.long	.Lxtalabel0
.cc_bottom cc_39
.cc_top cc_40,.Lxtalabel3
	.ascii	"/Users/rkn/Documents/xTIMEcomposer/workspace/module_usb_audio/usb_buffer/usb_buffer.xc"
	.byte	0
	.long	262
	.long	264
	.long	.Lxtalabel3
.cc_bottom cc_40
.cc_top cc_41,.Lxtalabel3
	.ascii	"/Users/rkn/Documents/xTIMEcomposer/workspace/module_usb_audio/usb_buffer/usb_buffer.xc"
	.byte	0
	.long	267
	.long	268
	.long	.Lxtalabel3
.cc_bottom cc_41
.cc_top cc_42,.Lxtalabel3
	.ascii	"/Users/rkn/Documents/xTIMEcomposer/workspace/module_usb_audio/usb_buffer/usb_buffer.xc"
	.byte	0
	.long	295
	.long	295
	.long	.Lxtalabel3
.cc_bottom cc_42
.cc_top cc_43,.Lxtalabel4
	.ascii	"/Users/rkn/Documents/xTIMEcomposer/workspace/module_usb_audio/usb_buffer/usb_buffer.xc"
	.byte	0
	.long	296
	.long	297
	.long	.Lxtalabel4
.cc_bottom cc_43
.cc_top cc_44,.Lxtalabel37
	.ascii	"/Users/rkn/Documents/xTIMEcomposer/workspace/module_usb_audio/usb_buffer/usb_buffer.xc"
	.byte	0
	.long	298
	.long	298
	.long	.Lxtalabel37
.cc_bottom cc_44
.cc_top cc_45,.Lxtalabel37
	.ascii	"/Users/rkn/Documents/xTIMEcomposer/workspace/module_usb_audio/usb_buffer/usb_buffer.xc"
	.byte	0
	.long	300
	.long	300
	.long	.Lxtalabel37
.cc_bottom cc_45
.cc_top cc_46,.Lxtalabel37
	.ascii	"/Users/rkn/Documents/xTIMEcomposer/workspace/module_usb_audio/usb_buffer/usb_buffer.xc"
	.byte	0
	.long	301
	.long	301
	.long	.Lxtalabel37
.cc_bottom cc_46
.cc_top cc_47,.Lxtalabel37
	.ascii	"/Users/rkn/Documents/xTIMEcomposer/workspace/module_usb_audio/usb_buffer/usb_buffer.xc"
	.byte	0
	.long	302
	.long	302
	.long	.Lxtalabel37
.cc_bottom cc_47
.cc_top cc_48,.Lxtalabel5
	.ascii	"/Users/rkn/Documents/xTIMEcomposer/workspace/module_usb_audio/usb_buffer/usb_buffer.xc"
	.byte	0
	.long	304
	.long	306
	.long	.Lxtalabel5
.cc_bottom cc_48
.cc_top cc_49,.Lxtalabel32
	.ascii	"/Users/rkn/Documents/xTIMEcomposer/workspace/module_usb_audio/usb_buffer/usb_buffer.xc"
	.byte	0
	.long	304
	.long	306
	.long	.Lxtalabel32
.cc_bottom cc_49
.cc_top cc_50,.Lxtalabel6
	.ascii	"/Users/rkn/Documents/xTIMEcomposer/workspace/module_usb_audio/usb_buffer/usb_buffer.xc"
	.byte	0
	.long	304
	.long	306
	.long	.Lxtalabel6
.cc_bottom cc_50
.cc_top cc_51,.Lxtalabel6
	.ascii	"/Users/rkn/Documents/xTIMEcomposer/workspace/module_usb_audio/usb_buffer/usb_buffer.xc"
	.byte	0
	.long	308
	.long	308
	.long	.Lxtalabel6
.cc_bottom cc_51
.cc_top cc_52,.Lxtalabel5
	.ascii	"/Users/rkn/Documents/xTIMEcomposer/workspace/module_usb_audio/usb_buffer/usb_buffer.xc"
	.byte	0
	.long	308
	.long	308
	.long	.Lxtalabel5
.cc_bottom cc_52
.cc_top cc_53,.Lxtalabel32
	.ascii	"/Users/rkn/Documents/xTIMEcomposer/workspace/module_usb_audio/usb_buffer/usb_buffer.xc"
	.byte	0
	.long	308
	.long	308
	.long	.Lxtalabel32
.cc_bottom cc_53
.cc_top cc_54,.Lxtalabel27
	.ascii	"/Users/rkn/Documents/xTIMEcomposer/workspace/module_usb_audio/usb_buffer/usb_buffer.xc"
	.byte	0
	.long	309
	.long	310
	.long	.Lxtalabel27
.cc_bottom cc_54
.cc_top cc_55,.Lxtalabel27
	.ascii	"/Users/rkn/Documents/xTIMEcomposer/workspace/module_usb_audio/usb_buffer/usb_buffer.xc"
	.byte	0
	.long	313
	.long	313
	.long	.Lxtalabel27
.cc_bottom cc_55
.cc_top cc_56,.Lxtalabel30
	.ascii	"/Users/rkn/Documents/xTIMEcomposer/workspace/module_usb_audio/usb_buffer/usb_buffer.xc"
	.byte	0
	.long	314
	.long	314
	.long	.Lxtalabel30
.cc_bottom cc_56
.cc_top cc_57,.Lxtalabel29
	.ascii	"/Users/rkn/Documents/xTIMEcomposer/workspace/module_usb_audio/usb_buffer/usb_buffer.xc"
	.byte	0
	.long	314
	.long	314
	.long	.Lxtalabel29
.cc_bottom cc_57
.cc_top cc_58,.Lxtalabel28
	.ascii	"/Users/rkn/Documents/xTIMEcomposer/workspace/module_usb_audio/usb_buffer/usb_buffer.xc"
	.byte	0
	.long	314
	.long	314
	.long	.Lxtalabel28
.cc_bottom cc_58
.cc_top cc_59,.Lxtalabel30
	.ascii	"/Users/rkn/Documents/xTIMEcomposer/workspace/module_usb_audio/usb_buffer/usb_buffer.xc"
	.byte	0
	.long	321
	.long	325
	.long	.Lxtalabel30
.cc_bottom cc_59
.cc_top cc_60,.Lxtalabel29
	.ascii	"/Users/rkn/Documents/xTIMEcomposer/workspace/module_usb_audio/usb_buffer/usb_buffer.xc"
	.byte	0
	.long	321
	.long	325
	.long	.Lxtalabel29
.cc_bottom cc_60
.cc_top cc_61,.Lxtalabel28
	.ascii	"/Users/rkn/Documents/xTIMEcomposer/workspace/module_usb_audio/usb_buffer/usb_buffer.xc"
	.byte	0
	.long	321
	.long	325
	.long	.Lxtalabel28
.cc_bottom cc_61
.cc_top cc_62,.Lxtalabel30
	.ascii	"/Users/rkn/Documents/xTIMEcomposer/workspace/module_usb_audio/usb_buffer/usb_buffer.xc"
	.byte	0
	.long	328
	.long	330
	.long	.Lxtalabel30
.cc_bottom cc_62
.cc_top cc_63,.Lxtalabel28
	.ascii	"/Users/rkn/Documents/xTIMEcomposer/workspace/module_usb_audio/usb_buffer/usb_buffer.xc"
	.byte	0
	.long	328
	.long	330
	.long	.Lxtalabel28
.cc_bottom cc_63
.cc_top cc_64,.Lxtalabel29
	.ascii	"/Users/rkn/Documents/xTIMEcomposer/workspace/module_usb_audio/usb_buffer/usb_buffer.xc"
	.byte	0
	.long	328
	.long	330
	.long	.Lxtalabel29
.cc_bottom cc_64
.cc_top cc_65,.Lxtalabel29
	.ascii	"/Users/rkn/Documents/xTIMEcomposer/workspace/module_usb_audio/usb_buffer/usb_buffer.xc"
	.byte	0
	.long	332
	.long	332
	.long	.Lxtalabel29
.cc_bottom cc_65
.cc_top cc_66,.Lxtalabel28
	.ascii	"/Users/rkn/Documents/xTIMEcomposer/workspace/module_usb_audio/usb_buffer/usb_buffer.xc"
	.byte	0
	.long	332
	.long	332
	.long	.Lxtalabel28
.cc_bottom cc_66
.cc_top cc_67,.Lxtalabel30
	.ascii	"/Users/rkn/Documents/xTIMEcomposer/workspace/module_usb_audio/usb_buffer/usb_buffer.xc"
	.byte	0
	.long	332
	.long	332
	.long	.Lxtalabel30
.cc_bottom cc_67
.cc_top cc_68,.Lxtalabel31
	.ascii	"/Users/rkn/Documents/xTIMEcomposer/workspace/module_usb_audio/usb_buffer/usb_buffer.xc"
	.byte	0
	.long	344
	.long	344
	.long	.Lxtalabel31
.cc_bottom cc_68
.cc_top cc_69,.Lxtalabel31
	.ascii	"/Users/rkn/Documents/xTIMEcomposer/workspace/module_usb_audio/usb_buffer/usb_buffer.xc"
	.byte	0
	.long	345
	.long	345
	.long	.Lxtalabel31
.cc_bottom cc_69
.cc_top cc_70,.Lxtalabel33
	.ascii	"/Users/rkn/Documents/xTIMEcomposer/workspace/module_usb_audio/usb_buffer/usb_buffer.xc"
	.byte	0
	.long	347
	.long	351
	.long	.Lxtalabel33
.cc_bottom cc_70
.cc_top cc_71,.Lxtalabel33
	.ascii	"/Users/rkn/Documents/xTIMEcomposer/workspace/module_usb_audio/usb_buffer/usb_buffer.xc"
	.byte	0
	.long	353
	.long	353
	.long	.Lxtalabel33
.cc_bottom cc_71
.cc_top cc_72,.Lxtalabel33
	.ascii	"/Users/rkn/Documents/xTIMEcomposer/workspace/module_usb_audio/usb_buffer/usb_buffer.xc"
	.byte	0
	.long	354
	.long	354
	.long	.Lxtalabel33
.cc_bottom cc_72
.cc_top cc_73,.Lxtalabel33
	.ascii	"/Users/rkn/Documents/xTIMEcomposer/workspace/module_usb_audio/usb_buffer/usb_buffer.xc"
	.byte	0
	.long	355
	.long	355
	.long	.Lxtalabel33
.cc_bottom cc_73
.cc_top cc_74,.Lxtalabel33
	.ascii	"/Users/rkn/Documents/xTIMEcomposer/workspace/module_usb_audio/usb_buffer/usb_buffer.xc"
	.byte	0
	.long	356
	.long	356
	.long	.Lxtalabel33
.cc_bottom cc_74
.cc_top cc_75,.Lxtalabel33
	.ascii	"/Users/rkn/Documents/xTIMEcomposer/workspace/module_usb_audio/usb_buffer/usb_buffer.xc"
	.byte	0
	.long	357
	.long	357
	.long	.Lxtalabel33
.cc_bottom cc_75
.cc_top cc_76,.Lxtalabel7
	.ascii	"/Users/rkn/Documents/xTIMEcomposer/workspace/module_usb_audio/usb_buffer/usb_buffer.xc"
	.byte	0
	.long	359
	.long	364
	.long	.Lxtalabel7
.cc_bottom cc_76
.cc_top cc_77,.Lxtalabel7
	.ascii	"/Users/rkn/Documents/xTIMEcomposer/workspace/module_usb_audio/usb_buffer/usb_buffer.xc"
	.byte	0
	.long	366
	.long	366
	.long	.Lxtalabel7
.cc_bottom cc_77
.cc_top cc_78,.Lxtalabel7
	.ascii	"/Users/rkn/Documents/xTIMEcomposer/workspace/module_usb_audio/usb_buffer/usb_buffer.xc"
	.byte	0
	.long	367
	.long	367
	.long	.Lxtalabel7
.cc_bottom cc_78
.cc_top cc_79,.Lxtalabel7
	.ascii	"/Users/rkn/Documents/xTIMEcomposer/workspace/module_usb_audio/usb_buffer/usb_buffer.xc"
	.byte	0
	.long	368
	.long	368
	.long	.Lxtalabel7
.cc_bottom cc_79
.cc_top cc_80,.Lxtalabel7
	.ascii	"/Users/rkn/Documents/xTIMEcomposer/workspace/module_usb_audio/usb_buffer/usb_buffer.xc"
	.byte	0
	.long	369
	.long	369
	.long	.Lxtalabel7
.cc_bottom cc_80
.cc_top cc_81,.Lxtalabel7
	.ascii	"/Users/rkn/Documents/xTIMEcomposer/workspace/module_usb_audio/usb_buffer/usb_buffer.xc"
	.byte	0
	.long	375
	.long	375
	.long	.Lxtalabel7
.cc_bottom cc_81
.cc_top cc_82,.Lxtalabel7
	.ascii	"/Users/rkn/Documents/xTIMEcomposer/workspace/module_usb_audio/usb_buffer/usb_buffer.xc"
	.byte	0
	.long	377
	.long	377
	.long	.Lxtalabel7
.cc_bottom cc_82
.cc_top cc_83,.Lxtalabel8
	.ascii	"/Users/rkn/Documents/xTIMEcomposer/workspace/module_usb_audio/usb_buffer/usb_buffer.xc"
	.byte	0
	.long	378
	.long	380
	.long	.Lxtalabel8
.cc_bottom cc_83
.cc_top cc_84,.Lxtalabel34
	.ascii	"/Users/rkn/Documents/xTIMEcomposer/workspace/module_usb_audio/usb_buffer/usb_buffer.xc"
	.byte	0
	.long	381
	.long	384
	.long	.Lxtalabel34
.cc_bottom cc_84
.cc_top cc_85,.Lxtalabel36
	.ascii	"/Users/rkn/Documents/xTIMEcomposer/workspace/module_usb_audio/usb_buffer/usb_buffer.xc"
	.byte	0
	.long	389
	.long	389
	.long	.Lxtalabel36
.cc_bottom cc_85
.cc_top cc_86,.Lxtalabel36
	.ascii	"/Users/rkn/Documents/xTIMEcomposer/workspace/module_usb_audio/usb_buffer/usb_buffer.xc"
	.byte	0
	.long	390
	.long	390
	.long	.Lxtalabel36
.cc_bottom cc_86
.cc_top cc_87,.Lxtalabel36
	.ascii	"/Users/rkn/Documents/xTIMEcomposer/workspace/module_usb_audio/usb_buffer/usb_buffer.xc"
	.byte	0
	.long	391
	.long	391
	.long	.Lxtalabel36
.cc_bottom cc_87
.cc_top cc_88,.Lxtalabel36
	.ascii	"/Users/rkn/Documents/xTIMEcomposer/workspace/module_usb_audio/usb_buffer/usb_buffer.xc"
	.byte	0
	.long	392
	.long	393
	.long	.Lxtalabel36
.cc_bottom cc_88
.cc_top cc_89,.Lxtalabel36
	.ascii	"/Users/rkn/Documents/xTIMEcomposer/workspace/module_usb_audio/usb_buffer/usb_buffer.xc"
	.byte	0
	.long	400
	.long	400
	.long	.Lxtalabel36
.cc_bottom cc_89
.cc_top cc_90,.Lxtalabel10
	.ascii	"/Users/rkn/Documents/xTIMEcomposer/workspace/module_usb_audio/usb_buffer/usb_buffer.xc"
	.byte	0
	.long	406
	.long	406
	.long	.Lxtalabel10
.cc_bottom cc_90
.cc_top cc_91,.Lxtalabel10
	.ascii	"/Users/rkn/Documents/xTIMEcomposer/workspace/module_usb_audio/usb_buffer/usb_buffer.xc"
	.byte	0
	.long	408
	.long	408
	.long	.Lxtalabel10
.cc_bottom cc_91
.cc_top cc_92,.Lxtalabel10
	.ascii	"/Users/rkn/Documents/xTIMEcomposer/workspace/module_usb_audio/usb_buffer/usb_buffer.xc"
	.byte	0
	.long	409
	.long	409
	.long	.Lxtalabel10
.cc_bottom cc_92
.cc_top cc_93,.Lxtalabel10
	.ascii	"/Users/rkn/Documents/xTIMEcomposer/workspace/module_usb_audio/usb_buffer/usb_buffer.xc"
	.byte	0
	.long	410
	.long	410
	.long	.Lxtalabel10
.cc_bottom cc_93
.cc_top cc_94,.Lxtalabel10
	.ascii	"/Users/rkn/Documents/xTIMEcomposer/workspace/module_usb_audio/usb_buffer/usb_buffer.xc"
	.byte	0
	.long	412
	.long	413
	.long	.Lxtalabel10
.cc_bottom cc_94
.cc_top cc_95,.Lxtalabel11
	.ascii	"/Users/rkn/Documents/xTIMEcomposer/workspace/module_usb_audio/usb_buffer/usb_buffer.xc"
	.byte	0
	.long	414
	.long	416
	.long	.Lxtalabel11
.cc_bottom cc_95
.cc_top cc_96,.Lxtalabel13
	.ascii	"/Users/rkn/Documents/xTIMEcomposer/workspace/module_usb_audio/usb_buffer/usb_buffer.xc"
	.byte	0
	.long	414
	.long	416
	.long	.Lxtalabel13
.cc_bottom cc_96
.cc_top cc_97,.Lxtalabel12
	.ascii	"/Users/rkn/Documents/xTIMEcomposer/workspace/module_usb_audio/usb_buffer/usb_buffer.xc"
	.byte	0
	.long	414
	.long	416
	.long	.Lxtalabel12
.cc_bottom cc_97
.cc_top cc_98,.Lxtalabel11
	.ascii	"/Users/rkn/Documents/xTIMEcomposer/workspace/module_usb_audio/usb_buffer/usb_buffer.xc"
	.byte	0
	.long	417
	.long	417
	.long	.Lxtalabel11
.cc_bottom cc_98
.cc_top cc_99,.Lxtalabel12
	.ascii	"/Users/rkn/Documents/xTIMEcomposer/workspace/module_usb_audio/usb_buffer/usb_buffer.xc"
	.byte	0
	.long	417
	.long	417
	.long	.Lxtalabel12
.cc_bottom cc_99
.cc_top cc_100,.Lxtalabel13
	.ascii	"/Users/rkn/Documents/xTIMEcomposer/workspace/module_usb_audio/usb_buffer/usb_buffer.xc"
	.byte	0
	.long	417
	.long	417
	.long	.Lxtalabel13
.cc_bottom cc_100
.cc_top cc_101,.Lxtalabel12
	.ascii	"/Users/rkn/Documents/xTIMEcomposer/workspace/module_usb_audio/usb_buffer/usb_buffer.xc"
	.byte	0
	.long	477
	.long	477
	.long	.Lxtalabel12
.cc_bottom cc_101
.cc_top cc_102,.Lxtalabel13
	.ascii	"/Users/rkn/Documents/xTIMEcomposer/workspace/module_usb_audio/usb_buffer/usb_buffer.xc"
	.byte	0
	.long	477
	.long	477
	.long	.Lxtalabel13
.cc_bottom cc_102
.cc_top cc_103,.Lxtalabel11
	.ascii	"/Users/rkn/Documents/xTIMEcomposer/workspace/module_usb_audio/usb_buffer/usb_buffer.xc"
	.byte	0
	.long	477
	.long	477
	.long	.Lxtalabel11
.cc_bottom cc_103
.cc_top cc_104,.Lxtalabel11
	.ascii	"/Users/rkn/Documents/xTIMEcomposer/workspace/module_usb_audio/usb_buffer/usb_buffer.xc"
	.byte	0
	.long	479
	.long	479
	.long	.Lxtalabel11
.cc_bottom cc_104
.cc_top cc_105,.Lxtalabel12
	.ascii	"/Users/rkn/Documents/xTIMEcomposer/workspace/module_usb_audio/usb_buffer/usb_buffer.xc"
	.byte	0
	.long	479
	.long	479
	.long	.Lxtalabel12
.cc_bottom cc_105
.cc_top cc_106,.Lxtalabel13
	.ascii	"/Users/rkn/Documents/xTIMEcomposer/workspace/module_usb_audio/usb_buffer/usb_buffer.xc"
	.byte	0
	.long	479
	.long	479
	.long	.Lxtalabel13
.cc_bottom cc_106
.cc_top cc_107,.Lxtalabel13
	.ascii	"/Users/rkn/Documents/xTIMEcomposer/workspace/module_usb_audio/usb_buffer/usb_buffer.xc"
	.byte	0
	.long	480
	.long	480
	.long	.Lxtalabel13
.cc_bottom cc_107
.cc_top cc_108,.Lxtalabel11
	.ascii	"/Users/rkn/Documents/xTIMEcomposer/workspace/module_usb_audio/usb_buffer/usb_buffer.xc"
	.byte	0
	.long	480
	.long	480
	.long	.Lxtalabel11
.cc_bottom cc_108
.cc_top cc_109,.Lxtalabel12
	.ascii	"/Users/rkn/Documents/xTIMEcomposer/workspace/module_usb_audio/usb_buffer/usb_buffer.xc"
	.byte	0
	.long	480
	.long	480
	.long	.Lxtalabel12
.cc_bottom cc_109
.cc_top cc_110,.Lxtalabel13
	.ascii	"/Users/rkn/Documents/xTIMEcomposer/workspace/module_usb_audio/usb_buffer/usb_buffer.xc"
	.byte	0
	.long	483
	.long	483
	.long	.Lxtalabel13
.cc_bottom cc_110
.cc_top cc_111,.Lxtalabel12
	.ascii	"/Users/rkn/Documents/xTIMEcomposer/workspace/module_usb_audio/usb_buffer/usb_buffer.xc"
	.byte	0
	.long	483
	.long	483
	.long	.Lxtalabel12
.cc_bottom cc_111
.cc_top cc_112,.Lxtalabel11
	.ascii	"/Users/rkn/Documents/xTIMEcomposer/workspace/module_usb_audio/usb_buffer/usb_buffer.xc"
	.byte	0
	.long	483
	.long	483
	.long	.Lxtalabel11
.cc_bottom cc_112
.cc_top cc_113,.Lxtalabel13
	.ascii	"/Users/rkn/Documents/xTIMEcomposer/workspace/module_usb_audio/usb_buffer/usb_buffer.xc"
	.byte	0
	.long	485
	.long	485
	.long	.Lxtalabel13
.cc_bottom cc_113
.cc_top cc_114,.Lxtalabel12
	.ascii	"/Users/rkn/Documents/xTIMEcomposer/workspace/module_usb_audio/usb_buffer/usb_buffer.xc"
	.byte	0
	.long	485
	.long	485
	.long	.Lxtalabel12
.cc_bottom cc_114
.cc_top cc_115,.Lxtalabel11
	.ascii	"/Users/rkn/Documents/xTIMEcomposer/workspace/module_usb_audio/usb_buffer/usb_buffer.xc"
	.byte	0
	.long	485
	.long	485
	.long	.Lxtalabel11
.cc_bottom cc_115
.cc_top cc_116,.Lxtalabel11
	.ascii	"/Users/rkn/Documents/xTIMEcomposer/workspace/module_usb_audio/usb_buffer/usb_buffer.xc"
	.byte	0
	.long	487
	.long	487
	.long	.Lxtalabel11
.cc_bottom cc_116
.cc_top cc_117,.Lxtalabel13
	.ascii	"/Users/rkn/Documents/xTIMEcomposer/workspace/module_usb_audio/usb_buffer/usb_buffer.xc"
	.byte	0
	.long	487
	.long	487
	.long	.Lxtalabel13
.cc_bottom cc_117
.cc_top cc_118,.Lxtalabel12
	.ascii	"/Users/rkn/Documents/xTIMEcomposer/workspace/module_usb_audio/usb_buffer/usb_buffer.xc"
	.byte	0
	.long	487
	.long	487
	.long	.Lxtalabel12
.cc_bottom cc_118
.cc_top cc_119,.Lxtalabel12
	.ascii	"/Users/rkn/Documents/xTIMEcomposer/workspace/module_usb_audio/usb_buffer/usb_buffer.xc"
	.byte	0
	.long	490
	.long	490
	.long	.Lxtalabel12
.cc_bottom cc_119
.cc_top cc_120,.Lxtalabel11
	.ascii	"/Users/rkn/Documents/xTIMEcomposer/workspace/module_usb_audio/usb_buffer/usb_buffer.xc"
	.byte	0
	.long	490
	.long	490
	.long	.Lxtalabel11
.cc_bottom cc_120
.cc_top cc_121,.Lxtalabel13
	.ascii	"/Users/rkn/Documents/xTIMEcomposer/workspace/module_usb_audio/usb_buffer/usb_buffer.xc"
	.byte	0
	.long	490
	.long	490
	.long	.Lxtalabel13
.cc_bottom cc_121
.cc_top cc_122,.Lxtalabel12
	.ascii	"/Users/rkn/Documents/xTIMEcomposer/workspace/module_usb_audio/usb_buffer/usb_buffer.xc"
	.byte	0
	.long	494
	.long	494
	.long	.Lxtalabel12
.cc_bottom cc_122
.cc_top cc_123,.Lxtalabel13
	.ascii	"/Users/rkn/Documents/xTIMEcomposer/workspace/module_usb_audio/usb_buffer/usb_buffer.xc"
	.byte	0
	.long	494
	.long	494
	.long	.Lxtalabel13
.cc_bottom cc_123
.cc_top cc_124,.Lxtalabel11
	.ascii	"/Users/rkn/Documents/xTIMEcomposer/workspace/module_usb_audio/usb_buffer/usb_buffer.xc"
	.byte	0
	.long	494
	.long	494
	.long	.Lxtalabel11
.cc_bottom cc_124
.cc_top cc_125,.Lxtalabel17
	.ascii	"/Users/rkn/Documents/xTIMEcomposer/workspace/module_usb_audio/usb_buffer/usb_buffer.xc"
	.byte	0
	.long	495
	.long	496
	.long	.Lxtalabel17
.cc_bottom cc_125
.cc_top cc_126,.Lxtalabel16
	.ascii	"/Users/rkn/Documents/xTIMEcomposer/workspace/module_usb_audio/usb_buffer/usb_buffer.xc"
	.byte	0
	.long	495
	.long	496
	.long	.Lxtalabel16
.cc_bottom cc_126
.cc_top cc_127,.Lxtalabel15
	.ascii	"/Users/rkn/Documents/xTIMEcomposer/workspace/module_usb_audio/usb_buffer/usb_buffer.xc"
	.byte	0
	.long	495
	.long	496
	.long	.Lxtalabel15
.cc_bottom cc_127
.cc_top cc_128,.Lxtalabel18
	.ascii	"/Users/rkn/Documents/xTIMEcomposer/workspace/module_usb_audio/usb_buffer/usb_buffer.xc"
	.byte	0
	.long	495
	.long	496
	.long	.Lxtalabel18
.cc_bottom cc_128
.cc_top cc_129,.Lxtalabel14
	.ascii	"/Users/rkn/Documents/xTIMEcomposer/workspace/module_usb_audio/usb_buffer/usb_buffer.xc"
	.byte	0
	.long	495
	.long	496
	.long	.Lxtalabel14
.cc_bottom cc_129
.cc_top cc_130,.Lxtalabel18
	.ascii	"/Users/rkn/Documents/xTIMEcomposer/workspace/module_usb_audio/usb_buffer/usb_buffer.xc"
	.byte	0
	.long	498
	.long	500
	.long	.Lxtalabel18
.cc_bottom cc_130
.cc_top cc_131,.Lxtalabel16
	.ascii	"/Users/rkn/Documents/xTIMEcomposer/workspace/module_usb_audio/usb_buffer/usb_buffer.xc"
	.byte	0
	.long	498
	.long	500
	.long	.Lxtalabel16
.cc_bottom cc_131
.cc_top cc_132,.Lxtalabel14
	.ascii	"/Users/rkn/Documents/xTIMEcomposer/workspace/module_usb_audio/usb_buffer/usb_buffer.xc"
	.byte	0
	.long	498
	.long	500
	.long	.Lxtalabel14
.cc_bottom cc_132
.cc_top cc_133,.Lxtalabel15
	.ascii	"/Users/rkn/Documents/xTIMEcomposer/workspace/module_usb_audio/usb_buffer/usb_buffer.xc"
	.byte	0
	.long	498
	.long	500
	.long	.Lxtalabel15
.cc_bottom cc_133
.cc_top cc_134,.Lxtalabel17
	.ascii	"/Users/rkn/Documents/xTIMEcomposer/workspace/module_usb_audio/usb_buffer/usb_buffer.xc"
	.byte	0
	.long	498
	.long	500
	.long	.Lxtalabel17
.cc_bottom cc_134
.cc_top cc_135,.Lxtalabel16
	.ascii	"/Users/rkn/Documents/xTIMEcomposer/workspace/module_usb_audio/usb_buffer/usb_buffer.xc"
	.byte	0
	.long	502
	.long	502
	.long	.Lxtalabel16
.cc_bottom cc_135
.cc_top cc_136,.Lxtalabel18
	.ascii	"/Users/rkn/Documents/xTIMEcomposer/workspace/module_usb_audio/usb_buffer/usb_buffer.xc"
	.byte	0
	.long	502
	.long	502
	.long	.Lxtalabel18
.cc_bottom cc_136
.cc_top cc_137,.Lxtalabel14
	.ascii	"/Users/rkn/Documents/xTIMEcomposer/workspace/module_usb_audio/usb_buffer/usb_buffer.xc"
	.byte	0
	.long	502
	.long	502
	.long	.Lxtalabel14
.cc_bottom cc_137
.cc_top cc_138,.Lxtalabel17
	.ascii	"/Users/rkn/Documents/xTIMEcomposer/workspace/module_usb_audio/usb_buffer/usb_buffer.xc"
	.byte	0
	.long	502
	.long	502
	.long	.Lxtalabel17
.cc_bottom cc_138
.cc_top cc_139,.Lxtalabel15
	.ascii	"/Users/rkn/Documents/xTIMEcomposer/workspace/module_usb_audio/usb_buffer/usb_buffer.xc"
	.byte	0
	.long	502
	.long	502
	.long	.Lxtalabel15
.cc_bottom cc_139
.cc_top cc_140,.Lxtalabel14
	.ascii	"/Users/rkn/Documents/xTIMEcomposer/workspace/module_usb_audio/usb_buffer/usb_buffer.xc"
	.byte	0
	.long	515
	.long	517
	.long	.Lxtalabel14
.cc_bottom cc_140
.cc_top cc_141,.Lxtalabel17
	.ascii	"/Users/rkn/Documents/xTIMEcomposer/workspace/module_usb_audio/usb_buffer/usb_buffer.xc"
	.byte	0
	.long	515
	.long	517
	.long	.Lxtalabel17
.cc_bottom cc_141
.cc_top cc_142,.Lxtalabel15
	.ascii	"/Users/rkn/Documents/xTIMEcomposer/workspace/module_usb_audio/usb_buffer/usb_buffer.xc"
	.byte	0
	.long	515
	.long	517
	.long	.Lxtalabel15
.cc_bottom cc_142
.cc_top cc_143,.Lxtalabel18
	.ascii	"/Users/rkn/Documents/xTIMEcomposer/workspace/module_usb_audio/usb_buffer/usb_buffer.xc"
	.byte	0
	.long	515
	.long	517
	.long	.Lxtalabel18
.cc_bottom cc_143
.cc_top cc_144,.Lxtalabel16
	.ascii	"/Users/rkn/Documents/xTIMEcomposer/workspace/module_usb_audio/usb_buffer/usb_buffer.xc"
	.byte	0
	.long	515
	.long	517
	.long	.Lxtalabel16
.cc_bottom cc_144
.cc_top cc_145,.Lxtalabel18
	.ascii	"/Users/rkn/Documents/xTIMEcomposer/workspace/module_usb_audio/usb_buffer/usb_buffer.xc"
	.byte	0
	.long	519
	.long	519
	.long	.Lxtalabel18
.cc_bottom cc_145
.cc_top cc_146,.Lxtalabel16
	.ascii	"/Users/rkn/Documents/xTIMEcomposer/workspace/module_usb_audio/usb_buffer/usb_buffer.xc"
	.byte	0
	.long	519
	.long	519
	.long	.Lxtalabel16
.cc_bottom cc_146
.cc_top cc_147,.Lxtalabel17
	.ascii	"/Users/rkn/Documents/xTIMEcomposer/workspace/module_usb_audio/usb_buffer/usb_buffer.xc"
	.byte	0
	.long	519
	.long	519
	.long	.Lxtalabel17
.cc_bottom cc_147
.cc_top cc_148,.Lxtalabel15
	.ascii	"/Users/rkn/Documents/xTIMEcomposer/workspace/module_usb_audio/usb_buffer/usb_buffer.xc"
	.byte	0
	.long	519
	.long	519
	.long	.Lxtalabel15
.cc_bottom cc_148
.cc_top cc_149,.Lxtalabel14
	.ascii	"/Users/rkn/Documents/xTIMEcomposer/workspace/module_usb_audio/usb_buffer/usb_buffer.xc"
	.byte	0
	.long	519
	.long	519
	.long	.Lxtalabel14
.cc_bottom cc_149
.cc_top cc_150,.Lxtalabel15
	.ascii	"/Users/rkn/Documents/xTIMEcomposer/workspace/module_usb_audio/usb_buffer/usb_buffer.xc"
	.byte	0
	.long	521
	.long	521
	.long	.Lxtalabel15
.cc_bottom cc_150
.cc_top cc_151,.Lxtalabel16
	.ascii	"/Users/rkn/Documents/xTIMEcomposer/workspace/module_usb_audio/usb_buffer/usb_buffer.xc"
	.byte	0
	.long	521
	.long	521
	.long	.Lxtalabel16
.cc_bottom cc_151
.cc_top cc_152,.Lxtalabel17
	.ascii	"/Users/rkn/Documents/xTIMEcomposer/workspace/module_usb_audio/usb_buffer/usb_buffer.xc"
	.byte	0
	.long	521
	.long	521
	.long	.Lxtalabel17
.cc_bottom cc_152
.cc_top cc_153,.Lxtalabel14
	.ascii	"/Users/rkn/Documents/xTIMEcomposer/workspace/module_usb_audio/usb_buffer/usb_buffer.xc"
	.byte	0
	.long	521
	.long	521
	.long	.Lxtalabel14
.cc_bottom cc_153
.cc_top cc_154,.Lxtalabel18
	.ascii	"/Users/rkn/Documents/xTIMEcomposer/workspace/module_usb_audio/usb_buffer/usb_buffer.xc"
	.byte	0
	.long	521
	.long	521
	.long	.Lxtalabel18
.cc_bottom cc_154
.cc_top cc_155,.Lxtalabel16
	.ascii	"/Users/rkn/Documents/xTIMEcomposer/workspace/module_usb_audio/usb_buffer/usb_buffer.xc"
	.byte	0
	.long	529
	.long	529
	.long	.Lxtalabel16
.cc_bottom cc_155
.cc_top cc_156,.Lxtalabel18
	.ascii	"/Users/rkn/Documents/xTIMEcomposer/workspace/module_usb_audio/usb_buffer/usb_buffer.xc"
	.byte	0
	.long	529
	.long	529
	.long	.Lxtalabel18
.cc_bottom cc_156
.cc_top cc_157,.Lxtalabel17
	.ascii	"/Users/rkn/Documents/xTIMEcomposer/workspace/module_usb_audio/usb_buffer/usb_buffer.xc"
	.byte	0
	.long	529
	.long	529
	.long	.Lxtalabel17
.cc_bottom cc_157
.cc_top cc_158,.Lxtalabel15
	.ascii	"/Users/rkn/Documents/xTIMEcomposer/workspace/module_usb_audio/usb_buffer/usb_buffer.xc"
	.byte	0
	.long	529
	.long	529
	.long	.Lxtalabel15
.cc_bottom cc_158
.cc_top cc_159,.Lxtalabel14
	.ascii	"/Users/rkn/Documents/xTIMEcomposer/workspace/module_usb_audio/usb_buffer/usb_buffer.xc"
	.byte	0
	.long	529
	.long	529
	.long	.Lxtalabel14
.cc_bottom cc_159
.cc_top cc_160,.Lxtalabel14
	.ascii	"/Users/rkn/Documents/xTIMEcomposer/workspace/module_usb_audio/usb_buffer/usb_buffer.xc"
	.byte	0
	.long	535
	.long	536
	.long	.Lxtalabel14
.cc_bottom cc_160
.cc_top cc_161,.Lxtalabel15
	.ascii	"/Users/rkn/Documents/xTIMEcomposer/workspace/module_usb_audio/usb_buffer/usb_buffer.xc"
	.byte	0
	.long	535
	.long	536
	.long	.Lxtalabel15
.cc_bottom cc_161
.cc_top cc_162,.Lxtalabel17
	.ascii	"/Users/rkn/Documents/xTIMEcomposer/workspace/module_usb_audio/usb_buffer/usb_buffer.xc"
	.byte	0
	.long	535
	.long	536
	.long	.Lxtalabel17
.cc_bottom cc_162
.cc_top cc_163,.Lxtalabel16
	.ascii	"/Users/rkn/Documents/xTIMEcomposer/workspace/module_usb_audio/usb_buffer/usb_buffer.xc"
	.byte	0
	.long	535
	.long	536
	.long	.Lxtalabel16
.cc_bottom cc_163
.cc_top cc_164,.Lxtalabel18
	.ascii	"/Users/rkn/Documents/xTIMEcomposer/workspace/module_usb_audio/usb_buffer/usb_buffer.xc"
	.byte	0
	.long	535
	.long	536
	.long	.Lxtalabel18
.cc_bottom cc_164
.cc_top cc_165,.Lxtalabel19
	.ascii	"/Users/rkn/Documents/xTIMEcomposer/workspace/module_usb_audio/usb_buffer/usb_buffer.xc"
	.byte	0
	.long	548
	.long	548
	.long	.Lxtalabel19
.cc_bottom cc_165
.cc_top cc_166,.Lxtalabel19
	.ascii	"/Users/rkn/Documents/xTIMEcomposer/workspace/module_usb_audio/usb_buffer/usb_buffer.xc"
	.byte	0
	.long	550
	.long	550
	.long	.Lxtalabel19
.cc_bottom cc_166
.cc_top cc_167,.Lxtalabel19
	.ascii	"/Users/rkn/Documents/xTIMEcomposer/workspace/module_usb_audio/usb_buffer/usb_buffer.xc"
	.byte	0
	.long	551
	.long	552
	.long	.Lxtalabel19
.cc_bottom cc_167
.cc_top cc_168,.Lxtalabel19
	.ascii	"/Users/rkn/Documents/xTIMEcomposer/workspace/module_usb_audio/usb_buffer/usb_buffer.xc"
	.byte	0
	.long	558
	.long	558
	.long	.Lxtalabel19
.cc_bottom cc_168
.cc_top cc_169,.Lxtalabel20
	.ascii	"/Users/rkn/Documents/xTIMEcomposer/workspace/module_usb_audio/usb_buffer/usb_buffer.xc"
	.byte	0
	.long	559
	.long	560
	.long	.Lxtalabel20
.cc_bottom cc_169
.cc_top cc_170,.Lxtalabel20
	.ascii	"/Users/rkn/Documents/xTIMEcomposer/workspace/module_usb_audio/usb_buffer/usb_buffer.xc"
	.byte	0
	.long	562
	.long	562
	.long	.Lxtalabel20
.cc_bottom cc_170
.cc_top cc_171,.Lxtalabel20
	.ascii	"/Users/rkn/Documents/xTIMEcomposer/workspace/module_usb_audio/usb_buffer/usb_buffer.xc"
	.byte	0
	.long	564
	.long	564
	.long	.Lxtalabel20
.cc_bottom cc_171
.cc_top cc_172,.Lxtalabel21
	.ascii	"/Users/rkn/Documents/xTIMEcomposer/workspace/module_usb_audio/usb_buffer/usb_buffer.xc"
	.byte	0
	.long	565
	.long	567
	.long	.Lxtalabel21
.cc_bottom cc_172
.cc_top cc_173,.Lxtalabel25
	.ascii	"/Users/rkn/Documents/xTIMEcomposer/workspace/module_usb_audio/usb_buffer/usb_buffer.xc"
	.byte	0
	.long	568
	.long	571
	.long	.Lxtalabel25
.cc_bottom cc_173
.cc_top cc_174,.Lxtalabel2
	.ascii	"/Users/rkn/Documents/xTIMEcomposer/workspace/module_usb_audio/usb_buffer/usb_buffer.xc"
	.byte	0
	.long	577
	.long	577
	.long	.Lxtalabel2
.cc_bottom cc_174
.cc_top cc_175,.Lxtalabel2
	.ascii	"/Users/rkn/Documents/xTIMEcomposer/workspace/module_usb_audio/usb_buffer/usb_buffer.xc"
	.byte	0
	.long	578
	.long	578
	.long	.Lxtalabel2
.cc_bottom cc_175
.cc_top cc_176,.Lxtalabel2
	.ascii	"/Users/rkn/Documents/xTIMEcomposer/workspace/module_usb_audio/usb_buffer/usb_buffer.xc"
	.byte	0
	.long	580
	.long	580
	.long	.Lxtalabel2
.cc_bottom cc_176
.cc_top cc_177,.Lxtalabel2
	.ascii	"/Users/rkn/Documents/xTIMEcomposer/workspace/module_usb_audio/usb_buffer/usb_buffer.xc"
	.byte	0
	.long	583
	.long	583
	.long	.Lxtalabel2
.cc_bottom cc_177
.cc_top cc_178,.Lxtalabel2
	.ascii	"/Users/rkn/Documents/xTIMEcomposer/workspace/module_usb_audio/usb_buffer/usb_buffer.xc"
	.byte	0
	.long	584
	.long	585
	.long	.Lxtalabel2
.cc_bottom cc_178
.cc_top cc_179,.Lxtalabel2
	.ascii	"/Users/rkn/Documents/xTIMEcomposer/workspace/module_usb_audio/usb_buffer/usb_buffer.xc"
	.byte	0
	.long	726
	.long	726
	.long	.Lxtalabel2
.cc_bottom cc_179
.cc_top cc_180,.Lxtalabel23
	.ascii	"/Users/rkn/Documents/xTIMEcomposer/workspace/module_usb_audio/usb_buffer/usb_buffer.xc"
	.byte	0
	.long	727
	.long	732
	.long	.Lxtalabel23
.cc_bottom cc_180
.cc_top cc_181,.Lxtalabel23
	.ascii	"/Users/rkn/Documents/xTIMEcomposer/workspace/module_usb_audio/usb_buffer/usb_buffer.xc"
	.byte	0
	.long	941
	.long	941
	.long	.Lxtalabel23
.cc_bottom cc_181
.cc_top cc_182,.Lxtalabel25
	.ascii	"/Users/rkn/Documents/xTIMEcomposer/workspace/module_xud/include/xud.h"
	.byte	0
	.long	454
	.long	458
	.long	.Lxtalabel25
.cc_bottom cc_182
.cc_top cc_183,.Lxtalabel21
	.ascii	"/Users/rkn/Documents/xTIMEcomposer/workspace/module_xud/include/xud.h"
	.byte	0
	.long	454
	.long	458
	.long	.Lxtalabel21
.cc_bottom cc_183
.cc_top cc_184,.Lxtalabel34
	.ascii	"/Users/rkn/Documents/xTIMEcomposer/workspace/module_xud/include/xud.h"
	.byte	0
	.long	454
	.long	458
	.long	.Lxtalabel34
.cc_bottom cc_184
.cc_top cc_185,.Lxtalabel0
	.ascii	"/Users/rkn/Documents/xTIMEcomposer/workspace/module_xud/include/xud.h"
	.byte	0
	.long	454
	.long	458
	.long	.Lxtalabel0
.cc_bottom cc_185
.cc_top cc_186,.Lxtalabel23
	.ascii	"/Users/rkn/Documents/xTIMEcomposer/workspace/module_xud/include/xud.h"
	.byte	0
	.long	454
	.long	458
	.long	.Lxtalabel23
.cc_bottom cc_186
.cc_top cc_187,.Lxtalabel8
	.ascii	"/Users/rkn/Documents/xTIMEcomposer/workspace/module_xud/include/xud.h"
	.byte	0
	.long	454
	.long	458
	.long	.Lxtalabel8
.cc_bottom cc_187
.cc_top cc_188,.Lxtalabel34
	.ascii	"/Users/rkn/Documents/xTIMEcomposer/workspace/module_xud/include/xud.h"
	.byte	0
	.long	460
	.long	460
	.long	.Lxtalabel34
.cc_bottom cc_188
.cc_top cc_189,.Lxtalabel8
	.ascii	"/Users/rkn/Documents/xTIMEcomposer/workspace/module_xud/include/xud.h"
	.byte	0
	.long	460
	.long	460
	.long	.Lxtalabel8
.cc_bottom cc_189
.cc_top cc_190,.Lxtalabel23
	.ascii	"/Users/rkn/Documents/xTIMEcomposer/workspace/module_xud/include/xud.h"
	.byte	0
	.long	460
	.long	460
	.long	.Lxtalabel23
.cc_bottom cc_190
.cc_top cc_191,.Lxtalabel0
	.ascii	"/Users/rkn/Documents/xTIMEcomposer/workspace/module_xud/include/xud.h"
	.byte	0
	.long	460
	.long	460
	.long	.Lxtalabel0
.cc_bottom cc_191
.cc_top cc_192,.Lxtalabel21
	.ascii	"/Users/rkn/Documents/xTIMEcomposer/workspace/module_xud/include/xud.h"
	.byte	0
	.long	460
	.long	460
	.long	.Lxtalabel21
.cc_bottom cc_192
.cc_top cc_193,.Lxtalabel25
	.ascii	"/Users/rkn/Documents/xTIMEcomposer/workspace/module_xud/include/xud.h"
	.byte	0
	.long	460
	.long	460
	.long	.Lxtalabel25
.cc_bottom cc_193
.cc_top cc_194,.Lxtalabel21
	.ascii	"/Users/rkn/Documents/xTIMEcomposer/workspace/module_xud/include/xud.h"
	.byte	0
	.long	463
	.long	464
	.long	.Lxtalabel21
.cc_bottom cc_194
.cc_top cc_195,.Lxtalabel25
	.ascii	"/Users/rkn/Documents/xTIMEcomposer/workspace/module_xud/include/xud.h"
	.byte	0
	.long	463
	.long	464
	.long	.Lxtalabel25
.cc_bottom cc_195
.cc_top cc_196,.Lxtalabel0
	.ascii	"/Users/rkn/Documents/xTIMEcomposer/workspace/module_xud/include/xud.h"
	.byte	0
	.long	463
	.long	464
	.long	.Lxtalabel0
.cc_bottom cc_196
.cc_top cc_197,.Lxtalabel34
	.ascii	"/Users/rkn/Documents/xTIMEcomposer/workspace/module_xud/include/xud.h"
	.byte	0
	.long	463
	.long	464
	.long	.Lxtalabel34
.cc_bottom cc_197
.cc_top cc_198,.Lxtalabel8
	.ascii	"/Users/rkn/Documents/xTIMEcomposer/workspace/module_xud/include/xud.h"
	.byte	0
	.long	463
	.long	464
	.long	.Lxtalabel8
.cc_bottom cc_198
.cc_top cc_199,.Lxtalabel23
	.ascii	"/Users/rkn/Documents/xTIMEcomposer/workspace/module_xud/include/xud.h"
	.byte	0
	.long	463
	.long	464
	.long	.Lxtalabel23
.cc_bottom cc_199
.cc_top cc_200,.Lxtalabel0
	.ascii	"/Users/rkn/Documents/xTIMEcomposer/workspace/module_xud/include/xud.h"
	.byte	0
	.long	465
	.long	467
	.long	.Lxtalabel0
.cc_bottom cc_200
.cc_top cc_201,.Lxtalabel25
	.ascii	"/Users/rkn/Documents/xTIMEcomposer/workspace/module_xud/include/xud.h"
	.byte	0
	.long	465
	.long	467
	.long	.Lxtalabel25
.cc_bottom cc_201
.cc_top cc_202,.Lxtalabel8
	.ascii	"/Users/rkn/Documents/xTIMEcomposer/workspace/module_xud/include/xud.h"
	.byte	0
	.long	465
	.long	467
	.long	.Lxtalabel8
.cc_bottom cc_202
.cc_top cc_203,.Lxtalabel23
	.ascii	"/Users/rkn/Documents/xTIMEcomposer/workspace/module_xud/include/xud.h"
	.byte	0
	.long	465
	.long	467
	.long	.Lxtalabel23
.cc_bottom cc_203
.cc_top cc_204,.Lxtalabel21
	.ascii	"/Users/rkn/Documents/xTIMEcomposer/workspace/module_xud/include/xud.h"
	.byte	0
	.long	465
	.long	467
	.long	.Lxtalabel21
.cc_bottom cc_204
.cc_top cc_205,.Lxtalabel34
	.ascii	"/Users/rkn/Documents/xTIMEcomposer/workspace/module_xud/include/xud.h"
	.byte	0
	.long	465
	.long	467
	.long	.Lxtalabel34
.cc_bottom cc_205
.cc_top cc_206,.Lxtalabel26
	.ascii	"/Users/rkn/Documents/xTIMEcomposer/workspace/module_xud/include/xud.h"
	.byte	0
	.long	470
	.long	471
	.long	.Lxtalabel26
.cc_bottom cc_206
.cc_top cc_207,.Lxtalabel24
	.ascii	"/Users/rkn/Documents/xTIMEcomposer/workspace/module_xud/include/xud.h"
	.byte	0
	.long	470
	.long	471
	.long	.Lxtalabel24
.cc_bottom cc_207
.cc_top cc_208,.Lxtalabel35
	.ascii	"/Users/rkn/Documents/xTIMEcomposer/workspace/module_xud/include/xud.h"
	.byte	0
	.long	470
	.long	471
	.long	.Lxtalabel35
.cc_bottom cc_208
.cc_top cc_209,.Lxtalabel9
	.ascii	"/Users/rkn/Documents/xTIMEcomposer/workspace/module_xud/include/xud.h"
	.byte	0
	.long	470
	.long	471
	.long	.Lxtalabel9
.cc_bottom cc_209
.cc_top cc_210,.Lxtalabel22
	.ascii	"/Users/rkn/Documents/xTIMEcomposer/workspace/module_xud/include/xud.h"
	.byte	0
	.long	470
	.long	471
	.long	.Lxtalabel22
.cc_bottom cc_210
.cc_top cc_211,.Lxtalabel1
	.ascii	"/Users/rkn/Documents/xTIMEcomposer/workspace/module_xud/include/xud.h"
	.byte	0
	.long	470
	.long	471
	.long	.Lxtalabel1
.cc_bottom cc_211
.cc_top cc_212,.Lxtalabel35
	.ascii	"/Users/rkn/Documents/xTIMEcomposer/workspace/module_xud/include/xud.h"
	.byte	0
	.long	473
	.long	473
	.long	.Lxtalabel35
.cc_bottom cc_212
.cc_top cc_213,.Lxtalabel22
	.ascii	"/Users/rkn/Documents/xTIMEcomposer/workspace/module_xud/include/xud.h"
	.byte	0
	.long	473
	.long	473
	.long	.Lxtalabel22
.cc_bottom cc_213
.cc_top cc_214,.Lxtalabel9
	.ascii	"/Users/rkn/Documents/xTIMEcomposer/workspace/module_xud/include/xud.h"
	.byte	0
	.long	473
	.long	473
	.long	.Lxtalabel9
.cc_bottom cc_214
.cc_top cc_215,.Lxtalabel24
	.ascii	"/Users/rkn/Documents/xTIMEcomposer/workspace/module_xud/include/xud.h"
	.byte	0
	.long	473
	.long	473
	.long	.Lxtalabel24
.cc_bottom cc_215
.cc_top cc_216,.Lxtalabel26
	.ascii	"/Users/rkn/Documents/xTIMEcomposer/workspace/module_xud/include/xud.h"
	.byte	0
	.long	473
	.long	473
	.long	.Lxtalabel26
.cc_bottom cc_216
.cc_top cc_217,.Lxtalabel1
	.ascii	"/Users/rkn/Documents/xTIMEcomposer/workspace/module_xud/include/xud.h"
	.byte	0
	.long	473
	.long	473
	.long	.Lxtalabel1
.cc_bottom cc_217
.cc_top cc_218,.Lxtalabel22
	.ascii	"/Users/rkn/Documents/xTIMEcomposer/workspace/module_xud/include/xud.h"
	.byte	0
	.long	475
	.long	475
	.long	.Lxtalabel22
.cc_bottom cc_218
.cc_top cc_219,.Lxtalabel9
	.ascii	"/Users/rkn/Documents/xTIMEcomposer/workspace/module_xud/include/xud.h"
	.byte	0
	.long	475
	.long	475
	.long	.Lxtalabel9
.cc_bottom cc_219
.cc_top cc_220,.Lxtalabel24
	.ascii	"/Users/rkn/Documents/xTIMEcomposer/workspace/module_xud/include/xud.h"
	.byte	0
	.long	475
	.long	475
	.long	.Lxtalabel24
.cc_bottom cc_220
.cc_top cc_221,.Lxtalabel1
	.ascii	"/Users/rkn/Documents/xTIMEcomposer/workspace/module_xud/include/xud.h"
	.byte	0
	.long	475
	.long	475
	.long	.Lxtalabel1
.cc_bottom cc_221
.cc_top cc_222,.Lxtalabel26
	.ascii	"/Users/rkn/Documents/xTIMEcomposer/workspace/module_xud/include/xud.h"
	.byte	0
	.long	475
	.long	475
	.long	.Lxtalabel26
.cc_bottom cc_222
.cc_top cc_223,.Lxtalabel35
	.ascii	"/Users/rkn/Documents/xTIMEcomposer/workspace/module_xud/include/xud.h"
	.byte	0
	.long	475
	.long	475
	.long	.Lxtalabel35
.cc_bottom cc_223
.cc_top cc_224,.Lxtalabel35
	.ascii	"/Users/rkn/Documents/xTIMEcomposer/workspace/module_xud/include/xud.h"
	.byte	0
	.long	478
	.long	478
	.long	.Lxtalabel35
.cc_bottom cc_224
.cc_top cc_225,.Lxtalabel22
	.ascii	"/Users/rkn/Documents/xTIMEcomposer/workspace/module_xud/include/xud.h"
	.byte	0
	.long	478
	.long	478
	.long	.Lxtalabel22
.cc_bottom cc_225
.cc_top cc_226,.Lxtalabel26
	.ascii	"/Users/rkn/Documents/xTIMEcomposer/workspace/module_xud/include/xud.h"
	.byte	0
	.long	478
	.long	478
	.long	.Lxtalabel26
.cc_bottom cc_226
.cc_top cc_227,.Lxtalabel1
	.ascii	"/Users/rkn/Documents/xTIMEcomposer/workspace/module_xud/include/xud.h"
	.byte	0
	.long	478
	.long	478
	.long	.Lxtalabel1
.cc_bottom cc_227
.cc_top cc_228,.Lxtalabel24
	.ascii	"/Users/rkn/Documents/xTIMEcomposer/workspace/module_xud/include/xud.h"
	.byte	0
	.long	478
	.long	478
	.long	.Lxtalabel24
.cc_bottom cc_228
.cc_top cc_229,.Lxtalabel9
	.ascii	"/Users/rkn/Documents/xTIMEcomposer/workspace/module_xud/include/xud.h"
	.byte	0
	.long	478
	.long	478
	.long	.Lxtalabel9
.cc_bottom cc_229
.cc_top cc_230,.Lxtalabel1
	.ascii	"/Users/rkn/Documents/xTIMEcomposer/workspace/module_xud/include/xud.h"
	.byte	0
	.long	480
	.long	480
	.long	.Lxtalabel1
.cc_bottom cc_230
.cc_top cc_231,.Lxtalabel9
	.ascii	"/Users/rkn/Documents/xTIMEcomposer/workspace/module_xud/include/xud.h"
	.byte	0
	.long	480
	.long	480
	.long	.Lxtalabel9
.cc_bottom cc_231
.cc_top cc_232,.Lxtalabel22
	.ascii	"/Users/rkn/Documents/xTIMEcomposer/workspace/module_xud/include/xud.h"
	.byte	0
	.long	480
	.long	480
	.long	.Lxtalabel22
.cc_bottom cc_232
.cc_top cc_233,.Lxtalabel35
	.ascii	"/Users/rkn/Documents/xTIMEcomposer/workspace/module_xud/include/xud.h"
	.byte	0
	.long	480
	.long	480
	.long	.Lxtalabel35
.cc_bottom cc_233
.cc_top cc_234,.Lxtalabel24
	.ascii	"/Users/rkn/Documents/xTIMEcomposer/workspace/module_xud/include/xud.h"
	.byte	0
	.long	480
	.long	480
	.long	.Lxtalabel24
.cc_bottom cc_234
.cc_top cc_235,.Lxtalabel26
	.ascii	"/Users/rkn/Documents/xTIMEcomposer/workspace/module_xud/include/xud.h"
	.byte	0
	.long	480
	.long	480
	.long	.Lxtalabel26
.cc_bottom cc_235
.cc_top cc_236,.Lxtalabel24
	.ascii	"/Users/rkn/Documents/xTIMEcomposer/workspace/module_xud/include/xud.h"
	.byte	0
	.long	483
	.long	483
	.long	.Lxtalabel24
.cc_bottom cc_236
.cc_top cc_237,.Lxtalabel1
	.ascii	"/Users/rkn/Documents/xTIMEcomposer/workspace/module_xud/include/xud.h"
	.byte	0
	.long	483
	.long	483
	.long	.Lxtalabel1
.cc_bottom cc_237
.cc_top cc_238,.Lxtalabel26
	.ascii	"/Users/rkn/Documents/xTIMEcomposer/workspace/module_xud/include/xud.h"
	.byte	0
	.long	483
	.long	483
	.long	.Lxtalabel26
.cc_bottom cc_238
.cc_top cc_239,.Lxtalabel22
	.ascii	"/Users/rkn/Documents/xTIMEcomposer/workspace/module_xud/include/xud.h"
	.byte	0
	.long	483
	.long	483
	.long	.Lxtalabel22
.cc_bottom cc_239
.cc_top cc_240,.Lxtalabel35
	.ascii	"/Users/rkn/Documents/xTIMEcomposer/workspace/module_xud/include/xud.h"
	.byte	0
	.long	483
	.long	483
	.long	.Lxtalabel35
.cc_bottom cc_240
.cc_top cc_241,.Lxtalabel9
	.ascii	"/Users/rkn/Documents/xTIMEcomposer/workspace/module_xud/include/xud.h"
	.byte	0
	.long	483
	.long	483
	.long	.Lxtalabel9
.cc_bottom cc_241
.cc_top cc_242,.Lxtalabel35
	.ascii	"/Users/rkn/Documents/xTIMEcomposer/workspace/module_xud/include/xud.h"
	.byte	0
	.long	486
	.long	486
	.long	.Lxtalabel35
.cc_bottom cc_242
.cc_top cc_243,.Lxtalabel9
	.ascii	"/Users/rkn/Documents/xTIMEcomposer/workspace/module_xud/include/xud.h"
	.byte	0
	.long	486
	.long	486
	.long	.Lxtalabel9
.cc_bottom cc_243
.cc_top cc_244,.Lxtalabel24
	.ascii	"/Users/rkn/Documents/xTIMEcomposer/workspace/module_xud/include/xud.h"
	.byte	0
	.long	486
	.long	486
	.long	.Lxtalabel24
.cc_bottom cc_244
.cc_top cc_245,.Lxtalabel22
	.ascii	"/Users/rkn/Documents/xTIMEcomposer/workspace/module_xud/include/xud.h"
	.byte	0
	.long	486
	.long	486
	.long	.Lxtalabel22
.cc_bottom cc_245
.cc_top cc_246,.Lxtalabel1
	.ascii	"/Users/rkn/Documents/xTIMEcomposer/workspace/module_xud/include/xud.h"
	.byte	0
	.long	486
	.long	486
	.long	.Lxtalabel1
.cc_bottom cc_246
.cc_top cc_247,.Lxtalabel26
	.ascii	"/Users/rkn/Documents/xTIMEcomposer/workspace/module_xud/include/xud.h"
	.byte	0
	.long	486
	.long	486
	.long	.Lxtalabel26
.cc_bottom cc_247
.cc_top cc_248,.Lxtalabel26
	.ascii	"/Users/rkn/Documents/xTIMEcomposer/workspace/module_xud/include/xud.h"
	.byte	0
	.long	489
	.long	489
	.long	.Lxtalabel26
.cc_bottom cc_248
.cc_top cc_249,.Lxtalabel22
	.ascii	"/Users/rkn/Documents/xTIMEcomposer/workspace/module_xud/include/xud.h"
	.byte	0
	.long	489
	.long	489
	.long	.Lxtalabel22
.cc_bottom cc_249
.cc_top cc_250,.Lxtalabel35
	.ascii	"/Users/rkn/Documents/xTIMEcomposer/workspace/module_xud/include/xud.h"
	.byte	0
	.long	489
	.long	489
	.long	.Lxtalabel35
.cc_bottom cc_250
.cc_top cc_251,.Lxtalabel24
	.ascii	"/Users/rkn/Documents/xTIMEcomposer/workspace/module_xud/include/xud.h"
	.byte	0
	.long	489
	.long	489
	.long	.Lxtalabel24
.cc_bottom cc_251
.cc_top cc_252,.Lxtalabel1
	.ascii	"/Users/rkn/Documents/xTIMEcomposer/workspace/module_xud/include/xud.h"
	.byte	0
	.long	489
	.long	489
	.long	.Lxtalabel1
.cc_bottom cc_252
.cc_top cc_253,.Lxtalabel9
	.ascii	"/Users/rkn/Documents/xTIMEcomposer/workspace/module_xud/include/xud.h"
	.byte	0
	.long	489
	.long	489
	.long	.Lxtalabel9
.cc_bottom cc_253
.cc_top cc_254,.Lxtalabel9
	.ascii	"/Users/rkn/Documents/xTIMEcomposer/workspace/module_xud/include/xud.h"
	.byte	0
	.long	491
	.long	491
	.long	.Lxtalabel9
.cc_bottom cc_254
.cc_top cc_255,.Lxtalabel24
	.ascii	"/Users/rkn/Documents/xTIMEcomposer/workspace/module_xud/include/xud.h"
	.byte	0
	.long	491
	.long	491
	.long	.Lxtalabel24
.cc_bottom cc_255
.cc_top cc_256,.Lxtalabel35
	.ascii	"/Users/rkn/Documents/xTIMEcomposer/workspace/module_xud/include/xud.h"
	.byte	0
	.long	491
	.long	491
	.long	.Lxtalabel35
.cc_bottom cc_256
.cc_top cc_257,.Lxtalabel22
	.ascii	"/Users/rkn/Documents/xTIMEcomposer/workspace/module_xud/include/xud.h"
	.byte	0
	.long	491
	.long	491
	.long	.Lxtalabel22
.cc_bottom cc_257
.cc_top cc_258,.Lxtalabel26
	.ascii	"/Users/rkn/Documents/xTIMEcomposer/workspace/module_xud/include/xud.h"
	.byte	0
	.long	491
	.long	491
	.long	.Lxtalabel26
.cc_bottom cc_258
.cc_top cc_259,.Lxtalabel1
	.ascii	"/Users/rkn/Documents/xTIMEcomposer/workspace/module_xud/include/xud.h"
	.byte	0
	.long	491
	.long	491
	.long	.Lxtalabel1
.cc_bottom cc_259
.cc_top cc_260,.Lxtalabel26
	.ascii	"/Users/rkn/Documents/xTIMEcomposer/workspace/module_xud/include/xud.h"
	.byte	0
	.long	493
	.long	494
	.long	.Lxtalabel26
.cc_bottom cc_260
.cc_top cc_261,.Lxtalabel9
	.ascii	"/Users/rkn/Documents/xTIMEcomposer/workspace/module_xud/include/xud.h"
	.byte	0
	.long	493
	.long	494
	.long	.Lxtalabel9
.cc_bottom cc_261
.cc_top cc_262,.Lxtalabel24
	.ascii	"/Users/rkn/Documents/xTIMEcomposer/workspace/module_xud/include/xud.h"
	.byte	0
	.long	493
	.long	494
	.long	.Lxtalabel24
.cc_bottom cc_262
.cc_top cc_263,.Lxtalabel1
	.ascii	"/Users/rkn/Documents/xTIMEcomposer/workspace/module_xud/include/xud.h"
	.byte	0
	.long	493
	.long	494
	.long	.Lxtalabel1
.cc_bottom cc_263
.cc_top cc_264,.Lxtalabel35
	.ascii	"/Users/rkn/Documents/xTIMEcomposer/workspace/module_xud/include/xud.h"
	.byte	0
	.long	493
	.long	494
	.long	.Lxtalabel35
.cc_bottom cc_264
.cc_top cc_265,.Lxtalabel22
	.ascii	"/Users/rkn/Documents/xTIMEcomposer/workspace/module_xud/include/xud.h"
	.byte	0
	.long	493
	.long	494
	.long	.Lxtalabel22
.cc_bottom cc_265
.cc_top cc_266,.Lxtalabel34
	.ascii	"/Users/rkn/Documents/xTIMEcomposer/workspace/module_xud/include/xud.h"
	.byte	0
	.long	505
	.long	506
	.long	.Lxtalabel34
.cc_bottom cc_266
.cc_top cc_267,.Lxtalabel21
	.ascii	"/Users/rkn/Documents/xTIMEcomposer/workspace/module_xud/include/xud.h"
	.byte	0
	.long	505
	.long	506
	.long	.Lxtalabel21
.cc_bottom cc_267
.cc_top cc_268,.Lxtalabel0
	.ascii	"/Users/rkn/Documents/xTIMEcomposer/workspace/module_xud/include/xud.h"
	.byte	0
	.long	505
	.long	506
	.long	.Lxtalabel0
.cc_bottom cc_268
.cc_top cc_269,.Lxtalabel8
	.ascii	"/Users/rkn/Documents/xTIMEcomposer/workspace/module_xud/include/xud.h"
	.byte	0
	.long	505
	.long	506
	.long	.Lxtalabel8
.cc_bottom cc_269
.cc_top cc_270,.Lxtalabel23
	.ascii	"/Users/rkn/Documents/xTIMEcomposer/workspace/module_xud/include/xud.h"
	.byte	0
	.long	505
	.long	506
	.long	.Lxtalabel23
.cc_bottom cc_270
.cc_top cc_271,.Lxtalabel25
	.ascii	"/Users/rkn/Documents/xTIMEcomposer/workspace/module_xud/include/xud.h"
	.byte	0
	.long	505
	.long	506
	.long	.Lxtalabel25
.cc_bottom cc_271
.cc_top cc_272,.Lxtalabel23
	.ascii	"/Users/rkn/Documents/xTIMEcomposer/workspace/module_xud/include/xud.h"
	.byte	0
	.long	508
	.long	508
	.long	.Lxtalabel23
.cc_bottom cc_272
.cc_top cc_273,.Lxtalabel34
	.ascii	"/Users/rkn/Documents/xTIMEcomposer/workspace/module_xud/include/xud.h"
	.byte	0
	.long	508
	.long	508
	.long	.Lxtalabel34
.cc_bottom cc_273
.cc_top cc_274,.Lxtalabel21
	.ascii	"/Users/rkn/Documents/xTIMEcomposer/workspace/module_xud/include/xud.h"
	.byte	0
	.long	508
	.long	508
	.long	.Lxtalabel21
.cc_bottom cc_274
.cc_top cc_275,.Lxtalabel25
	.ascii	"/Users/rkn/Documents/xTIMEcomposer/workspace/module_xud/include/xud.h"
	.byte	0
	.long	508
	.long	508
	.long	.Lxtalabel25
.cc_bottom cc_275
.cc_top cc_276,.Lxtalabel8
	.ascii	"/Users/rkn/Documents/xTIMEcomposer/workspace/module_xud/include/xud.h"
	.byte	0
	.long	508
	.long	508
	.long	.Lxtalabel8
.cc_bottom cc_276
.cc_top cc_277,.Lxtalabel0
	.ascii	"/Users/rkn/Documents/xTIMEcomposer/workspace/module_xud/include/xud.h"
	.byte	0
	.long	508
	.long	508
	.long	.Lxtalabel0
.cc_bottom cc_277
.cc_top cc_278,.Lxtalabel0
	.ascii	"/Users/rkn/Documents/xTIMEcomposer/workspace/module_xud/include/xud.h"
	.byte	0
	.long	510
	.long	511
	.long	.Lxtalabel0
.cc_bottom cc_278
.cc_top cc_279,.Lxtalabel34
	.ascii	"/Users/rkn/Documents/xTIMEcomposer/workspace/module_xud/include/xud.h"
	.byte	0
	.long	510
	.long	511
	.long	.Lxtalabel34
.cc_bottom cc_279
.cc_top cc_280,.Lxtalabel8
	.ascii	"/Users/rkn/Documents/xTIMEcomposer/workspace/module_xud/include/xud.h"
	.byte	0
	.long	510
	.long	511
	.long	.Lxtalabel8
.cc_bottom cc_280
.cc_top cc_281,.Lxtalabel25
	.ascii	"/Users/rkn/Documents/xTIMEcomposer/workspace/module_xud/include/xud.h"
	.byte	0
	.long	510
	.long	511
	.long	.Lxtalabel25
.cc_bottom cc_281
.cc_top cc_282,.Lxtalabel23
	.ascii	"/Users/rkn/Documents/xTIMEcomposer/workspace/module_xud/include/xud.h"
	.byte	0
	.long	510
	.long	511
	.long	.Lxtalabel23
.cc_bottom cc_282
.cc_top cc_283,.Lxtalabel21
	.ascii	"/Users/rkn/Documents/xTIMEcomposer/workspace/module_xud/include/xud.h"
	.byte	0
	.long	510
	.long	511
	.long	.Lxtalabel21
.cc_bottom cc_283
.Lentries_end5:
	.section	.trap_info,"",@progbits
.Ltrap_info_entries_start0:
	.long	.Ltrap_info_entries_end0-.Ltrap_info_entries_start0
	.long	1
.Ltrap_info_entries_end0: