	.text
	.file	"/Users/rkn/Documents/xTIMEcomposer/workspace/module_usb_midi/src/usb_midi.xc"
                                        # Start of file scope inline assembly
	.inline_definition delay_seconds
	.inline_definition delay_milliseconds
	.inline_definition delay_microseconds
	.inline_definition midi_get_ack_or_data
	.inline_definition midi_send_ack
	.inline_definition is_power_of_2
	.inline_definition queue_init
	.inline_definition queue_is_empty
	.inline_definition queue_is_full
	.inline_definition queue_push_word
	.inline_definition queue_pop_word
	.inline_definition queue_push_byte
	.inline_definition queue_pop_byte
	.inline_definition queue_items
	.inline_definition queue_space
	.set usage.anon.0,0
	.set usage.anon.1,0
	.set usage.anon.2,0
	.set usage.anon.3,0
	.set usage.anon.4,0
	.set usage.anon.5,0
	.set usage.anon.6,0
	.set usage.anon.7,0
	.set usage.anon.8,0
	.set usage.anon.9,0
	.set usage.anon.10,0
	.set usage.anon.11,0
	.set usage.anon.12,0
	.set usage.anon.13,0
	.set usage.anon.14,0
	.set usage.anon.15,0
	.set usage.anon.16,0
	.set usage.anon.17,0
	.globread usb_midi,authenticating,"/Users/rkn/Documents/xTIMEcomposer/workspace/module_usb_midi/src/usb_midi.xc:150:24: note: object used here\n                case (!authenticating && !isRX) => p_midi_in when pinseq(0) :> void @  rxPT:\n                       ^~~~~~~~~~~~~~"
	.globread usb_midi,usage.anon.17,"/Users/rkn/Documents/xTIMEcomposer/workspace/module_usb_midi/src/usb_midi.xc:153:40: note: object used here\n                    rxT += (bit_time + bit_time_2);\n                                       ^~~~~~~~~~"
	.globread usb_midi,usage.anon.16,"/Users/rkn/Documents/xTIMEcomposer/workspace/module_usb_midi/src/usb_midi.xc:153:29: note: object used here\n                    rxT += (bit_time + bit_time_2);\n                            ^~~~~~~~"
	.globwrite usb_midi,uin_count,"/Users/rkn/Documents/xTIMEcomposer/workspace/module_usb_midi/src/usb_midi.xc:180:29: note: object used here\n                            uin_count++;\n                            ^~~~~~~~~"
	.globwrite usb_midi,uout_count,"/Users/rkn/Documents/xTIMEcomposer/workspace/module_usb_midi/src/usb_midi.xc:259:21: note: object used here\n                    uout_count++;\n                    ^~~~~~~~~~"
	.globwrite usb_midi,th_count,"/Users/rkn/Documents/xTIMEcomposer/workspace/module_usb_midi/src/usb_midi.xc:202:37: note: object used here\n                                    th_count++;\n                                    ^~~~~~~~"
	.globwrite usb_midi,mr_count,"/Users/rkn/Documents/xTIMEcomposer/workspace/module_usb_midi/src/usb_midi.xc:293:17: note: object used here\n                mr_count++;\n                ^~~~~~~~"
	.call usb_midi,usage.anon.9
	.call usb_midi,usage.anon.7
	.call usb_midi,usage.anon.6
	.call usb_midi,usage.anon.4
	.call usb_midi,usage.anon.3
	.call usb_midi,usage.anon.15
	.call usb_midi,usage.anon.14
	.call usb_midi,usage.anon.10
	.call usb_midi,reset_midi_state
	.call usb_midi,midi_out_parse
	.call usb_midi,midi_in_parse
	.call usb_midi,configure_out_port
	.call usb_midi,configure_in_port
	.call usage.anon.14,usage.anon.13
	.call usage.anon.12,usage.anon.7
	.call usage.anon.11,usage.anon.8
	.call usage.anon.10,usage.anon.7
	.call usage.anon.9,usage.anon.8
	.call usage.anon.6,usage.anon.5
	.call usage.anon.2,delay_ticks_longlong
	.call usage.anon.1,delay_ticks_longlong
	.call usage.anon.0,delay_ticks_longlong
	.set usage.anon.3.locnoside, 0
	.set usage.anon.4.locnoside, 0
	.set usage.anon.6.locnoside, 0
	.set usage.anon.9.locnoside, 0
	.set usage.anon.10.locnoside, 0
	.set usage.anon.11.locnoside, 0
	.set usage.anon.12.locnoside, 0
	.set usb_midi.locnoside, 0
	.set usb_midi.locnoglobalaccess, 0

                                        # End of file scope inline assembly
	.section	.cp.rodata.cst4,"aMc",@progbits,4
	.cc_top .LCPI0_0.data,.LCPI0_0
	.align	4
	.type	.LCPI0_0,@object
	.size	.LCPI0_0, 4
.LCPI0_0:
	.long	2147483647              # 0x7fffffff
	.cc_bottom .LCPI0_0.data
	.cc_top .LCPI0_1.data,.LCPI0_1
	.align	4
	.type	.LCPI0_1,@object
	.size	.LCPI0_1, 4
.LCPI0_1:
	.long	4294966272              # 0xfffffc00
	.cc_bottom .LCPI0_1.data
	.text
	.globl	usb_midi
	.align	4
	.type	usb_midi,@function
	.cc_top usb_midi.function,usb_midi
usb_midi:                               # @usb_midi
.Lfunc_begin0:
	.loc	1 70 0                  # /Users/rkn/Documents/xTIMEcomposer/workspace/module_usb_midi/src/usb_midi.xc:70:0
	.cfi_startproc
	.issue_mode dual
# BB#0:                                 # %allocas
.Lxtalabel0:
	DUALENTSP_lu6 1062
.Ltmp0:
	.cfi_def_cfa_offset 4248
.Ltmp1:
	.cfi_offset 15, 0
	stw r4, sp[1054]                # 4-byte Folded Spill
	stw r5, sp[1055]                # 4-byte Folded Spill
.Ltmp2:
	.cfi_offset 4, -32
.Ltmp3:
	.cfi_offset 5, -28
	stw r6, sp[1056]                # 4-byte Folded Spill
	stw r7, sp[1057]                # 4-byte Folded Spill
.Ltmp4:
	.cfi_offset 6, -24
.Ltmp5:
	.cfi_offset 7, -20
	stw r8, sp[1058]                # 4-byte Folded Spill
	stw r9, sp[1059]                # 4-byte Folded Spill
.Ltmp6:
	.cfi_offset 8, -16
.Ltmp7:
	.cfi_offset 9, -12
	stw r10, sp[1060]               # 4-byte Folded Spill
.Ltmp8:
	.cfi_offset 10, -8
	#DEBUG_VALUE: usb_midi:p_midi_in <- R0
	#DEBUG_VALUE: usb_midi:p_midi_out <- R1
	#DEBUG_VALUE: usb_midi:clk_midi <- R2
	#DEBUG_VALUE: usb_midi:c_midi <- R3
.Ltmp9:
	#DEBUG_VALUE: usb_midi:clk_midi <- R9
	{
		mov r9, r2
		stw r1, sp[7]
	}
.Ltmp10:
	#DEBUG_VALUE: is_power_of_2:x <- 1024
	#DEBUG_VALUE: queue_init:size <- 1024
	#DEBUG_VALUE: midi_from_host_overflow <- 0
	#DEBUG_VALUE: isRX <- 0
	#DEBUG_VALUE: waiting_for_ack <- 0
	#DEBUG_VALUE: isTX <- 0
	#DEBUG_VALUE: symbol <- 0
	#DEBUG_VALUE: usb_midi:p_midi_in <- R6
	{
		mov r6, r0
		mkmsk r0, 1
	}
.Ltmp11:
	.file	2 "/Users/rkn/Documents/xTIMEcomposer/workspace/module_queue/src/queue.h"
	.loc	2 20 0 prologue_end     # /Users/rkn/Documents/xTIMEcomposer/workspace/module_queue/src/queue.h:20:0
	#APP
	ecallf r0
	#NO_APP
.Ltmp12:
	#DEBUG_VALUE: is_power_of_2:x <- 1
	#DEBUG_VALUE: queue_init:size <- 1
	.loc	2 20 0                  # /Users/rkn/Documents/xTIMEcomposer/workspace/module_queue/src/queue.h:20:0
	#APP
	ecallf r0
	#NO_APP
.Ltmp13:
	#DEBUG_VALUE: usb_midi:p_midi_out <- [SP+28]
	#DEBUG_VALUE: usb_midi:p_midi_in <- R6
	#DEBUG_VALUE: usb_midi:p_midi_out <- [SP+28]
	#DEBUG_VALUE: usb_midi:clk_midi <- R9
	#DEBUG_VALUE: usb_midi:c_midi <- R3
	#DEBUG_VALUE: symbol <- 0
	#DEBUG_VALUE: isTX <- 0
	#DEBUG_VALUE: waiting_for_ack <- 0
	#DEBUG_VALUE: isRX <- 0
	#DEBUG_VALUE: midi_from_host_overflow <- 0
.Ltrap_info0:
	{
		ecallf r1
		stw r1, sp[7]
	}
.Ltmp14:
	#DEBUG_VALUE: usb_midi:c_midi <- [SP+64]
	#DEBUG_VALUE: usb_midi:p_midi_in <- R6
	#DEBUG_VALUE: usb_midi:p_midi_out <- [SP+28]
	#DEBUG_VALUE: usb_midi:clk_midi <- R9
	#DEBUG_VALUE: usb_midi:c_midi <- [SP+64]
	#DEBUG_VALUE: symbol <- 0
	#DEBUG_VALUE: isTX <- 0
	#DEBUG_VALUE: waiting_for_ack <- 0
	#DEBUG_VALUE: isRX <- 0
	#DEBUG_VALUE: midi_from_host_overflow <- 0
.Ltrap_info1:
	{
		ecallf r9
		stw r3, sp[16]
	}
	{
		mkmsk r2, 1
		ldw r0, sp[7]
	}
.Ltmp15:
	.loc	1 103 0                 # /Users/rkn/Documents/xTIMEcomposer/workspace/module_usb_midi/src/usb_midi.xc:103:0
	{
		mov r1, r9
		nop
	}
.Lxta.call_labels0:
	bl configure_out_port
.Ltrap_info2:
	{
		ecallf r6
		nop
	}
	#DEBUG_VALUE: usb_midi:p_midi_in <- R6
	#DEBUG_VALUE: usb_midi:p_midi_out <- [SP+28]
	#DEBUG_VALUE: usb_midi:clk_midi <- R9
	#DEBUG_VALUE: usb_midi:c_midi <- [SP+64]
	#DEBUG_VALUE: symbol <- 0
	#DEBUG_VALUE: isTX <- 0
	#DEBUG_VALUE: waiting_for_ack <- 0
	#DEBUG_VALUE: isRX <- 0
	#DEBUG_VALUE: midi_from_host_overflow <- 0
	#DEBUG_VALUE: usb_midi:cable_number <- undef
	.loc	1 104 0                 # /Users/rkn/Documents/xTIMEcomposer/workspace/module_usb_midi/src/usb_midi.xc:104:0
	{
		mov r0, r6
		mov r1, r9
	}
.Lxta.call_labels1:
	bl configure_in_port
	.loc	1 107 0                 # /Users/rkn/Documents/xTIMEcomposer/workspace/module_usb_midi/src/usb_midi.xc:107:0
	{
		setc res[r9], 15
		nop
	}
	ldaw r0, sp[1047]
.Ltmp16:
	#DEBUG_VALUE: mips <- undef
	#DEBUG_VALUE: mips <- [R0+0]
	.loc	1 109 0                 # /Users/rkn/Documents/xTIMEcomposer/workspace/module_usb_midi/src/usb_midi.xc:109:0
.Lxta.call_labels2:
	bl reset_midi_state
.Ltmp17:
	.loc	1 111 0                 # /Users/rkn/Documents/xTIMEcomposer/workspace/module_usb_midi/src/usb_midi.xc:111:0
	{
		gettime r0
		nop
	}
.Ltmp18:
	#DEBUG_VALUE: txT <- [SP+68]
	#DEBUG_VALUE: rxT <- R10
	.loc	1 112 0                 # /Users/rkn/Documents/xTIMEcomposer/workspace/module_usb_midi/src/usb_midi.xc:112:0
	{
		gettime r10
		stw r0, sp[17]
	}
.Ltmp19:
	.loc	1 146 13                # /Users/rkn/Documents/xTIMEcomposer/workspace/module_usb_midi/src/usb_midi.xc:146:13
	{
		get r11, id
		nop
	}
	.loc	1 146 13                # /Users/rkn/Documents/xTIMEcomposer/workspace/module_usb_midi/src/usb_midi.xc:146:13
	ldaw r0, dp[__timers]
                                        # implicit-def: R1
	.loc	1 146 13                # /Users/rkn/Documents/xTIMEcomposer/workspace/module_usb_midi/src/usb_midi.xc:146:13
	{
		ldc r0, 0
		ldw r8, r0[r11]
	}
	{
		mov r2, r0
		stw r1, sp[6]
	}
	{
		mov r3, r0
		mov r7, r0
	}
	{
		nop
		stw r0, sp[12]
	}
	{
		nop
		stw r0, sp[19]
	}
                                        # implicit-def: R1
	{
		nop
		stw r1, sp[13]
	}
                                        # implicit-def: R1
	{
		nop
		stw r1, sp[11]
	}
	{
		nop
		stw r0, sp[9]
	}
                                        # implicit-def: R1
	{
		nop
		stw r1, sp[15]
	}
                                        # implicit-def: R1
	{
		mov r11, r0
		stw r1, sp[10]
	}
	{
		nop
		stw r0, sp[18]
	}
	bu .LBB0_1
.Ltmp20:
.LBB0_34:                               # %iftrue194
                                        #   in Loop: Header=BB0_1 Depth=1
.Lxtalabel1:
	#DEBUG_VALUE: usb_midi:p_midi_in <- R6
	#DEBUG_VALUE: usb_midi:p_midi_out <- [SP+28]
	#DEBUG_VALUE: usb_midi:c_midi <- [SP+64]
	#DEBUG_VALUE: isTX <- 0
	#DEBUG_VALUE: waiting_for_ack <- 0
	#DEBUG_VALUE: isRX <- 0
	#DEBUG_VALUE: midi_from_host_overflow <- 0
	#DEBUG_VALUE: usb_midi:cable_number <- undef
	#DEBUG_VALUE: mips <- undef
	#DEBUG_VALUE: txT <- [SP+68]
	#DEBUG_VALUE: txPT <- [SP+44]
	{
		mov r2, r9
		mov r3, r5
	}
	{
		ldc r0, 0
		stw r0, sp[18]
	}
.Ltmp21:
.LBB0_1:                                # %LoopBody
                                        # =>This Loop Header: Depth=1
                                        #     Child Loop BB0_2 Depth 2
                                        #       Child Loop BB0_40 Depth 3
.Lxtalabel2:
	{
		nop
		stw r0, sp[14]
	}
	bu .LBB0_2
.Ltmp22:                                # Block address taken
.LBB0_45:                               # %selectcase
                                        #   in Loop: Header=BB0_2 Depth=2
.Lxtalabel3:
.Ltmp23:
	#DEBUG_VALUE: usb_midi:p_midi_in <- R6
	#DEBUG_VALUE: usb_midi:p_midi_out <- [SP+28]
	#DEBUG_VALUE: usb_midi:c_midi <- [SP+64]
	#DEBUG_VALUE: symbol <- 0
	#DEBUG_VALUE: isTX <- 0
	#DEBUG_VALUE: waiting_for_ack <- 0
	#DEBUG_VALUE: isRX <- 0
	#DEBUG_VALUE: midi_from_host_overflow <- 0
	#DEBUG_VALUE: usb_midi:cable_number <- undef
	#DEBUG_VALUE: mips <- undef
	.loc	1 150 0                 # /Users/rkn/Documents/xTIMEcomposer/workspace/module_usb_midi/src/usb_midi.xc:150:0
	{
		getts r0, res[r6]
		nop
	}
.Ltmp24:
	#DEBUG_VALUE: rxPT <- R0
	.loc	1 150 0                 # /Users/rkn/Documents/xTIMEcomposer/workspace/module_usb_midi/src/usb_midi.xc:150:0
.Lxta.endpoint_labels0:
	{
		in r1, res[r6]
		nop
	}
.Ltmp25:
	#DEBUG_VALUE: isRX <- 1
	.loc	1 152 0                 # /Users/rkn/Documents/xTIMEcomposer/workspace/module_usb_midi/src/usb_midi.xc:152:0
	{
		gettime r1
		nop
	}
.Ltmp26:
	#DEBUG_VALUE: rxT <- R1
	ldc r2, 4800
.Ltmp27:
	#DEBUG_VALUE: rxT <- R10
	#DEBUG_VALUE: rxI <- 0
	.loc	1 153 0                 # /Users/rkn/Documents/xTIMEcomposer/workspace/module_usb_midi/src/usb_midi.xc:153:0
	{
		add r10, r1, r2
		add r0, r0, r2
	}
.Ltmp28:
	{
		nop
		stw r0, sp[13]
	}
	.loc	1 156 0                 # /Users/rkn/Documents/xTIMEcomposer/workspace/module_usb_midi/src/usb_midi.xc:156:0
	#APP
	setc res[r6],1
	#NO_APP
	.loc	1 157 0                 # /Users/rkn/Documents/xTIMEcomposer/workspace/module_usb_midi/src/usb_midi.xc:157:0
	#APP
	setpt res[r6],r0
	#NO_APP
.Ltmp29:
	#DEBUG_VALUE: rxPT <- [SP+52]
	{
		mov r2, r9
		mov r3, r5
	}
	{
		mkmsk r0, 1
		nop
	}
	{
		ldc r0, 0
		stw r0, sp[19]
	}
	{
		mov r11, r4
		stw r0, sp[15]
	}
.Ltmp30:
.LBB0_2:                                # %LoopBody
                                        #   Parent Loop BB0_1 Depth=1
                                        # =>  This Loop Header: Depth=2
                                        #       Child Loop BB0_40 Depth 3
.Lxtalabel4:
	#DEBUG_VALUE: usb_midi:p_midi_in <- R6
	#DEBUG_VALUE: usb_midi:p_midi_out <- [SP+28]
	#DEBUG_VALUE: usb_midi:c_midi <- [SP+64]
	#DEBUG_VALUE: symbol <- 0
	#DEBUG_VALUE: isTX <- 0
	#DEBUG_VALUE: waiting_for_ack <- 0
	#DEBUG_VALUE: isRX <- 0
	#DEBUG_VALUE: midi_from_host_overflow <- 0
	#DEBUG_VALUE: usb_midi:cable_number <- undef
	#DEBUG_VALUE: mips <- undef
	{
		mov r4, r11
		mov r5, r3
	}
	{
		clre
		mov r9, r2
	}
	.loc	1 146 13                # /Users/rkn/Documents/xTIMEcomposer/workspace/module_usb_midi/src/usb_midi.xc:146:13
	{
		setc res[r8], 1
		nop
	}
	.loc	1 146 13                # /Users/rkn/Documents/xTIMEcomposer/workspace/module_usb_midi/src/usb_midi.xc:146:13
	{
		in r0, res[r8]
		nop
	}
	.loc	1 146 13                # /Users/rkn/Documents/xTIMEcomposer/workspace/module_usb_midi/src/usb_midi.xc:146:13
	ldw r1, dp[authenticating]
	bt r1, .LBB0_5
.Ltmp31:
# BB#3:                                 # %LoopBody
                                        #   in Loop: Header=BB0_2 Depth=2
.Lxtalabel5:
	#DEBUG_VALUE: usb_midi:p_midi_in <- R6
	#DEBUG_VALUE: usb_midi:p_midi_out <- [SP+28]
	#DEBUG_VALUE: usb_midi:c_midi <- [SP+64]
	#DEBUG_VALUE: usb_midi:cable_number <- undef
	{
		nop
		ldw r2, sp[19]
	}
	{
		eq r2, r2, 1
		nop
	}
	bt r2, .LBB0_5
.Ltmp32:
# BB#4:                                 # %selectguardtrue
                                        #   in Loop: Header=BB0_2 Depth=2
	#DEBUG_VALUE: usb_midi:p_midi_in <- R6
	#DEBUG_VALUE: usb_midi:p_midi_out <- [SP+28]
	#DEBUG_VALUE: usb_midi:c_midi <- [SP+64]
	#DEBUG_VALUE: usb_midi:cable_number <- undef
	{
		ldc r2, 0
		nop
	}
	.loc	1 146 13                # /Users/rkn/Documents/xTIMEcomposer/workspace/module_usb_midi/src/usb_midi.xc:146:13
	{
		setd res[r6], r2
		nop
	}
	.loc	1 146 13                # /Users/rkn/Documents/xTIMEcomposer/workspace/module_usb_midi/src/usb_midi.xc:146:13
	{
		setc res[r6], 17
		nop
	}
	ldap r11, .Ltmp22
	.loc	1 146 13                # /Users/rkn/Documents/xTIMEcomposer/workspace/module_usb_midi/src/usb_midi.xc:146:13
	{
		setv res[r6], r11
		nop
	}
	.loc	1 146 13                # /Users/rkn/Documents/xTIMEcomposer/workspace/module_usb_midi/src/usb_midi.xc:146:13
	{
		eeu res[r6]
		nop
	}
.Ltmp33:
.LBB0_5:                                # %selectguarddone
                                        #   in Loop: Header=BB0_2 Depth=2
	#DEBUG_VALUE: usb_midi:p_midi_in <- R6
	#DEBUG_VALUE: usb_midi:p_midi_out <- [SP+28]
	#DEBUG_VALUE: usb_midi:c_midi <- [SP+64]
	#DEBUG_VALUE: symbol <- 0
	#DEBUG_VALUE: isTX <- 0
	#DEBUG_VALUE: waiting_for_ack <- 0
	#DEBUG_VALUE: isRX <- 0
	#DEBUG_VALUE: midi_from_host_overflow <- 0
	#DEBUG_VALUE: usb_midi:cable_number <- undef
	#DEBUG_VALUE: mips <- undef
	ldw r2, cp[.LCPI0_0]
	bt r1, .LBB0_8
.Ltmp34:
# BB#6:                                 # %selectguarddone
                                        #   in Loop: Header=BB0_2 Depth=2
	#DEBUG_VALUE: usb_midi:p_midi_in <- R6
	#DEBUG_VALUE: usb_midi:p_midi_out <- [SP+28]
	#DEBUG_VALUE: usb_midi:c_midi <- [SP+64]
	#DEBUG_VALUE: usb_midi:cable_number <- undef
	ldw r2, cp[.LCPI0_0]
	{
		nop
		ldw r3, sp[19]
	}
	bf r3, .LBB0_8
.Ltmp35:
# BB#7:                                 # %selectguardtrue38
                                        #   in Loop: Header=BB0_2 Depth=2
	#DEBUG_VALUE: usb_midi:p_midi_in <- R6
	#DEBUG_VALUE: usb_midi:p_midi_out <- [SP+28]
	#DEBUG_VALUE: usb_midi:c_midi <- [SP+64]
	#DEBUG_VALUE: usb_midi:cable_number <- undef
	.loc	1 146 13                # /Users/rkn/Documents/xTIMEcomposer/workspace/module_usb_midi/src/usb_midi.xc:146:13
	{
		setd res[r8], r10
		sub r2, r10, r0
	}
	.loc	1 146 13                # /Users/rkn/Documents/xTIMEcomposer/workspace/module_usb_midi/src/usb_midi.xc:146:13
	{
		setc res[r8], 9
		nop
	}
	ldap r11, .Ltmp36
	.loc	1 146 13                # /Users/rkn/Documents/xTIMEcomposer/workspace/module_usb_midi/src/usb_midi.xc:146:13
	{
		setv res[r8], r11
		nop
	}
	.loc	1 146 13                # /Users/rkn/Documents/xTIMEcomposer/workspace/module_usb_midi/src/usb_midi.xc:146:13
	{
		eeu res[r8]
		nop
	}
.Ltmp37:
.LBB0_8:                                # %selectguarddone39
                                        #   in Loop: Header=BB0_2 Depth=2
	#DEBUG_VALUE: usb_midi:p_midi_in <- R6
	#DEBUG_VALUE: usb_midi:p_midi_out <- [SP+28]
	#DEBUG_VALUE: usb_midi:c_midi <- [SP+64]
	#DEBUG_VALUE: symbol <- 0
	#DEBUG_VALUE: isTX <- 0
	#DEBUG_VALUE: waiting_for_ack <- 0
	#DEBUG_VALUE: isRX <- 0
	#DEBUG_VALUE: midi_from_host_overflow <- 0
	#DEBUG_VALUE: usb_midi:cable_number <- undef
	#DEBUG_VALUE: mips <- undef
	{
		nop
		ldw r3, sp[18]
	}
	bf r3, .LBB0_13
.Ltmp38:
# BB#9:                                 # %selectguarddone39
                                        #   in Loop: Header=BB0_2 Depth=2
	#DEBUG_VALUE: usb_midi:p_midi_in <- R6
	#DEBUG_VALUE: usb_midi:p_midi_out <- [SP+28]
	#DEBUG_VALUE: usb_midi:c_midi <- [SP+64]
	#DEBUG_VALUE: usb_midi:cable_number <- undef
	bt r1, .LBB0_13
.Ltmp39:
# BB#10:                                # %selectguardtrue56
                                        #   in Loop: Header=BB0_2 Depth=2
	#DEBUG_VALUE: usb_midi:p_midi_in <- R6
	#DEBUG_VALUE: usb_midi:p_midi_out <- [SP+28]
	#DEBUG_VALUE: usb_midi:c_midi <- [SP+64]
	#DEBUG_VALUE: usb_midi:cable_number <- undef
	{
		nop
		ldw r1, sp[17]
	}
	.loc	1 146 13                # /Users/rkn/Documents/xTIMEcomposer/workspace/module_usb_midi/src/usb_midi.xc:146:13
	{
		sub r0, r1, r0
		nop
	}
	.loc	1 146 13                # /Users/rkn/Documents/xTIMEcomposer/workspace/module_usb_midi/src/usb_midi.xc:146:13
	{
		lss r0, r2, r0
		nop
	}
	bt r0, .LBB0_12
.Ltmp40:
# BB#11:                                # %true64
                                        #   in Loop: Header=BB0_2 Depth=2
	#DEBUG_VALUE: usb_midi:p_midi_in <- R6
	#DEBUG_VALUE: usb_midi:p_midi_out <- [SP+28]
	#DEBUG_VALUE: usb_midi:c_midi <- [SP+64]
	#DEBUG_VALUE: usb_midi:cable_number <- undef
	{
		nop
		ldw r0, sp[17]
	}
	.loc	1 146 13                # /Users/rkn/Documents/xTIMEcomposer/workspace/module_usb_midi/src/usb_midi.xc:146:13
	{
		setd res[r8], r0
		nop
	}
	.loc	1 146 13                # /Users/rkn/Documents/xTIMEcomposer/workspace/module_usb_midi/src/usb_midi.xc:146:13
	{
		setc res[r8], 9
		nop
	}
	ldap r11, .Ltmp41
	.loc	1 146 13                # /Users/rkn/Documents/xTIMEcomposer/workspace/module_usb_midi/src/usb_midi.xc:146:13
	{
		setv res[r8], r11
		nop
	}
.Ltmp42:
.LBB0_12:                               # %selectguarddone57.thread
                                        #   in Loop: Header=BB0_2 Depth=2
	#DEBUG_VALUE: usb_midi:p_midi_in <- R6
	#DEBUG_VALUE: usb_midi:p_midi_out <- [SP+28]
	#DEBUG_VALUE: usb_midi:c_midi <- [SP+64]
	#DEBUG_VALUE: usb_midi:cable_number <- undef
	.loc	1 146 13                # /Users/rkn/Documents/xTIMEcomposer/workspace/module_usb_midi/src/usb_midi.xc:146:13
	{
		eeu res[r8]
		nop
	}
	bu .LBB0_14
.Ltmp43:
.LBB0_13:                               # %selectguarddone57
                                        #   in Loop: Header=BB0_2 Depth=2
	#DEBUG_VALUE: usb_midi:p_midi_in <- R6
	#DEBUG_VALUE: usb_midi:p_midi_out <- [SP+28]
	#DEBUG_VALUE: usb_midi:c_midi <- [SP+64]
	#DEBUG_VALUE: symbol <- 0
	#DEBUG_VALUE: isTX <- 0
	#DEBUG_VALUE: waiting_for_ack <- 0
	#DEBUG_VALUE: isRX <- 0
	#DEBUG_VALUE: midi_from_host_overflow <- 0
	#DEBUG_VALUE: usb_midi:cable_number <- undef
	#DEBUG_VALUE: mips <- undef
	bt r1, .LBB0_15
.Ltmp44:
.LBB0_14:                               # %selectguardtrue74
                                        #   in Loop: Header=BB0_2 Depth=2
	#DEBUG_VALUE: usb_midi:p_midi_in <- R6
	#DEBUG_VALUE: usb_midi:p_midi_out <- [SP+28]
	#DEBUG_VALUE: usb_midi:c_midi <- [SP+64]
	#DEBUG_VALUE: symbol <- 0
	#DEBUG_VALUE: isTX <- 0
	#DEBUG_VALUE: waiting_for_ack <- 0
	#DEBUG_VALUE: isRX <- 0
	#DEBUG_VALUE: midi_from_host_overflow <- 0
	#DEBUG_VALUE: usb_midi:cable_number <- undef
	#DEBUG_VALUE: mips <- undef
	ldap r11, .Ltmp45
	{
		nop
		ldw r0, sp[16]
	}
.Ltmp46:
	#DEBUG_VALUE: usb_midi:c_midi <- R0
	.loc	1 146 13                # /Users/rkn/Documents/xTIMEcomposer/workspace/module_usb_midi/src/usb_midi.xc:146:13
	{
		setv res[r0], r11
		nop
	}
	.loc	1 146 13                # /Users/rkn/Documents/xTIMEcomposer/workspace/module_usb_midi/src/usb_midi.xc:146:13
	{
		eeu res[r0]
		nop
	}
.Ltmp47:
	#DEBUG_VALUE: usb_midi:c_midi <- [SP+64]
.LBB0_15:                               # %selectguarddone75
                                        #   in Loop: Header=BB0_2 Depth=2
	#DEBUG_VALUE: usb_midi:p_midi_in <- R6
	#DEBUG_VALUE: usb_midi:p_midi_out <- [SP+28]
	#DEBUG_VALUE: usb_midi:c_midi <- [SP+64]
	#DEBUG_VALUE: symbol <- 0
	#DEBUG_VALUE: isTX <- 0
	#DEBUG_VALUE: waiting_for_ack <- 0
	#DEBUG_VALUE: isRX <- 0
	#DEBUG_VALUE: midi_from_host_overflow <- 0
	#DEBUG_VALUE: usb_midi:cable_number <- undef
	#DEBUG_VALUE: mips <- undef
	.loc	1 341 0                 # /Users/rkn/Documents/xTIMEcomposer/workspace/module_usb_midi/src/usb_midi.xc:341:0

	.xtabranch .LBB0_45, .LBB0_16, .LBB0_25, .LBB0_35
	{
		waiteu
		nop
	}
.Ltmp48:
.Ltmp36:                                # Block address taken
.LBB0_16:                               # %selectcase25
                                        #   in Loop: Header=BB0_2 Depth=2
.Lxtalabel6:
	#DEBUG_VALUE: usb_midi:p_midi_in <- R6
	#DEBUG_VALUE: usb_midi:p_midi_out <- [SP+28]
	#DEBUG_VALUE: usb_midi:c_midi <- [SP+64]
	#DEBUG_VALUE: symbol <- 0
	#DEBUG_VALUE: isTX <- 0
	#DEBUG_VALUE: waiting_for_ack <- 0
	#DEBUG_VALUE: isRX <- 0
	#DEBUG_VALUE: midi_from_host_overflow <- 0
	#DEBUG_VALUE: usb_midi:cable_number <- undef
	#DEBUG_VALUE: mips <- undef
	.loc	1 161 0                 # /Users/rkn/Documents/xTIMEcomposer/workspace/module_usb_midi/src/usb_midi.xc:161:0
.Lxta.endpoint_labels1:
	{
		in r0, res[r8]
		nop
	}
.Ltmp49:
	#DEBUG_VALUE: _ <- R0
	.loc	1 164 0                 # /Users/rkn/Documents/xTIMEcomposer/workspace/module_usb_midi/src/usb_midi.xc:164:0
	{
		setc res[r6], 1
		nop
	}
.Ltmp50:
	#DEBUG_VALUE: bit <- R0
	.loc	1 164 0                 # /Users/rkn/Documents/xTIMEcomposer/workspace/module_usb_midi/src/usb_midi.xc:164:0
.Lxta.endpoint_labels2:
	{
		in r0, res[r6]
		ldw r2, sp[15]
	}
.Ltmp51:
	#DEBUG_VALUE: rxI <- R11
	.loc	1 165 21                # /Users/rkn/Documents/xTIMEcomposer/workspace/module_usb_midi/src/usb_midi.xc:165:21
	{
		add r11, r2, 1
		ldc r1, 8
	}
.Ltmp52:
	.loc	1 165 21                # /Users/rkn/Documents/xTIMEcomposer/workspace/module_usb_midi/src/usb_midi.xc:165:21
	{
		lss r1, r2, r1
		nop
	}
	.loc	1 165 21                # /Users/rkn/Documents/xTIMEcomposer/workspace/module_usb_midi/src/usb_midi.xc:165:21
	bf r1, .LBB0_18
.Ltmp53:
# BB#17:                                # %iftrue92
                                        #   in Loop: Header=BB0_2 Depth=2
.Lxtalabel7:
	#DEBUG_VALUE: usb_midi:p_midi_in <- R6
	#DEBUG_VALUE: usb_midi:p_midi_out <- [SP+28]
	#DEBUG_VALUE: usb_midi:c_midi <- [SP+64]
	#DEBUG_VALUE: symbol <- 0
	#DEBUG_VALUE: isTX <- 0
	#DEBUG_VALUE: waiting_for_ack <- 0
	#DEBUG_VALUE: isRX <- 0
	#DEBUG_VALUE: midi_from_host_overflow <- 0
	#DEBUG_VALUE: usb_midi:cable_number <- undef
	#DEBUG_VALUE: mips <- undef
	#DEBUG_VALUE: rxI <- R11
	#DEBUG_VALUE: bit <- R0
	{
		mkmsk r1, 5
		nop
	}
	.loc	1 168 0                 # /Users/rkn/Documents/xTIMEcomposer/workspace/module_usb_midi/src/usb_midi.xc:168:0
	{
		shl r0, r0, r1
		ldw r1, sp[10]
	}
.Ltmp54:
	.loc	1 168 0                 # /Users/rkn/Documents/xTIMEcomposer/workspace/module_usb_midi/src/usb_midi.xc:168:0
	{
		shr r1, r1, 1
		nop
	}
	.loc	1 168 0                 # /Users/rkn/Documents/xTIMEcomposer/workspace/module_usb_midi/src/usb_midi.xc:168:0
	{
		or r0, r0, r1
		nop
	}
.Ltmp55:
	#DEBUG_VALUE: rxByte <- [SP+40]
	{
		nop
		stw r0, sp[10]
	}
	ldc r0, 3200
.Ltmp56:
	#DEBUG_VALUE: rxT <- R10
	.loc	1 169 0                 # /Users/rkn/Documents/xTIMEcomposer/workspace/module_usb_midi/src/usb_midi.xc:169:0
	{
		add r10, r10, r0
		ldw r1, sp[13]
	}
.Ltmp57:
	.loc	1 170 0                 # /Users/rkn/Documents/xTIMEcomposer/workspace/module_usb_midi/src/usb_midi.xc:170:0
	{
		add r1, r1, r0
		nop
	}
.Ltmp58:
	#DEBUG_VALUE: rxPT <- R1
	{
		nop
		stw r1, sp[13]
	}
	.loc	1 171 0                 # /Users/rkn/Documents/xTIMEcomposer/workspace/module_usb_midi/src/usb_midi.xc:171:0
	#APP
	setpt res[r6],r1
	#NO_APP
.Ltmp59:
	#DEBUG_VALUE: rxPT <- [SP+52]
	{
		mov r2, r9
		mov r3, r5
	}
.Ltmp60:
.LBB0_24:                               # %LoopBody
                                        #   in Loop: Header=BB0_2 Depth=2
.Lxtalabel8:
	{
		mov r11, r4
		stw r11, sp[15]
	}
	bu .LBB0_2
.Ltmp41:                                # Block address taken
.LBB0_25:                               # %selectcase44
                                        #   in Loop: Header=BB0_2 Depth=2
.Lxtalabel9:
.Ltmp61:
	#DEBUG_VALUE: usb_midi:p_midi_in <- R6
	#DEBUG_VALUE: usb_midi:p_midi_out <- [SP+28]
	#DEBUG_VALUE: usb_midi:c_midi <- [SP+64]
	#DEBUG_VALUE: symbol <- 0
	#DEBUG_VALUE: isTX <- 0
	#DEBUG_VALUE: waiting_for_ack <- 0
	#DEBUG_VALUE: isRX <- 0
	#DEBUG_VALUE: midi_from_host_overflow <- 0
	#DEBUG_VALUE: usb_midi:cable_number <- undef
	#DEBUG_VALUE: mips <- undef
	#DEBUG_VALUE: _ <- R0
	.loc	1 223 0                 # /Users/rkn/Documents/xTIMEcomposer/workspace/module_usb_midi/src/usb_midi.xc:223:0
.Lxta.endpoint_labels3:
	{
		in r0, res[r8]
		ldw r3, sp[14]
	}
.Ltmp62:
	.loc	1 224 13                # /Users/rkn/Documents/xTIMEcomposer/workspace/module_usb_midi/src/usb_midi.xc:224:13
	bf r3, .LBB0_26
.Ltmp63:
# BB#31:                                # %iffalse156
                                        #   in Loop: Header=BB0_2 Depth=2
.Lxtalabel10:
	#DEBUG_VALUE: usb_midi:p_midi_in <- R6
	#DEBUG_VALUE: usb_midi:p_midi_out <- [SP+28]
	#DEBUG_VALUE: usb_midi:c_midi <- [SP+64]
	#DEBUG_VALUE: symbol <- 0
	#DEBUG_VALUE: isTX <- 0
	#DEBUG_VALUE: waiting_for_ack <- 0
	#DEBUG_VALUE: isRX <- 0
	#DEBUG_VALUE: midi_from_host_overflow <- 0
	#DEBUG_VALUE: usb_midi:cable_number <- undef
	#DEBUG_VALUE: mips <- undef
	ldc r0, 3200
	{
		nop
		ldw r1, sp[17]
	}
	.loc	1 251 0                 # /Users/rkn/Documents/xTIMEcomposer/workspace/module_usb_midi/src/usb_midi.xc:251:0
.Ltmp64:
	{
		add r1, r1, r0
		nop
	}
.Ltmp65:
	#DEBUG_VALUE: txT <- [SP+68]
	{
		nop
		stw r1, sp[17]
	}
	{
		nop
		ldw r2, sp[11]
	}
	.loc	1 252 0                 # /Users/rkn/Documents/xTIMEcomposer/workspace/module_usb_midi/src/usb_midi.xc:252:0
	{
		add r2, r2, r0
		nop
	}
.Ltmp66:
	#DEBUG_VALUE: txPT <- R2
	{
		nop
		stw r2, sp[11]
	}
	{
		nop
		ldw r1, sp[7]
	}
.Ltmp67:
	#DEBUG_VALUE: usb_midi:p_midi_out <- R1
	#DEBUG_VALUE: txPT <- [SP+44]
	.loc	1 253 67                # /Users/rkn/Documents/xTIMEcomposer/workspace/module_usb_midi/src/usb_midi.xc:253:67
	{
		setpt res[r1], r2
		mov r0, r3
	}
	.loc	1 253 67                # /Users/rkn/Documents/xTIMEcomposer/workspace/module_usb_midi/src/usb_midi.xc:253:67
	{
		zext r0, 1
		nop
	}
.Ltmp68:
	#DEBUG_VALUE: usb_midi:p_midi_out <- [SP+28]
	#DEBUG_VALUE: symbol <- R3
	.loc	1 253 67                # /Users/rkn/Documents/xTIMEcomposer/workspace/module_usb_midi/src/usb_midi.xc:253:67
.Lxta.endpoint_labels4:
	{
		out res[r1], r0
		shr r3, r3, 1
	}
.Ltmp69:
	#DEBUG_VALUE: symbol <- R0
	{
		mov r2, r9
		mov r0, r3
	}
.Ltmp70:
	{
		mov r3, r5
		mov r11, r4
	}
	{
		nop
		stw r0, sp[14]
	}
.Ltmp71:
	#DEBUG_VALUE: symbol <- [SP+56]
	bt r0, .LBB0_2
	bu .LBB0_32
.Ltmp72:
.Ltmp45:                                # Block address taken
.LBB0_35:                               # %selectcase69
                                        #   in Loop: Header=BB0_2 Depth=2
.Lxtalabel11:
	#DEBUG_VALUE: usb_midi:p_midi_in <- R6
	#DEBUG_VALUE: usb_midi:p_midi_out <- [SP+28]
	#DEBUG_VALUE: usb_midi:c_midi <- [SP+64]
	#DEBUG_VALUE: symbol <- 0
	#DEBUG_VALUE: isTX <- 0
	#DEBUG_VALUE: waiting_for_ack <- 0
	#DEBUG_VALUE: isRX <- 0
	#DEBUG_VALUE: midi_from_host_overflow <- 0
	#DEBUG_VALUE: usb_midi:cable_number <- undef
	#DEBUG_VALUE: mips <- undef
	{
		nop
		ldw r1, sp[16]
	}
.Ltmp73:
	#DEBUG_VALUE: usb_midi:c_midi <- R1
.Ltrap_info3:
	{
		ecallf r1
		nop
	}
	#DEBUG_VALUE: usb_midi:p_midi_in <- R6
	#DEBUG_VALUE: usb_midi:p_midi_out <- [SP+28]
	#DEBUG_VALUE: usb_midi:c_midi <- R1
	#DEBUG_VALUE: symbol <- 0
	#DEBUG_VALUE: isTX <- 0
	#DEBUG_VALUE: waiting_for_ack <- 0
	#DEBUG_VALUE: isRX <- 0
	#DEBUG_VALUE: midi_from_host_overflow <- 0
	#DEBUG_VALUE: usb_midi:cable_number <- undef
	#DEBUG_VALUE: mips <- undef
.Ltmp74:
	#DEBUG_VALUE: midi_get_ack_or_data:c <- R1
	.file	3 "/Users/rkn/Documents/xTIMEcomposer/workspace/module_usb_midi/src/usb_midi.h"
	.loc	3 50 3                  # /Users/rkn/Documents/xTIMEcomposer/workspace/module_usb_midi/src/usb_midi.h:50:3
	{
		testct r0, res[r1]
		nop
	}
	.loc	3 50 3                  # /Users/rkn/Documents/xTIMEcomposer/workspace/module_usb_midi/src/usb_midi.h:50:3
	bf r0, .LBB0_38
.Ltmp75:
# BB#36:                                # %iftrue210
                                        #   in Loop: Header=BB0_2 Depth=2
.Lxtalabel12:
	#DEBUG_VALUE: usb_midi:p_midi_in <- R6
	#DEBUG_VALUE: usb_midi:p_midi_out <- [SP+28]
	#DEBUG_VALUE: usb_midi:c_midi <- R1
	#DEBUG_VALUE: symbol <- 0
	#DEBUG_VALUE: isTX <- 0
	#DEBUG_VALUE: waiting_for_ack <- 0
	#DEBUG_VALUE: isRX <- 0
	#DEBUG_VALUE: midi_from_host_overflow <- 0
	#DEBUG_VALUE: usb_midi:cable_number <- undef
	#DEBUG_VALUE: mips <- undef
	#DEBUG_VALUE: midi_get_ack_or_data:c <- R1
	#DEBUG_VALUE: midi_get_ack_or_data:is_ack <- 1
	#DEBUG_VALUE: is_ack <- 1
	.loc	3 52 0                  # /Users/rkn/Documents/xTIMEcomposer/workspace/module_usb_midi/src/usb_midi.h:52:0
.Lxta.endpoint_labels5:
	{
		inct r0, res[r1]
		nop
	}
	.loc	3 53 0                  # /Users/rkn/Documents/xTIMEcomposer/workspace/module_usb_midi/src/usb_midi.h:53:0
.Lxta.endpoint_labels6:
	{
		int r0, res[r1]
		nop
	}
	.loc	3 54 0                  # /Users/rkn/Documents/xTIMEcomposer/workspace/module_usb_midi/src/usb_midi.h:54:0
.Lxta.endpoint_labels7:
	{
		int r0, res[r1]
		nop
	}
	.loc	3 55 0                  # /Users/rkn/Documents/xTIMEcomposer/workspace/module_usb_midi/src/usb_midi.h:55:0
.Lxta.endpoint_labels8:
	{
		int r0, res[r1]
		nop
	}
.Ltmp76:
	#DEBUG_VALUE: midi_get_ack_or_data:c <- [SP+64]
	#DEBUG_VALUE: usb_midi:c_midi <- [SP+64]
	.loc	2 28 5                  # /Users/rkn/Documents/xTIMEcomposer/workspace/module_queue/src/queue.h:28:5
	{
		eq r0, r9, r5
		mov r2, r9
	}
	{
		mov r3, r9
		ldc r11, 0
	}
	bt r0, .LBB0_2
.Ltmp77:
# BB#37:                                # %queue_pop_word.exit344
                                        #   in Loop: Header=BB0_2 Depth=2
.Lxtalabel13:
	#DEBUG_VALUE: usb_midi:p_midi_in <- R6
	#DEBUG_VALUE: usb_midi:p_midi_out <- [SP+28]
	#DEBUG_VALUE: usb_midi:c_midi <- [SP+64]
	#DEBUG_VALUE: symbol <- 0
	#DEBUG_VALUE: isTX <- 0
	#DEBUG_VALUE: waiting_for_ack <- 0
	#DEBUG_VALUE: isRX <- 0
	#DEBUG_VALUE: midi_from_host_overflow <- 0
	#DEBUG_VALUE: usb_midi:cable_number <- undef
	#DEBUG_VALUE: mips <- undef
	#DEBUG_VALUE: is_ack <- 1
	{
		mkmsk r0, 1
		nop
	}
	.loc	2 42 0                  # /Users/rkn/Documents/xTIMEcomposer/workspace/module_queue/src/queue.h:42:0
.Ltmp78:
	#APP
	ecallf r0
	#NO_APP
	.loc	2 43 5                  # /Users/rkn/Documents/xTIMEcomposer/workspace/module_queue/src/queue.h:43:5
	{
		add r3, r5, 1
		ldw r0, sp[6]
	}
	{
		nop
		ldw r1, sp[16]
	}
.Ltmp79:
	.loc	1 279 0                 # /Users/rkn/Documents/xTIMEcomposer/workspace/module_usb_midi/src/usb_midi.xc:279:0
.Lxta.endpoint_labels9:
	{
		out res[r1], r0
		nop
	}
	.loc	1 280 0                 # /Users/rkn/Documents/xTIMEcomposer/workspace/module_usb_midi/src/usb_midi.xc:280:0
	ldw r0, dp[th_count]
	.loc	1 280 0                 # /Users/rkn/Documents/xTIMEcomposer/workspace/module_usb_midi/src/usb_midi.xc:280:0
	{
		add r0, r0, 1
		nop
	}
	.loc	1 280 0                 # /Users/rkn/Documents/xTIMEcomposer/workspace/module_usb_midi/src/usb_midi.xc:280:0
	stw r0, dp[th_count]
	{
		mov r2, r9
		mov r11, r4
	}
	bu .LBB0_2
.Ltmp80:
.LBB0_18:                               # %iffalse
                                        #   in Loop: Header=BB0_2 Depth=2
.Lxtalabel14:
	#DEBUG_VALUE: usb_midi:p_midi_in <- R6
	#DEBUG_VALUE: usb_midi:p_midi_out <- [SP+28]
	#DEBUG_VALUE: usb_midi:c_midi <- [SP+64]
	#DEBUG_VALUE: symbol <- 0
	#DEBUG_VALUE: isTX <- 0
	#DEBUG_VALUE: waiting_for_ack <- 0
	#DEBUG_VALUE: isRX <- 0
	#DEBUG_VALUE: midi_from_host_overflow <- 0
	#DEBUG_VALUE: usb_midi:cable_number <- undef
	#DEBUG_VALUE: mips <- undef
	#DEBUG_VALUE: rxI <- R11
	#DEBUG_VALUE: bit <- R0
	.loc	1 176 25                # /Users/rkn/Documents/xTIMEcomposer/workspace/module_usb_midi/src/usb_midi.xc:176:25
	{
		zext r0, 1
		mov r2, r9
	}
.Ltmp81:
	{
		mov r3, r5
		ldc r1, 0
	}
	{
		nop
		stw r1, sp[19]
	}
	{
		nop
		stw r11, sp[15]
	}
.Ltmp82:
	#DEBUG_VALUE: rxI <- [SP+32]
	{
		mov r11, r4
		stw r11, sp[8]
	}
	bf r0, .LBB0_2
.Ltmp83:
# BB#19:                                # %iftrue107
                                        #   in Loop: Header=BB0_2 Depth=2
.Lxtalabel15:
	#DEBUG_VALUE: usb_midi:p_midi_in <- R6
	#DEBUG_VALUE: usb_midi:p_midi_out <- [SP+28]
	#DEBUG_VALUE: usb_midi:c_midi <- [SP+64]
	#DEBUG_VALUE: symbol <- 0
	#DEBUG_VALUE: isTX <- 0
	#DEBUG_VALUE: waiting_for_ack <- 0
	#DEBUG_VALUE: isRX <- 0
	#DEBUG_VALUE: midi_from_host_overflow <- 0
	#DEBUG_VALUE: usb_midi:cable_number <- undef
	#DEBUG_VALUE: mips <- undef
	#DEBUG_VALUE: rxI <- [SP+32]
	#DEBUG_VALUE: valid <- 0
	#DEBUG_VALUE: event <- 0
	.loc	1 180 0                 # /Users/rkn/Documents/xTIMEcomposer/workspace/module_usb_midi/src/usb_midi.xc:180:0
	ldw r0, dp[uin_count]
	.loc	1 180 0                 # /Users/rkn/Documents/xTIMEcomposer/workspace/module_usb_midi/src/usb_midi.xc:180:0
	{
		add r0, r0, 1
		nop
	}
	.loc	1 180 0                 # /Users/rkn/Documents/xTIMEcomposer/workspace/module_usb_midi/src/usb_midi.xc:180:0
	stw r0, dp[uin_count]
	{
		nop
		ldw r2, sp[10]
	}
	.loc	1 181 0                 # /Users/rkn/Documents/xTIMEcomposer/workspace/module_usb_midi/src/usb_midi.xc:181:0
	{
		shr r2, r2, 24
		nop
	}
.Ltmp84:
	#DEBUG_VALUE: rxByte <- R2
	{
		nop
		stw r2, sp[10]
	}
	ldaw r0, sp[1047]
	ldw r1, sp[1063]
.Ltmp85:
	#DEBUG_VALUE: rxByte <- [SP+40]
	.loc	1 190 0                 # /Users/rkn/Documents/xTIMEcomposer/workspace/module_usb_midi/src/usb_midi.xc:190:0
.Lxta.call_labels3:
	bl midi_in_parse
	{
		mov r2, r9
		mov r3, r5
	}
	{
		ldc r11, 0
		nop
	}
	{
		nop
		stw r11, sp[19]
	}
	{
		nop
		ldw r11, sp[8]
	}
	{
		mov r11, r4
		stw r11, sp[15]
	}
	bf r0, .LBB0_2
.Ltmp86:
# BB#20:                                # %iftrue107
                                        #   in Loop: Header=BB0_2 Depth=2
.Lxtalabel16:
	#DEBUG_VALUE: usb_midi:p_midi_in <- R6
	#DEBUG_VALUE: usb_midi:p_midi_out <- [SP+28]
	#DEBUG_VALUE: usb_midi:c_midi <- [SP+64]
	#DEBUG_VALUE: usb_midi:cable_number <- undef
	{
		eq r0, r9, r5
		mov r2, r9
	}
	{
		mov r3, r5
		ldc r11, 0
	}
	{
		nop
		stw r11, sp[19]
	}
	{
		nop
		ldw r11, sp[8]
	}
	{
		mov r11, r4
		stw r11, sp[15]
	}
	bf r0, .LBB0_2
.Ltmp87:
# BB#21:                                # %iftrue119
                                        #   in Loop: Header=BB0_2 Depth=2
.Lxtalabel17:
	#DEBUG_VALUE: usb_midi:p_midi_in <- R6
	#DEBUG_VALUE: usb_midi:p_midi_out <- [SP+28]
	#DEBUG_VALUE: usb_midi:c_midi <- [SP+64]
	#DEBUG_VALUE: usb_midi:cable_number <- undef
	#DEBUG_VALUE: queue_push_word:data <- R0
	#DEBUG_VALUE: event <- R0
	{
		byterev r0, r1
		ldw r11, sp[8]
	}
.Ltmp88:
	.loc	1 196 33                # /Users/rkn/Documents/xTIMEcomposer/workspace/module_usb_midi/src/usb_midi.xc:196:33
	bf r4, .LBB0_22
.Ltmp89:
# BB#23:                                # %queue_push_word.exit296
                                        #   in Loop: Header=BB0_2 Depth=2
.Lxtalabel18:
	#DEBUG_VALUE: usb_midi:p_midi_in <- R6
	#DEBUG_VALUE: usb_midi:p_midi_out <- [SP+28]
	#DEBUG_VALUE: usb_midi:c_midi <- [SP+64]
	#DEBUG_VALUE: usb_midi:cable_number <- undef
	#DEBUG_VALUE: event <- R0
	#DEBUG_VALUE: queue_push_word:data <- R0
	{
		mkmsk r1, 1
		nop
	}
	.loc	2 37 0                  # /Users/rkn/Documents/xTIMEcomposer/workspace/module_queue/src/queue.h:37:0
.Ltmp90:
	#APP
	ecallf r1
	#NO_APP
.Ltmp91:
	#DEBUG_VALUE: queue_push_word:data <- [SP+24]
	#DEBUG_VALUE: event <- [SP+24]
	.loc	2 38 0                  # /Users/rkn/Documents/xTIMEcomposer/workspace/module_queue/src/queue.h:38:0
	{
		add r2, r9, 1
		stw r0, sp[6]
	}
	{
		mov r3, r9
		ldc r0, 0
	}
	{
		nop
		stw r0, sp[19]
	}
	bu .LBB0_24
.Ltmp92:
.LBB0_26:                               # %iftrue151
                                        #   in Loop: Header=BB0_2 Depth=2
.Lxtalabel19:
	#DEBUG_VALUE: usb_midi:p_midi_in <- R6
	#DEBUG_VALUE: usb_midi:p_midi_out <- [SP+28]
	#DEBUG_VALUE: usb_midi:c_midi <- [SP+64]
	#DEBUG_VALUE: symbol <- 0
	#DEBUG_VALUE: isTX <- 0
	#DEBUG_VALUE: waiting_for_ack <- 0
	#DEBUG_VALUE: isRX <- 0
	#DEBUG_VALUE: midi_from_host_overflow <- 0
	#DEBUG_VALUE: usb_midi:cable_number <- undef
	#DEBUG_VALUE: mips <- undef
	{
		nop
		ldw r2, sp[12]
	}
	.loc	2 42 0                  # /Users/rkn/Documents/xTIMEcomposer/workspace/module_queue/src/queue.h:42:0
.Ltmp93:
	{
		eq r0, r7, r2
		nop
	}
	{
		eq r0, r0, 0
		nop
	}
	.loc	2 42 0                  # /Users/rkn/Documents/xTIMEcomposer/workspace/module_queue/src/queue.h:42:0
	#APP
	ecallf r0
	#NO_APP
	.loc	2 43 5                  # /Users/rkn/Documents/xTIMEcomposer/workspace/module_queue/src/queue.h:43:5
	{
		add r0, r2, 1
		nop
	}
	ldc r1, 1023
	.loc	2 43 5                  # /Users/rkn/Documents/xTIMEcomposer/workspace/module_queue/src/queue.h:43:5
	{
		and r1, r2, r1
		ldaw r2, sp[23]
	}
	{
		nop
		ldw r1, r2[r1]
	}
.Ltmp94:
	#DEBUG_VALUE: makeSymbol:data <- R1
	#DEBUG_VALUE: outputting_symbol <- R1
	ldc r2, 1024
.Ltmp95:
	.loc	2 62 5                  # /Users/rkn/Documents/xTIMEcomposer/workspace/module_queue/src/queue.h:62:5
	{
		sub r2, r2, r7
		nop
	}
	.loc	2 62 5                  # /Users/rkn/Documents/xTIMEcomposer/workspace/module_queue/src/queue.h:62:5
	{
		add r2, r2, r0
		ldc r3, 4
	}
.Ltmp96:
	.loc	1 235 17                # /Users/rkn/Documents/xTIMEcomposer/workspace/module_usb_midi/src/usb_midi.xc:235:17
	{
		lsu r2, r2, r3
		nop
	}
	bt r2, .LBB0_27
.Ltmp97:
# BB#28:                                # %iftrue151
                                        #   in Loop: Header=BB0_2 Depth=2
.Lxtalabel20:
	#DEBUG_VALUE: usb_midi:p_midi_in <- R6
	#DEBUG_VALUE: usb_midi:p_midi_out <- [SP+28]
	#DEBUG_VALUE: usb_midi:c_midi <- [SP+64]
	#DEBUG_VALUE: usb_midi:cable_number <- undef
	{
		nop
		stw r10, sp[8]
	}
	{
		nop
		ldw r2, sp[9]
	}
	bf r2, .LBB0_30
.Ltmp98:
# BB#29:                                # %iftrue157
                                        #   in Loop: Header=BB0_2 Depth=2
.Lxtalabel21:
	#DEBUG_VALUE: usb_midi:p_midi_in <- R6
	#DEBUG_VALUE: usb_midi:p_midi_out <- [SP+28]
	#DEBUG_VALUE: usb_midi:c_midi <- [SP+64]
	#DEBUG_VALUE: midi_from_host_overflow <- 0
	#DEBUG_VALUE: usb_midi:cable_number <- undef
	{
		nop
		ldw r3, sp[16]
	}
.Ltmp99:
	#DEBUG_VALUE: usb_midi:c_midi <- R3
.Ltrap_info4:
	{
		ecallf r3
		nop
	}
	#DEBUG_VALUE: usb_midi:p_midi_in <- R6
	#DEBUG_VALUE: usb_midi:p_midi_out <- [SP+28]
	#DEBUG_VALUE: usb_midi:c_midi <- R3
	#DEBUG_VALUE: midi_from_host_overflow <- 0
	#DEBUG_VALUE: usb_midi:cable_number <- undef
.Ltmp100:
	#DEBUG_VALUE: midi_send_ack:c <- R3
	{
		ldc r2, 20
		nop
	}
	.loc	3 65 0                  # /Users/rkn/Documents/xTIMEcomposer/workspace/module_usb_midi/src/usb_midi.h:65:0
.Ltmp101:
.Lxta.endpoint_labels10:
	{
		outct res[r3], r2
		ldc r2, 0
	}
	.loc	3 66 0                  # /Users/rkn/Documents/xTIMEcomposer/workspace/module_usb_midi/src/usb_midi.h:66:0
.Lxta.endpoint_labels11:
	{
		outt res[r3], r2
		nop
	}
	.loc	3 67 0                  # /Users/rkn/Documents/xTIMEcomposer/workspace/module_usb_midi/src/usb_midi.h:67:0
.Lxta.endpoint_labels12:
	{
		outt res[r3], r2
		nop
	}
.Ltmp102:
	#DEBUG_VALUE: midi_send_ack:c <- [SP+64]
	#DEBUG_VALUE: usb_midi:c_midi <- [SP+64]
	.loc	3 68 0                  # /Users/rkn/Documents/xTIMEcomposer/workspace/module_usb_midi/src/usb_midi.h:68:0
.Lxta.endpoint_labels13:
	{
		outt res[r3], r2
		stw r2, sp[9]
	}
	bu .LBB0_30
.Ltmp103:
.LBB0_38:                               # %iffalse213
                                        #   in Loop: Header=BB0_2 Depth=2
.Lxtalabel22:
	#DEBUG_VALUE: usb_midi:p_midi_in <- R6
	#DEBUG_VALUE: usb_midi:p_midi_out <- [SP+28]
	#DEBUG_VALUE: usb_midi:c_midi <- R1
	#DEBUG_VALUE: symbol <- 0
	#DEBUG_VALUE: isTX <- 0
	#DEBUG_VALUE: waiting_for_ack <- 0
	#DEBUG_VALUE: isRX <- 0
	#DEBUG_VALUE: midi_from_host_overflow <- 0
	#DEBUG_VALUE: usb_midi:cable_number <- undef
	#DEBUG_VALUE: mips <- undef
	#DEBUG_VALUE: midi_get_ack_or_data:c <- R1
	#DEBUG_VALUE: midi_get_ack_or_data:is_ack <- 0
	#DEBUG_VALUE: is_ack <- 0
	.loc	3 59 0                  # /Users/rkn/Documents/xTIMEcomposer/workspace/module_usb_midi/src/usb_midi.h:59:0
.Lxta.endpoint_labels14:
	{
		in r0, res[r1]
		nop
	}
.Ltmp104:
	#DEBUG_VALUE: datum <- R0
	#DEBUG_VALUE: midi_get_ack_or_data:datum <- R0
	#DEBUG_VALUE: midi_get_ack_or_data:c <- [SP+64]
	#DEBUG_VALUE: usb_midi:c_midi <- [SP+64]
	.loc	1 292 0                 # /Users/rkn/Documents/xTIMEcomposer/workspace/module_usb_midi/src/usb_midi.xc:292:0
	{
		byterev r0, r0
		nop
	}
.Ltmp105:
	#DEBUG_VALUE: event <- R0
	.loc	1 293 0                 # /Users/rkn/Documents/xTIMEcomposer/workspace/module_usb_midi/src/usb_midi.xc:293:0
	ldw r1, dp[mr_count]
	.loc	1 293 0                 # /Users/rkn/Documents/xTIMEcomposer/workspace/module_usb_midi/src/usb_midi.xc:293:0
	{
		add r1, r1, 1
		nop
	}
	.loc	1 293 0                 # /Users/rkn/Documents/xTIMEcomposer/workspace/module_usb_midi/src/usb_midi.xc:293:0
	stw r1, dp[mr_count]
	.loc	1 318 0                 # /Users/rkn/Documents/xTIMEcomposer/workspace/module_usb_midi/src/usb_midi.xc:318:0
.Lxta.call_labels4:
	bl midi_out_parse
.Ltmp106:
	{
		nop
		stw r0, sp[20]
	}
	{
		nop
		stw r1, sp[21]
	}
.Ltmp107:
	#DEBUG_VALUE: i <- 0
	{
		nop
		stw r2, sp[22]
	}
	bf r3, .LBB0_42
.Ltmp108:
# BB#39:                                # %LoopBody236.preheader
                                        #   in Loop: Header=BB0_2 Depth=2
	#DEBUG_VALUE: usb_midi:p_midi_in <- R6
	#DEBUG_VALUE: usb_midi:c_midi <- [SP+64]
	#DEBUG_VALUE: symbol <- 0
	#DEBUG_VALUE: isTX <- 0
	#DEBUG_VALUE: waiting_for_ack <- 0
	#DEBUG_VALUE: isRX <- 0
	#DEBUG_VALUE: midi_from_host_overflow <- 0
	#DEBUG_VALUE: usb_midi:cable_number <- undef
	#DEBUG_VALUE: mips <- undef
	#DEBUG_VALUE: is_ack <- 0
	#DEBUG_VALUE: i <- 0
	{
		nop
		stw r10, sp[8]
	}
	ldw r0, cp[.LCPI0_1]
	{
		nop
		ldw r1, sp[12]
	}
.Ltmp109:
	#DEBUG_VALUE: usb_midi:p_midi_out <- [SP+28]
	.loc	1 322 0                 # /Users/rkn/Documents/xTIMEcomposer/workspace/module_usb_midi/src/usb_midi.xc:322:0
	{
		sub r0, r0, r1
		nop
	}
	.loc	2 37 0                  # /Users/rkn/Documents/xTIMEcomposer/workspace/module_queue/src/queue.h:37:0
.Ltmp110:
	{
		add r1, r7, r0
		ldc r0, 0
	}
.Ltmp111:
.LBB0_40:                               # %LoopBody236
                                        #   Parent Loop BB0_1 Depth=1
                                        #     Parent Loop BB0_2 Depth=2
                                        # =>    This Inner Loop Header: Depth=3
.Lxtalabel23:
	#DEBUG_VALUE: usb_midi:p_midi_in <- R6
	#DEBUG_VALUE: usb_midi:p_midi_out <- [SP+28]
	#DEBUG_VALUE: usb_midi:c_midi <- [SP+64]
	#DEBUG_VALUE: symbol <- 0
	#DEBUG_VALUE: isTX <- 0
	#DEBUG_VALUE: waiting_for_ack <- 0
	#DEBUG_VALUE: isRX <- 0
	#DEBUG_VALUE: midi_from_host_overflow <- 0
	#DEBUG_VALUE: usb_midi:cable_number <- undef
	#DEBUG_VALUE: mips <- undef
	#DEBUG_VALUE: is_ack <- 0
	#DEBUG_VALUE: i <- 0
	{
		ldc r2, 2
		nop
	}
	.loc	1 322 0                 # /Users/rkn/Documents/xTIMEcomposer/workspace/module_usb_midi/src/usb_midi.xc:322:0
	{
		lsu r2, r2, r0
		nop
	}
.Ltrap_info5:
	{
		ecallt r2
		nop
	}
	#DEBUG_VALUE: usb_midi:p_midi_in <- R6
	#DEBUG_VALUE: usb_midi:p_midi_out <- [SP+28]
	#DEBUG_VALUE: usb_midi:c_midi <- [SP+64]
	#DEBUG_VALUE: symbol <- 0
	#DEBUG_VALUE: isTX <- 0
	#DEBUG_VALUE: waiting_for_ack <- 0
	#DEBUG_VALUE: isRX <- 0
	#DEBUG_VALUE: midi_from_host_overflow <- 0
	#DEBUG_VALUE: usb_midi:cable_number <- undef
	#DEBUG_VALUE: mips <- undef
	#DEBUG_VALUE: is_ack <- 0
	#DEBUG_VALUE: i <- 0
.Ltmp112:
	#DEBUG_VALUE: queue_push_word:data <- R11
	.loc	1 322 0                 # /Users/rkn/Documents/xTIMEcomposer/workspace/module_usb_midi/src/usb_midi.xc:322:0
	{
		add r2, r7, r0
		ldaw r11, sp[20]
	}
.Ltmp113:
	.loc	1 322 0                 # /Users/rkn/Documents/xTIMEcomposer/workspace/module_usb_midi/src/usb_midi.xc:322:0
	{
		add r10, r1, r0
		ldw r11, r11[r0]
	}
	.loc	2 37 0                  # /Users/rkn/Documents/xTIMEcomposer/workspace/module_queue/src/queue.h:37:0
.Ltmp114:
	{
		eq r10, r10, 0
		nop
	}
	{
		eq r10, r10, 0
		nop
	}
	.loc	2 37 0                  # /Users/rkn/Documents/xTIMEcomposer/workspace/module_queue/src/queue.h:37:0
	#APP
	ecallf r10
	#NO_APP
	ldc r10, 1023
	.loc	2 38 0                  # /Users/rkn/Documents/xTIMEcomposer/workspace/module_queue/src/queue.h:38:0
	{
		and r2, r2, r10
		ldaw r10, sp[23]
	}
	.loc	2 38 0                  # /Users/rkn/Documents/xTIMEcomposer/workspace/module_queue/src/queue.h:38:0
	stw r11, r10[r2]
.Ltmp115:
	.loc	1 319 0                 # /Users/rkn/Documents/xTIMEcomposer/workspace/module_usb_midi/src/usb_midi.xc:319:0
	{
		add r0, r0, 1
		nop
	}
	.loc	1 319 0                 # /Users/rkn/Documents/xTIMEcomposer/workspace/module_usb_midi/src/usb_midi.xc:319:0
	{
		eq r2, r3, r0
		nop
	}
.Lxta.loop_labels0:
	# LOOPMARKER 0
	bf r2, .LBB0_40
.Ltmp116:
# BB#41:                                #   in Loop: Header=BB0_2 Depth=2
	#DEBUG_VALUE: usb_midi:p_midi_in <- R6
	#DEBUG_VALUE: usb_midi:p_midi_out <- [SP+28]
	#DEBUG_VALUE: usb_midi:c_midi <- [SP+64]
	#DEBUG_VALUE: symbol <- 0
	#DEBUG_VALUE: isTX <- 0
	#DEBUG_VALUE: waiting_for_ack <- 0
	#DEBUG_VALUE: isRX <- 0
	#DEBUG_VALUE: midi_from_host_overflow <- 0
	#DEBUG_VALUE: usb_midi:cable_number <- undef
	#DEBUG_VALUE: mips <- undef
	#DEBUG_VALUE: is_ack <- 0
	#DEBUG_VALUE: i <- 0
	.loc	1 319 0                 # /Users/rkn/Documents/xTIMEcomposer/workspace/module_usb_midi/src/usb_midi.xc:319:0
	{
		add r7, r7, r0
		ldw r10, sp[8]
	}
.Ltmp117:
.LBB0_42:                               # %ifdone231
                                        #   in Loop: Header=BB0_2 Depth=2
.Lxtalabel24:
	#DEBUG_VALUE: usb_midi:p_midi_in <- R6
	#DEBUG_VALUE: usb_midi:p_midi_out <- [SP+28]
	#DEBUG_VALUE: usb_midi:c_midi <- [SP+64]
	#DEBUG_VALUE: symbol <- 0
	#DEBUG_VALUE: isTX <- 0
	#DEBUG_VALUE: waiting_for_ack <- 0
	#DEBUG_VALUE: isRX <- 0
	#DEBUG_VALUE: midi_from_host_overflow <- 0
	#DEBUG_VALUE: usb_midi:cable_number <- undef
	#DEBUG_VALUE: mips <- undef
	#DEBUG_VALUE: is_ack <- 0
	ldc r0, 1024
	{
		nop
		ldw r1, sp[12]
	}
	.loc	2 62 5                  # /Users/rkn/Documents/xTIMEcomposer/workspace/module_queue/src/queue.h:62:5
.Ltmp118:
	{
		add r0, r1, r0
		nop
	}
	.loc	2 62 5                  # /Users/rkn/Documents/xTIMEcomposer/workspace/module_queue/src/queue.h:62:5
	{
		sub r0, r0, r7
		mkmsk r1, 2
	}
.Ltmp119:
	.loc	1 325 17                # /Users/rkn/Documents/xTIMEcomposer/workspace/module_usb_midi/src/usb_midi.xc:325:17
	{
		lsu r1, r1, r0
		mkmsk r0, 1
	}
	bf r1, .LBB0_43
.Ltmp120:
# BB#46:                                # %afternullcheck256
                                        #   in Loop: Header=BB0_2 Depth=2
.Lxtalabel25:
	#DEBUG_VALUE: usb_midi:p_midi_in <- R6
	#DEBUG_VALUE: usb_midi:p_midi_out <- [SP+28]
	#DEBUG_VALUE: usb_midi:c_midi <- [SP+64]
	#DEBUG_VALUE: symbol <- 0
	#DEBUG_VALUE: isTX <- 0
	#DEBUG_VALUE: waiting_for_ack <- 0
	#DEBUG_VALUE: isRX <- 0
	#DEBUG_VALUE: midi_from_host_overflow <- 0
	#DEBUG_VALUE: usb_midi:cable_number <- undef
	#DEBUG_VALUE: mips <- undef
	#DEBUG_VALUE: is_ack <- 0
	#DEBUG_VALUE: midi_send_ack:c <- [SP+64]
	#DEBUG_VALUE: midi_send_ack:c <- R1
	#DEBUG_VALUE: usb_midi:c_midi <- R1
	{
		ldc r0, 20
		ldw r1, sp[16]
	}
.Ltmp121:
	.loc	3 65 0                  # /Users/rkn/Documents/xTIMEcomposer/workspace/module_usb_midi/src/usb_midi.h:65:0
.Lxta.endpoint_labels15:
	{
		outct res[r1], r0
		ldc r0, 0
	}
	.loc	3 66 0                  # /Users/rkn/Documents/xTIMEcomposer/workspace/module_usb_midi/src/usb_midi.h:66:0
.Lxta.endpoint_labels16:
	{
		outt res[r1], r0
		nop
	}
	.loc	3 67 0                  # /Users/rkn/Documents/xTIMEcomposer/workspace/module_usb_midi/src/usb_midi.h:67:0
.Lxta.endpoint_labels17:
	{
		outt res[r1], r0
		nop
	}
.Ltmp122:
	#DEBUG_VALUE: midi_send_ack:c <- [SP+64]
	#DEBUG_VALUE: usb_midi:c_midi <- [SP+64]
	.loc	3 68 0                  # /Users/rkn/Documents/xTIMEcomposer/workspace/module_usb_midi/src/usb_midi.h:68:0
.Lxta.endpoint_labels18:
	{
		outt res[r1], r0
		ldw r0, sp[9]
	}
.Ltmp123:
.LBB0_43:                               # %ifdone249
                                        #   in Loop: Header=BB0_2 Depth=2
.Lxtalabel26:
	#DEBUG_VALUE: usb_midi:p_midi_in <- R6
	#DEBUG_VALUE: usb_midi:p_midi_out <- [SP+28]
	#DEBUG_VALUE: usb_midi:c_midi <- [SP+64]
	#DEBUG_VALUE: symbol <- 0
	#DEBUG_VALUE: isTX <- 0
	#DEBUG_VALUE: waiting_for_ack <- 0
	#DEBUG_VALUE: isRX <- 0
	#DEBUG_VALUE: midi_from_host_overflow <- 0
	#DEBUG_VALUE: usb_midi:cable_number <- undef
	#DEBUG_VALUE: mips <- undef
	#DEBUG_VALUE: is_ack <- 0
	{
		mov r2, r9
		mov r3, r5
	}
	{
		mov r11, r4
		stw r0, sp[9]
	}
	{
		nop
		ldw r1, sp[18]
	}
	bt r1, .LBB0_2
.Ltmp124:
# BB#44:                                # %iftrue258
                                        #   in Loop: Header=BB0_2 Depth=2
.Lxtalabel27:
	#DEBUG_VALUE: usb_midi:p_midi_in <- R6
	#DEBUG_VALUE: usb_midi:p_midi_out <- [SP+28]
	#DEBUG_VALUE: usb_midi:c_midi <- [SP+64]
	#DEBUG_VALUE: symbol <- 0
	#DEBUG_VALUE: isTX <- 0
	#DEBUG_VALUE: waiting_for_ack <- 0
	#DEBUG_VALUE: isRX <- 0
	#DEBUG_VALUE: midi_from_host_overflow <- 0
	#DEBUG_VALUE: usb_midi:cable_number <- undef
	#DEBUG_VALUE: mips <- undef
	#DEBUG_VALUE: is_ack <- 0
	.loc	1 336 0                 # /Users/rkn/Documents/xTIMEcomposer/workspace/module_usb_midi/src/usb_midi.xc:336:0
	{
		gettime r1
		nop
	}
.Ltmp125:
	#DEBUG_VALUE: txT <- [SP+68]
	#DEBUG_VALUE: isTX <- 1
	{
		mov r2, r9
		stw r1, sp[17]
	}
	{
		mov r3, r5
		stw r0, sp[9]
	}
	{
		mov r11, r4
		mkmsk r0, 1
	}
	{
		nop
		stw r0, sp[18]
	}
	bu .LBB0_2
.Ltmp126:
.LBB0_27:                               #   in Loop: Header=BB0_2 Depth=2
	#DEBUG_VALUE: usb_midi:p_midi_in <- R6
	#DEBUG_VALUE: usb_midi:p_midi_out <- [SP+28]
	#DEBUG_VALUE: usb_midi:c_midi <- [SP+64]
	#DEBUG_VALUE: usb_midi:cable_number <- undef
	{
		nop
		stw r10, sp[8]
	}
.Ltmp127:
.LBB0_30:                               # %ifdone158
                                        #   in Loop: Header=BB0_2 Depth=2
.Lxtalabel28:
	#DEBUG_VALUE: usb_midi:p_midi_in <- R6
	#DEBUG_VALUE: usb_midi:p_midi_out <- [SP+28]
	#DEBUG_VALUE: usb_midi:c_midi <- [SP+64]
	#DEBUG_VALUE: symbol <- 0
	#DEBUG_VALUE: isTX <- 0
	#DEBUG_VALUE: waiting_for_ack <- 0
	#DEBUG_VALUE: isRX <- 0
	#DEBUG_VALUE: midi_from_host_overflow <- 0
	#DEBUG_VALUE: usb_midi:cable_number <- undef
	#DEBUG_VALUE: mips <- undef
	#DEBUG_VALUE: outputting_symbol <- R1
	#DEBUG_VALUE: makeSymbol:data <- R1
	.loc	1 20 5                  # /Users/rkn/Documents/xTIMEcomposer/workspace/module_usb_midi/src/usb_midi.xc:20:5
	{
		shl r1, r1, 1
		nop
	}
.Ltmp128:
	ldc r2, 512
	.loc	1 20 5                  # /Users/rkn/Documents/xTIMEcomposer/workspace/module_usb_midi/src/usb_midi.xc:20:5
	{
		or r1, r1, r2
		nop
	}
.Ltmp129:
	#DEBUG_VALUE: symbol <- [SP+56]
	{
		mkmsk r1, 1
		stw r1, sp[14]
	}
.Ltmp130:
	#DEBUG_VALUE: usb_midi:p_midi_out <- R1
	{
		mov r10, r1
		ldw r1, sp[7]
	}
.Ltmp131:
	.loc	1 241 56                # /Users/rkn/Documents/xTIMEcomposer/workspace/module_usb_midi/src/usb_midi.xc:241:56
.Lxta.endpoint_labels19:
	{
		out res[r1], r10
		nop
	}
	.loc	1 241 56                # /Users/rkn/Documents/xTIMEcomposer/workspace/module_usb_midi/src/usb_midi.xc:241:56
	{
		syncr res[r1]
		nop
	}
.Ltmp132:
	#DEBUG_VALUE: txPT <- R1
	#DEBUG_VALUE: usb_midi:p_midi_out <- [SP+28]
	#DEBUG_VALUE: txT <- R2
	.loc	1 241 56                # /Users/rkn/Documents/xTIMEcomposer/workspace/module_usb_midi/src/usb_midi.xc:241:56
	{
		getts r1, res[r1]
		gettime r2
	}
.Ltmp133:
	ldc r3, 3200
	.loc	1 244 0                 # /Users/rkn/Documents/xTIMEcomposer/workspace/module_usb_midi/src/usb_midi.xc:244:0
.Ltmp134:
	{
		add r2, r2, r3
		nop
	}
.Ltmp135:
	#DEBUG_VALUE: txT <- [SP+68]
	#DEBUG_VALUE: txPT <- [SP+44]
	#DEBUG_VALUE: isTX <- 1
	.loc	1 245 0                 # /Users/rkn/Documents/xTIMEcomposer/workspace/module_usb_midi/src/usb_midi.xc:245:0
	{
		add r1, r1, r3
		stw r2, sp[17]
	}
	{
		mov r2, r9
		stw r1, sp[11]
	}
	{
		mov r3, r5
		stw r0, sp[12]
	}
	{
		mov r11, r4
		stw r10, sp[18]
	}
	{
		nop
		ldw r10, sp[8]
	}
	bu .LBB0_2
.Ltmp136:
.LBB0_22:                               # %iftrue130
                                        #   in Loop: Header=BB0_2 Depth=2
.Lxtalabel29:
	#DEBUG_VALUE: usb_midi:p_midi_in <- R6
	#DEBUG_VALUE: usb_midi:p_midi_out <- [SP+28]
	#DEBUG_VALUE: usb_midi:c_midi <- [SP+64]
	#DEBUG_VALUE: usb_midi:cable_number <- undef
	#DEBUG_VALUE: event <- R0
	{
		nop
		ldw r1, sp[16]
	}
.Ltmp137:
	#DEBUG_VALUE: usb_midi:c_midi <- R1
.Ltrap_info6:
	{
		ecallf r1
		nop
	}
	#DEBUG_VALUE: usb_midi:p_midi_in <- R6
	#DEBUG_VALUE: usb_midi:p_midi_out <- [SP+28]
	#DEBUG_VALUE: usb_midi:c_midi <- R1
.Ltmp138:
	#DEBUG_VALUE: waiting_for_ack <- 1
	#DEBUG_VALUE: usb_midi:cable_number <- undef
	#DEBUG_VALUE: event <- R0
	.loc	1 200 0                 # /Users/rkn/Documents/xTIMEcomposer/workspace/module_usb_midi/src/usb_midi.xc:200:0
.Lxta.endpoint_labels20:
	{
		out res[r1], r0
		nop
	}
.Ltmp139:
	#DEBUG_VALUE: usb_midi:c_midi <- [SP+64]
	.loc	1 202 0                 # /Users/rkn/Documents/xTIMEcomposer/workspace/module_usb_midi/src/usb_midi.xc:202:0
	ldw r0, dp[th_count]
.Ltmp140:
	.loc	1 202 0                 # /Users/rkn/Documents/xTIMEcomposer/workspace/module_usb_midi/src/usb_midi.xc:202:0
	{
		add r0, r0, 1
		nop
	}
	.loc	1 202 0                 # /Users/rkn/Documents/xTIMEcomposer/workspace/module_usb_midi/src/usb_midi.xc:202:0
	stw r0, dp[th_count]
	{
		mov r2, r9
		mov r3, r9
	}
	{
		ldc r0, 0
		nop
	}
	{
		nop
		stw r0, sp[19]
	}
	{
		mkmsk r11, 1
		stw r11, sp[15]
	}
	bu .LBB0_2
.Ltmp141:
.LBB0_32:                               # %iftrue194
                                        #   in Loop: Header=BB0_1 Depth=1
.Lxtalabel30:
	#DEBUG_VALUE: usb_midi:p_midi_in <- R6
	#DEBUG_VALUE: usb_midi:p_midi_out <- [SP+28]
	#DEBUG_VALUE: usb_midi:c_midi <- [SP+64]
	#DEBUG_VALUE: isTX <- 0
	#DEBUG_VALUE: waiting_for_ack <- 0
	#DEBUG_VALUE: isRX <- 0
	#DEBUG_VALUE: midi_from_host_overflow <- 0
	#DEBUG_VALUE: usb_midi:cable_number <- undef
	#DEBUG_VALUE: mips <- undef
	#DEBUG_VALUE: txT <- [SP+68]
	#DEBUG_VALUE: txPT <- [SP+44]
	{
		mov r11, r4
		nop
	}
	.loc	1 259 0                 # /Users/rkn/Documents/xTIMEcomposer/workspace/module_usb_midi/src/usb_midi.xc:259:0
.Ltmp142:
	ldw r0, dp[uout_count]
	.loc	1 259 0                 # /Users/rkn/Documents/xTIMEcomposer/workspace/module_usb_midi/src/usb_midi.xc:259:0
	{
		add r0, r0, 1
		nop
	}
	.loc	1 259 0                 # /Users/rkn/Documents/xTIMEcomposer/workspace/module_usb_midi/src/usb_midi.xc:259:0
	stw r0, dp[uout_count]
	{
		nop
		ldw r0, sp[12]
	}
	.loc	2 28 5                  # /Users/rkn/Documents/xTIMEcomposer/workspace/module_queue/src/queue.h:28:5
.Ltmp143:
	{
		eq r1, r7, r0
		ldc r0, 0
	}
	bt r1, .LBB0_34
.Ltmp144:
# BB#33:                                # %iftrue194
                                        #   in Loop: Header=BB0_1 Depth=1
.Lxtalabel31:
	#DEBUG_VALUE: usb_midi:p_midi_in <- R6
	#DEBUG_VALUE: usb_midi:p_midi_out <- [SP+28]
	#DEBUG_VALUE: usb_midi:c_midi <- [SP+64]
	#DEBUG_VALUE: isTX <- 0
	#DEBUG_VALUE: waiting_for_ack <- 0
	#DEBUG_VALUE: isRX <- 0
	#DEBUG_VALUE: midi_from_host_overflow <- 0
	#DEBUG_VALUE: usb_midi:cable_number <- undef
	#DEBUG_VALUE: mips <- undef
	#DEBUG_VALUE: txT <- [SP+68]
	#DEBUG_VALUE: txPT <- [SP+44]
	{
		nop
		ldw r0, sp[18]
	}
	bu .LBB0_34
	.cc_bottom usb_midi.function
	.set	usb_midi.nstackwords,((configure_out_port.nstackwords $M configure_in_port.nstackwords $M reset_midi_state.nstackwords $M midi_in_parse.nstackwords $M midi_out_parse.nstackwords) + 1062)
	.globl	usb_midi.nstackwords
	.set	usb_midi.maxcores,configure_in_port.maxcores $M configure_out_port.maxcores $M midi_in_parse.maxcores $M midi_out_parse.maxcores $M reset_midi_state.maxcores $M 1
	.globl	usb_midi.maxcores
	.set	usb_midi.maxtimers,configure_in_port.maxtimers $M configure_out_port.maxtimers $M midi_in_parse.maxtimers $M midi_out_parse.maxtimers $M reset_midi_state.maxtimers $M 0
	.globl	usb_midi.maxtimers
	.set	usb_midi.maxchanends,configure_in_port.maxchanends $M configure_out_port.maxchanends $M midi_in_parse.maxchanends $M midi_out_parse.maxchanends $M reset_midi_state.maxchanends $M 0
	.globl	usb_midi.maxchanends
.Ltmp145:
	.size	usb_midi, .Ltmp145-usb_midi
.Lfunc_end0:
	.cfi_endproc

	.section	.dp.bss.4,"awd",@nobits
	.cc_top icount.data,icount
	.globl	icount
	.align	4
	.type	icount,@object
	.size	icount, 4
icount:
	.long	0                       # 0x0
	.cc_bottom icount.data
	.cc_top mr_count.data,mr_count
	.globl	mr_count
	.align	4
	.type	mr_count,@object
	.size	mr_count, 4
mr_count:
	.long	0                       # 0x0
	.cc_bottom mr_count.data
	.cc_top th_count.data,th_count
	.globl	th_count
	.align	4
	.type	th_count,@object
	.size	th_count, 4
th_count:
	.long	0                       # 0x0
	.cc_bottom th_count.data
	.cc_top uout_count.data,uout_count
	.globl	uout_count
	.align	4
	.type	uout_count,@object
	.size	uout_count, 4
uout_count:
	.long	0                       # 0x0
	.cc_bottom uout_count.data
	.cc_top uin_count.data,uin_count
	.globl	uin_count
	.align	4
	.type	uin_count,@object
	.size	uin_count, 4
uin_count:
	.long	0                       # 0x0
	.cc_bottom uin_count.data
	.cc_top authenticating.data,authenticating
	.globl	authenticating
	.align	4
	.type	authenticating,@object
	.size	authenticating, 4
authenticating:
	.long	0                       # 0x0
	.cc_bottom authenticating.data
.Ldebug_end0:
	.text
.Ldebug_end1:
	.file	4 "/Applications/XMOS_xTIMEcomposer_Community_14.3.2/target/include/timer.h"
	.section	.xtacalltable,"",@progbits
.Lentries_start0:
	.long	.Lentries_end1-.Lentries_start0
	.long	0
	.ascii	"/Users/rkn/Documents/xTIMEcomposer/workspace/app_usb_aud_xk_216_mc/.build_2i32o32xxxxx_tdm8"
	.byte	0
.cc_top cc_0,.Lxta.call_labels0
	.ascii	"/Users/rkn/Documents/xTIMEcomposer/workspace/module_usb_midi/src/usb_midi.xc"
	.byte	0
	.long	103
	.long	.Lxta.call_labels0
.cc_bottom cc_0
.cc_top cc_1,.Lxta.call_labels1
	.ascii	"/Users/rkn/Documents/xTIMEcomposer/workspace/module_usb_midi/src/usb_midi.xc"
	.byte	0
	.long	104
	.long	.Lxta.call_labels1
.cc_bottom cc_1
.cc_top cc_2,.Lxta.call_labels2
	.ascii	"/Users/rkn/Documents/xTIMEcomposer/workspace/module_usb_midi/src/usb_midi.xc"
	.byte	0
	.long	109
	.long	.Lxta.call_labels2
.cc_bottom cc_2
.cc_top cc_3,.Lxta.call_labels3
	.ascii	"/Users/rkn/Documents/xTIMEcomposer/workspace/module_usb_midi/src/usb_midi.xc"
	.byte	0
	.long	190
	.long	.Lxta.call_labels3
.cc_bottom cc_3
.cc_top cc_4,.Lxta.call_labels4
	.ascii	"/Users/rkn/Documents/xTIMEcomposer/workspace/module_usb_midi/src/usb_midi.xc"
	.byte	0
	.long	318
	.long	.Lxta.call_labels4
.cc_bottom cc_4
.Lentries_end1:
	.section	.xtaendpointtable,"",@progbits
.Lentries_start2:
	.long	.Lentries_end3-.Lentries_start2
	.long	0
	.ascii	"/Users/rkn/Documents/xTIMEcomposer/workspace/app_usb_aud_xk_216_mc/.build_2i32o32xxxxx_tdm8"
	.byte	0
.cc_top cc_5,.Lxta.endpoint_labels5
	.ascii	"/Users/rkn/Documents/xTIMEcomposer/workspace/module_usb_midi/src/usb_midi.h"
	.byte	0
	.long	52
	.long	.Lxta.endpoint_labels5
.cc_bottom cc_5
.cc_top cc_6,.Lxta.endpoint_labels6
	.ascii	"/Users/rkn/Documents/xTIMEcomposer/workspace/module_usb_midi/src/usb_midi.h"
	.byte	0
	.long	53
	.long	.Lxta.endpoint_labels6
.cc_bottom cc_6
.cc_top cc_7,.Lxta.endpoint_labels7
	.ascii	"/Users/rkn/Documents/xTIMEcomposer/workspace/module_usb_midi/src/usb_midi.h"
	.byte	0
	.long	54
	.long	.Lxta.endpoint_labels7
.cc_bottom cc_7
.cc_top cc_8,.Lxta.endpoint_labels8
	.ascii	"/Users/rkn/Documents/xTIMEcomposer/workspace/module_usb_midi/src/usb_midi.h"
	.byte	0
	.long	55
	.long	.Lxta.endpoint_labels8
.cc_bottom cc_8
.cc_top cc_9,.Lxta.endpoint_labels14
	.ascii	"/Users/rkn/Documents/xTIMEcomposer/workspace/module_usb_midi/src/usb_midi.h"
	.byte	0
	.long	59
	.long	.Lxta.endpoint_labels14
.cc_bottom cc_9
.cc_top cc_10,.Lxta.endpoint_labels15
	.ascii	"/Users/rkn/Documents/xTIMEcomposer/workspace/module_usb_midi/src/usb_midi.h"
	.byte	0
	.long	65
	.long	.Lxta.endpoint_labels15
.cc_bottom cc_10
.cc_top cc_11,.Lxta.endpoint_labels10
	.ascii	"/Users/rkn/Documents/xTIMEcomposer/workspace/module_usb_midi/src/usb_midi.h"
	.byte	0
	.long	65
	.long	.Lxta.endpoint_labels10
.cc_bottom cc_11
.cc_top cc_12,.Lxta.endpoint_labels16
	.ascii	"/Users/rkn/Documents/xTIMEcomposer/workspace/module_usb_midi/src/usb_midi.h"
	.byte	0
	.long	66
	.long	.Lxta.endpoint_labels16
.cc_bottom cc_12
.cc_top cc_13,.Lxta.endpoint_labels11
	.ascii	"/Users/rkn/Documents/xTIMEcomposer/workspace/module_usb_midi/src/usb_midi.h"
	.byte	0
	.long	66
	.long	.Lxta.endpoint_labels11
.cc_bottom cc_13
.cc_top cc_14,.Lxta.endpoint_labels12
	.ascii	"/Users/rkn/Documents/xTIMEcomposer/workspace/module_usb_midi/src/usb_midi.h"
	.byte	0
	.long	67
	.long	.Lxta.endpoint_labels12
.cc_bottom cc_14
.cc_top cc_15,.Lxta.endpoint_labels17
	.ascii	"/Users/rkn/Documents/xTIMEcomposer/workspace/module_usb_midi/src/usb_midi.h"
	.byte	0
	.long	67
	.long	.Lxta.endpoint_labels17
.cc_bottom cc_15
.cc_top cc_16,.Lxta.endpoint_labels13
	.ascii	"/Users/rkn/Documents/xTIMEcomposer/workspace/module_usb_midi/src/usb_midi.h"
	.byte	0
	.long	68
	.long	.Lxta.endpoint_labels13
.cc_bottom cc_16
.cc_top cc_17,.Lxta.endpoint_labels18
	.ascii	"/Users/rkn/Documents/xTIMEcomposer/workspace/module_usb_midi/src/usb_midi.h"
	.byte	0
	.long	68
	.long	.Lxta.endpoint_labels18
.cc_bottom cc_17
.cc_top cc_18,.Lxta.endpoint_labels0
	.ascii	"/Users/rkn/Documents/xTIMEcomposer/workspace/module_usb_midi/src/usb_midi.xc"
	.byte	0
	.long	146
	.long	.Lxta.endpoint_labels0
.cc_bottom cc_18
.cc_top cc_19,.Lxta.endpoint_labels1
	.ascii	"/Users/rkn/Documents/xTIMEcomposer/workspace/module_usb_midi/src/usb_midi.xc"
	.byte	0
	.long	146
	.long	.Lxta.endpoint_labels1
.cc_bottom cc_19
.cc_top cc_20,.Lxta.endpoint_labels3
	.ascii	"/Users/rkn/Documents/xTIMEcomposer/workspace/module_usb_midi/src/usb_midi.xc"
	.byte	0
	.long	146
	.long	.Lxta.endpoint_labels3
.cc_bottom cc_20
.cc_top cc_21,.Lxta.endpoint_labels2
	.ascii	"/Users/rkn/Documents/xTIMEcomposer/workspace/module_usb_midi/src/usb_midi.xc"
	.byte	0
	.long	164
	.long	.Lxta.endpoint_labels2
.cc_bottom cc_21
.cc_top cc_22,.Lxta.endpoint_labels20
	.ascii	"/Users/rkn/Documents/xTIMEcomposer/workspace/module_usb_midi/src/usb_midi.xc"
	.byte	0
	.long	200
	.long	.Lxta.endpoint_labels20
.cc_bottom cc_22
.cc_top cc_23,.Lxta.endpoint_labels19
	.ascii	"/Users/rkn/Documents/xTIMEcomposer/workspace/module_usb_midi/src/usb_midi.xc"
	.byte	0
	.long	241
	.long	.Lxta.endpoint_labels19
.cc_bottom cc_23
.cc_top cc_24,.Lxta.endpoint_labels4
	.ascii	"/Users/rkn/Documents/xTIMEcomposer/workspace/module_usb_midi/src/usb_midi.xc"
	.byte	0
	.long	253
	.long	.Lxta.endpoint_labels4
.cc_bottom cc_24
.cc_top cc_25,.Lxta.endpoint_labels9
	.ascii	"/Users/rkn/Documents/xTIMEcomposer/workspace/module_usb_midi/src/usb_midi.xc"
	.byte	0
	.long	279
	.long	.Lxta.endpoint_labels9
.cc_bottom cc_25
.Lentries_end3:
	.section	.xtalabeltable,"",@progbits
.Lentries_start4:
	.long	.Lentries_end5-.Lentries_start4
	.long	0
	.ascii	"/Users/rkn/Documents/xTIMEcomposer/workspace/app_usb_aud_xk_216_mc/.build_2i32o32xxxxx_tdm8"
	.byte	0
.cc_top cc_26,.Lxtalabel0
	.ascii	"/Users/rkn/Documents/xTIMEcomposer/workspace/module_queue/src/queue.h"
	.byte	0
	.long	16
	.long	17
	.long	.Lxtalabel0
.cc_bottom cc_26
.cc_top cc_27,.Lxtalabel0
	.ascii	"/Users/rkn/Documents/xTIMEcomposer/workspace/module_queue/src/queue.h"
	.byte	0
	.long	16
	.long	17
	.long	.Lxtalabel0
.cc_bottom cc_27
.cc_top cc_28,.Lxtalabel0
	.ascii	"/Users/rkn/Documents/xTIMEcomposer/workspace/module_queue/src/queue.h"
	.byte	0
	.long	20
	.long	20
	.long	.Lxtalabel0
.cc_bottom cc_28
.cc_top cc_29,.Lxtalabel0
	.ascii	"/Users/rkn/Documents/xTIMEcomposer/workspace/module_queue/src/queue.h"
	.byte	0
	.long	20
	.long	20
	.long	.Lxtalabel0
.cc_bottom cc_29
.cc_top cc_30,.Lxtalabel0
	.ascii	"/Users/rkn/Documents/xTIMEcomposer/workspace/module_queue/src/queue.h"
	.byte	0
	.long	21
	.long	25
	.long	.Lxtalabel0
.cc_bottom cc_30
.cc_top cc_31,.Lxtalabel0
	.ascii	"/Users/rkn/Documents/xTIMEcomposer/workspace/module_queue/src/queue.h"
	.byte	0
	.long	21
	.long	25
	.long	.Lxtalabel0
.cc_bottom cc_31
.cc_top cc_32,.Lxtalabel31
	.ascii	"/Users/rkn/Documents/xTIMEcomposer/workspace/module_queue/src/queue.h"
	.byte	0
	.long	28
	.long	29
	.long	.Lxtalabel31
.cc_bottom cc_32
.cc_top cc_33,.Lxtalabel13
	.ascii	"/Users/rkn/Documents/xTIMEcomposer/workspace/module_queue/src/queue.h"
	.byte	0
	.long	28
	.long	29
	.long	.Lxtalabel13
.cc_bottom cc_33
.cc_top cc_34,.Lxtalabel19
	.ascii	"/Users/rkn/Documents/xTIMEcomposer/workspace/module_queue/src/queue.h"
	.byte	0
	.long	28
	.long	29
	.long	.Lxtalabel19
.cc_bottom cc_34
.cc_top cc_35,.Lxtalabel20
	.ascii	"/Users/rkn/Documents/xTIMEcomposer/workspace/module_queue/src/queue.h"
	.byte	0
	.long	28
	.long	29
	.long	.Lxtalabel20
.cc_bottom cc_35
.cc_top cc_36,.Lxtalabel12
	.ascii	"/Users/rkn/Documents/xTIMEcomposer/workspace/module_queue/src/queue.h"
	.byte	0
	.long	28
	.long	29
	.long	.Lxtalabel12
.cc_bottom cc_36
.cc_top cc_37,.Lxtalabel1
	.ascii	"/Users/rkn/Documents/xTIMEcomposer/workspace/module_queue/src/queue.h"
	.byte	0
	.long	28
	.long	29
	.long	.Lxtalabel1
.cc_bottom cc_37
.cc_top cc_38,.Lxtalabel30
	.ascii	"/Users/rkn/Documents/xTIMEcomposer/workspace/module_queue/src/queue.h"
	.byte	0
	.long	28
	.long	29
	.long	.Lxtalabel30
.cc_bottom cc_38
.cc_top cc_39,.Lxtalabel18
	.ascii	"/Users/rkn/Documents/xTIMEcomposer/workspace/module_queue/src/queue.h"
	.byte	0
	.long	32
	.long	33
	.long	.Lxtalabel18
.cc_bottom cc_39
.cc_top cc_40,.Lxtalabel18
	.ascii	"/Users/rkn/Documents/xTIMEcomposer/workspace/module_queue/src/queue.h"
	.byte	0
	.long	36
	.long	36
	.long	.Lxtalabel18
.cc_bottom cc_40
.cc_top cc_41,.Lxtalabel18
	.ascii	"/Users/rkn/Documents/xTIMEcomposer/workspace/module_queue/src/queue.h"
	.byte	0
	.long	37
	.long	37
	.long	.Lxtalabel18
.cc_bottom cc_41
.cc_top cc_42,.Lxtalabel18
	.ascii	"/Users/rkn/Documents/xTIMEcomposer/workspace/module_queue/src/queue.h"
	.byte	0
	.long	38
	.long	39
	.long	.Lxtalabel18
.cc_bottom cc_42
.cc_top cc_43,.Lxtalabel20
	.ascii	"/Users/rkn/Documents/xTIMEcomposer/workspace/module_queue/src/queue.h"
	.byte	0
	.long	42
	.long	42
	.long	.Lxtalabel20
.cc_bottom cc_43
.cc_top cc_44,.Lxtalabel13
	.ascii	"/Users/rkn/Documents/xTIMEcomposer/workspace/module_queue/src/queue.h"
	.byte	0
	.long	42
	.long	42
	.long	.Lxtalabel13
.cc_bottom cc_44
.cc_top cc_45,.Lxtalabel19
	.ascii	"/Users/rkn/Documents/xTIMEcomposer/workspace/module_queue/src/queue.h"
	.byte	0
	.long	42
	.long	42
	.long	.Lxtalabel19
.cc_bottom cc_45
.cc_top cc_46,.Lxtalabel13
	.ascii	"/Users/rkn/Documents/xTIMEcomposer/workspace/module_queue/src/queue.h"
	.byte	0
	.long	43
	.long	44
	.long	.Lxtalabel13
.cc_bottom cc_46
.cc_top cc_47,.Lxtalabel20
	.ascii	"/Users/rkn/Documents/xTIMEcomposer/workspace/module_queue/src/queue.h"
	.byte	0
	.long	43
	.long	44
	.long	.Lxtalabel20
.cc_bottom cc_47
.cc_top cc_48,.Lxtalabel19
	.ascii	"/Users/rkn/Documents/xTIMEcomposer/workspace/module_queue/src/queue.h"
	.byte	0
	.long	43
	.long	44
	.long	.Lxtalabel19
.cc_bottom cc_48
.cc_top cc_49,.Lxtalabel19
	.ascii	"/Users/rkn/Documents/xTIMEcomposer/workspace/module_queue/src/queue.h"
	.byte	0
	.long	58
	.long	59
	.long	.Lxtalabel19
.cc_bottom cc_49
.cc_top cc_50,.Lxtalabel24
	.ascii	"/Users/rkn/Documents/xTIMEcomposer/workspace/module_queue/src/queue.h"
	.byte	0
	.long	58
	.long	59
	.long	.Lxtalabel24
.cc_bottom cc_50
.cc_top cc_51,.Lxtalabel20
	.ascii	"/Users/rkn/Documents/xTIMEcomposer/workspace/module_queue/src/queue.h"
	.byte	0
	.long	58
	.long	59
	.long	.Lxtalabel20
.cc_bottom cc_51
.cc_top cc_52,.Lxtalabel19
	.ascii	"/Users/rkn/Documents/xTIMEcomposer/workspace/module_queue/src/queue.h"
	.byte	0
	.long	62
	.long	63
	.long	.Lxtalabel19
.cc_bottom cc_52
.cc_top cc_53,.Lxtalabel20
	.ascii	"/Users/rkn/Documents/xTIMEcomposer/workspace/module_queue/src/queue.h"
	.byte	0
	.long	62
	.long	63
	.long	.Lxtalabel20
.cc_bottom cc_53
.cc_top cc_54,.Lxtalabel24
	.ascii	"/Users/rkn/Documents/xTIMEcomposer/workspace/module_queue/src/queue.h"
	.byte	0
	.long	62
	.long	63
	.long	.Lxtalabel24
.cc_bottom cc_54
.cc_top cc_55,.Lxtalabel12
	.ascii	"/Users/rkn/Documents/xTIMEcomposer/workspace/module_usb_midi/src/usb_midi.h"
	.byte	0
	.long	51
	.long	56
	.long	.Lxtalabel12
.cc_bottom cc_55
.cc_top cc_56,.Lxtalabel22
	.ascii	"/Users/rkn/Documents/xTIMEcomposer/workspace/module_usb_midi/src/usb_midi.h"
	.byte	0
	.long	57
	.long	60
	.long	.Lxtalabel22
.cc_bottom cc_56
.cc_top cc_57,.Lxtalabel12
	.ascii	"/Users/rkn/Documents/xTIMEcomposer/workspace/module_usb_midi/src/usb_midi.h"
	.byte	0
	.long	61
	.long	61
	.long	.Lxtalabel12
.cc_bottom cc_57
.cc_top cc_58,.Lxtalabel22
	.ascii	"/Users/rkn/Documents/xTIMEcomposer/workspace/module_usb_midi/src/usb_midi.h"
	.byte	0
	.long	61
	.long	61
	.long	.Lxtalabel22
.cc_bottom cc_58
.cc_top cc_59,.Lxtalabel25
	.ascii	"/Users/rkn/Documents/xTIMEcomposer/workspace/module_usb_midi/src/usb_midi.h"
	.byte	0
	.long	65
	.long	65
	.long	.Lxtalabel25
.cc_bottom cc_59
.cc_top cc_60,.Lxtalabel25
	.ascii	"/Users/rkn/Documents/xTIMEcomposer/workspace/module_usb_midi/src/usb_midi.h"
	.byte	0
	.long	66
	.long	66
	.long	.Lxtalabel25
.cc_bottom cc_60
.cc_top cc_61,.Lxtalabel25
	.ascii	"/Users/rkn/Documents/xTIMEcomposer/workspace/module_usb_midi/src/usb_midi.h"
	.byte	0
	.long	67
	.long	67
	.long	.Lxtalabel25
.cc_bottom cc_61
.cc_top cc_62,.Lxtalabel25
	.ascii	"/Users/rkn/Documents/xTIMEcomposer/workspace/module_usb_midi/src/usb_midi.h"
	.byte	0
	.long	68
	.long	68
	.long	.Lxtalabel25
.cc_bottom cc_62
.cc_top cc_63,.Lxtalabel25
	.ascii	"/Users/rkn/Documents/xTIMEcomposer/workspace/module_usb_midi/src/usb_midi.h"
	.byte	0
	.long	69
	.long	69
	.long	.Lxtalabel25
.cc_bottom cc_63
.cc_top cc_64,.Lxtalabel20
	.ascii	"/Users/rkn/Documents/xTIMEcomposer/workspace/module_usb_midi/src/usb_midi.xc"
	.byte	0
	.long	17
	.long	17
	.long	.Lxtalabel20
.cc_bottom cc_64
.cc_top cc_65,.Lxtalabel19
	.ascii	"/Users/rkn/Documents/xTIMEcomposer/workspace/module_usb_midi/src/usb_midi.xc"
	.byte	0
	.long	17
	.long	17
	.long	.Lxtalabel19
.cc_bottom cc_65
.cc_top cc_66,.Lxtalabel20
	.ascii	"/Users/rkn/Documents/xTIMEcomposer/workspace/module_usb_midi/src/usb_midi.xc"
	.byte	0
	.long	20
	.long	21
	.long	.Lxtalabel20
.cc_bottom cc_66
.cc_top cc_67,.Lxtalabel19
	.ascii	"/Users/rkn/Documents/xTIMEcomposer/workspace/module_usb_midi/src/usb_midi.xc"
	.byte	0
	.long	20
	.long	21
	.long	.Lxtalabel19
.cc_bottom cc_67
.cc_top cc_68,.Lxtalabel0
	.ascii	"/Users/rkn/Documents/xTIMEcomposer/workspace/module_usb_midi/src/usb_midi.xc"
	.byte	0
	.long	70
	.long	73
	.long	.Lxtalabel0
.cc_bottom cc_68
.cc_top cc_69,.Lxtalabel0
	.ascii	"/Users/rkn/Documents/xTIMEcomposer/workspace/module_usb_midi/src/usb_midi.xc"
	.byte	0
	.long	75
	.long	75
	.long	.Lxtalabel0
.cc_bottom cc_69
.cc_top cc_70,.Lxtalabel0
	.ascii	"/Users/rkn/Documents/xTIMEcomposer/workspace/module_usb_midi/src/usb_midi.xc"
	.byte	0
	.long	77
	.long	82
	.long	.Lxtalabel0
.cc_bottom cc_70
.cc_top cc_71,.Lxtalabel0
	.ascii	"/Users/rkn/Documents/xTIMEcomposer/workspace/module_usb_midi/src/usb_midi.xc"
	.byte	0
	.long	85
	.long	86
	.long	.Lxtalabel0
.cc_bottom cc_71
.cc_top cc_72,.Lxtalabel0
	.ascii	"/Users/rkn/Documents/xTIMEcomposer/workspace/module_usb_midi/src/usb_midi.xc"
	.byte	0
	.long	88
	.long	88
	.long	.Lxtalabel0
.cc_bottom cc_72
.cc_top cc_73,.Lxtalabel0
	.ascii	"/Users/rkn/Documents/xTIMEcomposer/workspace/module_usb_midi/src/usb_midi.xc"
	.byte	0
	.long	90
	.long	90
	.long	.Lxtalabel0
.cc_bottom cc_73
.cc_top cc_74,.Lxtalabel0
	.ascii	"/Users/rkn/Documents/xTIMEcomposer/workspace/module_usb_midi/src/usb_midi.xc"
	.byte	0
	.long	93
	.long	94
	.long	.Lxtalabel0
.cc_bottom cc_74
.cc_top cc_75,.Lxtalabel0
	.ascii	"/Users/rkn/Documents/xTIMEcomposer/workspace/module_usb_midi/src/usb_midi.xc"
	.byte	0
	.long	96
	.long	97
	.long	.Lxtalabel0
.cc_bottom cc_75
.cc_top cc_76,.Lxtalabel0
	.ascii	"/Users/rkn/Documents/xTIMEcomposer/workspace/module_usb_midi/src/usb_midi.xc"
	.byte	0
	.long	100
	.long	101
	.long	.Lxtalabel0
.cc_bottom cc_76
.cc_top cc_77,.Lxtalabel0
	.ascii	"/Users/rkn/Documents/xTIMEcomposer/workspace/module_usb_midi/src/usb_midi.xc"
	.byte	0
	.long	103
	.long	104
	.long	.Lxtalabel0
.cc_bottom cc_77
.cc_top cc_78,.Lxtalabel0
	.ascii	"/Users/rkn/Documents/xTIMEcomposer/workspace/module_usb_midi/src/usb_midi.xc"
	.byte	0
	.long	107
	.long	107
	.long	.Lxtalabel0
.cc_bottom cc_78
.cc_top cc_79,.Lxtalabel0
	.ascii	"/Users/rkn/Documents/xTIMEcomposer/workspace/module_usb_midi/src/usb_midi.xc"
	.byte	0
	.long	109
	.long	109
	.long	.Lxtalabel0
.cc_bottom cc_79
.cc_top cc_80,.Lxtalabel0
	.ascii	"/Users/rkn/Documents/xTIMEcomposer/workspace/module_usb_midi/src/usb_midi.xc"
	.byte	0
	.long	111
	.long	112
	.long	.Lxtalabel0
.cc_bottom cc_80
.cc_top cc_81,.Lxtalabel0
	.ascii	"/Users/rkn/Documents/xTIMEcomposer/workspace/module_usb_midi/src/usb_midi.xc"
	.byte	0
	.long	135
	.long	135
	.long	.Lxtalabel0
.cc_bottom cc_81
.cc_top cc_82,.Lxtalabel0
	.ascii	"/Users/rkn/Documents/xTIMEcomposer/workspace/module_usb_midi/src/usb_midi.xc"
	.byte	0
	.long	141
	.long	141
	.long	.Lxtalabel0
.cc_bottom cc_82
.cc_top cc_83,.Lxtalabel8
	.ascii	"/Users/rkn/Documents/xTIMEcomposer/workspace/module_usb_midi/src/usb_midi.xc"
	.byte	0
	.long	142
	.long	147
	.long	.Lxtalabel8
.cc_bottom cc_83
.cc_top cc_84,.Lxtalabel4
	.ascii	"/Users/rkn/Documents/xTIMEcomposer/workspace/module_usb_midi/src/usb_midi.xc"
	.byte	0
	.long	142
	.long	147
	.long	.Lxtalabel4
.cc_bottom cc_84
.cc_top cc_85,.Lxtalabel5
	.ascii	"/Users/rkn/Documents/xTIMEcomposer/workspace/module_usb_midi/src/usb_midi.xc"
	.byte	0
	.long	142
	.long	147
	.long	.Lxtalabel5
.cc_bottom cc_85
.cc_top cc_86,.Lxtalabel2
	.ascii	"/Users/rkn/Documents/xTIMEcomposer/workspace/module_usb_midi/src/usb_midi.xc"
	.byte	0
	.long	142
	.long	147
	.long	.Lxtalabel2
.cc_bottom cc_86
.cc_top cc_87,.Lxtalabel2
	.ascii	"/Users/rkn/Documents/xTIMEcomposer/workspace/module_usb_midi/src/usb_midi.xc"
	.byte	0
	.long	150
	.long	150
	.long	.Lxtalabel2
.cc_bottom cc_87
.cc_top cc_88,.Lxtalabel8
	.ascii	"/Users/rkn/Documents/xTIMEcomposer/workspace/module_usb_midi/src/usb_midi.xc"
	.byte	0
	.long	150
	.long	150
	.long	.Lxtalabel8
.cc_bottom cc_88
.cc_top cc_89,.Lxtalabel5
	.ascii	"/Users/rkn/Documents/xTIMEcomposer/workspace/module_usb_midi/src/usb_midi.xc"
	.byte	0
	.long	150
	.long	150
	.long	.Lxtalabel5
.cc_bottom cc_89
.cc_top cc_90,.Lxtalabel4
	.ascii	"/Users/rkn/Documents/xTIMEcomposer/workspace/module_usb_midi/src/usb_midi.xc"
	.byte	0
	.long	150
	.long	150
	.long	.Lxtalabel4
.cc_bottom cc_90
.cc_top cc_91,.Lxtalabel3
	.ascii	"/Users/rkn/Documents/xTIMEcomposer/workspace/module_usb_midi/src/usb_midi.xc"
	.byte	0
	.long	151
	.long	158
	.long	.Lxtalabel3
.cc_bottom cc_91
.cc_top cc_92,.Lxtalabel3
	.ascii	"/Users/rkn/Documents/xTIMEcomposer/workspace/module_usb_midi/src/usb_midi.xc"
	.byte	0
	.long	161
	.long	161
	.long	.Lxtalabel3
.cc_bottom cc_92
.cc_top cc_93,.Lxtalabel6
	.ascii	"/Users/rkn/Documents/xTIMEcomposer/workspace/module_usb_midi/src/usb_midi.xc"
	.byte	0
	.long	162
	.long	165
	.long	.Lxtalabel6
.cc_bottom cc_93
.cc_top cc_94,.Lxtalabel7
	.ascii	"/Users/rkn/Documents/xTIMEcomposer/workspace/module_usb_midi/src/usb_midi.xc"
	.byte	0
	.long	166
	.long	166
	.long	.Lxtalabel7
.cc_bottom cc_94
.cc_top cc_95,.Lxtalabel7
	.ascii	"/Users/rkn/Documents/xTIMEcomposer/workspace/module_usb_midi/src/usb_midi.xc"
	.byte	0
	.long	168
	.long	172
	.long	.Lxtalabel7
.cc_bottom cc_95
.cc_top cc_96,.Lxtalabel14
	.ascii	"/Users/rkn/Documents/xTIMEcomposer/workspace/module_usb_midi/src/usb_midi.xc"
	.byte	0
	.long	173
	.long	174
	.long	.Lxtalabel14
.cc_bottom cc_96
.cc_top cc_97,.Lxtalabel14
	.ascii	"/Users/rkn/Documents/xTIMEcomposer/workspace/module_usb_midi/src/usb_midi.xc"
	.byte	0
	.long	176
	.long	176
	.long	.Lxtalabel14
.cc_bottom cc_97
.cc_top cc_98,.Lxtalabel15
	.ascii	"/Users/rkn/Documents/xTIMEcomposer/workspace/module_usb_midi/src/usb_midi.xc"
	.byte	0
	.long	177
	.long	181
	.long	.Lxtalabel15
.cc_bottom cc_98
.cc_top cc_99,.Lxtalabel16
	.ascii	"/Users/rkn/Documents/xTIMEcomposer/workspace/module_usb_midi/src/usb_midi.xc"
	.byte	0
	.long	177
	.long	181
	.long	.Lxtalabel16
.cc_bottom cc_99
.cc_top cc_100,.Lxtalabel15
	.ascii	"/Users/rkn/Documents/xTIMEcomposer/workspace/module_usb_midi/src/usb_midi.xc"
	.byte	0
	.long	190
	.long	191
	.long	.Lxtalabel15
.cc_bottom cc_100
.cc_top cc_101,.Lxtalabel16
	.ascii	"/Users/rkn/Documents/xTIMEcomposer/workspace/module_usb_midi/src/usb_midi.xc"
	.byte	0
	.long	190
	.long	191
	.long	.Lxtalabel16
.cc_bottom cc_101
.cc_top cc_102,.Lxtalabel17
	.ascii	"/Users/rkn/Documents/xTIMEcomposer/workspace/module_usb_midi/src/usb_midi.xc"
	.byte	0
	.long	192
	.long	192
	.long	.Lxtalabel17
.cc_bottom cc_102
.cc_top cc_103,.Lxtalabel17
	.ascii	"/Users/rkn/Documents/xTIMEcomposer/workspace/module_usb_midi/src/usb_midi.xc"
	.byte	0
	.long	194
	.long	194
	.long	.Lxtalabel17
.cc_bottom cc_103
.cc_top cc_104,.Lxtalabel17
	.ascii	"/Users/rkn/Documents/xTIMEcomposer/workspace/module_usb_midi/src/usb_midi.xc"
	.byte	0
	.long	196
	.long	196
	.long	.Lxtalabel17
.cc_bottom cc_104
.cc_top cc_105,.Lxtalabel29
	.ascii	"/Users/rkn/Documents/xTIMEcomposer/workspace/module_usb_midi/src/usb_midi.xc"
	.byte	0
	.long	197
	.long	197
	.long	.Lxtalabel29
.cc_bottom cc_105
.cc_top cc_106,.Lxtalabel29
	.ascii	"/Users/rkn/Documents/xTIMEcomposer/workspace/module_usb_midi/src/usb_midi.xc"
	.byte	0
	.long	200
	.long	200
	.long	.Lxtalabel29
.cc_bottom cc_106
.cc_top cc_107,.Lxtalabel29
	.ascii	"/Users/rkn/Documents/xTIMEcomposer/workspace/module_usb_midi/src/usb_midi.xc"
	.byte	0
	.long	201
	.long	203
	.long	.Lxtalabel29
.cc_bottom cc_107
.cc_top cc_108,.Lxtalabel18
	.ascii	"/Users/rkn/Documents/xTIMEcomposer/workspace/module_usb_midi/src/usb_midi.xc"
	.byte	0
	.long	204
	.long	207
	.long	.Lxtalabel18
.cc_bottom cc_108
.cc_top cc_109,.Lxtalabel9
	.ascii	"/Users/rkn/Documents/xTIMEcomposer/workspace/module_usb_midi/src/usb_midi.xc"
	.byte	0
	.long	224
	.long	224
	.long	.Lxtalabel9
.cc_bottom cc_109
.cc_top cc_110,.Lxtalabel19
	.ascii	"/Users/rkn/Documents/xTIMEcomposer/workspace/module_usb_midi/src/usb_midi.xc"
	.byte	0
	.long	225
	.long	225
	.long	.Lxtalabel19
.cc_bottom cc_110
.cc_top cc_111,.Lxtalabel20
	.ascii	"/Users/rkn/Documents/xTIMEcomposer/workspace/module_usb_midi/src/usb_midi.xc"
	.byte	0
	.long	225
	.long	225
	.long	.Lxtalabel20
.cc_bottom cc_111
.cc_top cc_112,.Lxtalabel19
	.ascii	"/Users/rkn/Documents/xTIMEcomposer/workspace/module_usb_midi/src/usb_midi.xc"
	.byte	0
	.long	232
	.long	233
	.long	.Lxtalabel19
.cc_bottom cc_112
.cc_top cc_113,.Lxtalabel20
	.ascii	"/Users/rkn/Documents/xTIMEcomposer/workspace/module_usb_midi/src/usb_midi.xc"
	.byte	0
	.long	232
	.long	233
	.long	.Lxtalabel20
.cc_bottom cc_113
.cc_top cc_114,.Lxtalabel19
	.ascii	"/Users/rkn/Documents/xTIMEcomposer/workspace/module_usb_midi/src/usb_midi.xc"
	.byte	0
	.long	235
	.long	235
	.long	.Lxtalabel19
.cc_bottom cc_114
.cc_top cc_115,.Lxtalabel20
	.ascii	"/Users/rkn/Documents/xTIMEcomposer/workspace/module_usb_midi/src/usb_midi.xc"
	.byte	0
	.long	235
	.long	235
	.long	.Lxtalabel20
.cc_bottom cc_115
.cc_top cc_116,.Lxtalabel21
	.ascii	"/Users/rkn/Documents/xTIMEcomposer/workspace/module_usb_midi/src/usb_midi.xc"
	.byte	0
	.long	236
	.long	239
	.long	.Lxtalabel21
.cc_bottom cc_116
.cc_top cc_117,.Lxtalabel28
	.ascii	"/Users/rkn/Documents/xTIMEcomposer/workspace/module_usb_midi/src/usb_midi.xc"
	.byte	0
	.long	241
	.long	241
	.long	.Lxtalabel28
.cc_bottom cc_117
.cc_top cc_118,.Lxtalabel28
	.ascii	"/Users/rkn/Documents/xTIMEcomposer/workspace/module_usb_midi/src/usb_midi.xc"
	.byte	0
	.long	243
	.long	247
	.long	.Lxtalabel28
.cc_bottom cc_118
.cc_top cc_119,.Lxtalabel10
	.ascii	"/Users/rkn/Documents/xTIMEcomposer/workspace/module_usb_midi/src/usb_midi.xc"
	.byte	0
	.long	248
	.long	249
	.long	.Lxtalabel10
.cc_bottom cc_119
.cc_top cc_120,.Lxtalabel10
	.ascii	"/Users/rkn/Documents/xTIMEcomposer/workspace/module_usb_midi/src/usb_midi.xc"
	.byte	0
	.long	251
	.long	253
	.long	.Lxtalabel10
.cc_bottom cc_120
.cc_top cc_121,.Lxtalabel10
	.ascii	"/Users/rkn/Documents/xTIMEcomposer/workspace/module_usb_midi/src/usb_midi.xc"
	.byte	0
	.long	255
	.long	256
	.long	.Lxtalabel10
.cc_bottom cc_121
.cc_top cc_122,.Lxtalabel30
	.ascii	"/Users/rkn/Documents/xTIMEcomposer/workspace/module_usb_midi/src/usb_midi.xc"
	.byte	0
	.long	257
	.long	257
	.long	.Lxtalabel30
.cc_bottom cc_122
.cc_top cc_123,.Lxtalabel31
	.ascii	"/Users/rkn/Documents/xTIMEcomposer/workspace/module_usb_midi/src/usb_midi.xc"
	.byte	0
	.long	257
	.long	257
	.long	.Lxtalabel31
.cc_bottom cc_123
.cc_top cc_124,.Lxtalabel1
	.ascii	"/Users/rkn/Documents/xTIMEcomposer/workspace/module_usb_midi/src/usb_midi.xc"
	.byte	0
	.long	257
	.long	257
	.long	.Lxtalabel1
.cc_bottom cc_124
.cc_top cc_125,.Lxtalabel31
	.ascii	"/Users/rkn/Documents/xTIMEcomposer/workspace/module_usb_midi/src/usb_midi.xc"
	.byte	0
	.long	259
	.long	261
	.long	.Lxtalabel31
.cc_bottom cc_125
.cc_top cc_126,.Lxtalabel30
	.ascii	"/Users/rkn/Documents/xTIMEcomposer/workspace/module_usb_midi/src/usb_midi.xc"
	.byte	0
	.long	259
	.long	261
	.long	.Lxtalabel30
.cc_bottom cc_126
.cc_top cc_127,.Lxtalabel1
	.ascii	"/Users/rkn/Documents/xTIMEcomposer/workspace/module_usb_midi/src/usb_midi.xc"
	.byte	0
	.long	259
	.long	261
	.long	.Lxtalabel1
.cc_bottom cc_127
.cc_top cc_128,.Lxtalabel1
	.ascii	"/Users/rkn/Documents/xTIMEcomposer/workspace/module_usb_midi/src/usb_midi.xc"
	.byte	0
	.long	262
	.long	264
	.long	.Lxtalabel1
.cc_bottom cc_128
.cc_top cc_129,.Lxtalabel30
	.ascii	"/Users/rkn/Documents/xTIMEcomposer/workspace/module_usb_midi/src/usb_midi.xc"
	.byte	0
	.long	262
	.long	264
	.long	.Lxtalabel30
.cc_bottom cc_129
.cc_top cc_130,.Lxtalabel31
	.ascii	"/Users/rkn/Documents/xTIMEcomposer/workspace/module_usb_midi/src/usb_midi.xc"
	.byte	0
	.long	262
	.long	264
	.long	.Lxtalabel31
.cc_bottom cc_130
.cc_top cc_131,.Lxtalabel11
	.ascii	"/Users/rkn/Documents/xTIMEcomposer/workspace/module_usb_midi/src/usb_midi.xc"
	.byte	0
	.long	272
	.long	272
	.long	.Lxtalabel11
.cc_bottom cc_131
.cc_top cc_132,.Lxtalabel12
	.ascii	"/Users/rkn/Documents/xTIMEcomposer/workspace/module_usb_midi/src/usb_midi.xc"
	.byte	0
	.long	273
	.long	273
	.long	.Lxtalabel12
.cc_bottom cc_132
.cc_top cc_133,.Lxtalabel12
	.ascii	"/Users/rkn/Documents/xTIMEcomposer/workspace/module_usb_midi/src/usb_midi.xc"
	.byte	0
	.long	276
	.long	276
	.long	.Lxtalabel12
.cc_bottom cc_133
.cc_top cc_134,.Lxtalabel13
	.ascii	"/Users/rkn/Documents/xTIMEcomposer/workspace/module_usb_midi/src/usb_midi.xc"
	.byte	0
	.long	277
	.long	277
	.long	.Lxtalabel13
.cc_bottom cc_134
.cc_top cc_135,.Lxtalabel13
	.ascii	"/Users/rkn/Documents/xTIMEcomposer/workspace/module_usb_midi/src/usb_midi.xc"
	.byte	0
	.long	279
	.long	279
	.long	.Lxtalabel13
.cc_bottom cc_135
.cc_top cc_136,.Lxtalabel13
	.ascii	"/Users/rkn/Documents/xTIMEcomposer/workspace/module_usb_midi/src/usb_midi.xc"
	.byte	0
	.long	280
	.long	281
	.long	.Lxtalabel13
.cc_bottom cc_136
.cc_top cc_137,.Lxtalabel12
	.ascii	"/Users/rkn/Documents/xTIMEcomposer/workspace/module_usb_midi/src/usb_midi.xc"
	.byte	0
	.long	282
	.long	285
	.long	.Lxtalabel12
.cc_bottom cc_137
.cc_top cc_138,.Lxtalabel22
	.ascii	"/Users/rkn/Documents/xTIMEcomposer/workspace/module_usb_midi/src/usb_midi.xc"
	.byte	0
	.long	287
	.long	290
	.long	.Lxtalabel22
.cc_bottom cc_138
.cc_top cc_139,.Lxtalabel22
	.ascii	"/Users/rkn/Documents/xTIMEcomposer/workspace/module_usb_midi/src/usb_midi.xc"
	.byte	0
	.long	292
	.long	293
	.long	.Lxtalabel22
.cc_bottom cc_139
.cc_top cc_140,.Lxtalabel22
	.ascii	"/Users/rkn/Documents/xTIMEcomposer/workspace/module_usb_midi/src/usb_midi.xc"
	.byte	0
	.long	318
	.long	319
	.long	.Lxtalabel22
.cc_bottom cc_140
.cc_top cc_141,.Lxtalabel23
	.ascii	"/Users/rkn/Documents/xTIMEcomposer/workspace/module_usb_midi/src/usb_midi.xc"
	.byte	0
	.long	320
	.long	320
	.long	.Lxtalabel23
.cc_bottom cc_141
.cc_top cc_142,.Lxtalabel23
	.ascii	"/Users/rkn/Documents/xTIMEcomposer/workspace/module_usb_midi/src/usb_midi.xc"
	.byte	0
	.long	322
	.long	323
	.long	.Lxtalabel23
.cc_bottom cc_142
.cc_top cc_143,.Lxtalabel24
	.ascii	"/Users/rkn/Documents/xTIMEcomposer/workspace/module_usb_midi/src/usb_midi.xc"
	.byte	0
	.long	325
	.long	325
	.long	.Lxtalabel24
.cc_bottom cc_143
.cc_top cc_144,.Lxtalabel25
	.ascii	"/Users/rkn/Documents/xTIMEcomposer/workspace/module_usb_midi/src/usb_midi.xc"
	.byte	0
	.long	326
	.long	328
	.long	.Lxtalabel25
.cc_bottom cc_144
.cc_top cc_145,.Lxtalabel24
	.ascii	"/Users/rkn/Documents/xTIMEcomposer/workspace/module_usb_midi/src/usb_midi.xc"
	.byte	0
	.long	329
	.long	332
	.long	.Lxtalabel24
.cc_bottom cc_145
.cc_top cc_146,.Lxtalabel26
	.ascii	"/Users/rkn/Documents/xTIMEcomposer/workspace/module_usb_midi/src/usb_midi.xc"
	.byte	0
	.long	334
	.long	334
	.long	.Lxtalabel26
.cc_bottom cc_146
.cc_top cc_147,.Lxtalabel27
	.ascii	"/Users/rkn/Documents/xTIMEcomposer/workspace/module_usb_midi/src/usb_midi.xc"
	.byte	0
	.long	335
	.long	338
	.long	.Lxtalabel27
.cc_bottom cc_147
.Lentries_end5:
	.section	.xtalooplabeltable,"",@progbits
.Lentries_start6:
	.long	.Lentries_end7-.Lentries_start6
	.long	0
	.ascii	"/Users/rkn/Documents/xTIMEcomposer/workspace/app_usb_aud_xk_216_mc/.build_2i32o32xxxxx_tdm8"
	.byte	0
.cc_top cc_148,.Lxta.loop_labels0
	.ascii	"/Users/rkn/Documents/xTIMEcomposer/workspace/module_usb_midi/src/usb_midi.xc"
	.byte	0
	.long	320
	.long	320
	.long	.Lxta.loop_labels0
.cc_bottom cc_148
.cc_top cc_149,.Lxta.loop_labels0
	.ascii	"/Users/rkn/Documents/xTIMEcomposer/workspace/module_usb_midi/src/usb_midi.xc"
	.byte	0
	.long	322
	.long	323
	.long	.Lxta.loop_labels0
.cc_bottom cc_149
.Lentries_end7:
	.section	.trap_info,"",@progbits
.Ltrap_info_entries_start0:
	.long	.Ltrap_info_entries_end0-.Ltrap_info_entries_start0
	.long	1
	.section	.trap_info_str,"MS",@progbits
.Ltrap_info_str0:
.asciiz"/Users/rkn/Documents/xTIMEcomposer/workspace/module_usb_midi/src/usb_midi.xc:103:24: error: passing null argument to a non-null parameter\n    configure_out_port(p_midi_out, clk_midi, 1<<MIDI_SHIFT_TX);\n                       ^~~~~~~~~~\n"
	.section	.trap_info,"",@progbits
.cc_top cc_trapinfo_0,.Ltrap_info0
	.long	.Ltrap_info0
	.long	.Ltrap_info_str0
.cc_bottom cc_trapinfo_0
	.section	.trap_info_str,"MS",@progbits
.Ltrap_info_str1:
.asciiz"/Users/rkn/Documents/xTIMEcomposer/workspace/module_usb_midi/src/usb_midi.xc:103:36: error: passing null argument to a non-null parameter\n    configure_out_port(p_midi_out, clk_midi, 1<<MIDI_SHIFT_TX);\n                                   ^~~~~~~~\n"
	.section	.trap_info,"",@progbits
.cc_top cc_trapinfo_1,.Ltrap_info1
	.long	.Ltrap_info1
	.long	.Ltrap_info_str1
.cc_bottom cc_trapinfo_1
	.section	.trap_info_str,"MS",@progbits
.Ltrap_info_str2:
.asciiz"/Users/rkn/Documents/xTIMEcomposer/workspace/module_usb_midi/src/usb_midi.xc:104:23: error: passing null argument to a non-null parameter\n    configure_in_port(p_midi_in, clk_midi);\n                      ^~~~~~~~~\n"
	.section	.trap_info,"",@progbits
.cc_top cc_trapinfo_2,.Ltrap_info2
	.long	.Ltrap_info2
	.long	.Ltrap_info_str2
.cc_bottom cc_trapinfo_2
	.section	.trap_info_str,"MS",@progbits
.Ltrap_info_str3:
.asciiz"/Users/rkn/Documents/xTIMEcomposer/workspace/module_usb_midi/src/usb_midi.xc:270:54: error: passing null argument to a non-null parameter\n        case !authenticating => midi_get_ack_or_data(c_midi, is_ack, datum):\n                                                     ^~~~~~\n"
	.section	.trap_info,"",@progbits
.cc_top cc_trapinfo_3,.Ltrap_info3
	.long	.Ltrap_info3
	.long	.Ltrap_info_str3
.cc_bottom cc_trapinfo_3
	.section	.trap_info_str,"MS",@progbits
.Ltrap_info_str4:
.asciiz"/Users/rkn/Documents/xTIMEcomposer/workspace/module_usb_midi/src/usb_midi.xc:238:35: error: passing null argument to a non-null parameter\n                    midi_send_ack(c_midi);\n                                  ^~~~~~\n"
	.section	.trap_info,"",@progbits
.cc_top cc_trapinfo_4,.Ltrap_info4
	.long	.Ltrap_info4
	.long	.Ltrap_info_str4
.cc_bottom cc_trapinfo_4
	.section	.trap_info_str,"MS",@progbits
.Ltrap_info_str5:
.asciiz"/Users/rkn/Documents/xTIMEcomposer/workspace/module_usb_midi/src/usb_midi.xc:322:67: error: out of bounds array access\n                    queue_push_word(symbol_fifo, symbol_fifo_arr, midi[i]);\n                                                                  ^~~~~~~\n"
	.section	.trap_info,"",@progbits
.cc_top cc_trapinfo_5,.Ltrap_info5
	.long	.Ltrap_info5
	.long	.Ltrap_info_str5
.cc_bottom cc_trapinfo_5
	.section	.trap_info_str,"MS",@progbits
.Ltrap_info_str6:
.asciiz"/Users/rkn/Documents/xTIMEcomposer/workspace/module_usb_midi/src/usb_midi.xc:200:45: error: passing null argument to a non-null parameter\n                                    outuint(c_midi, event);\n                                            ^~~~~~\n/Applications/XMOS_xTIMEcomposer_Community_14.3.2/target/include/xs1.h:968:64: note: expanded from macro 'outuint'\n#define outuint(c, val)                     __builtin_out_uint(c, val)\n                                                               ^\n"
	.section	.trap_info,"",@progbits
.cc_top cc_trapinfo_6,.Ltrap_info6
	.long	.Ltrap_info6
	.long	.Ltrap_info_str6
.cc_bottom cc_trapinfo_6
.Ltrap_info_entries_end0: