	.text
	.file	"endpoint0.c"
	.section	.cp.rodata.cst4,"aMc",@progbits,4
	.cc_top .LCPI0_0.data,.LCPI0_0
	.align	4
	.type	.LCPI0_0,@object
	.size	.LCPI0_0, 4
.LCPI0_0:
	.long	305419896
	.cc_bottom .LCPI0_0.data
	.cc_top .LCPI0_1.data,.LCPI0_1
	.align	4
	.type	.LCPI0_1,@object
	.size	.LCPI0_1, 4
.LCPI0_1:
	.long	50000000
	.cc_bottom .LCPI0_1.data
	.cc_top .LCPI0_2.data,.LCPI0_2
	.align	4
	.type	.LCPI0_2,@object
	.size	.LCPI0_2, 4
.LCPI0_2:
	.long	5000000
	.cc_bottom .LCPI0_2.data
	.text
	.globl	Endpoint0
	.align	4
	.type	Endpoint0,@function
	.cc_top Endpoint0.function,Endpoint0
Endpoint0:
.Lfunc_begin0:
	.loc	6 208 0
	.cfi_startproc
	.issue_mode dual
	{
		nop
		dualentsp 38
	}
.Ltmp0:
	.cfi_def_cfa_offset 152
.Ltmp1:
	.cfi_offset 15, 0
	{
		nop
		stw r4, sp[30]
	}
	{
		nop
		stw r5, sp[31]
	}
.Ltmp2:
	.cfi_offset 4, -32
.Ltmp3:
	.cfi_offset 5, -28
	{
		nop
		stw r6, sp[32]
	}
	{
		nop
		stw r7, sp[33]
	}
.Ltmp4:
	.cfi_offset 6, -24
.Ltmp5:
	.cfi_offset 7, -20
	{
		nop
		stw r8, sp[34]
	}
	{
		nop
		stw r9, sp[35]
	}
.Ltmp6:
	.cfi_offset 8, -16
.Ltmp7:
	.cfi_offset 9, -12
	{
		nop
		stw r10, sp[36]
	}
.Ltmp8:
	.cfi_offset 10, -8
.Ltmp9:
	{
		mov r10, r2
		stw r3, sp[19]
	}
.Ltmp10:
	{
		mov r4, r1
		ldw r1, sp[40]
	}
.Ltmp11:
	{
		nop
		ldw r2, sp[41]
	}
	{
		nop
		stw r2, sp[18]
	}
	.loc	6 210 22 prologue_end
.Ltmp12:
	bl XUD_InitEp
.Ltmp13:
	{
		mov r6, r0
		nop
	}
.Ltmp14:
	.loc	6 211 22
	{
		mov r0, r4
		stw r6, sp[21]
	}
.Ltmp15:
	bl XUD_InitEp
	{
		mov r8, r0
		nop
	}
.Ltmp16:
	{
		nop
		stw r8, sp[26]
	}
.Ltmp17:
	.loc	6 216 9
	ldaw r0, dp[volsOut]
	{
		ldc r9, 0
		ldc r7, 44
	}
	{
		mov r1, r9
		mov r2, r7
	}
	bl memset
	.loc	6 217 9
	ldaw r0, dp[mutesOut]
	{
		mov r1, r9
		mov r2, r7
	}
	bl memset
.Ltmp18:
	.loc	6 222 9
	ldaw r0, dp[volsIn]
	{
		mov r1, r9
		mov r2, r7
	}
	bl memset
	.loc	6 223 9
	ldaw r0, dp[mutesIn]
	{
		mov r1, r9
		mov r2, r7
	}
	bl memset
	ldc r0, 144
	ldaw r1, dp[mixer1Weights]
	ldc r2, 32769
.Ltmp19:
.LBB0_1:
	.loc	6 230 9
	st16 r2, r1[r9]
.Ltmp20:
	.loc	6 228 5
	{
		sub r0, r0, 1
		add r1, r1, 2
	}
.xtaloop 144
	# LOOPMARKER 0
	.loc	6 228 5
	bt r0, .LBB0_1
.Ltmp21:
	.loc	6 234 5
	ldaw r0, dp[mixer1Weights]
	st16 r9, r0[r9]
	ldaw r0, dp[mixer1Weights+16]
	{
		add r0, r0, 2
		nop
	}
	.loc	6 235 5
	st16 r9, r0[r9]
	ldaw r0, dp[mixer1Weights+36]
	.loc	6 236 5
	st16 r9, r0[r9]
	ldaw r0, dp[mixer1Weights+52]
	{
		add r0, r0, 2
		nop
	}
	.loc	6 237 5
	st16 r9, r0[r9]
	ldaw r0, dp[mixer1Weights+72]
	.loc	6 238 5
	st16 r9, r0[r9]
	ldaw r0, dp[mixer1Weights+88]
	{
		add r0, r0, 2
		nop
	}
	.loc	6 239 5
	st16 r9, r0[r9]
	ldaw r0, dp[mixer1Weights+108]
	.loc	6 240 5
	st16 r9, r0[r9]
	ldaw r0, dp[mixer1Weights+124]
	{
		add r0, r0, 2
		nop
	}
	.loc	6 241 5
	st16 r9, r0[r9]
	ldaw r0, dp[channelMapAud]
.Ltmp22:
	.loc	6 247 8
	st8 r9, r0[r9]
	{
		mkmsk r7, 1
		nop
	}
.Ltmp23:
	.loc	6 247 8
	st8 r7, r0[r7]
	{
		ldc r3, 2
		nop
	}
	.loc	6 247 8
	st8 r3, r0[r3]
	{
		mkmsk r2, 2
		nop
	}
	.loc	6 247 8
	st8 r2, r0[r2]
	ldaw r0, dp[channelMapAud+4]
	{
		ldc r1, 4
		nop
	}
	.loc	6 247 8
	st8 r1, r0[r9]
	{
		ldc r1, 5
		nop
	}
	.loc	6 247 8
	st8 r1, r0[r7]
	{
		ldc r1, 6
		nop
	}
	.loc	6 247 8
	st8 r1, r0[r3]
	{
		mkmsk r1, 3
		nop
	}
	.loc	6 247 8
	st8 r1, r0[r2]
	ldaw r0, dp[channelMapAud+8]
	{
		ldc r1, 8
		nop
	}
	.loc	6 247 8
	st8 r1, r0[r9]
	{
		ldc r1, 9
		nop
	}
	.loc	6 247 8
	st8 r1, r0[r7]
	ldaw r0, dp[channelMapUsb]
	{
		mov r1, r9
		nop
	}
.Ltmp24:
.LBB0_3:
	.loc	6 254 8
	{
		add r2, r1, 10
		nop
	}
	.loc	6 254 8
	st8 r2, r0[r1]
.Ltmp25:
	.loc	6 252 41
	{
		add r1, r1, 1
		nop
	}
.Ltmp26:
.xtaloop 10
	# LOOPMARKER 1
	.loc	6 252 5
	{
		eq r2, r1, 10
		nop
	}
	bf r2, .LBB0_3
.Ltmp27:
	ldaw r0, dp[channelMap]
	{
		ldc r1, 20
		nop
	}
.Ltmp28:
.LBB0_5:
	.loc	6 261 9
	st8 r9, r0[r9]
.Ltmp29:
	.loc	6 259 61
	{
		add r9, r9, 1
		nop
	}
.Ltmp30:
.xtaloop 20
	# LOOPMARKER 2
	.loc	6 259 5
	{
		eq r2, r9, r1
		nop
	}
	bf r2, .LBB0_5
.Ltmp31:
	{
		ldc r9, 0
		nop
	}
	.loc	6 286 9
.Ltmp32:
	{
		mov r0, r9
		nop
	}
	bl DFUReportResetState
	bf r0, .LBB0_8
.Ltmp33:
	{
		ldc r0, 4
		nop
	}
	.loc	6 289 9
.Ltmp34:
	#APP
	out res[r10], r0
	#NO_APP
	ldw r0, cp[.LCPI0_0]
	.loc	6 290 9
	#APP
	out res[r10], r0
	#NO_APP
	.loc	6 292 9
	stw r7, dp[DFU_mode_active]
.Ltmp35:
.LBB0_8:
	{
		ldaw r4, sp[27]
		stw r10, sp[22]
	}
	{
		ldc r0, 2
		nop
	}
	.loc	6 306 13
.Ltmp36:
	{
		or r0, r4, r0
		nop
	}
	{
		nop
		stw r0, sp[23]
	}
	ldaw r0, dp[cfgDesc_Audio2+352]
	{
		add r0, r0, 2
		nop
	}
	{
		mkmsk r5, 32
		stw r0, sp[20]
	}
	bu .LBB0_9
.Ltmp37:
.LBB0_86:
	{
		nop
		ldw r8, sp[26]
	}
.Ltmp38:
.LBB0_9:
	.loc	6 299 31
	{
		mov r0, r6
		mov r1, r8
	}
	{
		mov r2, r4
		nop
	}
	bl USB_GetSetupPacket
	{
		mov r8, r0
		nop
	}
.Ltmp39:
	bt r8, .LBB0_70
.Ltmp40:
	{
		nop
		ldw r0, sp[23]
	}
	{
		nop
		ld8u r0, r0[r9]
	}
	.loc	6 306 13
.Ltmp41:
	{
		shl r0, r0, 7
		ldw r2, sp[27]
	}
	.loc	6 306 13
	{
		mov r1, r2
		nop
	}
	{
		zext r1, 8
		nop
	}
	.loc	6 306 13
	{
		or r0, r0, r1
		shr r1, r2, 3
	}
	ldc r3, 8160
	.loc	6 306 13
	{
		and r1, r1, r3
		nop
	}
	.loc	6 306 13
	{
		or r1, r0, r1
		shr r0, r2, 24
	}
	ldc r2, 160
	.loc	6 306 13
	{
		lss r2, r2, r1
		nop
	}
	bt r2, .LBB0_26
.Ltmp42:
	ldc r2, 128
	{
		lss r2, r2, r1
		nop
	}
	bt r2, .LBB0_57
.Ltmp43:
	bf r1, .LBB0_65
.Ltmp44:
	{
		eq r2, r1, 1
		nop
	}
	bf r2, .LBB0_14
.Ltmp45:
	.loc	6 311 24
	{
		eq r0, r0, 11
		nop
	}
	bf r0, .LBB0_71
.Ltmp46:
	.loc	6 313 25
	{
		add r0, r4, 6
		nop
	}
	{
		nop
		ld16s r0, r0[r9]
	}
	.loc	6 313 25
	{
		zext r0, 16
		nop
	}
	.loc	6 313 25
	{
		eq r1, r0, 2
		nop
	}
	bf r1, .LBB0_29
.Ltmp47:
	{
		nop
		ldw r1, sp[28]
	}
	ldw r2, dp[g_curStreamAlt_In]
	{
		shr r0, r1, 16
		zext r1, 16
	}
	.loc	6 354 36
.Ltmp48:
	{
		eq r3, r1, 1
		nop
	}
	bf r3, .LBB0_42
.Ltmp49:
	{
		eq r2, r2, r1
		nop
	}
	bt r2, .LBB0_42
.Ltmp50:
	.loc	6 360 41
	stw r1, dp[g_curStreamAlt_In]
.Ltmp51:
	{
		ldc r2, 9
		ldw r3, sp[22]
	}
.Ltmp52:
	.loc	6 363 41
	#APP
	out res[r3], r2
	#NO_APP
	.loc	6 364 41
	{
		sub r1, r1, 1
		nop
	}
	.loc	6 364 41
	ldaw r11, cp[g_dataFormat_In]
	{
		nop
		ldw r2, r11[r1]
	}
	.loc	6 364 41
	#APP
	out res[r3], r2
	#NO_APP
	.loc	6 366 44
.Ltmp53:
	ldw r2, dp[g_curUsbSpeed]
	.loc	6 366 44
	{
		eq r2, r2, 2
		nop
	}
	bf r2, .LBB0_40
.Ltmp54:
	.loc	6 368 45
	ldaw r11, cp[g_chanCount_In_HS]
	{
		nop
		ldw r2, r11[r1]
	}
	.loc	6 368 45
	#APP
	out res[r3], r2
	#NO_APP
	.loc	6 369 45
	ldaw r11, cp[g_subSlot_In_HS]
	{
		nop
		ldw r1, r11[r1]
	}
	.loc	6 369 45
	#APP
	out res[r3], r1
	#NO_APP
	{
		ldc r1, 24
		nop
	}
	.loc	6 370 45
	#APP
	out res[r3], r1
	#NO_APP
	bu .LBB0_41
.Ltmp55:
.LBB0_26:
	ldc r2, 161
.Ltmp56:
.LBB0_15:
	{
		eq r1, r1, r2
		nop
	}
	bf r1, .LBB0_71
.Ltmp57:
	{
		mov r10, r7
		ldw r5, sp[22]
	}
.Ltmp58:
	.loc	6 546 25
	{
		add r1, r4, 6
		nop
	}
.Ltmp59:
	{
		nop
		ld16s r4, r1[r9]
	}
	.loc	6 546 25
	{
		mov r7, r4
		nop
	}
	{
		zext r7, 8
		nop
	}
.Ltmp60:
	.loc	6 554 29
	ldw r1, dp[DFU_mode_active]
	.loc	6 554 29
	{
		mov r2, r9
		nop
	}
	bt r1, .LBB0_18
.Ltmp61:
	{
		ldc r2, 5
		nop
	}
.Ltmp62:
.LBB0_18:
	.loc	6 546 25
	{
		zext r4, 16
		eq r2, r7, r2
	}
.Ltmp63:
	{
		mov r8, r10
		nop
	}
	bf r2, .LBB0_24
.Ltmp64:
	.loc	6 561 29
	{
		add r0, r0, 11
		stw r9, sp[25]
	}
	bt r1, .LBB0_22
.Ltmp65:
	{
		zext r0, 8
		ldc r1, 2
	}
	{
		lsu r0, r0, r1
		nop
	}
	bt r0, .LBB0_22
.Ltmp66:
	{
		ldc r0, 4
		nop
	}
	.loc	6 569 33
.Ltmp67:
	#APP
	out res[r5], r0
	#NO_APP
	ldw r0, cp[.LCPI0_0]
	.loc	6 570 33
	#APP
	out res[r5], r0
	#NO_APP
	.loc	6 572 12
	#APP
	chkct res[r5], r10
	#NO_APP
.Ltmp68:
.LBB0_22:
	ldaw r0, dp[g_interfaceAlt]
	{
		nop
		ld8u r0, r0[r4]
	}
.Ltmp69:
	.loc	6 576 38
	{
		ldaw r2, sp[25]
		ldw r1, sp[18]
	}
	std r2, r1, sp[1]
.Ltmp70:
	{
		mov r0, r6
		stw r0, sp[1]
	}
	{
		ldaw r1, sp[26]
		ldaw r2, sp[27]
	}
	{
		mov r3, r9
		nop
	}
	bl DFUDeviceRequests
.Ltmp71:
	{
		mov r8, r0
		ldw r0, sp[25]
	}
.Ltmp72:
	bf r0, .LBB0_24
.Ltmp73:
	ldw r0, cp[.LCPI0_1]
	.loc	6 580 33
.Ltmp74:
	bl DFUDelay
	.loc	6 581 33
	{
		mov r0, r5
		nop
	}
	bl device_reboot
.Ltmp75:
.LBB0_24:
	ldc r0, 254
	.loc	6 589 28
.Ltmp76:
	{
		and r0, r4, r0
		nop
	}
	.loc	6 589 28
	{
		eq r0, r0, 0
		nop
	}
	{
		eq r0, r0, 0
		eq r1, r7, 2
	}
	.loc	6 589 28
	{
		eq r1, r1, 0
		nop
	}
	.loc	6 589 28
	{
		and r1, r1, r0
		nop
	}
	ldw r0, dp[DFU_mode_active]
	bt r1, .LBB0_25
.Ltmp77:
	{
		mov r7, r10
		stw r5, sp[22]
	}
.Ltmp78:
	{
		ldaw r4, sp[27]
		mkmsk r5, 32
	}
.Ltmp79:
	bt r0, .LBB0_70
.Ltmp80:
	{
		nop
		ldw r1, sp[26]
	}
	{
		nop
		ldw r0, sp[39]
	}
	{
		nop
		stw r0, sp[2]
	}
	{
		nop
		ldw r0, sp[19]
	}
	.loc	6 605 38
.Ltmp81:
	{
		mov r0, r6
		stw r0, sp[1]
	}
	{
		mov r2, r4
		ldw r3, sp[22]
	}
	bl AudioClassRequests_2
	bu .LBB0_69
.Ltmp82:
.LBB0_57:
	ldc r2, 129
	{
		eq r1, r1, r2
		nop
	}
	bf r1, .LBB0_71
.Ltmp83:
	{
		add r1, r4, 6
		nop
	}
	{
		eq r0, r0, 6
		ld16s r1, r1[r9]
	}
	bf r0, .LBB0_71
.Ltmp84:
	{
		zext r1, 16
		nop
	}
	{
		eq r0, r1, 6
		nop
	}
	bf r0, .LBB0_71
.Ltmp85:
	.loc	6 473 33
	{
		ldaw r0, sp[28]
		nop
	}
	{
		nop
		ld16s r0, r0[r9]
	}
	ldc r1, 65280
	.loc	6 473 33
	{
		and r0, r0, r1
		nop
	}
.Ltmp86:
	ldc r1, 8704
	.loc	6 475 33
	{
		eq r1, r0, r1
		nop
	}
	bf r1, .LBB0_61
.Ltmp87:
	.loc	6 484 50
	{
		ldaw r0, sp[29]
		ldw r1, sp[26]
	}
	{
		nop
		ld16s r0, r0[r9]
	}
	.loc	6 484 50
	{
		zext r0, 16
		nop
	}
	.loc	6 484 50
	{
		mov r0, r6
		stw r0, sp[1]
	}
	ldaw r2, dp[hidReportDescriptor]
	{
		ldc r3, 33
		nop
	}
	.loc	6 479 51
	bl XUD_DoGetRequest
	bu .LBB0_69
.Ltmp88:
.LBB0_65:
	.loc	6 500 21
	{
		eq r0, r0, 9
		nop
	}
	bf r0, .LBB0_71
.Ltmp89:
	.loc	6 509 33
	{
		mov r0, r7
		nop
	}
	bl UserHostActive
	bu .LBB0_71
.Ltmp90:
.LBB0_14:
	{
		ldc r2, 33
		nop
	}
	bu .LBB0_15
.Ltmp91:
.LBB0_25:
	{
		mov r7, r10
		stw r5, sp[22]
	}
.Ltmp92:
	{
		ldaw r4, sp[27]
		mkmsk r5, 32
	}
.Ltmp93:
	bu .LBB0_70
.Ltmp94:
.LBB0_61:
	ldc r1, 8448
	{
		eq r0, r0, r1
		nop
	}
	bf r0, .LBB0_71
.Ltmp95:
	.loc	6 479 51
	{
		ldaw r0, sp[29]
		ldw r1, sp[26]
	}
	{
		nop
		ld16s r0, r0[r9]
	}
	.loc	6 479 51
	{
		zext r0, 16
		nop
	}
	.loc	6 479 51
	{
		mov r0, r6
		stw r0, sp[1]
	}
	ldaw r2, dp[hidDescriptor]
	{
		ldc r3, 9
		nop
	}
	bl XUD_DoGetRequest
.Ltmp96:
.LBB0_69:
	.loc	6 605 38
	{
		mov r8, r0
		nop
	}
.Ltmp97:
.LBB0_70:
	.loc	6 631 12
	{
		eq r0, r8, 1
		nop
	}
	bf r0, .LBB0_82
	bu .LBB0_71
.Ltmp98:
.LBB0_29:
	{
		eq r1, r0, 1
		nop
	}
	bf r1, .LBB0_42
.Ltmp99:
	{
		nop
		ldw r0, sp[28]
	}
	.loc	6 319 36
.Ltmp100:
	{
		mov r1, r0
		nop
	}
	{
		zext r1, 16
		sub r2, r0, 1
	}
	.loc	6 319 36
	{
		zext r2, 16
		nop
	}
	.loc	6 319 36
	{
		lsu r3, r7, r2
		nop
	}
	ldw r2, dp[g_curStreamAlt_Out]
	{
		shr r0, r0, 16
		nop
	}
	bt r3, .LBB0_42
.Ltmp101:
	{
		eq r2, r2, r1
		nop
	}
	bt r2, .LBB0_42
.Ltmp102:
	.loc	6 325 41
	stw r1, dp[g_curStreamAlt_Out]
.Ltmp103:
	{
		ldc r2, 8
		ldw r3, sp[22]
	}
.Ltmp104:
	.loc	6 328 41
	#APP
	out res[r3], r2
	#NO_APP
	.loc	6 329 41
	{
		sub r1, r1, 1
		nop
	}
	.loc	6 329 41
	ldaw r11, cp[g_dataFormat_Out]
	{
		nop
		ldw r2, r11[r1]
	}
	.loc	6 329 41
	#APP
	out res[r3], r2
	#NO_APP
	.loc	6 331 44
.Ltmp105:
	ldw r2, dp[g_curUsbSpeed]
	.loc	6 331 44
	{
		eq r2, r2, 2
		nop
	}
	bf r2, .LBB0_34
.Ltmp106:
	{
		ldc r2, 10
		nop
	}
	.loc	6 333 45
.Ltmp107:
	#APP
	out res[r3], r2
	#NO_APP
	.loc	6 334 45
	ldaw r11, cp[g_subSlot_Out_HS]
	{
		nop
		ldw r2, r11[r1]
	}
	.loc	6 334 45
	#APP
	out res[r3], r2
	#NO_APP
	.loc	6 335 45
	ldaw r11, cp[g_sampRes_Out_HS]
	{
		nop
		ldw r1, r11[r1]
	}
	.loc	6 335 45
	#APP
	out res[r3], r1
	#NO_APP
.Ltmp108:
	.loc	6 345 41
	#APP
	chkct res[r3], r7
	#NO_APP
.Ltmp109:
	bu .LBB0_42
.Ltmp110:
.LBB0_40:
	{
		ldc r2, 2
		nop
	}
	.loc	6 374 45
.Ltmp111:
	#APP
	out res[r3], r2
	#NO_APP
	.loc	6 375 45
	ldaw r11, cp[g_subSlot_In_FS]
	{
		nop
		ldw r1, r11[r1]
	}
	.loc	6 375 45
	#APP
	out res[r3], r1
	#NO_APP
	{
		ldc r1, 24
		nop
	}
	.loc	6 376 45
	#APP
	out res[r3], r1
	#NO_APP
.Ltmp112:
.LBB0_41:
	.loc	6 380 41
	#APP
	chkct res[r3], r7
	#NO_APP
.Ltmp113:
	bu .LBB0_42
.Ltmp114:
.LBB0_34:
	{
		ldc r2, 2
		nop
	}
	.loc	6 339 45
.Ltmp115:
	#APP
	out res[r3], r2
	#NO_APP
	.loc	6 340 45
	ldaw r11, cp[g_subSlot_Out_FS]
	{
		nop
		ldw r2, r11[r1]
	}
	.loc	6 340 45
	#APP
	out res[r3], r2
	#NO_APP
	.loc	6 341 45
	ldaw r11, cp[g_sampRes_Out_FS]
	{
		nop
		ldw r1, r11[r1]
	}
	.loc	6 341 45
	#APP
	out res[r3], r1
	#NO_APP
.Ltmp116:
	.loc	6 345 41
	#APP
	chkct res[r3], r7
	#NO_APP
.Ltmp117:
.LBB0_42:
	.loc	6 410 29
	{
		sub r0, r0, 1
		nop
	}
	{
		zext r0, 16
		nop
	}
	.loc	6 410 29
	{
		lsu r0, r7, r0
		nop
	}
	bt r0, .LBB0_71
.Ltmp118:
	{
		nop
		ldw r0, sp[28]
	}
	{
		shr r1, r0, 16
		zext r0, 16
	}
	.loc	6 413 32
.Ltmp119:
	bf r0, .LBB0_47
.Ltmp120:
	ldaw r0, dp[g_interfaceAlt]
	{
		nop
		ld8u r0, r0[r7]
	}
	bt r0, .LBB0_71
.Ltmp121:
	ldaw r0, dp[g_interfaceAlt]
	{
		ldc r1, 2
		nop
	}
	{
		nop
		ld8u r0, r0[r1]
	}
	bt r0, .LBB0_71
.Ltmp122:
	.loc	6 416 33
	bl UserAudioStreamStart
	bu .LBB0_71
.Ltmp123:
.LBB0_47:
	.loc	6 418 37
	{
		eq r2, r1, 1
		nop
	}
	bf r2, .LBB0_52
.Ltmp124:
	bt r0, .LBB0_52
.Ltmp125:
	ldaw r2, dp[g_interfaceAlt]
	{
		nop
		ld8u r2, r2[r7]
	}
	bf r2, .LBB0_52
.Ltmp126:
	ldaw r2, dp[g_interfaceAlt]
	{
		ldc r3, 2
		nop
	}
	{
		nop
		ld8u r2, r2[r3]
	}
	bf r2, .LBB0_51
.Ltmp127:
.LBB0_52:
	.loc	6 423 37
	{
		eq r1, r1, 2
		nop
	}
	bf r1, .LBB0_71
.Ltmp128:
	bt r0, .LBB0_71
.Ltmp129:
	ldaw r0, dp[g_interfaceAlt]
	{
		ldc r1, 2
		nop
	}
	{
		nop
		ld8u r0, r0[r1]
	}
	bf r0, .LBB0_71
.Ltmp130:
	ldaw r0, dp[g_interfaceAlt]
	{
		nop
		ld8u r0, r0[r7]
	}
	bt r0, .LBB0_71
.Ltmp131:
	.loc	6 426 33
	bl UserAudioStreamStop
	bu .LBB0_71
.Ltmp132:
.LBB0_51:
	.loc	6 421 33
	bl UserAudioStreamStop
.Ltmp133:
.LBB0_71:
	.loc	6 634 17
	ldw r0, dp[DFU_mode_active]
	.loc	6 634 17
	bf r0, .LBB0_72
.Ltmp134:
	{
		nop
		ldw r1, sp[26]
	}
	.loc	6 749 26
.Ltmp135:
	ldw r0, dp[g_curUsbSpeed]
	{
		ldc r2, 34
		nop
	}
	.loc	6 749 26
	std r4, r2, sp[4]
.Ltmp136:
	.loc	6 717 26
	ldaw r2, dp[g_strTable]
.Ltmp137:
	.loc	6 749 26
	std r2, r9, sp[3]
	{
		ldc r2, 27
		nop
	}
	std r9, r2, sp[1]
	{
		nop
		stw r0, sp[10]
	}
	std r9, r9, sp[2]
	ldaw r0, dp[DFUcfgDesc]
	{
		mov r0, r6
		stw r0, sp[1]
	}
	ldaw r2, dp[DFUdevDesc]
	{
		ldc r3, 18
		nop
	}
	bl USB_StandardRequests
	{
		mov r8, r0
		nop
	}
.Ltmp138:
	bu .LBB0_82
.Ltmp139:
.LBB0_72:
	.loc	6 650 20
	ldw r0, dp[g_curUsbSpeed]
	.loc	6 650 20
	{
		eq r11, r0, 2
		stw r0, sp[24]
	}
	{
		ldc r1, 10
		nop
	}
	bt r11, .LBB0_74
.Ltmp140:
	{
		ldc r1, 2
		nop
	}
.Ltmp141:
.LBB0_74:
	{
		ldc r2, 4
		nop
	}
	bt r11, .LBB0_76
.Ltmp142:
	{
		mkmsk r2, 2
		nop
	}
.Ltmp143:
.LBB0_76:
	ldc r3, 1000
	bt r11, .LBB0_78
.Ltmp144:
	ldc r3, 294
.Ltmp145:
.LBB0_78:
	ldc r4, 500
	bt r11, .LBB0_80
.Ltmp146:
	ldc r4, 196
.Ltmp147:
.LBB0_80:
	{
		mkmsk r11, 2
		nop
	}
	{
		mov r8, r11
		nop
	}
	ldaw r11, dp[cfgDesc_Audio2+56]
	.loc	6 654 21
.Ltmp148:
	st8 r1, r11[r8]
	ldaw r11, dp[cfgDesc_Audio2+244]
.Ltmp149:
	.loc	6 689 21
	st8 r2, r11[r8]
	{
		ldc r11, 24
		nop
	}
	{
		mov r10, r11
		nop
	}
	ldaw r11, dp[cfgDesc_Audio2+248]
.Ltmp150:
	.loc	6 657 21
	st8 r10, r11[r9]
.Ltmp151:
	.loc	6 691 21
	{
		shr r11, r3, 8
		nop
	}
	ldaw r6, dp[cfgDesc_Audio2+252]
	{
		ldc r5, 2
		nop
	}
	{
		mov r0, r5
		nop
	}
	st8 r11, r6[r0]
	st8 r3, r6[r7]
	ldaw r11, dp[cfgDesc_Audio2+236]
.Ltmp152:
	.loc	6 659 21
	st8 r1, r11[r7]
	ldaw r11, dp[cfgDesc_Audio2+292]
.Ltmp153:
	.loc	6 695 21
	st8 r0, r11[r7]
	{
		ldc r6, 16
		nop
	}
.Ltmp154:
	.loc	6 663 21
	st8 r6, r11[r0]
.Ltmp155:
	.loc	6 697 21
	{
		shr r11, r4, 8
		mov r6, r7
	}
	{
		ldc r7, 4
		nop
	}
	ldaw r5, dp[cfgDesc_Audio2+296]
	st8 r11, r5[r7]
	{
		mov r7, r6
		nop
	}
	st8 r4, r5[r8]
	ldaw r11, dp[cfgDesc_Audio2+280]
.Ltmp156:
	.loc	6 665 21
	st8 r1, r11[r8]
	ldaw r11, dp[cfgDesc_Audio2+136]
.Ltmp157:
	.loc	6 709 21
	st8 r1, r11[r0]
	ldaw r11, dp[cfgDesc_Audio2+348]
.Ltmp158:
	.loc	6 677 21
	st8 r2, r11[r9]
.Ltmp159:
	.loc	6 711 21
	st8 r10, r11[r7]
	{
		nop
		ldw r2, sp[20]
	}
.Ltmp160:
	.loc	6 679 21
	st16 r3, r2[r9]
	ldaw r2, dp[cfgDesc_Audio2+336]
.Ltmp161:
	.loc	6 713 21
	st8 r1, r2[r0]
.Ltmp162:
	.loc	6 717 26
	{
		ldaw r4, sp[27]
		ldw r1, sp[26]
	}
.Ltmp163:
	{
		ldc r2, 34
		nop
	}
	.loc	6 717 26
	std r4, r2, sp[4]
	ldaw r2, dp[g_strTable]
	std r2, r9, sp[3]
	ldc r2, 500
	std r9, r2, sp[1]
	{
		nop
		ldw r0, sp[24]
	}
	{
		nop
		stw r0, sp[10]
	}
	std r9, r9, sp[2]
	.loc	6 654 21
.Ltmp164:
	ldaw r0, dp[cfgDesc_Audio2]
	{
		nop
		stw r0, sp[1]
	}
	{
		nop
		ldw r6, sp[21]
	}
.Ltmp165:
	.loc	6 717 26
	{
		mov r0, r6
		nop
	}
	ldaw r2, dp[devDesc_Audio2]
	{
		ldc r3, 18
		nop
	}
	bl USB_StandardRequests
.Ltmp166:
	{
		mov r8, r0
		mkmsk r5, 32
	}
.Ltmp167:
.LBB0_82:
	.loc	6 759 13
	{
		eq r0, r8, r5
		nop
	}
	bf r0, .LBB0_86
.Ltmp168:
	.loc	6 764 29
	{
		mov r0, r6
		ldaw r1, sp[26]
	}
	bl XUD_ResetEndpoint
	.loc	6 764 29
	stw r0, dp[g_curUsbSpeed]
	.loc	6 766 13
	ldaw r0, dp[g_currentConfig]
	st8 r9, r0[r9]
	.loc	6 767 13
	stw r9, dp[g_curStreamAlt_Out]
	.loc	6 768 13
	stw r9, dp[g_curStreamAlt_In]
	.loc	6 771 17
.Ltmp169:
	{
		mov r0, r9
		nop
	}
	bl DFUReportResetState
	.loc	6 773 21
.Ltmp170:
	ldw r1, dp[DFU_mode_active]
.Ltmp171:
	.loc	6 771 17
	bf r0, .LBB0_87
.Ltmp172:
	bt r1, .LBB0_86
.Ltmp173:
	.loc	6 775 21
	stw r7, dp[DFU_mode_active]
	bu .LBB0_86
.Ltmp174:
.LBB0_87:
	bf r1, .LBB0_86
.Ltmp175:
	.loc	6 782 21
	stw r9, dp[DFU_mode_active]
	ldw r0, cp[.LCPI0_2]
	.loc	6 785 21
	bl DFUDelay
	{
		nop
		ldw r0, sp[22]
	}
	.loc	6 786 21
	bl device_reboot
	{
		nop
		ldw r8, sp[26]
	}
	bu .LBB0_9
.Ltmp176:
	.cc_bottom Endpoint0.function
	.set	Endpoint0.nstackwords,((XUD_InitEp.nstackwords $M memset.nstackwords $M USB_GetSetupPacket.nstackwords $M UserHostActive.nstackwords $M XUD_ResetEndpoint.nstackwords $M DFUReportResetState.nstackwords $M USB_StandardRequests.nstackwords $M UserAudioStreamStop.nstackwords $M UserAudioStreamStart.nstackwords $M DFUDeviceRequests.nstackwords $M AudioClassRequests_2.nstackwords $M DFUDelay.nstackwords $M device_reboot.nstackwords $M XUD_DoGetRequest.nstackwords) + 38)
	.globl	Endpoint0.nstackwords
	.set	Endpoint0.maxcores,AudioClassRequests_2.maxcores $M DFUDelay.maxcores $M DFUDeviceRequests.maxcores $M DFUReportResetState.maxcores $M USB_GetSetupPacket.maxcores $M USB_StandardRequests.maxcores $M UserAudioStreamStart.maxcores $M UserAudioStreamStop.maxcores $M UserHostActive.maxcores $M XUD_DoGetRequest.maxcores $M XUD_InitEp.maxcores $M XUD_ResetEndpoint.maxcores $M device_reboot.maxcores $M 1
	.globl	Endpoint0.maxcores
	.set	Endpoint0.maxtimers,AudioClassRequests_2.maxtimers $M DFUDelay.maxtimers $M DFUDeviceRequests.maxtimers $M DFUReportResetState.maxtimers $M USB_GetSetupPacket.maxtimers $M USB_StandardRequests.maxtimers $M UserAudioStreamStart.maxtimers $M UserAudioStreamStop.maxtimers $M UserHostActive.maxtimers $M XUD_DoGetRequest.maxtimers $M XUD_InitEp.maxtimers $M XUD_ResetEndpoint.maxtimers $M device_reboot.maxtimers $M 0
	.globl	Endpoint0.maxtimers
	.set	Endpoint0.maxchanends,AudioClassRequests_2.maxchanends $M DFUDelay.maxchanends $M DFUDeviceRequests.maxchanends $M DFUReportResetState.maxchanends $M USB_GetSetupPacket.maxchanends $M USB_StandardRequests.maxchanends $M UserAudioStreamStart.maxchanends $M UserAudioStreamStop.maxchanends $M UserHostActive.maxchanends $M XUD_DoGetRequest.maxchanends $M XUD_InitEp.maxchanends $M XUD_ResetEndpoint.maxchanends $M device_reboot.maxchanends $M 0
	.globl	Endpoint0.maxchanends
.Ltmp177:
	.size	Endpoint0, .Ltmp177-Endpoint0
.Lfunc_end0:
	.cfi_endproc

	.section	.cp.rodata.string,"aMSc",@progbits
	.cc_top .L.str.data,.L.str
	.align	4
	.type	.L.str,@object
	.size	.L.str, 3
.L.str:
.asciiz"\t\004"
	.space	1
	.cc_bottom .L.str.data
	.cc_top .L.str1.data,.L.str1
	.align	4
	.type	.L.str1,@object
	.size	.L.str1, 5
.L.str1:
.asciiz"XMOS"
	.cc_bottom .L.str1.data
	.cc_top .L.str2.data,.L.str2
	.align	4
	.type	.L.str2,@object
	.size	.L.str2, 1
.L.str2:
	.space	1
	.space	3
	.cc_bottom .L.str2.data
	.cc_top .L.str3.data,.L.str3
	.align	4
	.type	.L.str3,@object
	.size	.L.str3, 20
.L.str3:
.asciiz"xCORE USB Audio 2.0"
	.cc_bottom .L.str3.data
	.cc_top .L.str4.data,.L.str4
	.align	4
	.type	.L.str4,@object
	.size	.L.str4, 21
.L.str4:
.asciiz"xCORE USB Audio 2.0 "
	.cc_bottom .L.str4.data
	.cc_top .L.str5.data,.L.str5
	.align	4
	.type	.L.str5,@object
	.size	.L.str5, 20
.L.str5:
.asciiz"XMOS Clock Selector"
	.cc_bottom .L.str5.data
	.cc_top .L.str6.data,.L.str6
	.align	4
	.type	.L.str6,@object
	.size	.L.str6, 20
.L.str6:
.asciiz"XMOS Internal Clock"
	.cc_bottom .L.str6.data
	.cc_top .L.str7.data,.L.str7
	.align	4
	.type	.L.str7,@object
	.size	.L.str7, 9
.L.str7:
.asciiz"XMOS DFU"
	.cc_bottom .L.str7.data
	.cc_top .L.str8.data,.L.str8
	.align	4
	.type	.L.str8,@object
	.size	.L.str8, 14
.L.str8:
.asciiz"XMOS MIDI Out"
	.cc_bottom .L.str8.data
	.cc_top .L.str9.data,.L.str9
	.align	4
	.type	.L.str9,@object
	.size	.L.str9, 13
.L.str9:
.asciiz"XMOS MIDI In"
	.cc_bottom .L.str9.data
	.cc_top .L.str10.data,.L.str10
	.align	4
	.type	.L.str10,@object
	.size	.L.str10, 11
.L.str10:
.asciiz"Analogue 1"
	.cc_bottom .L.str10.data
	.cc_top .L.str11.data,.L.str11
	.align	4
	.type	.L.str11,@object
	.size	.L.str11, 11
.L.str11:
.asciiz"Analogue 2"
	.cc_bottom .L.str11.data
	.cc_top .L.str12.data,.L.str12
	.align	4
	.type	.L.str12,@object
	.size	.L.str12, 11
.L.str12:
.asciiz"Analogue 3"
	.cc_bottom .L.str12.data
	.cc_top .L.str13.data,.L.str13
	.align	4
	.type	.L.str13,@object
	.size	.L.str13, 11
.L.str13:
.asciiz"Analogue 4"
	.cc_bottom .L.str13.data
	.cc_top .L.str14.data,.L.str14
	.align	4
	.type	.L.str14,@object
	.size	.L.str14, 11
.L.str14:
.asciiz"Analogue 5"
	.cc_bottom .L.str14.data
	.cc_top .L.str15.data,.L.str15
	.align	4
	.type	.L.str15,@object
	.size	.L.str15, 11
.L.str15:
.asciiz"Analogue 6"
	.cc_bottom .L.str15.data
	.cc_top .L.str16.data,.L.str16
	.align	4
	.type	.L.str16,@object
	.size	.L.str16, 11
.L.str16:
.asciiz"Analogue 7"
	.cc_bottom .L.str16.data
	.cc_top .L.str17.data,.L.str17
	.align	4
	.type	.L.str17,@object
	.size	.L.str17, 11
.L.str17:
.asciiz"Analogue 8"
	.cc_bottom .L.str17.data
	.cc_top .L.str18.data,.L.str18
	.align	4
	.type	.L.str18,@object
	.size	.L.str18, 8
.L.str18:
.asciiz"SPDIF 1"
	.cc_bottom .L.str18.data
	.cc_top .L.str19.data,.L.str19
	.align	4
	.type	.L.str19,@object
	.size	.L.str19, 8
.L.str19:
.asciiz"SPDIF 2"
	.cc_bottom .L.str19.data
	.cc_top .L.str20.data,.L.str20
	.align	4
	.type	.L.str20,@object
	.size	.L.str20, 14
.L.str20:
.asciiz"iAP Interface"
	.cc_bottom .L.str20.data
	.section	.dp.data,"awd",@progbits
	.cc_top g_strTable.data,g_strTable
	.globl	g_strTable
	.align	8
	.type	g_strTable,@object
	.size	g_strTable, 136
g_strTable:
	.long	.L.str
	.long	.L.str1
	.long	.L.str2
	.long	.L.str3
	.long	.L.str4
	.long	.L.str4
	.long	.L.str4
	.long	.L.str4
	.long	.L.str5
	.long	.L.str6
	.long	.L.str7
	.long	.L.str8
	.long	.L.str9
	.long	.L.str10
	.long	.L.str11
	.long	.L.str12
	.long	.L.str13
	.long	.L.str14
	.long	.L.str15
	.long	.L.str16
	.long	.L.str17
	.long	.L.str18
	.long	.L.str19
	.long	.L.str10
	.long	.L.str11
	.long	.L.str12
	.long	.L.str13
	.long	.L.str14
	.long	.L.str15
	.long	.L.str16
	.long	.L.str17
	.long	.L.str2
	.long	.L.str2
	.long	.L.str20
	.cc_bottom g_strTable.data
	.cc_top devDesc_Audio2.data,devDesc_Audio2
	.globl	devDesc_Audio2
	.align	8
	.type	devDesc_Audio2,@object
	.size	devDesc_Audio2, 18
devDesc_Audio2:
	.byte	18
	.byte	1
	.short	512
	.byte	239
	.byte	2
	.byte	1
	.byte	64
	.short	8369
	.short	8
	.short	1778
	.byte	1
	.byte	3
	.byte	0
	.byte	2
	.cc_bottom devDesc_Audio2.data
	.cc_top devDesc_Null.data,devDesc_Null
	.globl	devDesc_Null.globound
devDesc_Null.globound = 18
	.globl	devDesc_Null
	.align	8
	.type	devDesc_Null,@object
	.size	devDesc_Null, 18
devDesc_Null:
	.ascii	"\022\001\000\002\000\000\000@\261 \b\000\362\006\001\003\000\001"
	.cc_bottom devDesc_Null.data
	.cc_top devQualDesc_Audio2.data,devQualDesc_Audio2
	.globl	devQualDesc_Audio2.globound
devQualDesc_Audio2.globound = 10
	.globl	devQualDesc_Audio2
	.align	8
	.type	devQualDesc_Audio2,@object
	.size	devQualDesc_Audio2, 10
devQualDesc_Audio2:
.asciiz"\n\006\000\002\357\002\001@\001"
	.cc_bottom devQualDesc_Audio2.data
	.cc_top devQualDesc_Null.data,devQualDesc_Null
	.globl	devQualDesc_Null.globound
devQualDesc_Null.globound = 10
	.globl	devQualDesc_Null
	.align	8
	.type	devQualDesc_Null,@object
	.size	devQualDesc_Null, 10
devQualDesc_Null:
.asciiz"\n\006\000\002\000\000\000@\001"
	.cc_bottom devQualDesc_Null.data
	.cc_top hidReportDescriptor.data,hidReportDescriptor
	.globl	hidReportDescriptor.globound
hidReportDescriptor.globound = 33
	.globl	hidReportDescriptor
	.align	8
	.type	hidReportDescriptor,@object
	.size	hidReportDescriptor, 33
hidReportDescriptor:
	.ascii	"\005\f\t\001\241\001\025\000%\001\t\260\t\265\t\266\t\351\t\352\t\342u\001\225\006\201\002\225\002\201\001\300"
	.cc_bottom hidReportDescriptor.data
	.cc_top cfgDesc_Audio2.data,cfgDesc_Audio2
	.globl	cfgDesc_Audio2
	.align	8
	.type	cfgDesc_Audio2,@object
	.size	cfgDesc_Audio2, 500
cfgDesc_Audio2:
	.byte	9
	.byte	2
	.short	500
	.byte	7
	.byte	1
	.byte	0
	.byte	192
	.byte	0
	.byte	8
	.byte	11
	.byte	0
	.byte	3
	.byte	1
	.byte	0
	.byte	32
	.byte	0
	.byte	9
	.byte	4
	.byte	0
	.byte	0
	.byte	0
	.byte	1
	.byte	1
	.byte	32
	.byte	3
	.byte	9
	.byte	36
	.byte	1
	.short	512
	.byte	8
	.short	183
	.byte	0
	.byte	8
	.byte	36
	.byte	10
	.byte	41
	.byte	3
	.byte	7
	.byte	0
	.byte	9
	.byte	8
	.byte	36
	.byte	11
	.byte	40
	.byte	1
	.byte	41
	.byte	3
	.byte	8
	.byte	17
	.byte	36
	.byte	2
	.byte	2
	.short	257
	.byte	0
	.byte	40
	.byte	10
	.long	0
	.byte	13
	.short	0
	.byte	6
	.byte	50
	.byte	36
	.byte	6
	.byte	10
	.byte	2
	.long	15
	.long	15
	.long	15
	.long	15
	.long	15
	.long	15
	.long	15
	.long	15
	.long	15
	.long	15
	.long	15
	.byte	0
	.byte	12
	.byte	36
	.byte	3
	.byte	20
	.short	769
	.byte	0
	.byte	10
	.byte	40
	.short	0
	.byte	0
	.byte	17
	.byte	36
	.byte	2
	.byte	1
	.short	513
	.byte	0
	.byte	40
	.byte	10
	.long	0
	.byte	23
	.short	0
	.byte	0
	.byte	50
	.byte	36
	.byte	6
	.byte	11
	.byte	1
	.long	15
	.long	15
	.long	15
	.long	15
	.long	15
	.long	15
	.long	15
	.long	15
	.long	15
	.long	15
	.long	15
	.byte	0
	.byte	12
	.byte	36
	.byte	3
	.byte	22
	.short	257
	.byte	0
	.byte	11
	.byte	40
	.short	0
	.byte	7
	.byte	9
	.byte	4
	.byte	1
	.byte	0
	.byte	0
	.byte	1
	.byte	2
	.byte	32
	.byte	4
	.byte	9
	.byte	4
	.byte	1
	.byte	1
	.byte	1
	.byte	1
	.byte	2
	.byte	32
	.byte	4
	.byte	16
	.byte	36
	.byte	1
	.byte	2
	.byte	0
	.byte	1
	.long	1
	.byte	10
	.long	0
	.byte	13
	.byte	6
	.byte	36
	.byte	2
	.byte	1
	.byte	4
	.byte	24
	.byte	7
	.byte	5
	.byte	1
	.byte	5
	.short	1000
	.byte	1
	.byte	8
	.byte	37
	.byte	1
	.byte	0
	.byte	0
	.byte	2
	.short	8
	.byte	9
	.byte	4
	.byte	1
	.byte	2
	.byte	1
	.byte	1
	.byte	2
	.byte	32
	.byte	4
	.byte	16
	.byte	36
	.byte	1
	.byte	2
	.byte	0
	.byte	1
	.long	1
	.byte	10
	.long	0
	.byte	13
	.byte	6
	.byte	36
	.byte	2
	.byte	1
	.byte	2
	.byte	16
	.byte	7
	.byte	5
	.byte	1
	.byte	5
	.short	500
	.byte	1
	.byte	8
	.byte	37
	.byte	1
	.byte	0
	.byte	0
	.byte	2
	.short	8
	.byte	9
	.byte	4
	.byte	2
	.byte	0
	.byte	0
	.byte	1
	.byte	2
	.byte	32
	.byte	5
	.byte	9
	.byte	4
	.byte	2
	.byte	1
	.byte	1
	.byte	1
	.byte	2
	.byte	32
	.byte	5
	.byte	16
	.byte	36
	.byte	1
	.byte	22
	.byte	0
	.byte	1
	.long	1
	.byte	10
	.long	0
	.byte	23
	.byte	6
	.byte	36
	.byte	2
	.byte	1
	.byte	4
	.byte	24
	.byte	7
	.byte	5
	.byte	129
	.byte	37
	.short	1000
	.byte	1
	.byte	8
	.byte	37
	.byte	1
	.byte	0
	.byte	0
	.byte	2
	.short	8
	.ascii	"\t\004\003\000\000\001\001\000\000\t$\001\000\001\t\000\001\001\t\004\004\000\002\001\003\000\000\007$\001\000\001A\000\006$\002\001\001\000\006$\002\002\002\f\t$\003\001\003\001\002\001\000\t$\003\002\004\001\001\001\013\t\005\002\002\000\002\000\000\000\005%\001\001\001\t\005\202\002\000\002\000\000\000\005%\001\001\003"
	.ascii	"\t\004\005\000\000\376\001\001\n\t!\007\372\000@\000\020\001"
	.byte	9
	.byte	4
	.byte	6
	.byte	0
	.byte	1
	.byte	3
	.byte	0
	.byte	0
	.byte	0
.asciiz"\t!\020\001\000\001\"!"
	.byte	7
	.byte	5
	.byte	131
	.byte	3
	.short	64
	.byte	8
	.cc_bottom cfgDesc_Audio2.data
	.cc_top hidDescriptor.data,hidDescriptor
	.globl	hidDescriptor.globound
hidDescriptor.globound = 9
	.globl	hidDescriptor
	.align	8
	.type	hidDescriptor,@object
	.size	hidDescriptor, 9
hidDescriptor:
.asciiz"\t!\020\001\000\001\"!"
	.cc_bottom hidDescriptor.data
	.cc_top cfgDesc_Null.data,cfgDesc_Null
	.globl	cfgDesc_Null.globound
cfgDesc_Null.globound = 19
	.globl	cfgDesc_Null
	.align	8
	.type	cfgDesc_Null,@object
	.size	cfgDesc_Null, 19
cfgDesc_Null:
	.ascii	"\t\002\022\000\001\001\000\300\000\t\004\000\000\000\000\000\000\000\t"
	.cc_bottom cfgDesc_Null.data
	.cc_top DFUdevDesc.data,DFUdevDesc
	.globl	DFUdevDesc.globound
DFUdevDesc.globound = 18
	.globl	DFUdevDesc
	.align	8
	.type	DFUdevDesc,@object
	.size	DFUdevDesc, 18
DFUdevDesc:
	.ascii	"\022\001\000\002\000\000\000@\261 \b\000\362\006\001\003\000\001"
	.cc_bottom DFUdevDesc.data
	.cc_top DFUcfgDesc.data,DFUcfgDesc
	.globl	DFUcfgDesc.globound
DFUcfgDesc.globound = 27
	.globl	DFUcfgDesc
	.align	8
	.type	DFUcfgDesc,@object
	.size	DFUcfgDesc, 27
DFUcfgDesc:
	.ascii	"\t\002\033\000\001\001\000\3002\t\004\000\000\000\376\001\002\000\t!\007\372\000@\000\020\001"
	.cc_bottom DFUcfgDesc.data
	.section	.dp.bss.4,"awd",@nobits
	.cc_top DFU_mode_active.data,DFU_mode_active
	.globl	DFU_mode_active
	.align	4
	.type	DFU_mode_active,@object
	.size	DFU_mode_active, 4
DFU_mode_active:
	.long	0
	.cc_bottom DFU_mode_active.data
	.cc_top g_curStreamAlt_Out.data,g_curStreamAlt_Out
	.globl	g_curStreamAlt_Out
	.align	4
	.type	g_curStreamAlt_Out,@object
	.size	g_curStreamAlt_Out, 4
g_curStreamAlt_Out:
	.long	0
	.cc_bottom g_curStreamAlt_Out.data
	.cc_top g_curStreamAlt_In.data,g_curStreamAlt_In
	.globl	g_curStreamAlt_In
	.align	4
	.type	g_curStreamAlt_In,@object
	.size	g_curStreamAlt_In, 4
g_curStreamAlt_In:
	.long	0
	.cc_bottom g_curStreamAlt_In.data
	.cc_top g_curUsbSpeed.data,g_curUsbSpeed
	.globl	g_curUsbSpeed
	.align	4
	.type	g_curUsbSpeed,@object
	.size	g_curUsbSpeed, 4
g_curUsbSpeed:
	.long	0
	.cc_bottom g_curUsbSpeed.data
	.section	.cp.rodata,"ac",@progbits
	.cc_top g_subSlot_Out_HS.data,g_subSlot_Out_HS
	.globl	g_subSlot_Out_HS.globound
g_subSlot_Out_HS.globound = 2
	.globl	g_subSlot_Out_HS
	.align	8
	.type	g_subSlot_Out_HS,@object
	.size	g_subSlot_Out_HS, 8
g_subSlot_Out_HS:
	.long	4
	.long	2
	.cc_bottom g_subSlot_Out_HS.data
	.cc_top g_subSlot_Out_FS.data,g_subSlot_Out_FS
	.globl	g_subSlot_Out_FS.globound
g_subSlot_Out_FS.globound = 2
	.globl	g_subSlot_Out_FS
	.align	8
	.type	g_subSlot_Out_FS,@object
	.size	g_subSlot_Out_FS, 8
g_subSlot_Out_FS:
	.long	3
	.long	2
	.cc_bottom g_subSlot_Out_FS.data
	.cc_top g_subSlot_In_HS.data,g_subSlot_In_HS
	.globl	g_subSlot_In_HS.globound
g_subSlot_In_HS.globound = 1
	.globl	g_subSlot_In_HS
	.align	8
	.type	g_subSlot_In_HS,@object
	.size	g_subSlot_In_HS, 4
g_subSlot_In_HS:
	.long	4
	.cc_bottom g_subSlot_In_HS.data
	.cc_top g_subSlot_In_FS.data,g_subSlot_In_FS
	.globl	g_subSlot_In_FS.globound
g_subSlot_In_FS.globound = 1
	.globl	g_subSlot_In_FS
	.align	8
	.type	g_subSlot_In_FS,@object
	.size	g_subSlot_In_FS, 4
g_subSlot_In_FS:
	.long	3
	.cc_bottom g_subSlot_In_FS.data
	.cc_top g_sampRes_Out_HS.data,g_sampRes_Out_HS
	.globl	g_sampRes_Out_HS.globound
g_sampRes_Out_HS.globound = 2
	.globl	g_sampRes_Out_HS
	.align	8
	.type	g_sampRes_Out_HS,@object
	.size	g_sampRes_Out_HS, 8
g_sampRes_Out_HS:
	.long	24
	.long	16
	.cc_bottom g_sampRes_Out_HS.data
	.cc_top g_sampRes_Out_FS.data,g_sampRes_Out_FS
	.globl	g_sampRes_Out_FS.globound
g_sampRes_Out_FS.globound = 2
	.globl	g_sampRes_Out_FS
	.align	8
	.type	g_sampRes_Out_FS,@object
	.size	g_sampRes_Out_FS, 8
g_sampRes_Out_FS:
	.long	24
	.long	16
	.cc_bottom g_sampRes_Out_FS.data
	.cc_top g_sampRes_In_HS.data,g_sampRes_In_HS
	.globl	g_sampRes_In_HS.globound
g_sampRes_In_HS.globound = 1
	.globl	g_sampRes_In_HS
	.align	8
	.type	g_sampRes_In_HS,@object
	.size	g_sampRes_In_HS, 4
g_sampRes_In_HS:
	.long	24
	.cc_bottom g_sampRes_In_HS.data
	.cc_top g_sampRes_In_FS.data,g_sampRes_In_FS
	.globl	g_sampRes_In_FS.globound
g_sampRes_In_FS.globound = 1
	.globl	g_sampRes_In_FS
	.align	8
	.type	g_sampRes_In_FS,@object
	.size	g_sampRes_In_FS, 4
g_sampRes_In_FS:
	.long	24
	.cc_bottom g_sampRes_In_FS.data
	.cc_top g_dataFormat_Out.data,g_dataFormat_Out
	.globl	g_dataFormat_Out.globound
g_dataFormat_Out.globound = 2
	.globl	g_dataFormat_Out
	.align	8
	.type	g_dataFormat_Out,@object
	.size	g_dataFormat_Out, 8
g_dataFormat_Out:
	.long	1
	.long	1
	.cc_bottom g_dataFormat_Out.data
	.cc_top g_dataFormat_In.data,g_dataFormat_In
	.globl	g_dataFormat_In.globound
g_dataFormat_In.globound = 1
	.globl	g_dataFormat_In
	.align	8
	.type	g_dataFormat_In,@object
	.size	g_dataFormat_In, 4
g_dataFormat_In:
	.long	1
	.cc_bottom g_dataFormat_In.data
	.cc_top g_chanCount_In_HS.data,g_chanCount_In_HS
	.globl	g_chanCount_In_HS.globound
g_chanCount_In_HS.globound = 1
	.globl	g_chanCount_In_HS
	.align	8
	.type	g_chanCount_In_HS,@object
	.size	g_chanCount_In_HS, 4
g_chanCount_In_HS:
	.long	10
	.cc_bottom g_chanCount_In_HS.data
	.section	.dp.bss,"awd",@nobits
	.cc_top volsOut.data,volsOut
	.globl	volsOut.globound
volsOut.globound = 11
	.globl	volsOut
	.align	8
	.type	volsOut,@object
	.size	volsOut, 44
volsOut:
	.space	44
	.cc_bottom volsOut.data
	.cc_top mutesOut.data,mutesOut
	.globl	mutesOut.globound
mutesOut.globound = 11
	.globl	mutesOut
	.align	8
	.type	mutesOut,@object
	.size	mutesOut, 44
mutesOut:
	.space	44
	.cc_bottom mutesOut.data
	.cc_top volsIn.data,volsIn
	.globl	volsIn.globound
volsIn.globound = 11
	.globl	volsIn
	.align	8
	.type	volsIn,@object
	.size	volsIn, 44
volsIn:
	.space	44
	.cc_bottom volsIn.data
	.cc_top mutesIn.data,mutesIn
	.globl	mutesIn.globound
mutesIn.globound = 11
	.globl	mutesIn
	.align	8
	.type	mutesIn,@object
	.size	mutesIn, 44
mutesIn:
	.space	44
	.cc_bottom mutesIn.data
	.cc_top mixer1Weights.data,mixer1Weights
	.globl	mixer1Weights.globound
mixer1Weights.globound = 144
	.globl	mixer1Weights
	.align	8
	.type	mixer1Weights,@object
	.size	mixer1Weights, 288
mixer1Weights:
	.space	288
	.cc_bottom mixer1Weights.data
	.cc_top channelMapAud.data,channelMapAud
	.globl	channelMapAud.globound
channelMapAud.globound = 10
	.globl	channelMapAud
	.align	8
	.type	channelMapAud,@object
	.size	channelMapAud, 10
channelMapAud:
	.space	10
	.cc_bottom channelMapAud.data
	.cc_top channelMapUsb.data,channelMapUsb
	.globl	channelMapUsb.globound
channelMapUsb.globound = 10
	.globl	channelMapUsb
	.align	8
	.type	channelMapUsb,@object
	.size	channelMapUsb, 10
channelMapUsb:
	.space	10
	.cc_bottom channelMapUsb.data
	.cc_top channelMap.data,channelMap
	.globl	channelMap.globound
channelMap.globound = 20
	.globl	channelMap
	.align	8
	.type	channelMap,@object
	.size	channelMap, 20
channelMap:
	.space	20
	.cc_bottom channelMap.data
	.cc_top mixSel.data,mixSel
	.globl	mixSel.globound
mixSel.globound = 0
	.globl	mixSel
	.align	8
	.type	mixSel,@object
	.size	mixSel, 0
mixSel:
	.space	4
	.cc_bottom mixSel.data
	.cc_top mixer1Crossbar.data,mixer1Crossbar
	.globl	mixer1Crossbar.globound
mixer1Crossbar.globound = 18
	.globl	mixer1Crossbar
	.align	8
	.type	mixer1Crossbar,@object
	.size	mixer1Crossbar, 18
mixer1Crossbar:
	.space	18
	.cc_bottom mixer1Crossbar.data
	.section	.cp.rodata,"ac",@progbits
.Ldebug_end0:
	.section	.dp.bss.4,"awd",@nobits
.Ldebug_end1:
	.section	.dp.bss,"awd",@nobits
.Ldebug_end2:
	.section	.dp.data,"awd",@progbits
.Ldebug_end3:
	.text
.Ldebug_end4:
	.file	10 "/Applications/XMOS_xTIMEcomposer_Community_14.3.2/target/include/xccompat.h"
	.file	11 "/Users/rkn/Documents/xTIMEcomposer/workspace/module_usb_shared/src/usb_std_requests.h"
	.section	.trap_info,"",@progbits
.Ltrap_info_entries_start0:
	.long	.Ltrap_info_entries_end0-.Ltrap_info_entries_start0
	.long	1
.Ltrap_info_entries_end0: