	.text
	.file	"/Users/rkn/Documents/xTIMEcomposer/workspace/module_usb_audio/usb_buffer/usb_buffer.xc"
                                        # Start of file scope inline assembly
	.inline_definition delay_seconds
	.inline_definition delay_milliseconds
	.inline_definition delay_microseconds
	.inline_definition midi_get_ack_or_data
	.inline_definition midi_send_ack
	.inline_definition array_to_xc_ptr
	.inline_definition XUD_SetReady_Out
	.inline_definition XUD_SetReady_OutPtr
	.inline_definition XUD_SetReady_InPtr
	.inline_definition XUD_SetReady_In
	.set usage.anon.0,0
	.set usage.anon.1,0
	.set usage.anon.2,0
	.set usage.anon.3,0
	.set usage.anon.4,0
	.set usage.anon.5,0
	.set usage.anon.6,0
	.set usage.anon.7,0
	.set usage.anon.8,0
	.set usage.anon.9,0
	.set usage.anon.10,0
	.set usage.anon.11,0
	.set usage.anon.12,0
	.set usage.anon.13,0
	.set usage.anon.14,0
	.globread buffer,fb_clocks,"/Users/rkn/Documents/xTIMEcomposer/workspace/module_usb_audio/usb_buffer/usb_buffer.xc:242:6: note: object used here\n    (fb_clocks, unsigned[])[0] = 0;\n     ^~~~~~~~~"
	.globread buffer,usage.anon.14,"/Users/rkn/Documents/xTIMEcomposer/workspace/module_usb_audio/usb_buffer/usb_buffer.xc:186:52: note: object used here\n    xc_ptr midi_from_host_buffer = array_to_xc_ptr(g_midi_from_host_buffer);\n                                                   ^~~~~~~~~~~~~~~~~~~~~~~"
	.globread buffer,usage.anon.13,"/Users/rkn/Documents/xTIMEcomposer/workspace/module_usb_audio/usb_buffer/usb_buffer.xc:190:66: note: object used here\n    xc_ptr midi_to_host_buffer_being_collected = array_to_xc_ptr(g_midi_to_host_buffer_B);\n                                                                 ^~~~~~~~~~~~~~~~~~~~~~~"
	.globread buffer,usage.anon.12,"/Users/rkn/Documents/xTIMEcomposer/workspace/module_usb_audio/usb_buffer/usb_buffer.xc:189:61: note: object used here\n    xc_ptr midi_to_host_buffer_being_sent = array_to_xc_ptr(g_midi_to_host_buffer_A);\n                                                            ^~~~~~~~~~~~~~~~~~~~~~~"
	.globwrite buffer,fb_clocks,0,4,"/Users/rkn/Documents/xTIMEcomposer/workspace/module_usb_audio/usb_buffer/usb_buffer.xc:242:5: note: object used here (bytes 0..4)\n    (fb_clocks, unsigned[])[0] = 0;\n    ^~~~~~~~~~~~~~~~~~~~~~~~~~"
	.globwrite buffer,g_speed,"/Users/rkn/Documents/xTIMEcomposer/workspace/module_usb_audio/usb_buffer/usb_buffer.xc:330:29: note: object used here\n                            g_speed = mid<<16;\n                            ^~~~~~~"
	.globwrite buffer,g_hidData,"/Users/rkn/Documents/xTIMEcomposer/workspace/module_usb_audio/usb_buffer/usb_buffer.xc:258:29: note: object used here\n    XUD_SetReady_In(ep_hid, g_hidData, 1);\n                            ^~~~~~~~~"
	.call buffer,usage.anon.9
	.call buffer,usage.anon.8
	.call buffer,usage.anon.7
	.call buffer,usage.anon.5
	.call buffer,usage.anon.4
	.call buffer,usage.anon.3
	.call buffer,usage.anon.11
	.call buffer,usage.anon.10
	.call buffer,XUD_SetData_Select
	.call buffer,XUD_InitEp
	.call buffer,XUD_GetData_Select
	.call buffer,UserReadHIDButtons
	.call buffer,GetADCCounts
	.call usage.anon.9,usage.anon.8
	.call usage.anon.2,delay_ticks_longlong
	.call usage.anon.1,delay_ticks_longlong
	.call usage.anon.0,delay_ticks_longlong
	.set usage.anon.3.locnoside, 0
	.set usage.anon.4.locnoside, 0
	.set usage.anon.5.locnoside, 0
	.set usage.anon.6.locnoside, 0
	.set usage.anon.9.locnoside, 0
	.set usage.anon.10.locnoside, 0
	.set usage.anon.11.locnoside, 0
	.set buffer.locnoside, 0
	.set buffer.locnoglobalaccess, 0
	.globpassesref usage.anon.9, g_hidData,"/Users/rkn/Documents/xTIMEcomposer/workspace/module_usb_audio/usb_buffer/usb_buffer.xc:730:17: error: call to `XUD_SetReady_In\' in `buffer\' makes alias of global \'g_hidData\'\n                XUD_SetReady_In(ep_hid, g_hidData, 1);\n                ^~~~~~~~~~~~~~~~~~~~~~~~~~~~~~~~~~~~~"
	.globpassesref UserReadHIDButtons, g_hidData,"/Users/rkn/Documents/xTIMEcomposer/workspace/module_usb_audio/usb_buffer/usb_buffer.xc:729:17: error: call to `UserReadHIDButtons\' in `buffer\' makes alias of global \'g_hidData\'\n                UserReadHIDButtons(g_hidData);\n                ^~~~~~~~~~~~~~~~~~~~~~~~~~~~~"
	.globpassesref usage.anon.9, g_hidData,"/Users/rkn/Documents/xTIMEcomposer/workspace/module_usb_audio/usb_buffer/usb_buffer.xc:258:5: error: call to `XUD_SetReady_In\' in `buffer\' makes alias of global \'g_hidData\'\n    XUD_SetReady_In(ep_hid, g_hidData, 1);\n    ^~~~~~~~~~~~~~~~~~~~~~~~~~~~~~~~~~~~~"
	.globpassesref usage.anon.5, usage.anon.13,"/Users/rkn/Documents/xTIMEcomposer/workspace/module_usb_audio/usb_buffer/usb_buffer.xc:190:50: error: call to `array_to_xc_ptr\' in `buffer\' makes alias of global \'g_midi_to_host_buffer_B\'\n    xc_ptr midi_to_host_buffer_being_collected = array_to_xc_ptr(g_midi_to_host_buffer_B);\n                                                 ^~~~~~~~~~~~~~~~~~~~~~~~~~~~~~~~~~~~~~~~"
	.globpassesref usage.anon.5, usage.anon.12,"/Users/rkn/Documents/xTIMEcomposer/workspace/module_usb_audio/usb_buffer/usb_buffer.xc:189:45: error: call to `array_to_xc_ptr\' in `buffer\' makes alias of global \'g_midi_to_host_buffer_A\'\n    xc_ptr midi_to_host_buffer_being_sent = array_to_xc_ptr(g_midi_to_host_buffer_A);\n                                            ^~~~~~~~~~~~~~~~~~~~~~~~~~~~~~~~~~~~~~~~"
	.globpassesref usage.anon.5, usage.anon.14,"/Users/rkn/Documents/xTIMEcomposer/workspace/module_usb_audio/usb_buffer/usb_buffer.xc:186:36: error: call to `array_to_xc_ptr\' in `buffer\' makes alias of global \'g_midi_from_host_buffer\'\n    xc_ptr midi_from_host_buffer = array_to_xc_ptr(g_midi_from_host_buffer);\n                                   ^~~~~~~~~~~~~~~~~~~~~~~~~~~~~~~~~~~~~~~~"

                                        # End of file scope inline assembly
	.section	.cp.rodata.cst4,"aMc",@progbits,4
	.cc_top .LCPI0_0.data,.LCPI0_0
	.align	4
	.type	.LCPI0_0,@object
	.size	.LCPI0_0, 4
.LCPI0_0:
	.long	24576000                # 0x1770000
	.cc_bottom .LCPI0_0.data
	.cc_top .LCPI0_1.data,.LCPI0_1
	.align	4
	.type	.LCPI0_1,@object
	.size	.LCPI0_1, 4
.LCPI0_1:
	.long	4294967292              # 0xfffffffc
	.cc_bottom .LCPI0_1.data
	.cc_top .LCPI0_2.data,.LCPI0_2
	.align	4
	.type	.LCPI0_2,@object
	.size	.LCPI0_2, 4
.LCPI0_2:
	.long	305419896               # 0x12345678
	.cc_bottom .LCPI0_2.data
	.cc_top .LCPI0_3.data,.LCPI0_3
	.align	4
	.type	.LCPI0_3,@object
	.size	.LCPI0_3, 4
.LCPI0_3:
	.long	22579200                # 0x1588800
	.cc_bottom .LCPI0_3.data
	.text
	.globl	buffer
	.align	4
	.type	buffer,@function
	.cc_top buffer.function,buffer
buffer:                                 # @buffer
.Lfunc_begin0:
	.loc	1 134 0                 # /Users/rkn/Documents/xTIMEcomposer/workspace/module_usb_audio/usb_buffer/usb_buffer.xc:134:0
	.cfi_startproc
	.issue_mode dual
# BB#0:                                 # %allocas
.Lxtalabel0:
	{
		nop
		dualentsp 44
	}
.Ltmp0:
	.cfi_def_cfa_offset 176
.Ltmp1:
	.cfi_offset 15, 0
	{
		nop
		stw r4, sp[36]
	}
	{
		nop
		stw r5, sp[37]
	}
.Ltmp2:
	.cfi_offset 4, -32
.Ltmp3:
	.cfi_offset 5, -28
	{
		nop
		stw r6, sp[38]
	}
	{
		nop
		stw r7, sp[39]
	}
.Ltmp4:
	.cfi_offset 6, -24
.Ltmp5:
	.cfi_offset 7, -20
	{
		nop
		stw r8, sp[40]
	}
	{
		nop
		stw r9, sp[41]
	}
.Ltmp6:
	.cfi_offset 8, -16
.Ltmp7:
	.cfi_offset 9, -12
.Ltmp8:
	.cfi_offset 10, -8
	#DEBUG_VALUE: buffer:c_aud_out <- R0
	#DEBUG_VALUE: buffer:c_aud_in <- R1
	#DEBUG_VALUE: buffer:c_midi_from_host <- R2
	#DEBUG_VALUE: buffer:c_midi_to_host <- R3
.Ltmp9:
	#DEBUG_VALUE: buffer:c_midi_to_host <- R8
	{
		mov r8, r3
		stw r10, sp[42]
	}
.Ltmp10:
	#DEBUG_VALUE: buffer:c_midi_from_host <- R5
	{
		mov r5, r2
		stw r8, sp[18]
	}
.Ltmp11:
	#DEBUG_VALUE: buffer:c_aud_in <- R6
	{
		mov r6, r1
		stw r5, sp[29]
	}
.Ltmp12:
	{
		nop
		stw r6, sp[28]
	}
	{
		nop
		stw r0, sp[27]
	}
	{
		nop
		ldw r1, sp[48]
	}
	{
		nop
		ldw r7, sp[49]
	}
	#DEBUG_VALUE: buffer:c_hid <- R7
	#DEBUG_VALUE: buffer:p_off_mclk <- [SP+56]
	{
		nop
		stw r1, sp[14]
	}
	{
		nop
		stw r7, sp[26]
	}
	{
		nop
		ldw r1, sp[46]
	}
	{
		nop
		ldw r4, sp[47]
	}
	#DEBUG_VALUE: buffer:c_aud_ctl <- R4
	#DEBUG_VALUE: buffer:c_sof <- [SP+120]
	{
		nop
		stw r4, sp[25]
	}
	{
		nop
		stw r1, sp[30]
	}
.Ltmp13:
	#DEBUG_VALUE: buffer:c_aud_out <- [SP+108]
	.loc	1 135 0 prologue_end    # /Users/rkn/Documents/xTIMEcomposer/workspace/module_usb_audio/usb_buffer/usb_buffer.xc:135:0
.Lxta.call_labels0:
	bl XUD_InitEp
	{
		mov r9, r0
		nop
	}
.Ltmp14:
	#DEBUG_VALUE: ep_aud_out <- R9
	#DEBUG_VALUE: buffer:c_aud_in <- [SP+112]
	.loc	1 136 0                 # /Users/rkn/Documents/xTIMEcomposer/workspace/module_usb_audio/usb_buffer/usb_buffer.xc:136:0
	{
		mov r0, r6
		stw r9, sp[13]
	}
.Lxta.call_labels1:
	bl XUD_InitEp
	{
		mov r6, r0
		nop
	}
.Ltmp15:
	#DEBUG_VALUE: ep_aud_in <- R6
	#DEBUG_VALUE: buffer:c_midi_from_host <- [SP+116]
	.loc	1 141 0                 # /Users/rkn/Documents/xTIMEcomposer/workspace/module_usb_audio/usb_buffer/usb_buffer.xc:141:0
	{
		mov r0, r5
		stw r6, sp[12]
	}
.Lxta.call_labels2:
	bl XUD_InitEp
	{
		mov r5, r0
		nop
	}
.Ltmp16:
	#DEBUG_VALUE: ep_midi_from_host <- R5
	#DEBUG_VALUE: XUD_SetReady_OutPtr:ep <- R5
	#DEBUG_VALUE: XUD_SetReady_OutPtr:ep <- R5
	.loc	1 142 0                 # /Users/rkn/Documents/xTIMEcomposer/workspace/module_usb_audio/usb_buffer/usb_buffer.xc:142:0
	{
		mov r0, r8
		stw r5, sp[20]
	}
.Lxta.call_labels3:
	bl XUD_InitEp
.Ltmp17:
	#DEBUG_VALUE: ep_midi_to_host <- [SP+92]
	#DEBUG_VALUE: XUD_SetReady_InPtr:ep <- [SP+92]
	#DEBUG_VALUE: XUD_SetReady_InPtr:ep <- [SP+92]
	#DEBUG_VALUE: buffer:c_hid <- [SP+104]
	{
		mov r0, r7
		stw r0, sp[23]
	}
	.loc	1 160 0                 # /Users/rkn/Documents/xTIMEcomposer/workspace/module_usb_audio/usb_buffer/usb_buffer.xc:160:0
.Ltmp18:
.Lxta.call_labels4:
	bl XUD_InitEp
.Ltmp19:
	#DEBUG_VALUE: aud_from_host_buffer <- 0
	#DEBUG_VALUE: mod_from_last_time <- 0
	#DEBUG_VALUE: freqChange <- 0
	#DEBUG_VALUE: sofCount <- 0
	#DEBUG_VALUE: remnant <- 0
	#DEBUG_VALUE: bufferIn <- 1
	#DEBUG_VALUE: clockcounter <- 0
	#DEBUG_VALUE: clocks <- 0
	#DEBUG_VALUE: lastClock <- 0
	#DEBUG_VALUE: masterClockFreq <- 24576000
	#DEBUG_VALUE: sampleFreq <- 48000
	#DEBUG_VALUE: ep_hid <- R0
	#DEBUG_VALUE: XUD_SetReady_In:ep <- R0
	#DEBUG_VALUE: XUD_SetReady_InPtr:ep <- R0
	#DEBUG_VALUE: XUD_SetReady_In:ep <- R0
	#DEBUG_VALUE: XUD_SetReady_InPtr:ep <- R0
	.file	3 "/Users/rkn/Documents/xTIMEcomposer/workspace/module_usb_audio/usb_buffer/xc_ptr.h"
	.loc	3 13 0                  # /Users/rkn/Documents/xTIMEcomposer/workspace/module_usb_audio/usb_buffer/xc_ptr.h:13:0
	ldaw r1, dp[g_midi_from_host_buffer]
	#APP
	mov r1, r1
	#NO_APP
.Ltmp20:
	#DEBUG_VALUE: midi_waiting_on_send_to_host <- 0
	#DEBUG_VALUE: midi_data_collected_from_device <- 0
	#DEBUG_VALUE: midi_data_remaining_to_device <- 0
	#DEBUG_VALUE: swap:a <- R1
	#DEBUG_VALUE: swap:a <- R1
	#DEBUG_VALUE: midi_to_host_buffer_being_collected <- R1
	#DEBUG_VALUE: x <- R1
	#DEBUG_VALUE: swap:b <- R0
	#DEBUG_VALUE: swap:b <- R0
	#DEBUG_VALUE: midi_to_host_buffer_being_sent <- R0
	#DEBUG_VALUE: x <- R0
	#DEBUG_VALUE: midi_from_host_buffer <- [SP+32]
	#DEBUG_VALUE: x <- [SP+32]
	#DEBUG_VALUE: XUD_SetReady_OutPtr:addr <- [SP+32]
	#DEBUG_VALUE: midi_from_host_rdptr <- [SP+32]
	#DEBUG_VALUE: XUD_SetReady_OutPtr:addr <- [SP+32]
	{
		nop
		stw r1, sp[8]
	}
.Ltmp21:
	.loc	1 226 0                 # /Users/rkn/Documents/xTIMEcomposer/workspace/module_usb_audio/usb_buffer/usb_buffer.xc:226:0
	#APP
	stw r9, dp[aud_from_host_usb_ep]
	#NO_APP
.Ltmp22:
	#DEBUG_VALUE: ep_aud_out <- [SP+52]
	.loc	1 227 0                 # /Users/rkn/Documents/xTIMEcomposer/workspace/module_usb_audio/usb_buffer/usb_buffer.xc:227:0
	#APP
	stw r6, dp[aud_to_host_usb_ep]
	#NO_APP
.Ltmp23:
	#DEBUG_VALUE: ep_aud_in <- [SP+48]
	.loc	1 228 0                 # /Users/rkn/Documents/xTIMEcomposer/workspace/module_usb_audio/usb_buffer/usb_buffer.xc:228:0
	#APP
	stw r4, dp[buffer_aud_ctl_chan]
	#NO_APP
.Ltmp24:
	#DEBUG_VALUE: buffer:c_aud_ctl <- [SP+100]
	{
		mkmsk r1, 1
		nop
	}
.Ltmp25:
	.loc	1 235 0                 # /Users/rkn/Documents/xTIMEcomposer/workspace/module_usb_audio/usb_buffer/usb_buffer.xc:235:0
	#APP
	stw r1, dp[g_aud_from_host_flag]
	#NO_APP
	.loc	1 239 0                 # /Users/rkn/Documents/xTIMEcomposer/workspace/module_usb_audio/usb_buffer/usb_buffer.xc:239:0
	#APP
	stw r1, dp[g_aud_to_host_flag]
	#NO_APP
	{
		ldc r7, 0
		nop
	}
	.loc	1 242 0                 # /Users/rkn/Documents/xTIMEcomposer/workspace/module_usb_audio/usb_buffer/usb_buffer.xc:242:0
	stw r7, dp[fb_clocks]
	.loc	2 432 0                 # /Users/rkn/Documents/xTIMEcomposer/workspace/module_xud/include/xud.h:432:0
.Ltmp26:
	#APP
	ldw r1, r5[9]
	#NO_APP
.Ltmp27:
	#DEBUG_VALUE: array_to_xc_ptr:a <- R1
	#DEBUG_VALUE: array_to_xc_ptr:a <- R6
	#DEBUG_VALUE: array_to_xc_ptr:a <- R1
	#DEBUG_VALUE: reset <- R1
	#DEBUG_VALUE: ep_midi_from_host <- [SP+80]
	#DEBUG_VALUE: XUD_SetReady_OutPtr:ep <- [SP+80]
	#DEBUG_VALUE: XUD_SetReady_OutPtr:ep <- [SP+80]
	bt r1, .LBB0_2
.Ltmp28:
# BB#1:                                 # %ifdone.i
.Lxtalabel1:
	#DEBUG_VALUE: buffer:c_aud_out <- [SP+108]
	#DEBUG_VALUE: buffer:c_aud_in <- [SP+112]
	#DEBUG_VALUE: buffer:c_midi_from_host <- [SP+116]
	#DEBUG_VALUE: buffer:c_midi_to_host <- R8
	#DEBUG_VALUE: buffer:p_off_mclk <- [SP+56]
	#DEBUG_VALUE: buffer:c_hid <- [SP+104]
	#DEBUG_VALUE: buffer:c_sof <- [SP+120]
	#DEBUG_VALUE: buffer:c_aud_ctl <- [SP+100]
	#DEBUG_VALUE: ep_aud_out <- [SP+52]
	#DEBUG_VALUE: ep_aud_in <- [SP+48]
	#DEBUG_VALUE: XUD_SetReady_OutPtr:ep <- [SP+80]
	#DEBUG_VALUE: ep_midi_from_host <- [SP+80]
	#DEBUG_VALUE: ep_midi_to_host <- [SP+92]
	#DEBUG_VALUE: ep_hid <- R0
	#DEBUG_VALUE: sampleFreq <- 48000
	#DEBUG_VALUE: masterClockFreq <- 24576000
	#DEBUG_VALUE: lastClock <- 0
	#DEBUG_VALUE: clocks <- 0
	#DEBUG_VALUE: clockcounter <- 0
	#DEBUG_VALUE: bufferIn <- 1
	#DEBUG_VALUE: remnant <- 0
	#DEBUG_VALUE: sofCount <- 0
	#DEBUG_VALUE: freqChange <- 0
	#DEBUG_VALUE: mod_from_last_time <- 0
	#DEBUG_VALUE: aud_from_host_buffer <- 0
	#DEBUG_VALUE: midi_from_host_rdptr <- [SP+32]
	#DEBUG_VALUE: XUD_SetReady_OutPtr:addr <- [SP+32]
	#DEBUG_VALUE: midi_from_host_buffer <- [SP+32]
	#DEBUG_VALUE: midi_to_host_buffer_being_sent <- R0
	#DEBUG_VALUE: midi_to_host_buffer_being_collected <- R1
	#DEBUG_VALUE: midi_data_remaining_to_device <- 0
	#DEBUG_VALUE: midi_data_collected_from_device <- 0
	#DEBUG_VALUE: midi_waiting_on_send_to_host <- 0
	{
		nop
		ldw r1, sp[20]
	}
.Ltmp29:
	#DEBUG_VALUE: ep_midi_from_host <- R1
	#DEBUG_VALUE: XUD_SetReady_OutPtr:ep <- R1
	.loc	2 437 0                 # /Users/rkn/Documents/xTIMEcomposer/workspace/module_xud/include/xud.h:437:0
	#APP
	ldw r2, r1[0]
	#NO_APP
.Ltmp30:
	#DEBUG_VALUE: chan_array_ptr <- R2
	{
		nop
		ldw r3, sp[8]
	}
	.loc	2 438 0                 # /Users/rkn/Documents/xTIMEcomposer/workspace/module_xud/include/xud.h:438:0
	#APP
	stw r3, r1[3]
	#NO_APP
	.loc	2 439 0                 # /Users/rkn/Documents/xTIMEcomposer/workspace/module_xud/include/xud.h:439:0
	#APP
	stw r1, r2[0]
	#NO_APP
.Ltmp31:
	#DEBUG_VALUE: ep_midi_from_host <- [SP+80]
	#DEBUG_VALUE: XUD_SetReady_OutPtr:ep <- [SP+80]
.LBB0_2:                                # %XUD_SetReady_OutPtr.exit
.Lxtalabel2:
	#DEBUG_VALUE: buffer:c_aud_out <- [SP+108]
	#DEBUG_VALUE: buffer:c_aud_in <- [SP+112]
	#DEBUG_VALUE: buffer:c_midi_from_host <- [SP+116]
	#DEBUG_VALUE: buffer:c_midi_to_host <- R8
	#DEBUG_VALUE: buffer:p_off_mclk <- [SP+56]
	#DEBUG_VALUE: buffer:c_hid <- [SP+104]
	#DEBUG_VALUE: buffer:c_sof <- [SP+120]
	#DEBUG_VALUE: buffer:c_aud_ctl <- [SP+100]
	#DEBUG_VALUE: ep_aud_out <- [SP+52]
	#DEBUG_VALUE: ep_aud_in <- [SP+48]
	#DEBUG_VALUE: ep_midi_from_host <- [SP+80]
	#DEBUG_VALUE: ep_midi_to_host <- [SP+92]
	#DEBUG_VALUE: XUD_SetReady_InPtr:ep <- R0
	#DEBUG_VALUE: XUD_SetReady_In:ep <- R0
	#DEBUG_VALUE: ep_hid <- R0
	#DEBUG_VALUE: sampleFreq <- 48000
	#DEBUG_VALUE: masterClockFreq <- 24576000
	#DEBUG_VALUE: lastClock <- 0
	#DEBUG_VALUE: clocks <- 0
	#DEBUG_VALUE: clockcounter <- 0
	#DEBUG_VALUE: bufferIn <- 1
	#DEBUG_VALUE: remnant <- 0
	#DEBUG_VALUE: sofCount <- 0
	#DEBUG_VALUE: freqChange <- 0
	#DEBUG_VALUE: mod_from_last_time <- 0
	#DEBUG_VALUE: aud_from_host_buffer <- 0
	#DEBUG_VALUE: midi_from_host_rdptr <- [SP+32]
	#DEBUG_VALUE: midi_from_host_buffer <- [SP+32]
	#DEBUG_VALUE: x <- R0
	#DEBUG_VALUE: midi_to_host_buffer_being_sent <- R0
	#DEBUG_VALUE: x <- R1
	#DEBUG_VALUE: midi_to_host_buffer_being_collected <- R1
	#DEBUG_VALUE: midi_data_remaining_to_device <- 0
	#DEBUG_VALUE: midi_data_collected_from_device <- 0
	#DEBUG_VALUE: midi_waiting_on_send_to_host <- 0
	#DEBUG_VALUE: array_to_xc_ptr:a <- R1
	#DEBUG_VALUE: array_to_xc_ptr:a <- R6
	.loc	3 13 0                  # /Users/rkn/Documents/xTIMEcomposer/workspace/module_usb_audio/usb_buffer/xc_ptr.h:13:0
	ldaw r6, dp[g_midi_to_host_buffer_A]
.Ltmp32:
	.loc	3 13 0                  # /Users/rkn/Documents/xTIMEcomposer/workspace/module_usb_audio/usb_buffer/xc_ptr.h:13:0
	ldaw r1, dp[g_midi_to_host_buffer_B]
.Ltmp33:
	{
		nop
		ldw r4, sp[45]
	}
.Ltmp34:
	#DEBUG_VALUE: XUD_SetReady_In:len <- 1
	#DEBUG_VALUE: buffer:c_midi <- R4
	.loc	2 508 0                 # /Users/rkn/Documents/xTIMEcomposer/workspace/module_xud/include/xud.h:508:0
	ldaw r9, dp[g_hidData]
	#APP
	mov r2, r9
	#NO_APP
.Ltmp35:
	#DEBUG_VALUE: XUD_SetReady_InPtr:len <- 1
	#DEBUG_VALUE: XUD_SetReady_InPtr:addr <- R2
	#DEBUG_VALUE: addr <- R2
	.loc	2 463 0                 # /Users/rkn/Documents/xTIMEcomposer/workspace/module_xud/include/xud.h:463:0
	#APP
	ldw r3, r0[9]
	#NO_APP
.Ltmp36:
	#DEBUG_VALUE: XUD_SetReady_In:buffer <- R9
	#DEBUG_VALUE: reset <- R3
	bt r3, .LBB0_4
.Ltmp37:
# BB#3:                                 # %ifdone.i.i
.Lxtalabel3:
	#DEBUG_VALUE: buffer:c_aud_out <- [SP+108]
	#DEBUG_VALUE: buffer:c_aud_in <- [SP+112]
	#DEBUG_VALUE: buffer:c_midi_from_host <- [SP+116]
	#DEBUG_VALUE: buffer:c_midi_to_host <- R8
	#DEBUG_VALUE: buffer:p_off_mclk <- [SP+56]
	#DEBUG_VALUE: buffer:c_hid <- [SP+104]
	#DEBUG_VALUE: buffer:c_sof <- [SP+120]
	#DEBUG_VALUE: buffer:c_aud_ctl <- [SP+100]
	#DEBUG_VALUE: ep_aud_out <- [SP+52]
	#DEBUG_VALUE: ep_aud_in <- [SP+48]
	#DEBUG_VALUE: ep_midi_from_host <- [SP+80]
	#DEBUG_VALUE: ep_midi_to_host <- [SP+92]
	#DEBUG_VALUE: XUD_SetReady_InPtr:ep <- R0
	#DEBUG_VALUE: XUD_SetReady_In:ep <- R0
	#DEBUG_VALUE: ep_hid <- R0
	#DEBUG_VALUE: sampleFreq <- 48000
	#DEBUG_VALUE: masterClockFreq <- 24576000
	#DEBUG_VALUE: lastClock <- 0
	#DEBUG_VALUE: clocks <- 0
	#DEBUG_VALUE: clockcounter <- 0
	#DEBUG_VALUE: bufferIn <- 1
	#DEBUG_VALUE: remnant <- 0
	#DEBUG_VALUE: sofCount <- 0
	#DEBUG_VALUE: freqChange <- 0
	#DEBUG_VALUE: mod_from_last_time <- 0
	#DEBUG_VALUE: aud_from_host_buffer <- 0
	#DEBUG_VALUE: midi_from_host_rdptr <- [SP+32]
	#DEBUG_VALUE: midi_from_host_buffer <- [SP+32]
	#DEBUG_VALUE: midi_to_host_buffer_being_sent <- R0
	#DEBUG_VALUE: midi_to_host_buffer_being_collected <- R1
	#DEBUG_VALUE: midi_data_remaining_to_device <- 0
	#DEBUG_VALUE: midi_data_collected_from_device <- 0
	#DEBUG_VALUE: midi_waiting_on_send_to_host <- 0
	#DEBUG_VALUE: buffer:c_midi <- R4
	#DEBUG_VALUE: XUD_SetReady_In:len <- 1
	#DEBUG_VALUE: addr <- R2
	#DEBUG_VALUE: XUD_SetReady_InPtr:addr <- R2
	#DEBUG_VALUE: XUD_SetReady_InPtr:len <- 1
	#DEBUG_VALUE: XUD_SetReady_In:buffer <- R9
	#DEBUG_VALUE: wordlength <- 0
	{
		ldc r3, 32
		nop
	}
	.loc	2 473 0                 # /Users/rkn/Documents/xTIMEcomposer/workspace/module_xud/include/xud.h:473:0
	{
		zext r3, 7
		nop
	}
.Ltmp38:
	#DEBUG_VALUE: taillength <- R3
	.loc	2 475 0                 # /Users/rkn/Documents/xTIMEcomposer/workspace/module_xud/include/xud.h:475:0
	#APP
	ldw r11, r0[0]
	#NO_APP
.Ltmp39:
	#DEBUG_VALUE: chan_array_ptr <- R11
	{
		ldc r5, 0
		nop
	}
	.loc	2 478 0                 # /Users/rkn/Documents/xTIMEcomposer/workspace/module_xud/include/xud.h:478:0
	#APP
	add r2, r2, r5
	#NO_APP
.Ltmp40:
	#DEBUG_VALUE: tmp <- R2
	.loc	2 480 0                 # /Users/rkn/Documents/xTIMEcomposer/workspace/module_xud/include/xud.h:480:0
	#APP
	neg r5, r5
	#NO_APP
.Ltmp41:
	#DEBUG_VALUE: tmp2 <- R5
	.loc	2 483 0                 # /Users/rkn/Documents/xTIMEcomposer/workspace/module_xud/include/xud.h:483:0
	#APP
	stw r5, r0[6]
	#NO_APP
	.loc	2 486 0                 # /Users/rkn/Documents/xTIMEcomposer/workspace/module_xud/include/xud.h:486:0
	#APP
	stw r2, r0[3]
	#NO_APP
	.loc	2 489 0                 # /Users/rkn/Documents/xTIMEcomposer/workspace/module_xud/include/xud.h:489:0
	#APP
	stw r3, r0[7]
	#NO_APP
	.loc	2 491 0                 # /Users/rkn/Documents/xTIMEcomposer/workspace/module_xud/include/xud.h:491:0
	#APP
	stw r0, r11[0]
	#NO_APP
.Ltmp42:
.LBB0_4:                                # %LoopBody.preheader
	#DEBUG_VALUE: buffer:c_aud_out <- [SP+108]
	#DEBUG_VALUE: buffer:c_aud_in <- [SP+112]
	#DEBUG_VALUE: buffer:c_midi_from_host <- [SP+116]
	#DEBUG_VALUE: buffer:c_midi_to_host <- R8
	#DEBUG_VALUE: buffer:p_off_mclk <- [SP+56]
	#DEBUG_VALUE: buffer:c_hid <- [SP+104]
	#DEBUG_VALUE: buffer:c_sof <- [SP+120]
	#DEBUG_VALUE: buffer:c_aud_ctl <- [SP+100]
	#DEBUG_VALUE: ep_aud_out <- [SP+52]
	#DEBUG_VALUE: ep_aud_in <- [SP+48]
	#DEBUG_VALUE: ep_midi_from_host <- [SP+80]
	#DEBUG_VALUE: ep_midi_to_host <- [SP+92]
	#DEBUG_VALUE: ep_hid <- R0
	#DEBUG_VALUE: sampleFreq <- 48000
	#DEBUG_VALUE: masterClockFreq <- 24576000
	#DEBUG_VALUE: lastClock <- 0
	#DEBUG_VALUE: clocks <- 0
	#DEBUG_VALUE: clockcounter <- 0
	#DEBUG_VALUE: bufferIn <- 1
	#DEBUG_VALUE: remnant <- 0
	#DEBUG_VALUE: sofCount <- 0
	#DEBUG_VALUE: freqChange <- 0
	#DEBUG_VALUE: mod_from_last_time <- 0
	#DEBUG_VALUE: aud_from_host_buffer <- 0
	#DEBUG_VALUE: midi_from_host_rdptr <- [SP+32]
	#DEBUG_VALUE: midi_from_host_buffer <- [SP+32]
	#DEBUG_VALUE: x <- R0
	#DEBUG_VALUE: midi_to_host_buffer_being_sent <- R0
	#DEBUG_VALUE: x <- R1
	#DEBUG_VALUE: midi_to_host_buffer_being_collected <- R1
	#DEBUG_VALUE: midi_data_remaining_to_device <- 0
	#DEBUG_VALUE: midi_data_collected_from_device <- 0
	#DEBUG_VALUE: midi_waiting_on_send_to_host <- 0
	#DEBUG_VALUE: array_to_xc_ptr:a <- R1
	#DEBUG_VALUE: array_to_xc_ptr:a <- R6
	#DEBUG_VALUE: buffer:c_midi <- R4
	{
		nop
		stw r0, sp[21]
	}
.Ltmp43:
	#DEBUG_VALUE: ep_hid <- [SP+84]
	.loc	3 13 0                  # /Users/rkn/Documents/xTIMEcomposer/workspace/module_usb_audio/usb_buffer/xc_ptr.h:13:0
	#APP
	mov r0, r6
	#NO_APP
.Ltmp44:
	.loc	3 13 0                  # /Users/rkn/Documents/xTIMEcomposer/workspace/module_usb_audio/usb_buffer/xc_ptr.h:13:0
	#APP
	mov r1, r1
	#NO_APP
.Ltmp45:
	{
		nop
		ldw r2, sp[8]
	}
.Ltmp46:
	.loc	1 602 0                 # /Users/rkn/Documents/xTIMEcomposer/workspace/module_usb_audio/usb_buffer/usb_buffer.xc:602:0
	{
		add r2, r2, 4
		nop
	}
.Ltmp47:
	#DEBUG_VALUE: midi_from_host_rdptr <- [SP+28]
	{
		nop
		stw r2, sp[7]
	}
	ldap r11, .Ltmp48
	{
		nop
		ldw r2, sp[30]
	}
	.loc	1 267 9                 # /Users/rkn/Documents/xTIMEcomposer/workspace/module_usb_audio/usb_buffer/usb_buffer.xc:267:9
	{
		setv res[r2], r11
		nop
	}
	ldap r11, .Ltmp49
	.loc	1 267 9                 # /Users/rkn/Documents/xTIMEcomposer/workspace/module_usb_audio/usb_buffer/usb_buffer.xc:267:9
	{
		setv res[r4], r11
		nop
	}
	ldc r2, 48000
	{
		nop
		stw r2, sp[11]
	}
	ldw r3, cp[.LCPI0_0]
	.loc	2 508 0                 # /Users/rkn/Documents/xTIMEcomposer/workspace/module_xud/include/xud.h:508:0
.Ltmp50:
	#APP
	mov r2, r9
	#NO_APP
	{
		ldc r2, 32
		stw r2, sp[6]
	}
	.loc	2 473 0                 # /Users/rkn/Documents/xTIMEcomposer/workspace/module_xud/include/xud.h:473:0
.Ltmp51:
	{
		zext r2, 7
		nop
	}
	{
		nop
		stw r2, sp[5]
	}
	.loc	2 480 0                 # /Users/rkn/Documents/xTIMEcomposer/workspace/module_xud/include/xud.h:480:0
	#APP
	neg r2, r7
	#NO_APP
	{
		nop
		stw r2, sp[4]
	}
	{
		mov r2, r7
		stw r7, sp[24]
	}
	{
		nop
		stw r7, sp[22]
	}
                                        # implicit-def: R11
	{
		nop
		stw r11, sp[19]
	}
	{
		nop
		stw r7, sp[9]
	}
	{
		nop
		stw r7, sp[17]
	}
	{
		nop
		stw r7, sp[16]
	}
	{
		mov r9, r7
		stw r7, sp[15]
	}
	{
		nop
		stw r3, sp[3]
	}
	bu .LBB0_5
.Ltmp52:
.LBB0_51:                               # %LoopBody
                                        #   in Loop: Header=BB0_5 Depth=1
.Lxtalabel4:
	#DEBUG_VALUE: ep_midi_from_host <- [SP+80]
	{
		mov r0, r6
		mov r1, r5
	}
	{
		mov r2, r7
		mov r9, r10
	}
.Ltmp53:
.LBB0_5:                                # %LoopBody
                                        # =>This Inner Loop Header: Depth=1
.Lxtalabel5:
	#DEBUG_VALUE: buffer:c_aud_out <- [SP+108]
	#DEBUG_VALUE: buffer:c_aud_in <- [SP+112]
	#DEBUG_VALUE: buffer:c_midi_from_host <- [SP+116]
	#DEBUG_VALUE: buffer:c_midi_to_host <- R8
	#DEBUG_VALUE: buffer:p_off_mclk <- [SP+56]
	#DEBUG_VALUE: buffer:c_hid <- [SP+104]
	#DEBUG_VALUE: buffer:c_sof <- [SP+120]
	#DEBUG_VALUE: buffer:c_aud_ctl <- [SP+100]
	#DEBUG_VALUE: ep_aud_out <- [SP+52]
	#DEBUG_VALUE: ep_aud_in <- [SP+48]
	#DEBUG_VALUE: ep_midi_from_host <- [SP+80]
	#DEBUG_VALUE: ep_midi_to_host <- [SP+92]
	#DEBUG_VALUE: ep_hid <- [SP+84]
	#DEBUG_VALUE: sampleFreq <- 48000
	#DEBUG_VALUE: masterClockFreq <- 24576000
	#DEBUG_VALUE: lastClock <- 0
	#DEBUG_VALUE: clocks <- 0
	#DEBUG_VALUE: clockcounter <- 0
	#DEBUG_VALUE: bufferIn <- 1
	#DEBUG_VALUE: remnant <- 0
	#DEBUG_VALUE: sofCount <- 0
	#DEBUG_VALUE: freqChange <- 0
	#DEBUG_VALUE: mod_from_last_time <- 0
	#DEBUG_VALUE: aud_from_host_buffer <- 0
	#DEBUG_VALUE: midi_from_host_rdptr <- [SP+28]
	#DEBUG_VALUE: midi_from_host_buffer <- [SP+32]
	#DEBUG_VALUE: midi_to_host_buffer_being_sent <- R0
	#DEBUG_VALUE: midi_to_host_buffer_being_collected <- R1
	#DEBUG_VALUE: midi_data_remaining_to_device <- 0
	#DEBUG_VALUE: midi_data_collected_from_device <- 0
	#DEBUG_VALUE: midi_waiting_on_send_to_host <- 0
	#DEBUG_VALUE: buffer:c_midi <- R4
	{
		mov r10, r9
		mov r7, r2
	}
	{
		mov r5, r1
		mov r6, r0
	}
	.loc	1 267 9                 # /Users/rkn/Documents/xTIMEcomposer/workspace/module_usb_audio/usb_buffer/usb_buffer.xc:267:9
	{
		clre
		nop
	}
	ldap r11, .Ltmp54
	{
		nop
		ldw r3, sp[25]
	}
.Ltmp55:
	#DEBUG_VALUE: buffer:c_aud_ctl <- R3
	.loc	1 267 9                 # /Users/rkn/Documents/xTIMEcomposer/workspace/module_usb_audio/usb_buffer/usb_buffer.xc:267:9
	{
		setv res[r3], r11
		nop
	}
	.loc	1 267 9                 # /Users/rkn/Documents/xTIMEcomposer/workspace/module_usb_audio/usb_buffer/usb_buffer.xc:267:9
	{
		eeu res[r3]
		ldw r0, sp[30]
	}
.Ltmp56:
	.loc	1 267 9                 # /Users/rkn/Documents/xTIMEcomposer/workspace/module_usb_audio/usb_buffer/usb_buffer.xc:267:9
	{
		eeu res[r0]
		nop
	}
	ldap r11, .Ltmp57
	{
		nop
		ldw r0, sp[28]
	}
.Ltmp58:
	#DEBUG_VALUE: buffer:c_aud_in <- R0
	.loc	1 267 9                 # /Users/rkn/Documents/xTIMEcomposer/workspace/module_usb_audio/usb_buffer/usb_buffer.xc:267:9
	{
		setv res[r0], r11
		nop
	}
	.loc	1 267 9                 # /Users/rkn/Documents/xTIMEcomposer/workspace/module_usb_audio/usb_buffer/usb_buffer.xc:267:9
	{
		eeu res[r0]
		nop
	}
.Ltmp59:
	#DEBUG_VALUE: buffer:c_aud_in <- [SP+112]
	ldap r11, .Ltmp60
	{
		nop
		ldw r0, sp[27]
	}
.Ltmp61:
	#DEBUG_VALUE: buffer:c_aud_out <- R0
	.loc	1 267 9                 # /Users/rkn/Documents/xTIMEcomposer/workspace/module_usb_audio/usb_buffer/usb_buffer.xc:267:9
	{
		setv res[r0], r11
		nop
	}
	.loc	1 267 9                 # /Users/rkn/Documents/xTIMEcomposer/workspace/module_usb_audio/usb_buffer/usb_buffer.xc:267:9
	{
		eeu res[r0]
		nop
	}
.Ltmp62:
	#DEBUG_VALUE: buffer:c_aud_out <- [SP+108]
	ldap r11, .Ltmp63
	{
		nop
		ldw r0, sp[29]
	}
.Ltmp64:
	#DEBUG_VALUE: buffer:c_midi_from_host <- R0
	.loc	1 267 9                 # /Users/rkn/Documents/xTIMEcomposer/workspace/module_usb_audio/usb_buffer/usb_buffer.xc:267:9
	{
		setv res[r0], r11
		nop
	}
	.loc	1 267 9                 # /Users/rkn/Documents/xTIMEcomposer/workspace/module_usb_audio/usb_buffer/usb_buffer.xc:267:9
	{
		eeu res[r0]
		nop
	}
.Ltmp65:
	#DEBUG_VALUE: buffer:c_midi_from_host <- [SP+116]
	ldap r11, .Ltmp66
	.loc	1 267 9                 # /Users/rkn/Documents/xTIMEcomposer/workspace/module_usb_audio/usb_buffer/usb_buffer.xc:267:9
	{
		setv res[r8], r11
		nop
	}
	.loc	1 267 9                 # /Users/rkn/Documents/xTIMEcomposer/workspace/module_usb_audio/usb_buffer/usb_buffer.xc:267:9
	{
		eeu res[r8]
		nop
	}
	ldap r11, .Ltmp67
	{
		nop
		ldw r0, sp[26]
	}
.Ltmp68:
	#DEBUG_VALUE: buffer:c_hid <- R0
	.loc	1 267 9                 # /Users/rkn/Documents/xTIMEcomposer/workspace/module_usb_audio/usb_buffer/usb_buffer.xc:267:9
	{
		setv res[r0], r11
		nop
	}
	.loc	1 267 9                 # /Users/rkn/Documents/xTIMEcomposer/workspace/module_usb_audio/usb_buffer/usb_buffer.xc:267:9
	{
		eeu res[r0]
		nop
	}
.Ltmp69:
	#DEBUG_VALUE: buffer:c_hid <- [SP+104]
	.loc	1 267 9                 # /Users/rkn/Documents/xTIMEcomposer/workspace/module_usb_audio/usb_buffer/usb_buffer.xc:267:9
	{
		eeu res[r4]
		nop
	}
	.loc	1 785 0                 # /Users/rkn/Documents/xTIMEcomposer/workspace/module_usb_audio/usb_buffer/usb_buffer.xc:785:0

	.xtabranch .LBB0_13, .LBB0_27, .LBB0_6, .LBB0_7, .LBB0_8, .LBB0_38, .LBB0_11, .LBB0_42
	{
		waiteu
		nop
	}
.Ltmp70:
.Ltmp54:                                # Block address taken
.LBB0_13:                               # %selectcase
                                        #   in Loop: Header=BB0_5 Depth=1
.Lxtalabel6:
	#DEBUG_VALUE: buffer:c_aud_out <- [SP+108]
	#DEBUG_VALUE: buffer:c_aud_in <- [SP+112]
	#DEBUG_VALUE: buffer:c_midi_from_host <- [SP+116]
	#DEBUG_VALUE: buffer:c_midi_to_host <- R8
	#DEBUG_VALUE: buffer:p_off_mclk <- [SP+56]
	#DEBUG_VALUE: buffer:c_hid <- [SP+104]
	#DEBUG_VALUE: buffer:c_sof <- [SP+120]
	#DEBUG_VALUE: buffer:c_aud_ctl <- R3
	#DEBUG_VALUE: ep_aud_out <- [SP+52]
	#DEBUG_VALUE: ep_aud_in <- [SP+48]
	#DEBUG_VALUE: ep_midi_from_host <- [SP+80]
	#DEBUG_VALUE: ep_midi_to_host <- [SP+92]
	#DEBUG_VALUE: ep_hid <- [SP+84]
	#DEBUG_VALUE: sampleFreq <- 48000
	#DEBUG_VALUE: masterClockFreq <- 24576000
	#DEBUG_VALUE: lastClock <- 0
	#DEBUG_VALUE: clocks <- 0
	#DEBUG_VALUE: clockcounter <- 0
	#DEBUG_VALUE: bufferIn <- 1
	#DEBUG_VALUE: remnant <- 0
	#DEBUG_VALUE: sofCount <- 0
	#DEBUG_VALUE: freqChange <- 0
	#DEBUG_VALUE: mod_from_last_time <- 0
	#DEBUG_VALUE: aud_from_host_buffer <- 0
	#DEBUG_VALUE: midi_from_host_rdptr <- [SP+28]
	#DEBUG_VALUE: midi_from_host_buffer <- [SP+32]
	#DEBUG_VALUE: midi_to_host_buffer_being_sent <- R0
	#DEBUG_VALUE: midi_to_host_buffer_being_collected <- R1
	#DEBUG_VALUE: midi_data_remaining_to_device <- 0
	#DEBUG_VALUE: midi_data_collected_from_device <- 0
	#DEBUG_VALUE: midi_waiting_on_send_to_host <- 0
	#DEBUG_VALUE: buffer:c_midi <- R4
	#DEBUG_VALUE: testct_byref:c <- R3
	.file	4 "/Users/rkn/Documents/xTIMEcomposer/workspace/module_usb_audio/usb_buffer/testct_byref.h"
	.loc	4 8 5                   # /Users/rkn/Documents/xTIMEcomposer/workspace/module_usb_audio/usb_buffer/testct_byref.h:8:5
	{
		testct r0, res[r3]
		nop
	}
.Ltmp71:
	.loc	1 297 17                # /Users/rkn/Documents/xTIMEcomposer/workspace/module_usb_audio/usb_buffer/usb_buffer.xc:297:17
	bt r0, .LBB0_18
.Ltmp72:
# BB#14:                                # %iffalse
                                        #   in Loop: Header=BB0_5 Depth=1
.Lxtalabel7:
	#DEBUG_VALUE: buffer:c_aud_out <- [SP+108]
	#DEBUG_VALUE: buffer:c_aud_in <- [SP+112]
	#DEBUG_VALUE: buffer:c_midi_from_host <- [SP+116]
	#DEBUG_VALUE: buffer:c_midi_to_host <- R8
	#DEBUG_VALUE: buffer:c_midi_to_host <- [SP+72]
	#DEBUG_VALUE: buffer:p_off_mclk <- [SP+56]
	#DEBUG_VALUE: buffer:c_hid <- [SP+104]
	#DEBUG_VALUE: buffer:c_sof <- [SP+120]
	#DEBUG_VALUE: buffer:c_aud_ctl <- R3
	#DEBUG_VALUE: ep_aud_out <- [SP+52]
	#DEBUG_VALUE: ep_aud_in <- [SP+48]
	#DEBUG_VALUE: ep_midi_from_host <- [SP+80]
	#DEBUG_VALUE: ep_midi_to_host <- [SP+92]
	#DEBUG_VALUE: ep_hid <- [SP+84]
	#DEBUG_VALUE: sampleFreq <- 48000
	#DEBUG_VALUE: masterClockFreq <- 24576000
	#DEBUG_VALUE: lastClock <- 0
	#DEBUG_VALUE: clocks <- 0
	#DEBUG_VALUE: clockcounter <- 0
	#DEBUG_VALUE: bufferIn <- 1
	#DEBUG_VALUE: remnant <- 0
	#DEBUG_VALUE: sofCount <- 0
	#DEBUG_VALUE: freqChange <- 0
	#DEBUG_VALUE: mod_from_last_time <- 0
	#DEBUG_VALUE: aud_from_host_buffer <- 0
	#DEBUG_VALUE: midi_from_host_rdptr <- [SP+28]
	#DEBUG_VALUE: midi_from_host_buffer <- [SP+32]
	#DEBUG_VALUE: midi_to_host_buffer_being_sent <- R0
	#DEBUG_VALUE: midi_to_host_buffer_being_collected <- R1
	#DEBUG_VALUE: midi_data_remaining_to_device <- 0
	#DEBUG_VALUE: midi_data_collected_from_device <- 0
	#DEBUG_VALUE: midi_waiting_on_send_to_host <- 0
	#DEBUG_VALUE: buffer:c_midi <- R4
	.loc	1 306 0                 # /Users/rkn/Documents/xTIMEcomposer/workspace/module_usb_audio/usb_buffer/usb_buffer.xc:306:0
.Lxta.endpoint_labels0:
	{
		in r8, res[r3]
		nop
	}
.Ltmp73:
	#DEBUG_VALUE: cmd <- R8
	.loc	1 308 21                # /Users/rkn/Documents/xTIMEcomposer/workspace/module_usb_audio/usb_buffer/usb_buffer.xc:308:21
	{
		eq r0, r8, 4
		nop
	}
.Ltmp74:
	bt r0, .LBB0_20
.Ltmp75:
# BB#15:                                # %iffalse
                                        #   in Loop: Header=BB0_5 Depth=1
.Lxtalabel8:
	#DEBUG_VALUE: buffer:c_aud_out <- [SP+108]
	#DEBUG_VALUE: buffer:c_aud_in <- [SP+112]
	#DEBUG_VALUE: buffer:c_midi_from_host <- [SP+116]
	#DEBUG_VALUE: buffer:c_midi_to_host <- [SP+72]
	#DEBUG_VALUE: buffer:p_off_mclk <- [SP+56]
	#DEBUG_VALUE: buffer:c_hid <- [SP+104]
	#DEBUG_VALUE: buffer:c_sof <- [SP+120]
	#DEBUG_VALUE: buffer:c_aud_ctl <- R3
	#DEBUG_VALUE: buffer:c_midi <- R4
	{
		eq r0, r8, 8
		nop
	}
	bf r0, .LBB0_16
.Ltmp76:
# BB#25:                                # %iftrue63
                                        #   in Loop: Header=BB0_5 Depth=1
.Lxtalabel9:
	#DEBUG_VALUE: buffer:c_aud_out <- [SP+108]
	#DEBUG_VALUE: buffer:c_aud_in <- [SP+112]
	#DEBUG_VALUE: buffer:c_midi_from_host <- [SP+116]
	#DEBUG_VALUE: buffer:c_midi_to_host <- [SP+72]
	#DEBUG_VALUE: buffer:p_off_mclk <- [SP+56]
	#DEBUG_VALUE: buffer:c_hid <- [SP+104]
	#DEBUG_VALUE: buffer:c_sof <- [SP+120]
	#DEBUG_VALUE: buffer:c_aud_ctl <- R3
	#DEBUG_VALUE: buffer:c_midi <- R4
	.loc	1 361 0                 # /Users/rkn/Documents/xTIMEcomposer/workspace/module_usb_audio/usb_buffer/usb_buffer.xc:361:0
.Lxta.endpoint_labels1:
	{
		in r0, res[r3]
		nop
	}
.Ltmp77:
	#DEBUG_VALUE: formatChange_DataFormat <- R0
	.loc	1 362 0                 # /Users/rkn/Documents/xTIMEcomposer/workspace/module_usb_audio/usb_buffer/usb_buffer.xc:362:0
.Lxta.endpoint_labels2:
	{
		in r1, res[r3]
		nop
	}
.Ltmp78:
	#DEBUG_VALUE: formatChange_NumChans <- R1
	.loc	1 363 0                 # /Users/rkn/Documents/xTIMEcomposer/workspace/module_usb_audio/usb_buffer/usb_buffer.xc:363:0
.Lxta.endpoint_labels3:
	{
		in r2, res[r3]
		nop
	}
.Ltmp79:
	#DEBUG_VALUE: formatChange_SubSlot <- R2
	.loc	1 364 0                 # /Users/rkn/Documents/xTIMEcomposer/workspace/module_usb_audio/usb_buffer/usb_buffer.xc:364:0
.Lxta.endpoint_labels4:
	{
		in r3, res[r3]
		nop
	}
.Ltmp80:
	#DEBUG_VALUE: formatChange_SampRes <- R3
	#DEBUG_VALUE: buffer:c_aud_ctl <- [SP+100]
	.loc	1 366 0                 # /Users/rkn/Documents/xTIMEcomposer/workspace/module_usb_audio/usb_buffer/usb_buffer.xc:366:0
	#APP
	stw r1, dp[g_formatChange_NumChans]
	#NO_APP
	.loc	1 367 0                 # /Users/rkn/Documents/xTIMEcomposer/workspace/module_usb_audio/usb_buffer/usb_buffer.xc:367:0
	#APP
	stw r2, dp[g_formatChange_SubSlot]
	#NO_APP
	.loc	1 368 0                 # /Users/rkn/Documents/xTIMEcomposer/workspace/module_usb_audio/usb_buffer/usb_buffer.xc:368:0
	#APP
	stw r0, dp[g_formatChange_DataFormat]
	#NO_APP
	.loc	1 369 0                 # /Users/rkn/Documents/xTIMEcomposer/workspace/module_usb_audio/usb_buffer/usb_buffer.xc:369:0
	#APP
	stw r3, dp[g_formatChange_SampRes]
	#NO_APP
	bu .LBB0_26
.Ltmp81:
.Ltmp48:                                # Block address taken
.LBB0_27:                               # %selectcase2
                                        #   in Loop: Header=BB0_5 Depth=1
.Lxtalabel10:
	#DEBUG_VALUE: buffer:c_aud_out <- [SP+108]
	#DEBUG_VALUE: buffer:c_aud_in <- [SP+112]
	#DEBUG_VALUE: buffer:c_midi_from_host <- [SP+116]
	#DEBUG_VALUE: buffer:c_midi_to_host <- R8
	#DEBUG_VALUE: buffer:p_off_mclk <- [SP+56]
	#DEBUG_VALUE: buffer:c_hid <- [SP+104]
	#DEBUG_VALUE: buffer:c_sof <- [SP+120]
	#DEBUG_VALUE: buffer:c_aud_ctl <- R3
	#DEBUG_VALUE: buffer:c_aud_ctl <- [SP+100]
	#DEBUG_VALUE: ep_aud_out <- [SP+52]
	#DEBUG_VALUE: ep_aud_in <- [SP+48]
	#DEBUG_VALUE: ep_midi_from_host <- [SP+80]
	#DEBUG_VALUE: ep_midi_to_host <- [SP+92]
	#DEBUG_VALUE: ep_hid <- [SP+84]
	#DEBUG_VALUE: sampleFreq <- 48000
	#DEBUG_VALUE: masterClockFreq <- 24576000
	#DEBUG_VALUE: lastClock <- 0
	#DEBUG_VALUE: clocks <- 0
	#DEBUG_VALUE: clockcounter <- 0
	#DEBUG_VALUE: bufferIn <- 1
	#DEBUG_VALUE: remnant <- 0
	#DEBUG_VALUE: sofCount <- 0
	#DEBUG_VALUE: freqChange <- 0
	#DEBUG_VALUE: mod_from_last_time <- 0
	#DEBUG_VALUE: aud_from_host_buffer <- 0
	#DEBUG_VALUE: midi_from_host_rdptr <- [SP+28]
	#DEBUG_VALUE: midi_from_host_buffer <- [SP+32]
	#DEBUG_VALUE: midi_to_host_buffer_being_sent <- R0
	#DEBUG_VALUE: midi_to_host_buffer_being_collected <- R1
	#DEBUG_VALUE: midi_data_remaining_to_device <- 0
	#DEBUG_VALUE: midi_data_collected_from_device <- 0
	#DEBUG_VALUE: midi_waiting_on_send_to_host <- 0
	#DEBUG_VALUE: buffer:c_midi <- R4
	{
		nop
		ldw r0, sp[30]
	}
.Ltmp82:
	.loc	1 400 0                 # /Users/rkn/Documents/xTIMEcomposer/workspace/module_usb_audio/usb_buffer/usb_buffer.xc:400:0
.Lxta.endpoint_labels5:
	{
		in r0, res[r0]
		nop
	}
.Ltmp83:
	#DEBUG_VALUE: testct_byref:isCt <- R0
	#DEBUG_VALUE: u_tmp <- R0
	{
		nop
		ldw r0, sp[14]
	}
.Ltmp84:
	.loc	1 406 0                 # /Users/rkn/Documents/xTIMEcomposer/workspace/module_usb_audio/usb_buffer/usb_buffer.xc:406:0
	#APP
	 getts r9, res[r0]
	#NO_APP
.Ltmp85:
	#DEBUG_VALUE: testct_byref:isCt <- R9
	#DEBUG_VALUE: u_tmp <- R9
	#DEBUG_VALUE: lastClock <- R9
	.loc	1 408 0                 # /Users/rkn/Documents/xTIMEcomposer/workspace/module_usb_audio/usb_buffer/usb_buffer.xc:408:0
	#APP
	ldw r0, dp[g_freqChange]
	#NO_APP
.Ltmp86:
	#DEBUG_VALUE: freqChange <- R0
	.loc	1 409 17                # /Users/rkn/Documents/xTIMEcomposer/workspace/module_usb_audio/usb_buffer/usb_buffer.xc:409:17
	{
		eq r3, r0, 4
		mov r0, r6
	}
.Ltmp87:
	{
		mov r1, r5
		mov r2, r7
	}
.Ltmp88:
	bt r3, .LBB0_5
.Ltmp89:
# BB#28:                                # %iffalse85
                                        #   in Loop: Header=BB0_5 Depth=1
.Lxtalabel11:
	#DEBUG_VALUE: buffer:c_aud_out <- [SP+108]
	#DEBUG_VALUE: buffer:c_aud_in <- [SP+112]
	#DEBUG_VALUE: buffer:c_midi_from_host <- [SP+116]
	#DEBUG_VALUE: buffer:c_midi_to_host <- R8
	#DEBUG_VALUE: buffer:p_off_mclk <- [SP+56]
	#DEBUG_VALUE: buffer:c_hid <- [SP+104]
	#DEBUG_VALUE: buffer:c_sof <- [SP+120]
	#DEBUG_VALUE: buffer:c_aud_ctl <- [SP+100]
	#DEBUG_VALUE: ep_aud_out <- [SP+52]
	#DEBUG_VALUE: ep_aud_in <- [SP+48]
	#DEBUG_VALUE: ep_midi_from_host <- [SP+80]
	#DEBUG_VALUE: ep_midi_to_host <- [SP+92]
	#DEBUG_VALUE: ep_hid <- [SP+84]
	#DEBUG_VALUE: sampleFreq <- 48000
	#DEBUG_VALUE: masterClockFreq <- 24576000
	#DEBUG_VALUE: lastClock <- R9
	#DEBUG_VALUE: clocks <- 0
	#DEBUG_VALUE: clockcounter <- 0
	#DEBUG_VALUE: bufferIn <- 1
	#DEBUG_VALUE: remnant <- 0
	#DEBUG_VALUE: sofCount <- 0
	#DEBUG_VALUE: mod_from_last_time <- 0
	#DEBUG_VALUE: aud_from_host_buffer <- 0
	#DEBUG_VALUE: midi_from_host_rdptr <- [SP+28]
	#DEBUG_VALUE: midi_from_host_buffer <- [SP+32]
	#DEBUG_VALUE: midi_to_host_buffer_being_sent <- R0
	#DEBUG_VALUE: midi_to_host_buffer_being_collected <- R1
	#DEBUG_VALUE: midi_data_remaining_to_device <- 0
	#DEBUG_VALUE: midi_data_collected_from_device <- 0
	#DEBUG_VALUE: midi_waiting_on_send_to_host <- 0
	#DEBUG_VALUE: buffer:c_midi <- R4
	#DEBUG_VALUE: u_tmp <- R9
	.loc	1 417 0                 # /Users/rkn/Documents/xTIMEcomposer/workspace/module_usb_audio/usb_buffer/usb_buffer.xc:417:0
	#APP
	ldw r0, dp[g_curUsbSpeed]
	#NO_APP
.Ltmp90:
	#DEBUG_VALUE: feedbackMul <- 64
	#DEBUG_VALUE: usb_speed <- R0
	.loc	1 479 21                # /Users/rkn/Documents/xTIMEcomposer/workspace/module_usb_audio/usb_buffer/usb_buffer.xc:479:21
	{
		eq r1, r0, 2
		nop
	}
.Ltmp91:
	#DEBUG_VALUE: feedbackMul <- 8
	ldc r0, 64
.Ltmp92:
	{
		nop
		stw r1, sp[10]
	}
	bt r1, .LBB0_30
.Ltmp93:
# BB#29:                                # %iffalse85
                                        #   in Loop: Header=BB0_5 Depth=1
.Lxtalabel12:
	#DEBUG_VALUE: buffer:c_aud_out <- [SP+108]
	#DEBUG_VALUE: buffer:c_aud_in <- [SP+112]
	#DEBUG_VALUE: buffer:c_midi_from_host <- [SP+116]
	#DEBUG_VALUE: buffer:c_midi_to_host <- R8
	#DEBUG_VALUE: buffer:p_off_mclk <- [SP+56]
	#DEBUG_VALUE: buffer:c_hid <- [SP+104]
	#DEBUG_VALUE: buffer:c_sof <- [SP+120]
	#DEBUG_VALUE: buffer:c_aud_ctl <- [SP+100]
	#DEBUG_VALUE: ep_aud_out <- [SP+52]
	#DEBUG_VALUE: ep_aud_in <- [SP+48]
	#DEBUG_VALUE: ep_midi_from_host <- [SP+80]
	#DEBUG_VALUE: ep_midi_to_host <- [SP+92]
	#DEBUG_VALUE: ep_hid <- [SP+84]
	#DEBUG_VALUE: sampleFreq <- 48000
	#DEBUG_VALUE: masterClockFreq <- 24576000
	#DEBUG_VALUE: lastClock <- R9
	#DEBUG_VALUE: clocks <- 0
	#DEBUG_VALUE: clockcounter <- 0
	#DEBUG_VALUE: bufferIn <- 1
	#DEBUG_VALUE: remnant <- 0
	#DEBUG_VALUE: sofCount <- 0
	#DEBUG_VALUE: mod_from_last_time <- 0
	#DEBUG_VALUE: aud_from_host_buffer <- 0
	#DEBUG_VALUE: midi_from_host_rdptr <- [SP+28]
	#DEBUG_VALUE: midi_from_host_buffer <- [SP+32]
	#DEBUG_VALUE: midi_to_host_buffer_being_sent <- R0
	#DEBUG_VALUE: midi_to_host_buffer_being_collected <- R1
	#DEBUG_VALUE: midi_data_remaining_to_device <- 0
	#DEBUG_VALUE: midi_data_collected_from_device <- 0
	#DEBUG_VALUE: midi_waiting_on_send_to_host <- 0
	#DEBUG_VALUE: buffer:c_midi <- R4
	#DEBUG_VALUE: u_tmp <- R9
	#DEBUG_VALUE: feedbackMul <- 8
	{
		ldc r0, 8
		nop
	}
.Ltmp94:
.LBB0_30:                               # %iffalse85
                                        #   in Loop: Header=BB0_5 Depth=1
.Lxtalabel13:
	#DEBUG_VALUE: buffer:c_aud_out <- [SP+108]
	#DEBUG_VALUE: buffer:c_aud_in <- [SP+112]
	#DEBUG_VALUE: buffer:c_midi_from_host <- [SP+116]
	#DEBUG_VALUE: buffer:c_midi_to_host <- R8
	#DEBUG_VALUE: buffer:p_off_mclk <- [SP+56]
	#DEBUG_VALUE: buffer:c_hid <- [SP+104]
	#DEBUG_VALUE: buffer:c_sof <- [SP+120]
	#DEBUG_VALUE: buffer:c_aud_ctl <- [SP+100]
	#DEBUG_VALUE: ep_aud_out <- [SP+52]
	#DEBUG_VALUE: ep_aud_in <- [SP+48]
	#DEBUG_VALUE: ep_midi_from_host <- [SP+80]
	#DEBUG_VALUE: ep_midi_to_host <- [SP+92]
	#DEBUG_VALUE: ep_hid <- [SP+84]
	#DEBUG_VALUE: sampleFreq <- 48000
	#DEBUG_VALUE: masterClockFreq <- 24576000
	#DEBUG_VALUE: lastClock <- R9
	#DEBUG_VALUE: clocks <- 0
	#DEBUG_VALUE: clockcounter <- 0
	#DEBUG_VALUE: bufferIn <- 1
	#DEBUG_VALUE: remnant <- 0
	#DEBUG_VALUE: sofCount <- 0
	#DEBUG_VALUE: mod_from_last_time <- 0
	#DEBUG_VALUE: aud_from_host_buffer <- 0
	#DEBUG_VALUE: midi_from_host_rdptr <- [SP+28]
	#DEBUG_VALUE: midi_from_host_buffer <- [SP+32]
	#DEBUG_VALUE: midi_to_host_buffer_being_sent <- R0
	#DEBUG_VALUE: midi_to_host_buffer_being_collected <- R1
	#DEBUG_VALUE: midi_data_remaining_to_device <- 0
	#DEBUG_VALUE: midi_data_collected_from_device <- 0
	#DEBUG_VALUE: midi_waiting_on_send_to_host <- 0
	#DEBUG_VALUE: buffer:c_midi <- R4
	#DEBUG_VALUE: u_tmp <- R9
	#DEBUG_VALUE: feedbackMul <- 8
	.loc	1 483 0                 # /Users/rkn/Documents/xTIMEcomposer/workspace/module_usb_audio/usb_buffer/usb_buffer.xc:483:0
	{
		sub r1, r9, r10
		nop
	}
.Ltmp95:
	.loc	1 483 0                 # /Users/rkn/Documents/xTIMEcomposer/workspace/module_usb_audio/usb_buffer/usb_buffer.xc:483:0
	{
		sext r1, 16
		nop
	}
.Ltmp96:
	#DEBUG_VALUE: count <- R1
	.loc	1 485 0                 # /Users/rkn/Documents/xTIMEcomposer/workspace/module_usb_audio/usb_buffer/usb_buffer.xc:485:0
	ashr r2, r1, 32
	{
		ldc r11, 0
		ldw r10, sp[11]
	}
	.loc	1 485 0                 # /Users/rkn/Documents/xTIMEcomposer/workspace/module_usb_audio/usb_buffer/usb_buffer.xc:485:0
	lmul r1, r3, r1, r10, r11, r11
.Ltmp97:
	mul r2, r2, r10
	{
		add r1, r1, r2
		nop
	}
	.loc	1 485 0                 # /Users/rkn/Documents/xTIMEcomposer/workspace/module_usb_audio/usb_buffer/usb_buffer.xc:485:0
	mul r1, r1, r0
	{
		nop
		ldw r2, sp[16]
	}
	{
		nop
		ldw r10, sp[15]
	}
	.loc	1 487 0                 # /Users/rkn/Documents/xTIMEcomposer/workspace/module_usb_audio/usb_buffer/usb_buffer.xc:487:0
	maccu r10, r2, r3, r0
	{
		mov r3, r10
		nop
	}
	{
		add r3, r3, r1
		nop
	}
	ldc r0, 128
.Ltmp98:
	{
		nop
		ldw r1, sp[17]
	}
	.loc	1 494 21                # /Users/rkn/Documents/xTIMEcomposer/workspace/module_usb_audio/usb_buffer/usb_buffer.xc:494:21
	{
		eq r0, r1, r0
		nop
	}
	bf r0, .LBB0_31
.Ltmp99:
# BB#32:                                # %iftrue103
                                        #   in Loop: Header=BB0_5 Depth=1
.Lxtalabel14:
	#DEBUG_VALUE: buffer:c_aud_out <- [SP+108]
	#DEBUG_VALUE: buffer:c_aud_in <- [SP+112]
	#DEBUG_VALUE: buffer:c_midi_from_host <- [SP+116]
	#DEBUG_VALUE: buffer:c_midi_to_host <- R8
	#DEBUG_VALUE: buffer:p_off_mclk <- [SP+56]
	#DEBUG_VALUE: buffer:c_hid <- [SP+104]
	#DEBUG_VALUE: buffer:c_sof <- [SP+120]
	#DEBUG_VALUE: buffer:c_aud_ctl <- [SP+100]
	#DEBUG_VALUE: ep_aud_out <- [SP+52]
	#DEBUG_VALUE: ep_aud_in <- [SP+48]
	#DEBUG_VALUE: ep_midi_from_host <- [SP+80]
	#DEBUG_VALUE: ep_midi_to_host <- [SP+92]
	#DEBUG_VALUE: ep_hid <- [SP+84]
	#DEBUG_VALUE: sampleFreq <- 48000
	#DEBUG_VALUE: masterClockFreq <- 24576000
	#DEBUG_VALUE: lastClock <- R9
	#DEBUG_VALUE: clocks <- 0
	#DEBUG_VALUE: clockcounter <- 0
	#DEBUG_VALUE: bufferIn <- 1
	#DEBUG_VALUE: remnant <- 0
	#DEBUG_VALUE: sofCount <- 0
	#DEBUG_VALUE: mod_from_last_time <- 0
	#DEBUG_VALUE: aud_from_host_buffer <- 0
	#DEBUG_VALUE: midi_from_host_rdptr <- [SP+28]
	#DEBUG_VALUE: midi_from_host_buffer <- [SP+32]
	#DEBUG_VALUE: midi_to_host_buffer_being_sent <- R0
	#DEBUG_VALUE: midi_to_host_buffer_being_collected <- R1
	#DEBUG_VALUE: midi_data_remaining_to_device <- 0
	#DEBUG_VALUE: midi_data_collected_from_device <- 0
	#DEBUG_VALUE: midi_waiting_on_send_to_host <- 0
	#DEBUG_VALUE: buffer:c_midi <- R4
	#DEBUG_VALUE: u_tmp <- R9
	#DEBUG_VALUE: feedbackMul <- 8
	{
		nop
		ldw r0, sp[9]
	}
.Ltmp100:
	#DEBUG_VALUE: buffer:c_midi_to_host <- [SP+72]
	.loc	1 498 0                 # /Users/rkn/Documents/xTIMEcomposer/workspace/module_usb_audio/usb_buffer/usb_buffer.xc:498:0
	ladd r1, r0, r2, r0, r11
.Ltmp101:
	{
		add r10, r3, r1
		stw r0, sp[16]
	}
	.loc	1 499 0                 # /Users/rkn/Documents/xTIMEcomposer/workspace/module_usb_audio/usb_buffer/usb_buffer.xc:499:0
	{
		mov r1, r10
		ldw r8, sp[3]
	}
	{
		mov r2, r8
		ldc r3, 0
	}
	bl __divdi3
	{
		nop
		stw r0, sp[17]
	}
	.loc	1 500 0                 # /Users/rkn/Documents/xTIMEcomposer/workspace/module_usb_audio/usb_buffer/usb_buffer.xc:500:0
	{
		mov r1, r10
		ldw r0, sp[16]
	}
	{
		ldc r10, 0
		mov r2, r8
	}
	{
		mov r3, r10
		nop
	}
	bl __moddi3
	{
		mkmsk r0, 2
		stw r0, sp[9]
	}
	{
		nop
		ldw r1, sp[10]
	}
	bt r1, .LBB0_34
.Ltmp102:
# BB#33:                                # %iftrue103
                                        #   in Loop: Header=BB0_5 Depth=1
.Lxtalabel15:
	#DEBUG_VALUE: buffer:c_aud_out <- [SP+108]
	#DEBUG_VALUE: buffer:c_aud_in <- [SP+112]
	#DEBUG_VALUE: buffer:c_midi_from_host <- [SP+116]
	#DEBUG_VALUE: buffer:c_midi_to_host <- [SP+72]
	#DEBUG_VALUE: buffer:p_off_mclk <- [SP+56]
	#DEBUG_VALUE: buffer:c_hid <- [SP+104]
	#DEBUG_VALUE: buffer:c_sof <- [SP+120]
	#DEBUG_VALUE: buffer:c_aud_ctl <- [SP+100]
	#DEBUG_VALUE: ep_aud_out <- [SP+52]
	#DEBUG_VALUE: ep_aud_in <- [SP+48]
	#DEBUG_VALUE: ep_midi_from_host <- [SP+80]
	#DEBUG_VALUE: ep_midi_to_host <- [SP+92]
	#DEBUG_VALUE: ep_hid <- [SP+84]
	#DEBUG_VALUE: sampleFreq <- 48000
	#DEBUG_VALUE: masterClockFreq <- 24576000
	#DEBUG_VALUE: lastClock <- R9
	#DEBUG_VALUE: clocks <- 0
	#DEBUG_VALUE: clockcounter <- 0
	#DEBUG_VALUE: bufferIn <- 1
	#DEBUG_VALUE: remnant <- 0
	#DEBUG_VALUE: sofCount <- 0
	#DEBUG_VALUE: mod_from_last_time <- 0
	#DEBUG_VALUE: aud_from_host_buffer <- 0
	#DEBUG_VALUE: midi_from_host_rdptr <- [SP+28]
	#DEBUG_VALUE: midi_from_host_buffer <- [SP+32]
	#DEBUG_VALUE: midi_to_host_buffer_being_sent <- R0
	#DEBUG_VALUE: midi_to_host_buffer_being_collected <- R1
	#DEBUG_VALUE: midi_data_remaining_to_device <- 0
	#DEBUG_VALUE: midi_data_collected_from_device <- 0
	#DEBUG_VALUE: midi_waiting_on_send_to_host <- 0
	#DEBUG_VALUE: buffer:c_midi <- R4
	#DEBUG_VALUE: u_tmp <- R9
	#DEBUG_VALUE: feedbackMul <- 8
	{
		ldc r0, 6
		nop
	}
.Ltmp103:
.LBB0_34:                               # %iftrue103
                                        #   in Loop: Header=BB0_5 Depth=1
.Lxtalabel16:
	#DEBUG_VALUE: buffer:c_aud_out <- [SP+108]
	#DEBUG_VALUE: buffer:c_aud_in <- [SP+112]
	#DEBUG_VALUE: buffer:c_midi_from_host <- [SP+116]
	#DEBUG_VALUE: buffer:c_midi_to_host <- [SP+72]
	#DEBUG_VALUE: buffer:p_off_mclk <- [SP+56]
	#DEBUG_VALUE: buffer:c_hid <- [SP+104]
	#DEBUG_VALUE: buffer:c_sof <- [SP+120]
	#DEBUG_VALUE: buffer:c_aud_ctl <- [SP+100]
	#DEBUG_VALUE: ep_aud_out <- [SP+52]
	#DEBUG_VALUE: ep_aud_in <- [SP+48]
	#DEBUG_VALUE: ep_midi_from_host <- [SP+80]
	#DEBUG_VALUE: ep_midi_to_host <- [SP+92]
	#DEBUG_VALUE: ep_hid <- [SP+84]
	#DEBUG_VALUE: sampleFreq <- 48000
	#DEBUG_VALUE: masterClockFreq <- 24576000
	#DEBUG_VALUE: lastClock <- R9
	#DEBUG_VALUE: clocks <- 0
	#DEBUG_VALUE: clockcounter <- 0
	#DEBUG_VALUE: bufferIn <- 1
	#DEBUG_VALUE: remnant <- 0
	#DEBUG_VALUE: sofCount <- 0
	#DEBUG_VALUE: mod_from_last_time <- 0
	#DEBUG_VALUE: aud_from_host_buffer <- 0
	#DEBUG_VALUE: midi_from_host_rdptr <- [SP+28]
	#DEBUG_VALUE: midi_from_host_buffer <- [SP+32]
	#DEBUG_VALUE: midi_to_host_buffer_being_sent <- R0
	#DEBUG_VALUE: midi_to_host_buffer_being_collected <- R1
	#DEBUG_VALUE: midi_data_remaining_to_device <- 0
	#DEBUG_VALUE: midi_data_collected_from_device <- 0
	#DEBUG_VALUE: midi_waiting_on_send_to_host <- 0
	#DEBUG_VALUE: buffer:c_midi <- R4
	#DEBUG_VALUE: u_tmp <- R9
	#DEBUG_VALUE: feedbackMul <- 8
	{
		nop
		ldw r1, sp[17]
	}
.Ltmp104:
	.loc	1 502 25                # /Users/rkn/Documents/xTIMEcomposer/workspace/module_usb_audio/usb_buffer/usb_buffer.xc:502:25
	{
		shl r0, r1, r0
		nop
	}
.Ltmp105:
	.loc	1 517 0                 # /Users/rkn/Documents/xTIMEcomposer/workspace/module_usb_audio/usb_buffer/usb_buffer.xc:517:0
	#APP
	stw r0, dp[g_speed]
	#NO_APP
	.loc	1 519 0                 # /Users/rkn/Documents/xTIMEcomposer/workspace/module_usb_audio/usb_buffer/usb_buffer.xc:519:0
	#APP
	ldw r1, dp[g_curUsbSpeed]
	#NO_APP
.Ltmp106:
	#DEBUG_VALUE: usb_speed <- R1
	#DEBUG_VALUE: buffer:c_midi_to_host <- R8
	.loc	1 521 29                # /Users/rkn/Documents/xTIMEcomposer/workspace/module_usb_audio/usb_buffer/usb_buffer.xc:521:29
	{
		eq r1, r1, 2
		ldw r8, sp[18]
	}
.Ltmp107:
	bt r1, .LBB0_36
.Ltmp108:
# BB#35:                                # %iftrue103
                                        #   in Loop: Header=BB0_5 Depth=1
.Lxtalabel17:
	#DEBUG_VALUE: buffer:c_aud_out <- [SP+108]
	#DEBUG_VALUE: buffer:c_aud_in <- [SP+112]
	#DEBUG_VALUE: buffer:c_midi_from_host <- [SP+116]
	#DEBUG_VALUE: buffer:c_midi_to_host <- R8
	#DEBUG_VALUE: buffer:p_off_mclk <- [SP+56]
	#DEBUG_VALUE: buffer:c_hid <- [SP+104]
	#DEBUG_VALUE: buffer:c_sof <- [SP+120]
	#DEBUG_VALUE: buffer:c_aud_ctl <- [SP+100]
	#DEBUG_VALUE: ep_aud_out <- [SP+52]
	#DEBUG_VALUE: ep_aud_in <- [SP+48]
	#DEBUG_VALUE: ep_midi_from_host <- [SP+80]
	#DEBUG_VALUE: ep_midi_to_host <- [SP+92]
	#DEBUG_VALUE: ep_hid <- [SP+84]
	#DEBUG_VALUE: sampleFreq <- 48000
	#DEBUG_VALUE: masterClockFreq <- 24576000
	#DEBUG_VALUE: lastClock <- R9
	#DEBUG_VALUE: clocks <- 0
	#DEBUG_VALUE: clockcounter <- 0
	#DEBUG_VALUE: bufferIn <- 1
	#DEBUG_VALUE: remnant <- 0
	#DEBUG_VALUE: sofCount <- 0
	#DEBUG_VALUE: mod_from_last_time <- 0
	#DEBUG_VALUE: aud_from_host_buffer <- 0
	#DEBUG_VALUE: midi_from_host_rdptr <- [SP+28]
	#DEBUG_VALUE: midi_from_host_buffer <- [SP+32]
	#DEBUG_VALUE: midi_to_host_buffer_being_sent <- R0
	#DEBUG_VALUE: midi_to_host_buffer_being_collected <- R1
	#DEBUG_VALUE: midi_data_remaining_to_device <- 0
	#DEBUG_VALUE: midi_data_collected_from_device <- 0
	#DEBUG_VALUE: midi_waiting_on_send_to_host <- 0
	#DEBUG_VALUE: buffer:c_midi <- R4
	#DEBUG_VALUE: u_tmp <- R9
	#DEBUG_VALUE: feedbackMul <- 8
	.loc	1 527 0                 # /Users/rkn/Documents/xTIMEcomposer/workspace/module_usb_audio/usb_buffer/usb_buffer.xc:527:0
	{
		shr r0, r0, 2
		nop
	}
.Ltmp109:
.LBB0_36:                               # %iftrue103
                                        #   in Loop: Header=BB0_5 Depth=1
.Lxtalabel18:
	#DEBUG_VALUE: buffer:c_aud_out <- [SP+108]
	#DEBUG_VALUE: buffer:c_aud_in <- [SP+112]
	#DEBUG_VALUE: buffer:c_midi_from_host <- [SP+116]
	#DEBUG_VALUE: buffer:c_midi_to_host <- R8
	#DEBUG_VALUE: buffer:p_off_mclk <- [SP+56]
	#DEBUG_VALUE: buffer:c_hid <- [SP+104]
	#DEBUG_VALUE: buffer:c_sof <- [SP+120]
	#DEBUG_VALUE: buffer:c_aud_ctl <- [SP+100]
	#DEBUG_VALUE: ep_aud_out <- [SP+52]
	#DEBUG_VALUE: ep_aud_in <- [SP+48]
	#DEBUG_VALUE: ep_midi_from_host <- [SP+80]
	#DEBUG_VALUE: ep_midi_to_host <- [SP+92]
	#DEBUG_VALUE: ep_hid <- [SP+84]
	#DEBUG_VALUE: sampleFreq <- 48000
	#DEBUG_VALUE: masterClockFreq <- 24576000
	#DEBUG_VALUE: lastClock <- R9
	#DEBUG_VALUE: clocks <- 0
	#DEBUG_VALUE: clockcounter <- 0
	#DEBUG_VALUE: bufferIn <- 1
	#DEBUG_VALUE: remnant <- 0
	#DEBUG_VALUE: sofCount <- 0
	#DEBUG_VALUE: mod_from_last_time <- 0
	#DEBUG_VALUE: aud_from_host_buffer <- 0
	#DEBUG_VALUE: midi_from_host_rdptr <- [SP+28]
	#DEBUG_VALUE: midi_from_host_buffer <- [SP+32]
	#DEBUG_VALUE: midi_to_host_buffer_being_sent <- R0
	#DEBUG_VALUE: midi_to_host_buffer_being_collected <- R1
	#DEBUG_VALUE: midi_data_remaining_to_device <- 0
	#DEBUG_VALUE: midi_data_collected_from_device <- 0
	#DEBUG_VALUE: midi_waiting_on_send_to_host <- 0
	#DEBUG_VALUE: buffer:c_midi <- R4
	#DEBUG_VALUE: u_tmp <- R9
	#DEBUG_VALUE: feedbackMul <- 8
	.loc	1 527 0                 # /Users/rkn/Documents/xTIMEcomposer/workspace/module_usb_audio/usb_buffer/usb_buffer.xc:527:0
	stw r0, dp[fb_clocks]
	{
		mov r1, r10
		stw r10, sp[16]
	}
.Ltmp110:
	{
		nop
		stw r10, sp[15]
	}
	bu .LBB0_37
.Ltmp111:
.Ltmp57:                                # Block address taken
.LBB0_6:                                # %selectcase4
                                        #   in Loop: Header=BB0_5 Depth=1
.Lxtalabel19:
	#DEBUG_VALUE: buffer:c_aud_out <- [SP+108]
	#DEBUG_VALUE: buffer:c_aud_in <- [SP+112]
	#DEBUG_VALUE: buffer:c_midi_from_host <- [SP+116]
	#DEBUG_VALUE: buffer:c_midi_to_host <- R8
	#DEBUG_VALUE: buffer:p_off_mclk <- [SP+56]
	#DEBUG_VALUE: buffer:c_hid <- [SP+104]
	#DEBUG_VALUE: buffer:c_sof <- [SP+120]
	#DEBUG_VALUE: buffer:c_aud_ctl <- R3
	#DEBUG_VALUE: buffer:c_aud_ctl <- [SP+100]
	#DEBUG_VALUE: ep_aud_out <- [SP+52]
	#DEBUG_VALUE: ep_aud_in <- [SP+48]
	#DEBUG_VALUE: ep_midi_from_host <- [SP+80]
	#DEBUG_VALUE: ep_midi_to_host <- [SP+92]
	#DEBUG_VALUE: ep_hid <- [SP+84]
	#DEBUG_VALUE: sampleFreq <- 48000
	#DEBUG_VALUE: masterClockFreq <- 24576000
	#DEBUG_VALUE: lastClock <- 0
	#DEBUG_VALUE: clocks <- 0
	#DEBUG_VALUE: clockcounter <- 0
	#DEBUG_VALUE: bufferIn <- 1
	#DEBUG_VALUE: remnant <- 0
	#DEBUG_VALUE: sofCount <- 0
	#DEBUG_VALUE: freqChange <- 0
	#DEBUG_VALUE: mod_from_last_time <- 0
	#DEBUG_VALUE: aud_from_host_buffer <- 0
	#DEBUG_VALUE: midi_from_host_rdptr <- [SP+28]
	#DEBUG_VALUE: midi_from_host_buffer <- [SP+32]
	#DEBUG_VALUE: midi_to_host_buffer_being_sent <- R0
	#DEBUG_VALUE: midi_to_host_buffer_being_collected <- R1
	#DEBUG_VALUE: midi_data_remaining_to_device <- 0
	#DEBUG_VALUE: midi_data_collected_from_device <- 0
	#DEBUG_VALUE: midi_waiting_on_send_to_host <- 0
	#DEBUG_VALUE: buffer:c_midi <- R4
	#DEBUG_VALUE: result <- undef
	{
		nop
		ldw r0, sp[28]
	}
.Ltmp112:
	.loc	1 547 0                 # /Users/rkn/Documents/xTIMEcomposer/workspace/module_usb_audio/usb_buffer/usb_buffer.xc:547:0
	{
		ldaw r2, sp[35]
		ldw r1, sp[12]
	}
.Ltmp113:
.Lxta.call_labels5:
	bl XUD_SetData_Select
	{
		ldc r0, 2
		nop
	}
	.loc	1 550 0                 # /Users/rkn/Documents/xTIMEcomposer/workspace/module_usb_audio/usb_buffer/usb_buffer.xc:550:0
	#APP
	stw r0, dp[g_aud_to_host_flag]
	#NO_APP
	bu .LBB0_51
.Ltmp114:
.Ltmp60:                                # Block address taken
.LBB0_7:                                # %selectcase7
                                        #   in Loop: Header=BB0_5 Depth=1
.Lxtalabel20:
	#DEBUG_VALUE: buffer:c_aud_out <- [SP+108]
	#DEBUG_VALUE: buffer:c_aud_in <- [SP+112]
	#DEBUG_VALUE: buffer:c_midi_from_host <- [SP+116]
	#DEBUG_VALUE: buffer:c_midi_to_host <- R8
	#DEBUG_VALUE: buffer:p_off_mclk <- [SP+56]
	#DEBUG_VALUE: buffer:c_hid <- [SP+104]
	#DEBUG_VALUE: buffer:c_sof <- [SP+120]
	#DEBUG_VALUE: buffer:c_aud_ctl <- R3
	#DEBUG_VALUE: buffer:c_aud_ctl <- [SP+100]
	#DEBUG_VALUE: ep_aud_out <- [SP+52]
	#DEBUG_VALUE: ep_aud_in <- [SP+48]
	#DEBUG_VALUE: ep_midi_from_host <- [SP+80]
	#DEBUG_VALUE: ep_midi_to_host <- [SP+92]
	#DEBUG_VALUE: ep_hid <- [SP+84]
	#DEBUG_VALUE: sampleFreq <- 48000
	#DEBUG_VALUE: masterClockFreq <- 24576000
	#DEBUG_VALUE: lastClock <- 0
	#DEBUG_VALUE: clocks <- 0
	#DEBUG_VALUE: clockcounter <- 0
	#DEBUG_VALUE: bufferIn <- 1
	#DEBUG_VALUE: remnant <- 0
	#DEBUG_VALUE: sofCount <- 0
	#DEBUG_VALUE: freqChange <- 0
	#DEBUG_VALUE: mod_from_last_time <- 0
	#DEBUG_VALUE: aud_from_host_buffer <- 0
	#DEBUG_VALUE: midi_from_host_rdptr <- [SP+28]
	#DEBUG_VALUE: midi_from_host_buffer <- [SP+32]
	#DEBUG_VALUE: midi_to_host_buffer_being_sent <- R0
	#DEBUG_VALUE: midi_to_host_buffer_being_collected <- R1
	#DEBUG_VALUE: midi_data_remaining_to_device <- 0
	#DEBUG_VALUE: midi_data_collected_from_device <- 0
	#DEBUG_VALUE: midi_waiting_on_send_to_host <- 0
	#DEBUG_VALUE: buffer:c_midi <- R4
	#DEBUG_VALUE: length <- undef
	#DEBUG_VALUE: result <- undef
	{
		nop
		ldw r0, sp[27]
	}
.Ltmp115:
	.loc	1 576 0                 # /Users/rkn/Documents/xTIMEcomposer/workspace/module_usb_audio/usb_buffer/usb_buffer.xc:576:0
	{
		ldaw r2, sp[34]
		ldw r1, sp[13]
	}
.Ltmp116:
	{
		ldaw r3, sp[35]
		nop
	}
.Lxta.call_labels6:
	bl XUD_GetData_Select
	.loc	1 578 0                 # /Users/rkn/Documents/xTIMEcomposer/workspace/module_usb_audio/usb_buffer/usb_buffer.xc:578:0
	#APP
	ldw r0, dp[g_aud_from_host_buffer]
	#NO_APP
.Ltmp117:
	#DEBUG_VALUE: aud_from_host_buffer <- R0
	{
		nop
		ldw r1, sp[34]
	}
	.loc	1 580 0                 # /Users/rkn/Documents/xTIMEcomposer/workspace/module_usb_audio/usb_buffer/usb_buffer.xc:580:0
	#APP
	stw r1, r0[0]
	#NO_APP
	{
		mkmsk r0, 1
		nop
	}
.Ltmp118:
	.loc	1 583 0                 # /Users/rkn/Documents/xTIMEcomposer/workspace/module_usb_audio/usb_buffer/usb_buffer.xc:583:0
	#APP
	stw r0, dp[g_aud_from_host_flag]
	#NO_APP
	bu .LBB0_51
.Ltmp119:
.Ltmp63:                                # Block address taken
.LBB0_8:                                # %selectcase10
                                        #   in Loop: Header=BB0_5 Depth=1
.Lxtalabel21:
	#DEBUG_VALUE: buffer:c_aud_out <- [SP+108]
	#DEBUG_VALUE: buffer:c_aud_in <- [SP+112]
	#DEBUG_VALUE: buffer:c_midi_from_host <- [SP+116]
	#DEBUG_VALUE: buffer:c_midi_to_host <- R8
	#DEBUG_VALUE: buffer:p_off_mclk <- [SP+56]
	#DEBUG_VALUE: buffer:c_hid <- [SP+104]
	#DEBUG_VALUE: buffer:c_sof <- [SP+120]
	#DEBUG_VALUE: buffer:c_aud_ctl <- R3
	#DEBUG_VALUE: buffer:c_aud_ctl <- [SP+100]
	#DEBUG_VALUE: ep_aud_out <- [SP+52]
	#DEBUG_VALUE: ep_aud_in <- [SP+48]
	#DEBUG_VALUE: ep_midi_from_host <- [SP+80]
	#DEBUG_VALUE: ep_midi_to_host <- [SP+92]
	#DEBUG_VALUE: ep_hid <- [SP+84]
	#DEBUG_VALUE: sampleFreq <- 48000
	#DEBUG_VALUE: masterClockFreq <- 24576000
	#DEBUG_VALUE: lastClock <- 0
	#DEBUG_VALUE: clocks <- 0
	#DEBUG_VALUE: clockcounter <- 0
	#DEBUG_VALUE: bufferIn <- 1
	#DEBUG_VALUE: remnant <- 0
	#DEBUG_VALUE: sofCount <- 0
	#DEBUG_VALUE: freqChange <- 0
	#DEBUG_VALUE: mod_from_last_time <- 0
	#DEBUG_VALUE: aud_from_host_buffer <- 0
	#DEBUG_VALUE: midi_from_host_rdptr <- [SP+28]
	#DEBUG_VALUE: midi_from_host_buffer <- [SP+32]
	#DEBUG_VALUE: midi_to_host_buffer_being_sent <- R0
	#DEBUG_VALUE: midi_to_host_buffer_being_collected <- R1
	#DEBUG_VALUE: midi_data_remaining_to_device <- 0
	#DEBUG_VALUE: midi_data_collected_from_device <- 0
	#DEBUG_VALUE: midi_waiting_on_send_to_host <- 0
	#DEBUG_VALUE: buffer:c_midi <- R4
	#DEBUG_VALUE: length <- undef
	#DEBUG_VALUE: result <- undef
	{
		nop
		ldw r0, sp[29]
	}
.Ltmp120:
	.loc	1 589 0                 # /Users/rkn/Documents/xTIMEcomposer/workspace/module_usb_audio/usb_buffer/usb_buffer.xc:589:0
	{
		ldaw r2, sp[34]
		ldw r1, sp[20]
	}
.Ltmp121:
	{
		ldaw r3, sp[35]
		nop
	}
.Lxta.call_labels7:
	bl XUD_GetData_Select
	{
		nop
		ldw r11, sp[35]
	}
.Ltmp122:
	#DEBUG_VALUE: midi_data_remaining_to_device <- R3
	{
		mov r0, r6
		ldw r3, sp[34]
	}
.Ltmp123:
	{
		mov r1, r5
		mov r2, r7
	}
	{
		mov r9, r10
		nop
	}
	bt r11, .LBB0_5
.Ltmp124:
# BB#9:                                 # %selectcase10
                                        #   in Loop: Header=BB0_5 Depth=1
.Lxtalabel22:
	#DEBUG_VALUE: buffer:c_aud_out <- [SP+108]
	#DEBUG_VALUE: buffer:c_aud_in <- [SP+112]
	#DEBUG_VALUE: buffer:c_midi_from_host <- [SP+116]
	#DEBUG_VALUE: buffer:c_midi_to_host <- R8
	#DEBUG_VALUE: buffer:p_off_mclk <- [SP+56]
	#DEBUG_VALUE: buffer:c_hid <- [SP+104]
	#DEBUG_VALUE: buffer:c_sof <- [SP+120]
	#DEBUG_VALUE: buffer:c_aud_ctl <- [SP+100]
	#DEBUG_VALUE: buffer:c_midi <- R4
	{
		mov r0, r6
		mov r1, r5
	}
	{
		mov r2, r7
		mov r9, r10
	}
	bf r3, .LBB0_5
.Ltmp125:
# BB#10:                                # %iftrue168
                                        #   in Loop: Header=BB0_5 Depth=1
.Lxtalabel23:
	#DEBUG_VALUE: buffer:c_aud_out <- [SP+108]
	#DEBUG_VALUE: buffer:c_aud_in <- [SP+112]
	#DEBUG_VALUE: buffer:c_midi_from_host <- [SP+116]
	#DEBUG_VALUE: buffer:c_midi_to_host <- R8
	#DEBUG_VALUE: buffer:p_off_mclk <- [SP+56]
	#DEBUG_VALUE: buffer:c_hid <- [SP+104]
	#DEBUG_VALUE: buffer:c_sof <- [SP+120]
	#DEBUG_VALUE: buffer:c_aud_ctl <- [SP+100]
	#DEBUG_VALUE: buffer:c_midi <- R4
	{
		nop
		ldw r0, sp[8]
	}
	.loc	1 600 0                 # /Users/rkn/Documents/xTIMEcomposer/workspace/module_usb_audio/usb_buffer/usb_buffer.xc:600:0
	#APP
	ldw r0, r0[0]
	#NO_APP
.Ltmp126:
	#DEBUG_VALUE: midi_get_ack_or_data:datum <- R0
	#DEBUG_VALUE: datum <- R0
	#DEBUG_VALUE: midi_data_remaining_to_device <- [SP+88]
	.loc	1 601 0                 # /Users/rkn/Documents/xTIMEcomposer/workspace/module_usb_audio/usb_buffer/usb_buffer.xc:601:0
.Lxta.endpoint_labels6:
	{
		out res[r4], r0
		sub r0, r3, 4
	}
.Ltmp127:
	{
		mov r0, r6
		stw r0, sp[22]
	}
	{
		mov r1, r5
		mov r2, r7
	}
	{
		nop
		ldw r3, sp[7]
	}
	{
		mov r9, r10
		stw r3, sp[19]
	}
	bu .LBB0_5
.Ltmp128:
.Ltmp66:                                # Block address taken
.LBB0_38:                               # %selectcase13
                                        #   in Loop: Header=BB0_5 Depth=1
.Lxtalabel24:
	#DEBUG_VALUE: buffer:c_aud_out <- [SP+108]
	#DEBUG_VALUE: buffer:c_aud_in <- [SP+112]
	#DEBUG_VALUE: buffer:c_midi_from_host <- [SP+116]
	#DEBUG_VALUE: buffer:c_midi_to_host <- R8
	#DEBUG_VALUE: buffer:p_off_mclk <- [SP+56]
	#DEBUG_VALUE: buffer:c_hid <- [SP+104]
	#DEBUG_VALUE: buffer:c_sof <- [SP+120]
	#DEBUG_VALUE: buffer:c_aud_ctl <- R3
	#DEBUG_VALUE: buffer:c_aud_ctl <- [SP+100]
	#DEBUG_VALUE: ep_aud_out <- [SP+52]
	#DEBUG_VALUE: ep_aud_in <- [SP+48]
	#DEBUG_VALUE: ep_midi_from_host <- [SP+80]
	#DEBUG_VALUE: ep_midi_to_host <- [SP+92]
	#DEBUG_VALUE: ep_hid <- [SP+84]
	#DEBUG_VALUE: sampleFreq <- 48000
	#DEBUG_VALUE: masterClockFreq <- 24576000
	#DEBUG_VALUE: lastClock <- 0
	#DEBUG_VALUE: clocks <- 0
	#DEBUG_VALUE: clockcounter <- 0
	#DEBUG_VALUE: bufferIn <- 1
	#DEBUG_VALUE: remnant <- 0
	#DEBUG_VALUE: sofCount <- 0
	#DEBUG_VALUE: freqChange <- 0
	#DEBUG_VALUE: mod_from_last_time <- 0
	#DEBUG_VALUE: aud_from_host_buffer <- 0
	#DEBUG_VALUE: midi_from_host_rdptr <- [SP+28]
	#DEBUG_VALUE: midi_from_host_buffer <- [SP+32]
	#DEBUG_VALUE: midi_to_host_buffer_being_sent <- R0
	#DEBUG_VALUE: midi_to_host_buffer_being_collected <- R1
	#DEBUG_VALUE: midi_data_remaining_to_device <- 0
	#DEBUG_VALUE: midi_data_collected_from_device <- 0
	#DEBUG_VALUE: midi_waiting_on_send_to_host <- 0
	#DEBUG_VALUE: buffer:c_midi <- R4
	#DEBUG_VALUE: result <- undef
	.loc	1 609 0                 # /Users/rkn/Documents/xTIMEcomposer/workspace/module_usb_audio/usb_buffer/usb_buffer.xc:609:0
	{
		mov r0, r8
		ldw r1, sp[23]
	}
.Ltmp129:
	{
		ldaw r2, sp[35]
		nop
	}
.Lxta.call_labels8:
	bl XUD_SetData_Select
	{
		mov r0, r6
		mov r1, r5
	}
	{
		ldc r2, 0
		nop
	}
	{
		mov r9, r10
		stw r2, sp[24]
	}
	bf r7, .LBB0_5
.Ltmp130:
# BB#39:                                # %iftrue178
                                        #   in Loop: Header=BB0_5 Depth=1
.Lxtalabel25:
	#DEBUG_VALUE: buffer:c_aud_out <- [SP+108]
	#DEBUG_VALUE: buffer:c_aud_in <- [SP+112]
	#DEBUG_VALUE: buffer:c_midi_from_host <- [SP+116]
	#DEBUG_VALUE: buffer:c_midi_to_host <- R8
	#DEBUG_VALUE: buffer:p_off_mclk <- [SP+56]
	#DEBUG_VALUE: buffer:c_hid <- [SP+104]
	#DEBUG_VALUE: buffer:c_sof <- [SP+120]
	#DEBUG_VALUE: buffer:c_aud_ctl <- [SP+100]
	#DEBUG_VALUE: ep_aud_out <- [SP+52]
	#DEBUG_VALUE: ep_aud_in <- [SP+48]
	#DEBUG_VALUE: ep_midi_from_host <- [SP+80]
	#DEBUG_VALUE: ep_midi_to_host <- [SP+92]
	#DEBUG_VALUE: ep_hid <- [SP+84]
	#DEBUG_VALUE: sampleFreq <- 48000
	#DEBUG_VALUE: masterClockFreq <- 24576000
	#DEBUG_VALUE: lastClock <- 0
	#DEBUG_VALUE: clocks <- 0
	#DEBUG_VALUE: clockcounter <- 0
	#DEBUG_VALUE: bufferIn <- 1
	#DEBUG_VALUE: remnant <- 0
	#DEBUG_VALUE: sofCount <- 0
	#DEBUG_VALUE: freqChange <- 0
	#DEBUG_VALUE: mod_from_last_time <- 0
	#DEBUG_VALUE: aud_from_host_buffer <- 0
	#DEBUG_VALUE: midi_from_host_rdptr <- [SP+28]
	#DEBUG_VALUE: midi_from_host_buffer <- [SP+32]
	#DEBUG_VALUE: midi_to_host_buffer_being_sent <- R0
	#DEBUG_VALUE: midi_to_host_buffer_being_collected <- R1
	#DEBUG_VALUE: midi_data_remaining_to_device <- 0
	#DEBUG_VALUE: midi_data_collected_from_device <- 0
	#DEBUG_VALUE: midi_waiting_on_send_to_host <- 0
	#DEBUG_VALUE: buffer:c_midi <- R4
	#DEBUG_VALUE: result <- undef
	{
		nop
		ldw r0, sp[23]
	}
.Ltmp131:
	.loc	2 463 0                 # /Users/rkn/Documents/xTIMEcomposer/workspace/module_xud/include/xud.h:463:0
	#APP
	ldw r3, r0[9]
	#NO_APP
.Ltmp132:
	#DEBUG_VALUE: reset <- R3
	{
		mov r0, r5
		mov r1, r6
	}
.Ltmp133:
	{
		mkmsk r2, 1
		nop
	}
	{
		ldc r2, 0
		stw r2, sp[24]
	}
	{
		mov r9, r10
		nop
	}
	bt r3, .LBB0_5
.Ltmp134:
# BB#40:                                # %ifdone.i241
                                        #   in Loop: Header=BB0_5 Depth=1
.Lxtalabel26:
	#DEBUG_VALUE: buffer:c_aud_out <- [SP+108]
	#DEBUG_VALUE: buffer:c_aud_in <- [SP+112]
	#DEBUG_VALUE: buffer:c_midi_from_host <- [SP+116]
	#DEBUG_VALUE: buffer:c_midi_to_host <- R8
	#DEBUG_VALUE: buffer:p_off_mclk <- [SP+56]
	#DEBUG_VALUE: buffer:c_hid <- [SP+104]
	#DEBUG_VALUE: buffer:c_sof <- [SP+120]
	#DEBUG_VALUE: buffer:c_aud_ctl <- [SP+100]
	#DEBUG_VALUE: ep_aud_out <- [SP+52]
	#DEBUG_VALUE: ep_aud_in <- [SP+48]
	#DEBUG_VALUE: ep_midi_from_host <- [SP+80]
	#DEBUG_VALUE: ep_midi_to_host <- [SP+92]
	#DEBUG_VALUE: ep_hid <- [SP+84]
	#DEBUG_VALUE: sampleFreq <- 48000
	#DEBUG_VALUE: masterClockFreq <- 24576000
	#DEBUG_VALUE: lastClock <- 0
	#DEBUG_VALUE: clocks <- 0
	#DEBUG_VALUE: clockcounter <- 0
	#DEBUG_VALUE: bufferIn <- 1
	#DEBUG_VALUE: remnant <- 0
	#DEBUG_VALUE: sofCount <- 0
	#DEBUG_VALUE: freqChange <- 0
	#DEBUG_VALUE: mod_from_last_time <- 0
	#DEBUG_VALUE: aud_from_host_buffer <- 0
	#DEBUG_VALUE: midi_from_host_rdptr <- [SP+28]
	#DEBUG_VALUE: midi_from_host_buffer <- [SP+32]
	#DEBUG_VALUE: midi_to_host_buffer_being_sent <- R0
	#DEBUG_VALUE: midi_to_host_buffer_being_collected <- R1
	#DEBUG_VALUE: midi_data_remaining_to_device <- 0
	#DEBUG_VALUE: midi_data_collected_from_device <- 0
	#DEBUG_VALUE: midi_waiting_on_send_to_host <- 0
	#DEBUG_VALUE: buffer:c_midi <- R4
	#DEBUG_VALUE: result <- undef
	.loc	2 470 0                 # /Users/rkn/Documents/xTIMEcomposer/workspace/module_xud/include/xud.h:470:0
	ashr r0, r7, 2
.Ltmp135:
	#DEBUG_VALUE: wordlength <- R0
	ldw r1, cp[.LCPI0_1]
.Ltmp136:
	#DEBUG_VALUE: wordlength <- R1
	.loc	2 471 0                 # /Users/rkn/Documents/xTIMEcomposer/workspace/module_xud/include/xud.h:471:0
	{
		and r1, r7, r1
		shl r2, r7, 5
	}
.Ltmp137:
	#DEBUG_VALUE: taillength <- R2
	#DEBUG_VALUE: ep_midi_to_host <- R11
	.loc	2 473 0                 # /Users/rkn/Documents/xTIMEcomposer/workspace/module_xud/include/xud.h:473:0
	{
		zext r2, 7
		ldw r11, sp[23]
	}
.Ltmp138:
	.loc	2 475 0                 # /Users/rkn/Documents/xTIMEcomposer/workspace/module_xud/include/xud.h:475:0
	#APP
	ldw r3, r11[0]
	#NO_APP
.Ltmp139:
	#DEBUG_VALUE: chan_array_ptr <- R3
	.loc	2 478 0                 # /Users/rkn/Documents/xTIMEcomposer/workspace/module_xud/include/xud.h:478:0
	#APP
	add r1, r5, r1
	#NO_APP
.Ltmp140:
	#DEBUG_VALUE: tmp <- R1
	.loc	2 480 0                 # /Users/rkn/Documents/xTIMEcomposer/workspace/module_xud/include/xud.h:480:0
	#APP
	neg r0, r0
	#NO_APP
.Ltmp141:
	#DEBUG_VALUE: tmp2 <- R0
	.loc	2 483 0                 # /Users/rkn/Documents/xTIMEcomposer/workspace/module_xud/include/xud.h:483:0
	#APP
	stw r0, r11[6]
	#NO_APP
	.loc	2 486 0                 # /Users/rkn/Documents/xTIMEcomposer/workspace/module_xud/include/xud.h:486:0
	#APP
	stw r1, r11[3]
	#NO_APP
	.loc	2 489 0                 # /Users/rkn/Documents/xTIMEcomposer/workspace/module_xud/include/xud.h:489:0
	#APP
	stw r2, r11[7]
	#NO_APP
	.loc	2 491 0                 # /Users/rkn/Documents/xTIMEcomposer/workspace/module_xud/include/xud.h:491:0
	#APP
	stw r11, r3[0]
	#NO_APP
	bu .LBB0_41
.Ltmp142:
.Ltmp67:                                # Block address taken
.LBB0_11:                               # %selectcase16
                                        #   in Loop: Header=BB0_5 Depth=1
.Lxtalabel27:
	#DEBUG_VALUE: buffer:c_aud_out <- [SP+108]
	#DEBUG_VALUE: buffer:c_aud_in <- [SP+112]
	#DEBUG_VALUE: buffer:c_midi_from_host <- [SP+116]
	#DEBUG_VALUE: buffer:c_midi_to_host <- R8
	#DEBUG_VALUE: buffer:p_off_mclk <- [SP+56]
	#DEBUG_VALUE: buffer:c_hid <- [SP+104]
	#DEBUG_VALUE: buffer:c_sof <- [SP+120]
	#DEBUG_VALUE: buffer:c_aud_ctl <- R3
	#DEBUG_VALUE: buffer:c_aud_ctl <- [SP+100]
	#DEBUG_VALUE: ep_aud_out <- [SP+52]
	#DEBUG_VALUE: ep_aud_in <- [SP+48]
	#DEBUG_VALUE: ep_midi_from_host <- [SP+80]
	#DEBUG_VALUE: ep_midi_to_host <- [SP+92]
	#DEBUG_VALUE: ep_hid <- [SP+84]
	#DEBUG_VALUE: sampleFreq <- 48000
	#DEBUG_VALUE: masterClockFreq <- 24576000
	#DEBUG_VALUE: lastClock <- 0
	#DEBUG_VALUE: clocks <- 0
	#DEBUG_VALUE: clockcounter <- 0
	#DEBUG_VALUE: bufferIn <- 1
	#DEBUG_VALUE: remnant <- 0
	#DEBUG_VALUE: sofCount <- 0
	#DEBUG_VALUE: freqChange <- 0
	#DEBUG_VALUE: mod_from_last_time <- 0
	#DEBUG_VALUE: aud_from_host_buffer <- 0
	#DEBUG_VALUE: midi_from_host_rdptr <- [SP+28]
	#DEBUG_VALUE: midi_from_host_buffer <- [SP+32]
	#DEBUG_VALUE: midi_to_host_buffer_being_sent <- R0
	#DEBUG_VALUE: midi_to_host_buffer_being_collected <- R1
	#DEBUG_VALUE: midi_data_remaining_to_device <- 0
	#DEBUG_VALUE: midi_data_collected_from_device <- 0
	#DEBUG_VALUE: midi_waiting_on_send_to_host <- 0
	#DEBUG_VALUE: buffer:c_midi <- R4
	#DEBUG_VALUE: result <- undef
	{
		nop
		ldw r0, sp[26]
	}
.Ltmp143:
	{
		nop
		ldw r9, sp[21]
	}
.Ltmp144:
	#DEBUG_VALUE: ep_hid <- R9
	.loc	1 726 0                 # /Users/rkn/Documents/xTIMEcomposer/workspace/module_usb_audio/usb_buffer/usb_buffer.xc:726:0
	{
		mov r1, r9
		ldaw r2, sp[35]
	}
.Ltmp145:
.Lxta.call_labels9:
	bl XUD_SetData_Select
	{
		ldc r0, 0
		nop
	}
.Ltmp146:
	.loc	2 508 0                 # /Users/rkn/Documents/xTIMEcomposer/workspace/module_xud/include/xud.h:508:0
	ldaw r1, dp[g_hidData]
.Ltmp147:
	.loc	1 728 0                 # /Users/rkn/Documents/xTIMEcomposer/workspace/module_usb_audio/usb_buffer/usb_buffer.xc:728:0
	st8 r0, r1[r0]
	.loc	1 729 0                 # /Users/rkn/Documents/xTIMEcomposer/workspace/module_usb_audio/usb_buffer/usb_buffer.xc:729:0
	{
		mov r0, r1
		mkmsk r1, 1
	}
.Lxta.call_labels10:
	bl UserReadHIDButtons
.Ltmp148:
	#DEBUG_VALUE: XUD_SetReady_In:len <- 1
	#DEBUG_VALUE: XUD_SetReady_InPtr:len <- 1
	#DEBUG_VALUE: XUD_SetReady_InPtr:addr <- [SP+24]
	#DEBUG_VALUE: addr <- [SP+24]
	.loc	2 463 0                 # /Users/rkn/Documents/xTIMEcomposer/workspace/module_xud/include/xud.h:463:0
	#APP
	ldw r3, r9[9]
	#NO_APP
.Ltmp149:
	#DEBUG_VALUE: XUD_SetReady_In:buffer <- [SP+4]
	#DEBUG_VALUE: reset <- R3
	#DEBUG_VALUE: ep_hid <- [SP+84]
	{
		mov r0, r6
		mov r1, r5
	}
	{
		mov r2, r7
		mov r9, r10
	}
	bt r3, .LBB0_5
.Ltmp150:
# BB#12:                                # %ifdone.i.i236
                                        #   in Loop: Header=BB0_5 Depth=1
.Lxtalabel28:
	#DEBUG_VALUE: buffer:c_aud_out <- [SP+108]
	#DEBUG_VALUE: buffer:c_aud_in <- [SP+112]
	#DEBUG_VALUE: buffer:c_midi_from_host <- [SP+116]
	#DEBUG_VALUE: buffer:c_midi_to_host <- R8
	#DEBUG_VALUE: buffer:p_off_mclk <- [SP+56]
	#DEBUG_VALUE: buffer:c_hid <- [SP+104]
	#DEBUG_VALUE: buffer:c_sof <- [SP+120]
	#DEBUG_VALUE: buffer:c_aud_ctl <- [SP+100]
	#DEBUG_VALUE: ep_aud_out <- [SP+52]
	#DEBUG_VALUE: ep_aud_in <- [SP+48]
	#DEBUG_VALUE: ep_midi_from_host <- [SP+80]
	#DEBUG_VALUE: ep_midi_to_host <- [SP+92]
	#DEBUG_VALUE: ep_hid <- [SP+84]
	#DEBUG_VALUE: sampleFreq <- 48000
	#DEBUG_VALUE: masterClockFreq <- 24576000
	#DEBUG_VALUE: lastClock <- 0
	#DEBUG_VALUE: clocks <- 0
	#DEBUG_VALUE: clockcounter <- 0
	#DEBUG_VALUE: bufferIn <- 1
	#DEBUG_VALUE: remnant <- 0
	#DEBUG_VALUE: sofCount <- 0
	#DEBUG_VALUE: freqChange <- 0
	#DEBUG_VALUE: mod_from_last_time <- 0
	#DEBUG_VALUE: aud_from_host_buffer <- 0
	#DEBUG_VALUE: midi_from_host_rdptr <- [SP+28]
	#DEBUG_VALUE: midi_from_host_buffer <- [SP+32]
	#DEBUG_VALUE: midi_to_host_buffer_being_sent <- R0
	#DEBUG_VALUE: midi_to_host_buffer_being_collected <- R1
	#DEBUG_VALUE: midi_data_remaining_to_device <- 0
	#DEBUG_VALUE: midi_data_collected_from_device <- 0
	#DEBUG_VALUE: midi_waiting_on_send_to_host <- 0
	#DEBUG_VALUE: buffer:c_midi <- R4
	#DEBUG_VALUE: result <- undef
	#DEBUG_VALUE: XUD_SetReady_In:len <- 1
	#DEBUG_VALUE: addr <- [SP+24]
	#DEBUG_VALUE: XUD_SetReady_InPtr:addr <- [SP+24]
	#DEBUG_VALUE: XUD_SetReady_InPtr:len <- 1
	#DEBUG_VALUE: XUD_SetReady_In:buffer <- [SP+4]
	#DEBUG_VALUE: wordlength <- 0
	#DEBUG_VALUE: taillength <- [SP+20]
	{
		nop
		ldw r2, sp[21]
	}
.Ltmp151:
	#DEBUG_VALUE: ep_hid <- R2
	.loc	2 475 0                 # /Users/rkn/Documents/xTIMEcomposer/workspace/module_xud/include/xud.h:475:0
	#APP
	ldw r0, r2[0]
	#NO_APP
.Ltmp152:
	#DEBUG_VALUE: chan_array_ptr <- R0
	{
		ldc r1, 0
		ldw r3, sp[6]
	}
.Ltmp153:
	.loc	2 478 0                 # /Users/rkn/Documents/xTIMEcomposer/workspace/module_xud/include/xud.h:478:0
	#APP
	add r1, r3, r1
	#NO_APP
.Ltmp154:
	#DEBUG_VALUE: tmp2 <- [SP+16]
	#DEBUG_VALUE: tmp <- R1
	{
		nop
		ldw r3, sp[4]
	}
	.loc	2 483 0                 # /Users/rkn/Documents/xTIMEcomposer/workspace/module_xud/include/xud.h:483:0
	#APP
	stw r3, r2[6]
	#NO_APP
	.loc	2 486 0                 # /Users/rkn/Documents/xTIMEcomposer/workspace/module_xud/include/xud.h:486:0
	#APP
	stw r1, r2[3]
	#NO_APP
	{
		nop
		ldw r1, sp[5]
	}
.Ltmp155:
	.loc	2 489 0                 # /Users/rkn/Documents/xTIMEcomposer/workspace/module_xud/include/xud.h:489:0
	#APP
	stw r1, r2[7]
	#NO_APP
	.loc	2 491 0                 # /Users/rkn/Documents/xTIMEcomposer/workspace/module_xud/include/xud.h:491:0
	#APP
	stw r2, r0[0]
	#NO_APP
	bu .LBB0_51
.Ltmp156:
.Ltmp49:                                # Block address taken
.LBB0_42:                               # %selectcase19
                                        #   in Loop: Header=BB0_5 Depth=1
.Lxtalabel29:
	#DEBUG_VALUE: buffer:c_aud_out <- [SP+108]
	#DEBUG_VALUE: buffer:c_aud_in <- [SP+112]
	#DEBUG_VALUE: buffer:c_midi_from_host <- [SP+116]
	#DEBUG_VALUE: buffer:c_midi_to_host <- R8
	#DEBUG_VALUE: buffer:p_off_mclk <- [SP+56]
	#DEBUG_VALUE: buffer:c_hid <- [SP+104]
	#DEBUG_VALUE: buffer:c_sof <- [SP+120]
	#DEBUG_VALUE: buffer:c_aud_ctl <- R3
	#DEBUG_VALUE: ep_aud_out <- [SP+52]
	#DEBUG_VALUE: ep_aud_in <- [SP+48]
	#DEBUG_VALUE: ep_midi_from_host <- [SP+80]
	#DEBUG_VALUE: ep_midi_to_host <- [SP+92]
	#DEBUG_VALUE: ep_hid <- [SP+84]
	#DEBUG_VALUE: sampleFreq <- 48000
	#DEBUG_VALUE: masterClockFreq <- 24576000
	#DEBUG_VALUE: lastClock <- 0
	#DEBUG_VALUE: clocks <- 0
	#DEBUG_VALUE: clockcounter <- 0
	#DEBUG_VALUE: bufferIn <- 1
	#DEBUG_VALUE: remnant <- 0
	#DEBUG_VALUE: sofCount <- 0
	#DEBUG_VALUE: freqChange <- 0
	#DEBUG_VALUE: mod_from_last_time <- 0
	#DEBUG_VALUE: aud_from_host_buffer <- 0
	#DEBUG_VALUE: midi_from_host_rdptr <- [SP+28]
	#DEBUG_VALUE: midi_from_host_buffer <- [SP+32]
	#DEBUG_VALUE: midi_to_host_buffer_being_sent <- R0
	#DEBUG_VALUE: midi_to_host_buffer_being_collected <- R1
	#DEBUG_VALUE: midi_data_remaining_to_device <- 0
	#DEBUG_VALUE: midi_data_collected_from_device <- 0
	#DEBUG_VALUE: midi_waiting_on_send_to_host <- 0
	#DEBUG_VALUE: buffer:c_midi <- R4
	#DEBUG_VALUE: midi_get_ack_or_data:c <- R4
	.file	5 "/Users/rkn/Documents/xTIMEcomposer/workspace/module_usb_midi/src/usb_midi.h"
	.loc	5 50 3                  # /Users/rkn/Documents/xTIMEcomposer/workspace/module_usb_midi/src/usb_midi.h:50:3
	{
		testct r0, res[r4]
		nop
	}
.Ltmp157:
	.loc	5 50 3                  # /Users/rkn/Documents/xTIMEcomposer/workspace/module_usb_midi/src/usb_midi.h:50:3
	bf r0, .LBB0_43
.Ltmp158:
# BB#48:                                # %iftrue192
                                        #   in Loop: Header=BB0_5 Depth=1
.Lxtalabel30:
	#DEBUG_VALUE: buffer:c_aud_out <- [SP+108]
	#DEBUG_VALUE: buffer:c_aud_in <- [SP+112]
	#DEBUG_VALUE: buffer:c_midi_from_host <- [SP+116]
	#DEBUG_VALUE: buffer:c_midi_to_host <- R8
	#DEBUG_VALUE: buffer:p_off_mclk <- [SP+56]
	#DEBUG_VALUE: buffer:c_hid <- [SP+104]
	#DEBUG_VALUE: buffer:c_sof <- [SP+120]
	#DEBUG_VALUE: buffer:c_aud_ctl <- R3
	#DEBUG_VALUE: ep_aud_out <- [SP+52]
	#DEBUG_VALUE: ep_aud_in <- [SP+48]
	#DEBUG_VALUE: ep_midi_from_host <- [SP+80]
	#DEBUG_VALUE: ep_midi_to_host <- [SP+92]
	#DEBUG_VALUE: ep_hid <- [SP+84]
	#DEBUG_VALUE: sampleFreq <- 48000
	#DEBUG_VALUE: masterClockFreq <- 24576000
	#DEBUG_VALUE: lastClock <- 0
	#DEBUG_VALUE: clocks <- 0
	#DEBUG_VALUE: clockcounter <- 0
	#DEBUG_VALUE: bufferIn <- 1
	#DEBUG_VALUE: remnant <- 0
	#DEBUG_VALUE: sofCount <- 0
	#DEBUG_VALUE: freqChange <- 0
	#DEBUG_VALUE: mod_from_last_time <- 0
	#DEBUG_VALUE: aud_from_host_buffer <- 0
	#DEBUG_VALUE: midi_from_host_rdptr <- [SP+28]
	#DEBUG_VALUE: midi_from_host_buffer <- [SP+32]
	#DEBUG_VALUE: midi_to_host_buffer_being_sent <- R0
	#DEBUG_VALUE: midi_to_host_buffer_being_collected <- R1
	#DEBUG_VALUE: midi_data_remaining_to_device <- 0
	#DEBUG_VALUE: midi_data_collected_from_device <- 0
	#DEBUG_VALUE: midi_waiting_on_send_to_host <- 0
	#DEBUG_VALUE: buffer:c_midi <- R4
	#DEBUG_VALUE: midi_get_ack_or_data:c <- R4
	#DEBUG_VALUE: midi_get_ack_or_data:is_ack <- 1
	#DEBUG_VALUE: is_ack <- 1
	.loc	5 52 0                  # /Users/rkn/Documents/xTIMEcomposer/workspace/module_usb_midi/src/usb_midi.h:52:0
.Lxta.endpoint_labels7:
	{
		inct r0, res[r4]
		nop
	}
.Ltmp159:
	.loc	5 53 0                  # /Users/rkn/Documents/xTIMEcomposer/workspace/module_usb_midi/src/usb_midi.h:53:0
.Lxta.endpoint_labels8:
	{
		int r0, res[r4]
		nop
	}
	.loc	5 54 0                  # /Users/rkn/Documents/xTIMEcomposer/workspace/module_usb_midi/src/usb_midi.h:54:0
.Lxta.endpoint_labels9:
	{
		int r0, res[r4]
		nop
	}
	.loc	5 55 0                  # /Users/rkn/Documents/xTIMEcomposer/workspace/module_usb_midi/src/usb_midi.h:55:0
.Lxta.endpoint_labels10:
	{
		int r0, res[r4]
		nop
	}
	{
		mkmsk r0, 1
		ldw r1, sp[22]
	}
.Ltmp160:
	.loc	1 742 21                # /Users/rkn/Documents/xTIMEcomposer/workspace/module_usb_audio/usb_buffer/usb_buffer.xc:742:21
	{
		lss r0, r1, r0
		nop
	}
	.loc	1 742 21                # /Users/rkn/Documents/xTIMEcomposer/workspace/module_usb_audio/usb_buffer/usb_buffer.xc:742:21
	bt r0, .LBB0_49
.Ltmp161:
# BB#52:                                # %iffalse202
                                        #   in Loop: Header=BB0_5 Depth=1
.Lxtalabel31:
	#DEBUG_VALUE: buffer:c_aud_out <- [SP+108]
	#DEBUG_VALUE: buffer:c_aud_in <- [SP+112]
	#DEBUG_VALUE: buffer:c_midi_from_host <- [SP+116]
	#DEBUG_VALUE: buffer:c_midi_to_host <- R8
	#DEBUG_VALUE: buffer:p_off_mclk <- [SP+56]
	#DEBUG_VALUE: buffer:c_hid <- [SP+104]
	#DEBUG_VALUE: buffer:c_sof <- [SP+120]
	#DEBUG_VALUE: buffer:c_aud_ctl <- R3
	#DEBUG_VALUE: buffer:c_aud_ctl <- [SP+100]
	#DEBUG_VALUE: ep_aud_out <- [SP+52]
	#DEBUG_VALUE: ep_aud_in <- [SP+48]
	#DEBUG_VALUE: ep_midi_from_host <- [SP+80]
	#DEBUG_VALUE: ep_midi_to_host <- [SP+92]
	#DEBUG_VALUE: ep_hid <- [SP+84]
	#DEBUG_VALUE: sampleFreq <- 48000
	#DEBUG_VALUE: masterClockFreq <- 24576000
	#DEBUG_VALUE: lastClock <- 0
	#DEBUG_VALUE: clocks <- 0
	#DEBUG_VALUE: clockcounter <- 0
	#DEBUG_VALUE: bufferIn <- 1
	#DEBUG_VALUE: remnant <- 0
	#DEBUG_VALUE: sofCount <- 0
	#DEBUG_VALUE: freqChange <- 0
	#DEBUG_VALUE: mod_from_last_time <- 0
	#DEBUG_VALUE: aud_from_host_buffer <- 0
	#DEBUG_VALUE: midi_from_host_rdptr <- [SP+28]
	#DEBUG_VALUE: midi_from_host_buffer <- [SP+32]
	#DEBUG_VALUE: midi_to_host_buffer_being_sent <- R0
	#DEBUG_VALUE: midi_to_host_buffer_being_collected <- R1
	#DEBUG_VALUE: midi_data_remaining_to_device <- 0
	#DEBUG_VALUE: midi_data_collected_from_device <- 0
	#DEBUG_VALUE: midi_waiting_on_send_to_host <- 0
	#DEBUG_VALUE: buffer:c_midi <- R4
	#DEBUG_VALUE: is_ack <- 1
	{
		nop
		ldw r2, sp[19]
	}
	.loc	1 751 0                 # /Users/rkn/Documents/xTIMEcomposer/workspace/module_usb_audio/usb_buffer/usb_buffer.xc:751:0
	#APP
	ldw r0, r2[0]
	#NO_APP
.Ltmp162:
	#DEBUG_VALUE: midi_get_ack_or_data:datum <- R0
	#DEBUG_VALUE: datum <- R0
	#DEBUG_VALUE: midi_from_host_rdptr <- R2
	.loc	1 752 0                 # /Users/rkn/Documents/xTIMEcomposer/workspace/module_usb_audio/usb_buffer/usb_buffer.xc:752:0
.Lxta.endpoint_labels11:
	{
		out res[r4], r0
		add r2, r2, 4
	}
.Ltmp163:
	#DEBUG_VALUE: midi_from_host_rdptr <- [SP+76]
	#DEBUG_VALUE: midi_data_remaining_to_device <- R1
	{
		sub r1, r1, 4
		stw r2, sp[19]
	}
.Ltmp164:
	{
		nop
		stw r1, sp[22]
	}
	bu .LBB0_51
.Ltmp165:
.LBB0_43:                               # %iffalse195
                                        #   in Loop: Header=BB0_5 Depth=1
.Lxtalabel32:
	#DEBUG_VALUE: buffer:c_aud_out <- [SP+108]
	#DEBUG_VALUE: buffer:c_aud_in <- [SP+112]
	#DEBUG_VALUE: buffer:c_midi_from_host <- [SP+116]
	#DEBUG_VALUE: buffer:c_midi_to_host <- R8
	#DEBUG_VALUE: buffer:p_off_mclk <- [SP+56]
	#DEBUG_VALUE: buffer:c_hid <- [SP+104]
	#DEBUG_VALUE: buffer:c_sof <- [SP+120]
	#DEBUG_VALUE: buffer:c_aud_ctl <- R3
	#DEBUG_VALUE: ep_aud_out <- [SP+52]
	#DEBUG_VALUE: ep_aud_in <- [SP+48]
	#DEBUG_VALUE: ep_midi_from_host <- [SP+80]
	#DEBUG_VALUE: ep_midi_to_host <- [SP+92]
	#DEBUG_VALUE: ep_hid <- [SP+84]
	#DEBUG_VALUE: sampleFreq <- 48000
	#DEBUG_VALUE: masterClockFreq <- 24576000
	#DEBUG_VALUE: lastClock <- 0
	#DEBUG_VALUE: clocks <- 0
	#DEBUG_VALUE: clockcounter <- 0
	#DEBUG_VALUE: bufferIn <- 1
	#DEBUG_VALUE: remnant <- 0
	#DEBUG_VALUE: sofCount <- 0
	#DEBUG_VALUE: freqChange <- 0
	#DEBUG_VALUE: mod_from_last_time <- 0
	#DEBUG_VALUE: aud_from_host_buffer <- 0
	#DEBUG_VALUE: midi_from_host_rdptr <- [SP+28]
	#DEBUG_VALUE: midi_from_host_buffer <- [SP+32]
	#DEBUG_VALUE: midi_to_host_buffer_being_sent <- R0
	#DEBUG_VALUE: midi_to_host_buffer_being_collected <- R1
	#DEBUG_VALUE: midi_data_remaining_to_device <- 0
	#DEBUG_VALUE: midi_data_collected_from_device <- 0
	#DEBUG_VALUE: midi_waiting_on_send_to_host <- 0
	#DEBUG_VALUE: buffer:c_midi <- R4
	#DEBUG_VALUE: midi_get_ack_or_data:c <- R4
	#DEBUG_VALUE: midi_get_ack_or_data:is_ack <- 0
	#DEBUG_VALUE: is_ack <- 0
	#DEBUG_VALUE: midi_send_ack:c <- R4
	#DEBUG_VALUE: midi_get_ack_or_data:datum <- R0
	#DEBUG_VALUE: datum <- R0
	.loc	5 59 0                  # /Users/rkn/Documents/xTIMEcomposer/workspace/module_usb_midi/src/usb_midi.h:59:0
.Lxta.endpoint_labels12:
	{
		in r0, res[r4]
		ldc r1, 20
	}
.Ltmp166:
	.loc	5 65 0                  # /Users/rkn/Documents/xTIMEcomposer/workspace/module_usb_midi/src/usb_midi.h:65:0
.Lxta.endpoint_labels13:
	{
		outct res[r4], r1
		ldc r1, 0
	}
	.loc	5 66 0                  # /Users/rkn/Documents/xTIMEcomposer/workspace/module_usb_midi/src/usb_midi.h:66:0
.Lxta.endpoint_labels14:
	{
		outt res[r4], r1
		nop
	}
	.loc	5 67 0                  # /Users/rkn/Documents/xTIMEcomposer/workspace/module_usb_midi/src/usb_midi.h:67:0
.Lxta.endpoint_labels15:
	{
		outt res[r4], r1
		nop
	}
	.loc	5 68 0                  # /Users/rkn/Documents/xTIMEcomposer/workspace/module_usb_midi/src/usb_midi.h:68:0
.Lxta.endpoint_labels16:
	{
		outt res[r4], r1
		nop
	}
.Ltmp167:
	#DEBUG_VALUE: XUD_SetReady_InPtr:len <- R7
	ldc r1, 256
.Ltmp168:
	.loc	1 761 21                # /Users/rkn/Documents/xTIMEcomposer/workspace/module_usb_audio/usb_buffer/usb_buffer.xc:761:21
	{
		lss r1, r7, r1
		nop
	}
	bf r1, .LBB0_45
.Ltmp169:
# BB#44:                                # %iftrue213
                                        #   in Loop: Header=BB0_5 Depth=1
.Lxtalabel33:
	#DEBUG_VALUE: buffer:c_aud_out <- [SP+108]
	#DEBUG_VALUE: buffer:c_aud_in <- [SP+112]
	#DEBUG_VALUE: buffer:c_midi_from_host <- [SP+116]
	#DEBUG_VALUE: buffer:c_midi_to_host <- R8
	#DEBUG_VALUE: buffer:p_off_mclk <- [SP+56]
	#DEBUG_VALUE: buffer:c_hid <- [SP+104]
	#DEBUG_VALUE: buffer:c_sof <- [SP+120]
	#DEBUG_VALUE: buffer:c_aud_ctl <- R3
	#DEBUG_VALUE: buffer:c_aud_ctl <- [SP+100]
	#DEBUG_VALUE: ep_aud_out <- [SP+52]
	#DEBUG_VALUE: ep_aud_in <- [SP+48]
	#DEBUG_VALUE: ep_midi_from_host <- [SP+80]
	#DEBUG_VALUE: ep_midi_to_host <- [SP+92]
	#DEBUG_VALUE: ep_hid <- [SP+84]
	#DEBUG_VALUE: sampleFreq <- 48000
	#DEBUG_VALUE: masterClockFreq <- 24576000
	#DEBUG_VALUE: lastClock <- 0
	#DEBUG_VALUE: clocks <- 0
	#DEBUG_VALUE: clockcounter <- 0
	#DEBUG_VALUE: bufferIn <- 1
	#DEBUG_VALUE: remnant <- 0
	#DEBUG_VALUE: sofCount <- 0
	#DEBUG_VALUE: freqChange <- 0
	#DEBUG_VALUE: mod_from_last_time <- 0
	#DEBUG_VALUE: aud_from_host_buffer <- 0
	#DEBUG_VALUE: midi_from_host_rdptr <- [SP+28]
	#DEBUG_VALUE: midi_from_host_buffer <- [SP+32]
	#DEBUG_VALUE: midi_to_host_buffer_being_sent <- R0
	#DEBUG_VALUE: midi_to_host_buffer_being_collected <- R1
	#DEBUG_VALUE: midi_data_remaining_to_device <- 0
	#DEBUG_VALUE: midi_data_collected_from_device <- 0
	#DEBUG_VALUE: midi_waiting_on_send_to_host <- 0
	#DEBUG_VALUE: buffer:c_midi <- R4
	#DEBUG_VALUE: datum <- R0
	#DEBUG_VALUE: is_ack <- 0
	.loc	1 764 0                 # /Users/rkn/Documents/xTIMEcomposer/workspace/module_usb_audio/usb_buffer/usb_buffer.xc:764:0
	{
		add r1, r7, r5
		nop
	}
.Ltmp170:
	#DEBUG_VALUE: p <- R1
	.loc	1 766 0                 # /Users/rkn/Documents/xTIMEcomposer/workspace/module_usb_audio/usb_buffer/usb_buffer.xc:766:0
	#APP
	stw r0, r1[0]
	#NO_APP
	.loc	1 767 0                 # /Users/rkn/Documents/xTIMEcomposer/workspace/module_usb_audio/usb_buffer/usb_buffer.xc:767:0
	{
		add r7, r7, 4
		nop
	}
.Ltmp171:
	#DEBUG_VALUE: tmp <- R5
	#DEBUG_VALUE: midi_data_collected_from_device <- R7
.LBB0_45:                               # %ifdone214
                                        #   in Loop: Header=BB0_5 Depth=1
.Lxtalabel34:
	#DEBUG_VALUE: buffer:c_aud_out <- [SP+108]
	#DEBUG_VALUE: buffer:c_aud_in <- [SP+112]
	#DEBUG_VALUE: buffer:c_midi_from_host <- [SP+116]
	#DEBUG_VALUE: buffer:c_midi_to_host <- R8
	#DEBUG_VALUE: buffer:p_off_mclk <- [SP+56]
	#DEBUG_VALUE: buffer:c_hid <- [SP+104]
	#DEBUG_VALUE: buffer:c_sof <- [SP+120]
	#DEBUG_VALUE: buffer:c_aud_ctl <- [SP+100]
	#DEBUG_VALUE: ep_aud_out <- [SP+52]
	#DEBUG_VALUE: ep_aud_in <- [SP+48]
	#DEBUG_VALUE: ep_midi_from_host <- [SP+80]
	#DEBUG_VALUE: ep_midi_to_host <- [SP+92]
	#DEBUG_VALUE: ep_hid <- [SP+84]
	#DEBUG_VALUE: sampleFreq <- 48000
	#DEBUG_VALUE: masterClockFreq <- 24576000
	#DEBUG_VALUE: lastClock <- 0
	#DEBUG_VALUE: clocks <- 0
	#DEBUG_VALUE: clockcounter <- 0
	#DEBUG_VALUE: bufferIn <- 1
	#DEBUG_VALUE: remnant <- 0
	#DEBUG_VALUE: sofCount <- 0
	#DEBUG_VALUE: freqChange <- 0
	#DEBUG_VALUE: mod_from_last_time <- 0
	#DEBUG_VALUE: aud_from_host_buffer <- 0
	#DEBUG_VALUE: midi_from_host_rdptr <- [SP+28]
	#DEBUG_VALUE: midi_from_host_buffer <- [SP+32]
	#DEBUG_VALUE: midi_to_host_buffer_being_sent <- R0
	#DEBUG_VALUE: midi_to_host_buffer_being_collected <- R1
	#DEBUG_VALUE: midi_data_remaining_to_device <- 0
	#DEBUG_VALUE: midi_data_collected_from_device <- 0
	#DEBUG_VALUE: midi_waiting_on_send_to_host <- 0
	#DEBUG_VALUE: buffer:c_midi <- R4
	#DEBUG_VALUE: is_ack <- 0
	{
		mov r0, r6
		mov r1, r5
	}
.Ltmp172:
	{
		mov r2, r7
		mov r9, r10
	}
	{
		nop
		ldw r3, sp[24]
	}
	bt r3, .LBB0_5
.Ltmp173:
# BB#46:                                # %iftrue225
                                        #   in Loop: Header=BB0_5 Depth=1
.Lxtalabel35:
	#DEBUG_VALUE: buffer:c_aud_out <- [SP+108]
	#DEBUG_VALUE: buffer:c_aud_in <- [SP+112]
	#DEBUG_VALUE: buffer:c_midi_from_host <- [SP+116]
	#DEBUG_VALUE: buffer:c_midi_to_host <- R8
	#DEBUG_VALUE: buffer:p_off_mclk <- [SP+56]
	#DEBUG_VALUE: buffer:c_hid <- [SP+104]
	#DEBUG_VALUE: buffer:c_sof <- [SP+120]
	#DEBUG_VALUE: buffer:c_aud_ctl <- [SP+100]
	#DEBUG_VALUE: ep_aud_out <- [SP+52]
	#DEBUG_VALUE: ep_aud_in <- [SP+48]
	#DEBUG_VALUE: ep_midi_from_host <- [SP+80]
	#DEBUG_VALUE: ep_midi_to_host <- [SP+92]
	#DEBUG_VALUE: ep_hid <- [SP+84]
	#DEBUG_VALUE: sampleFreq <- 48000
	#DEBUG_VALUE: masterClockFreq <- 24576000
	#DEBUG_VALUE: lastClock <- 0
	#DEBUG_VALUE: clocks <- 0
	#DEBUG_VALUE: clockcounter <- 0
	#DEBUG_VALUE: bufferIn <- 1
	#DEBUG_VALUE: remnant <- 0
	#DEBUG_VALUE: sofCount <- 0
	#DEBUG_VALUE: freqChange <- 0
	#DEBUG_VALUE: mod_from_last_time <- 0
	#DEBUG_VALUE: aud_from_host_buffer <- 0
	#DEBUG_VALUE: midi_from_host_rdptr <- [SP+28]
	#DEBUG_VALUE: midi_from_host_buffer <- [SP+32]
	#DEBUG_VALUE: midi_to_host_buffer_being_sent <- R0
	#DEBUG_VALUE: midi_to_host_buffer_being_collected <- R1
	#DEBUG_VALUE: midi_data_remaining_to_device <- 0
	#DEBUG_VALUE: midi_data_collected_from_device <- 0
	#DEBUG_VALUE: midi_waiting_on_send_to_host <- 0
	#DEBUG_VALUE: buffer:c_midi <- R4
	#DEBUG_VALUE: is_ack <- 0
	{
		nop
		ldw r0, sp[23]
	}
.Ltmp174:
	.loc	2 463 0                 # /Users/rkn/Documents/xTIMEcomposer/workspace/module_xud/include/xud.h:463:0
	#APP
	ldw r3, r0[9]
	#NO_APP
.Ltmp175:
	#DEBUG_VALUE: reset <- R3
	{
		mov r0, r5
		mov r1, r6
	}
.Ltmp176:
	{
		mkmsk r2, 1
		nop
	}
	{
		ldc r2, 0
		stw r2, sp[24]
	}
	{
		mov r9, r10
		nop
	}
	bt r3, .LBB0_5
.Ltmp177:
# BB#47:                                # %ifdone.i253
                                        #   in Loop: Header=BB0_5 Depth=1
.Lxtalabel36:
	#DEBUG_VALUE: buffer:c_aud_out <- [SP+108]
	#DEBUG_VALUE: buffer:c_aud_in <- [SP+112]
	#DEBUG_VALUE: buffer:c_midi_from_host <- [SP+116]
	#DEBUG_VALUE: buffer:c_midi_to_host <- R8
	#DEBUG_VALUE: buffer:p_off_mclk <- [SP+56]
	#DEBUG_VALUE: buffer:c_hid <- [SP+104]
	#DEBUG_VALUE: buffer:c_sof <- [SP+120]
	#DEBUG_VALUE: buffer:c_aud_ctl <- [SP+100]
	#DEBUG_VALUE: ep_aud_out <- [SP+52]
	#DEBUG_VALUE: ep_aud_in <- [SP+48]
	#DEBUG_VALUE: ep_midi_from_host <- [SP+80]
	#DEBUG_VALUE: ep_midi_to_host <- [SP+92]
	#DEBUG_VALUE: ep_hid <- [SP+84]
	#DEBUG_VALUE: sampleFreq <- 48000
	#DEBUG_VALUE: masterClockFreq <- 24576000
	#DEBUG_VALUE: lastClock <- 0
	#DEBUG_VALUE: clocks <- 0
	#DEBUG_VALUE: clockcounter <- 0
	#DEBUG_VALUE: bufferIn <- 1
	#DEBUG_VALUE: remnant <- 0
	#DEBUG_VALUE: sofCount <- 0
	#DEBUG_VALUE: freqChange <- 0
	#DEBUG_VALUE: mod_from_last_time <- 0
	#DEBUG_VALUE: aud_from_host_buffer <- 0
	#DEBUG_VALUE: midi_from_host_rdptr <- [SP+28]
	#DEBUG_VALUE: midi_from_host_buffer <- [SP+32]
	#DEBUG_VALUE: midi_to_host_buffer_being_sent <- R0
	#DEBUG_VALUE: midi_to_host_buffer_being_collected <- R1
	#DEBUG_VALUE: midi_data_remaining_to_device <- 0
	#DEBUG_VALUE: midi_data_collected_from_device <- 0
	#DEBUG_VALUE: midi_waiting_on_send_to_host <- 0
	#DEBUG_VALUE: buffer:c_midi <- R4
	#DEBUG_VALUE: is_ack <- 0
	#DEBUG_VALUE: XUD_SetReady_InPtr:len <- R7
	.loc	2 470 0                 # /Users/rkn/Documents/xTIMEcomposer/workspace/module_xud/include/xud.h:470:0
	ashr r0, r7, 2
.Ltmp178:
	#DEBUG_VALUE: wordlength <- R0
	ldw r1, cp[.LCPI0_1]
.Ltmp179:
	#DEBUG_VALUE: wordlength <- R1
	.loc	2 471 0                 # /Users/rkn/Documents/xTIMEcomposer/workspace/module_xud/include/xud.h:471:0
	{
		and r1, r7, r1
		shl r2, r7, 5
	}
.Ltmp180:
	#DEBUG_VALUE: taillength <- R2
	#DEBUG_VALUE: ep_midi_to_host <- R11
	.loc	2 473 0                 # /Users/rkn/Documents/xTIMEcomposer/workspace/module_xud/include/xud.h:473:0
	{
		zext r2, 7
		ldw r11, sp[23]
	}
.Ltmp181:
	.loc	2 475 0                 # /Users/rkn/Documents/xTIMEcomposer/workspace/module_xud/include/xud.h:475:0
	#APP
	ldw r3, r11[0]
	#NO_APP
.Ltmp182:
	#DEBUG_VALUE: chan_array_ptr <- R3
	.loc	2 478 0                 # /Users/rkn/Documents/xTIMEcomposer/workspace/module_xud/include/xud.h:478:0
	#APP
	add r1, r5, r1
	#NO_APP
.Ltmp183:
	#DEBUG_VALUE: tmp <- R1
	.loc	2 480 0                 # /Users/rkn/Documents/xTIMEcomposer/workspace/module_xud/include/xud.h:480:0
	#APP
	neg r0, r0
	#NO_APP
.Ltmp184:
	#DEBUG_VALUE: tmp2 <- R0
	.loc	2 483 0                 # /Users/rkn/Documents/xTIMEcomposer/workspace/module_xud/include/xud.h:483:0
	#APP
	stw r0, r11[6]
	#NO_APP
	.loc	2 486 0                 # /Users/rkn/Documents/xTIMEcomposer/workspace/module_xud/include/xud.h:486:0
	#APP
	stw r1, r11[3]
	#NO_APP
	.loc	2 489 0                 # /Users/rkn/Documents/xTIMEcomposer/workspace/module_xud/include/xud.h:489:0
	#APP
	stw r2, r11[7]
	#NO_APP
	.loc	2 491 0                 # /Users/rkn/Documents/xTIMEcomposer/workspace/module_xud/include/xud.h:491:0
	#APP
	stw r11, r3[0]
	#NO_APP
.Ltmp185:
.LBB0_41:                               # %LoopBody
                                        #   in Loop: Header=BB0_5 Depth=1
.Lxtalabel37:
	#DEBUG_VALUE: ep_midi_to_host <- [SP+92]
	{
		mov r0, r5
		mov r1, r6
	}
	{
		mkmsk r2, 1
		nop
	}
	{
		ldc r2, 0
		stw r2, sp[24]
	}
	{
		mov r9, r10
		nop
	}
	bu .LBB0_5
.Ltmp186:
.LBB0_20:                               # %iftrue32
                                        #   in Loop: Header=BB0_5 Depth=1
.Lxtalabel38:
	#DEBUG_VALUE: buffer:c_aud_out <- [SP+108]
	#DEBUG_VALUE: buffer:c_aud_in <- [SP+112]
	#DEBUG_VALUE: buffer:c_midi_from_host <- [SP+116]
	#DEBUG_VALUE: buffer:c_midi_to_host <- [SP+72]
	#DEBUG_VALUE: buffer:p_off_mclk <- [SP+56]
	#DEBUG_VALUE: buffer:c_hid <- [SP+104]
	#DEBUG_VALUE: buffer:c_sof <- [SP+120]
	#DEBUG_VALUE: buffer:c_aud_ctl <- R3
	#DEBUG_VALUE: ep_aud_out <- [SP+52]
	#DEBUG_VALUE: ep_aud_in <- [SP+48]
	#DEBUG_VALUE: ep_midi_from_host <- [SP+80]
	#DEBUG_VALUE: ep_midi_to_host <- [SP+92]
	#DEBUG_VALUE: ep_hid <- [SP+84]
	#DEBUG_VALUE: sampleFreq <- 48000
	#DEBUG_VALUE: masterClockFreq <- 24576000
	#DEBUG_VALUE: lastClock <- 0
	#DEBUG_VALUE: clocks <- 0
	#DEBUG_VALUE: clockcounter <- 0
	#DEBUG_VALUE: bufferIn <- 1
	#DEBUG_VALUE: remnant <- 0
	#DEBUG_VALUE: sofCount <- 0
	#DEBUG_VALUE: freqChange <- 0
	#DEBUG_VALUE: mod_from_last_time <- 0
	#DEBUG_VALUE: aud_from_host_buffer <- 0
	#DEBUG_VALUE: midi_from_host_rdptr <- [SP+28]
	#DEBUG_VALUE: midi_from_host_buffer <- [SP+32]
	#DEBUG_VALUE: midi_to_host_buffer_being_sent <- R0
	#DEBUG_VALUE: midi_to_host_buffer_being_collected <- R1
	#DEBUG_VALUE: midi_data_remaining_to_device <- 0
	#DEBUG_VALUE: midi_data_collected_from_device <- 0
	#DEBUG_VALUE: midi_waiting_on_send_to_host <- 0
	#DEBUG_VALUE: buffer:c_midi <- R4
	#DEBUG_VALUE: cmd <- R8
	.loc	1 310 0                 # /Users/rkn/Documents/xTIMEcomposer/workspace/module_usb_audio/usb_buffer/usb_buffer.xc:310:0
.Lxta.endpoint_labels17:
	{
		in r9, res[r3]
		nop
	}
.Ltmp187:
	#DEBUG_VALUE: sampleFreq <- R9
	ldw r0, cp[.LCPI0_2]
.Ltmp188:
	#DEBUG_VALUE: buffer:c_aud_ctl <- [SP+100]
	.loc	1 313 25                # /Users/rkn/Documents/xTIMEcomposer/workspace/module_usb_audio/usb_buffer/usb_buffer.xc:313:25
	{
		eq r0, r9, r0
		nop
	}
	bt r0, .LBB0_24
.Ltmp189:
# BB#21:                                # %iftrue37
                                        #   in Loop: Header=BB0_5 Depth=1
.Lxtalabel39:
	#DEBUG_VALUE: buffer:c_aud_out <- [SP+108]
	#DEBUG_VALUE: buffer:c_aud_in <- [SP+112]
	#DEBUG_VALUE: buffer:c_midi_from_host <- [SP+116]
	#DEBUG_VALUE: buffer:c_midi_to_host <- [SP+72]
	#DEBUG_VALUE: buffer:p_off_mclk <- [SP+56]
	#DEBUG_VALUE: buffer:c_hid <- [SP+104]
	#DEBUG_VALUE: buffer:c_sof <- [SP+120]
	#DEBUG_VALUE: buffer:c_aud_ctl <- [SP+100]
	#DEBUG_VALUE: ep_aud_out <- [SP+52]
	#DEBUG_VALUE: ep_aud_in <- [SP+48]
	#DEBUG_VALUE: ep_midi_from_host <- [SP+80]
	#DEBUG_VALUE: ep_midi_to_host <- [SP+92]
	#DEBUG_VALUE: ep_hid <- [SP+84]
	#DEBUG_VALUE: sampleFreq <- R9
	#DEBUG_VALUE: masterClockFreq <- 24576000
	#DEBUG_VALUE: lastClock <- 0
	#DEBUG_VALUE: clocks <- 0
	#DEBUG_VALUE: clockcounter <- 0
	#DEBUG_VALUE: bufferIn <- 1
	#DEBUG_VALUE: remnant <- 0
	#DEBUG_VALUE: sofCount <- 1
	#DEBUG_VALUE: freqChange <- 0
	#DEBUG_VALUE: mod_from_last_time <- 0
	#DEBUG_VALUE: aud_from_host_buffer <- 0
	#DEBUG_VALUE: midi_from_host_rdptr <- [SP+28]
	#DEBUG_VALUE: midi_from_host_buffer <- [SP+32]
	#DEBUG_VALUE: midi_to_host_buffer_being_sent <- R0
	#DEBUG_VALUE: midi_to_host_buffer_being_collected <- R1
	#DEBUG_VALUE: midi_data_remaining_to_device <- 0
	#DEBUG_VALUE: midi_data_collected_from_device <- 0
	#DEBUG_VALUE: midi_waiting_on_send_to_host <- 0
	#DEBUG_VALUE: buffer:c_midi <- R4
	#DEBUG_VALUE: cmd <- R8
	#DEBUG_VALUE: max <- undef
	#DEBUG_VALUE: mid <- undef
	#DEBUG_VALUE: min <- undef
	.loc	1 329 0                 # /Users/rkn/Documents/xTIMEcomposer/workspace/module_usb_audio/usb_buffer/usb_buffer.xc:329:0
	{
		mov r0, r9
		ldaw r1, sp[33]
	}
.Ltmp190:
	{
		ldaw r2, sp[32]
		ldaw r3, sp[31]
	}
.Lxta.call_labels11:
	bl GetADCCounts
	{
		nop
		ldw r0, sp[32]
	}
	.loc	1 330 0                 # /Users/rkn/Documents/xTIMEcomposer/workspace/module_usb_audio/usb_buffer/usb_buffer.xc:330:0
	{
		shl r0, r0, 16
		nop
	}
	.loc	1 330 0                 # /Users/rkn/Documents/xTIMEcomposer/workspace/module_usb_audio/usb_buffer/usb_buffer.xc:330:0
	stw r0, dp[g_speed]
	ldw r0, cp[.LCPI0_0]
	.loc	1 332 29                # /Users/rkn/Documents/xTIMEcomposer/workspace/module_usb_audio/usb_buffer/usb_buffer.xc:332:29
	remu r0, r0, r9
	ldw r1, cp[.LCPI0_3]
	{
		nop
		stw r1, sp[3]
	}
	bt r0, .LBB0_23
.Ltmp191:
# BB#22:                                # %iftrue37
                                        #   in Loop: Header=BB0_5 Depth=1
.Lxtalabel40:
	#DEBUG_VALUE: buffer:c_aud_out <- [SP+108]
	#DEBUG_VALUE: buffer:c_aud_in <- [SP+112]
	#DEBUG_VALUE: buffer:c_midi_from_host <- [SP+116]
	#DEBUG_VALUE: buffer:c_midi_to_host <- [SP+72]
	#DEBUG_VALUE: buffer:p_off_mclk <- [SP+56]
	#DEBUG_VALUE: buffer:c_hid <- [SP+104]
	#DEBUG_VALUE: buffer:c_sof <- [SP+120]
	#DEBUG_VALUE: buffer:c_aud_ctl <- [SP+100]
	#DEBUG_VALUE: ep_aud_out <- [SP+52]
	#DEBUG_VALUE: ep_aud_in <- [SP+48]
	#DEBUG_VALUE: ep_midi_from_host <- [SP+80]
	#DEBUG_VALUE: ep_midi_to_host <- [SP+92]
	#DEBUG_VALUE: ep_hid <- [SP+84]
	#DEBUG_VALUE: sampleFreq <- R9
	#DEBUG_VALUE: masterClockFreq <- 24576000
	#DEBUG_VALUE: lastClock <- 0
	#DEBUG_VALUE: clocks <- 0
	#DEBUG_VALUE: clockcounter <- 0
	#DEBUG_VALUE: bufferIn <- 1
	#DEBUG_VALUE: remnant <- 0
	#DEBUG_VALUE: sofCount <- 1
	#DEBUG_VALUE: freqChange <- 0
	#DEBUG_VALUE: mod_from_last_time <- 0
	#DEBUG_VALUE: aud_from_host_buffer <- 0
	#DEBUG_VALUE: midi_from_host_rdptr <- [SP+28]
	#DEBUG_VALUE: midi_from_host_buffer <- [SP+32]
	#DEBUG_VALUE: midi_to_host_buffer_being_sent <- R0
	#DEBUG_VALUE: midi_to_host_buffer_being_collected <- R1
	#DEBUG_VALUE: midi_data_remaining_to_device <- 0
	#DEBUG_VALUE: midi_data_collected_from_device <- 0
	#DEBUG_VALUE: midi_waiting_on_send_to_host <- 0
	#DEBUG_VALUE: buffer:c_midi <- R4
	#DEBUG_VALUE: cmd <- R8
	#DEBUG_VALUE: min <- undef
	#DEBUG_VALUE: mid <- undef
	#DEBUG_VALUE: max <- undef
	ldw r0, cp[.LCPI0_0]
.Ltmp192:
	{
		nop
		stw r0, sp[3]
	}
.Ltmp193:
.LBB0_23:                               # %iftrue37
                                        #   in Loop: Header=BB0_5 Depth=1
.Lxtalabel41:
	#DEBUG_VALUE: buffer:c_aud_out <- [SP+108]
	#DEBUG_VALUE: buffer:c_aud_in <- [SP+112]
	#DEBUG_VALUE: buffer:c_midi_from_host <- [SP+116]
	#DEBUG_VALUE: buffer:c_midi_to_host <- [SP+72]
	#DEBUG_VALUE: buffer:p_off_mclk <- [SP+56]
	#DEBUG_VALUE: buffer:c_hid <- [SP+104]
	#DEBUG_VALUE: buffer:c_sof <- [SP+120]
	#DEBUG_VALUE: buffer:c_aud_ctl <- [SP+100]
	#DEBUG_VALUE: buffer:c_midi <- R4
	{
		ldc r0, 0
		nop
	}
	{
		mov r1, r0
		nop
	}
	{
		mkmsk r0, 1
		stw r1, sp[9]
	}
	{
		nop
		stw r0, sp[17]
	}
	{
		nop
		stw r1, sp[16]
	}
	{
		nop
		stw r1, sp[15]
	}
.Ltmp194:
.LBB0_24:                               # %ifdone38
                                        #   in Loop: Header=BB0_5 Depth=1
.Lxtalabel42:
	#DEBUG_VALUE: buffer:c_aud_out <- [SP+108]
	#DEBUG_VALUE: buffer:c_aud_in <- [SP+112]
	#DEBUG_VALUE: buffer:c_midi_from_host <- [SP+116]
	#DEBUG_VALUE: buffer:c_midi_to_host <- [SP+72]
	#DEBUG_VALUE: buffer:p_off_mclk <- [SP+56]
	#DEBUG_VALUE: buffer:c_hid <- [SP+104]
	#DEBUG_VALUE: buffer:c_sof <- [SP+120]
	#DEBUG_VALUE: buffer:c_aud_ctl <- [SP+100]
	#DEBUG_VALUE: ep_aud_out <- [SP+52]
	#DEBUG_VALUE: ep_aud_in <- [SP+48]
	#DEBUG_VALUE: ep_midi_from_host <- [SP+80]
	#DEBUG_VALUE: ep_midi_to_host <- [SP+92]
	#DEBUG_VALUE: ep_hid <- [SP+84]
	#DEBUG_VALUE: sampleFreq <- R9
	#DEBUG_VALUE: masterClockFreq <- 24576000
	#DEBUG_VALUE: lastClock <- 0
	#DEBUG_VALUE: clocks <- 0
	#DEBUG_VALUE: clockcounter <- 0
	#DEBUG_VALUE: bufferIn <- 1
	#DEBUG_VALUE: remnant <- 0
	#DEBUG_VALUE: sofCount <- 0
	#DEBUG_VALUE: freqChange <- 0
	#DEBUG_VALUE: mod_from_last_time <- 0
	#DEBUG_VALUE: aud_from_host_buffer <- 0
	#DEBUG_VALUE: midi_from_host_rdptr <- [SP+28]
	#DEBUG_VALUE: midi_from_host_buffer <- [SP+32]
	#DEBUG_VALUE: midi_to_host_buffer_being_sent <- R0
	#DEBUG_VALUE: midi_to_host_buffer_being_collected <- R1
	#DEBUG_VALUE: midi_data_remaining_to_device <- 0
	#DEBUG_VALUE: midi_data_collected_from_device <- 0
	#DEBUG_VALUE: midi_waiting_on_send_to_host <- 0
	#DEBUG_VALUE: buffer:c_midi <- R4
	#DEBUG_VALUE: cmd <- R8
	.loc	1 344 0                 # /Users/rkn/Documents/xTIMEcomposer/workspace/module_usb_audio/usb_buffer/usb_buffer.xc:344:0
	#APP
	stw r9, dp[g_freqChange_sampFreq]
	#NO_APP
	{
		nop
		stw r9, sp[11]
	}
.Ltmp195:
	#DEBUG_VALUE: sampleFreq <- [SP+44]
	bu .LBB0_26
.Ltmp196:
.LBB0_16:                               # %iffalse
                                        #   in Loop: Header=BB0_5 Depth=1
.Lxtalabel43:
	#DEBUG_VALUE: buffer:c_aud_out <- [SP+108]
	#DEBUG_VALUE: buffer:c_aud_in <- [SP+112]
	#DEBUG_VALUE: buffer:c_midi_from_host <- [SP+116]
	#DEBUG_VALUE: buffer:c_midi_to_host <- [SP+72]
	#DEBUG_VALUE: buffer:p_off_mclk <- [SP+56]
	#DEBUG_VALUE: buffer:c_hid <- [SP+104]
	#DEBUG_VALUE: buffer:c_sof <- [SP+120]
	#DEBUG_VALUE: buffer:c_aud_ctl <- R3
	#DEBUG_VALUE: buffer:c_midi <- R4
	{
		eq r0, r8, 9
		nop
	}
	bf r0, .LBB0_26
.Ltmp197:
# BB#17:                                # %iftrue52
                                        #   in Loop: Header=BB0_5 Depth=1
.Lxtalabel44:
	#DEBUG_VALUE: buffer:c_aud_out <- [SP+108]
	#DEBUG_VALUE: buffer:c_aud_in <- [SP+112]
	#DEBUG_VALUE: buffer:c_midi_from_host <- [SP+116]
	#DEBUG_VALUE: buffer:c_midi_to_host <- [SP+72]
	#DEBUG_VALUE: buffer:p_off_mclk <- [SP+56]
	#DEBUG_VALUE: buffer:c_hid <- [SP+104]
	#DEBUG_VALUE: buffer:c_sof <- [SP+120]
	#DEBUG_VALUE: buffer:c_aud_ctl <- R3
	#DEBUG_VALUE: buffer:c_midi <- R4
	.loc	1 348 0                 # /Users/rkn/Documents/xTIMEcomposer/workspace/module_usb_audio/usb_buffer/usb_buffer.xc:348:0
.Lxta.endpoint_labels18:
	{
		in r0, res[r3]
		nop
	}
.Ltmp198:
	#DEBUG_VALUE: formatChange_DataFormat <- R0
	.loc	1 349 0                 # /Users/rkn/Documents/xTIMEcomposer/workspace/module_usb_audio/usb_buffer/usb_buffer.xc:349:0
.Lxta.endpoint_labels19:
	{
		in r1, res[r3]
		nop
	}
.Ltmp199:
	#DEBUG_VALUE: formatChange_NumChans <- R1
	.loc	1 350 0                 # /Users/rkn/Documents/xTIMEcomposer/workspace/module_usb_audio/usb_buffer/usb_buffer.xc:350:0
.Lxta.endpoint_labels20:
	{
		in r2, res[r3]
		nop
	}
.Ltmp200:
	#DEBUG_VALUE: formatChange_SubSlot <- R2
	.loc	1 351 0                 # /Users/rkn/Documents/xTIMEcomposer/workspace/module_usb_audio/usb_buffer/usb_buffer.xc:351:0
.Lxta.endpoint_labels21:
	{
		in r3, res[r3]
		nop
	}
.Ltmp201:
	#DEBUG_VALUE: formatChange_SampRes <- R3
	#DEBUG_VALUE: buffer:c_aud_ctl <- [SP+100]
	.loc	1 353 0                 # /Users/rkn/Documents/xTIMEcomposer/workspace/module_usb_audio/usb_buffer/usb_buffer.xc:353:0
	#APP
	stw r1, dp[g_formatChange_NumChans]
	#NO_APP
	.loc	1 354 0                 # /Users/rkn/Documents/xTIMEcomposer/workspace/module_usb_audio/usb_buffer/usb_buffer.xc:354:0
	#APP
	stw r2, dp[g_formatChange_SubSlot]
	#NO_APP
	.loc	1 355 0                 # /Users/rkn/Documents/xTIMEcomposer/workspace/module_usb_audio/usb_buffer/usb_buffer.xc:355:0
	#APP
	stw r0, dp[g_formatChange_DataFormat]
	#NO_APP
	.loc	1 356 0                 # /Users/rkn/Documents/xTIMEcomposer/workspace/module_usb_audio/usb_buffer/usb_buffer.xc:356:0
	#APP
	stw r3, dp[g_formatChange_SampRes]
	#NO_APP
.Ltmp202:
.LBB0_26:                               # %ifdone33
                                        #   in Loop: Header=BB0_5 Depth=1
.Lxtalabel45:
	#DEBUG_VALUE: buffer:c_aud_out <- [SP+108]
	#DEBUG_VALUE: buffer:c_aud_in <- [SP+112]
	#DEBUG_VALUE: buffer:c_midi_from_host <- [SP+116]
	#DEBUG_VALUE: buffer:c_midi_to_host <- [SP+72]
	#DEBUG_VALUE: buffer:p_off_mclk <- [SP+56]
	#DEBUG_VALUE: buffer:c_hid <- [SP+104]
	#DEBUG_VALUE: buffer:c_sof <- [SP+120]
	#DEBUG_VALUE: buffer:c_aud_ctl <- [SP+100]
	#DEBUG_VALUE: ep_aud_out <- [SP+52]
	#DEBUG_VALUE: ep_aud_in <- [SP+48]
	#DEBUG_VALUE: ep_midi_from_host <- [SP+80]
	#DEBUG_VALUE: ep_midi_to_host <- [SP+92]
	#DEBUG_VALUE: ep_hid <- [SP+84]
	#DEBUG_VALUE: sampleFreq <- 48000
	#DEBUG_VALUE: masterClockFreq <- 24576000
	#DEBUG_VALUE: lastClock <- 0
	#DEBUG_VALUE: clocks <- 0
	#DEBUG_VALUE: clockcounter <- 0
	#DEBUG_VALUE: bufferIn <- 1
	#DEBUG_VALUE: remnant <- 0
	#DEBUG_VALUE: sofCount <- 0
	#DEBUG_VALUE: freqChange <- 0
	#DEBUG_VALUE: mod_from_last_time <- 0
	#DEBUG_VALUE: aud_from_host_buffer <- 0
	#DEBUG_VALUE: midi_from_host_rdptr <- [SP+28]
	#DEBUG_VALUE: midi_from_host_buffer <- [SP+32]
	#DEBUG_VALUE: midi_to_host_buffer_being_sent <- R0
	#DEBUG_VALUE: midi_to_host_buffer_being_collected <- R1
	#DEBUG_VALUE: midi_data_remaining_to_device <- 0
	#DEBUG_VALUE: midi_data_collected_from_device <- 0
	#DEBUG_VALUE: midi_waiting_on_send_to_host <- 0
	#DEBUG_VALUE: buffer:c_midi <- R4
	#DEBUG_VALUE: cmd <- R8
	.loc	1 389 0                 # /Users/rkn/Documents/xTIMEcomposer/workspace/module_usb_audio/usb_buffer/usb_buffer.xc:389:0
	#APP
	stw r8, dp[g_freqChange]
	#NO_APP
	.loc	1 390 0                 # /Users/rkn/Documents/xTIMEcomposer/workspace/module_usb_audio/usb_buffer/usb_buffer.xc:390:0
	#APP
	stw r8, dp[g_freqChange_flag]
	#NO_APP
	{
		mov r0, r6
		mov r1, r5
	}
.Ltmp203:
	{
		mov r2, r7
		mov r9, r10
	}
	{
		nop
		ldw r8, sp[18]
	}
.Ltmp204:
	#DEBUG_VALUE: buffer:c_midi_to_host <- R8
	bu .LBB0_5
.Ltmp205:
.LBB0_31:                               #   in Loop: Header=BB0_5 Depth=1
	#DEBUG_VALUE: buffer:c_aud_out <- [SP+108]
	#DEBUG_VALUE: buffer:c_aud_in <- [SP+112]
	#DEBUG_VALUE: buffer:c_midi_from_host <- [SP+116]
	#DEBUG_VALUE: buffer:c_midi_to_host <- R8
	#DEBUG_VALUE: buffer:p_off_mclk <- [SP+56]
	#DEBUG_VALUE: buffer:c_hid <- [SP+104]
	#DEBUG_VALUE: buffer:c_sof <- [SP+120]
	#DEBUG_VALUE: buffer:c_aud_ctl <- [SP+100]
	#DEBUG_VALUE: buffer:c_midi <- R4
	{
		nop
		stw r3, sp[15]
	}
	{
		nop
		stw r2, sp[16]
	}
.Ltmp206:
.LBB0_37:                               # %ifdone104
                                        #   in Loop: Header=BB0_5 Depth=1
.Lxtalabel46:
	#DEBUG_VALUE: buffer:c_aud_out <- [SP+108]
	#DEBUG_VALUE: buffer:c_aud_in <- [SP+112]
	#DEBUG_VALUE: buffer:c_midi_from_host <- [SP+116]
	#DEBUG_VALUE: buffer:c_midi_to_host <- R8
	#DEBUG_VALUE: buffer:p_off_mclk <- [SP+56]
	#DEBUG_VALUE: buffer:c_hid <- [SP+104]
	#DEBUG_VALUE: buffer:c_sof <- [SP+120]
	#DEBUG_VALUE: buffer:c_aud_ctl <- [SP+100]
	#DEBUG_VALUE: ep_aud_out <- [SP+52]
	#DEBUG_VALUE: ep_aud_in <- [SP+48]
	#DEBUG_VALUE: ep_midi_from_host <- [SP+80]
	#DEBUG_VALUE: ep_midi_to_host <- [SP+92]
	#DEBUG_VALUE: ep_hid <- [SP+84]
	#DEBUG_VALUE: sampleFreq <- 48000
	#DEBUG_VALUE: masterClockFreq <- 24576000
	#DEBUG_VALUE: lastClock <- R9
	#DEBUG_VALUE: clocks <- 0
	#DEBUG_VALUE: clockcounter <- 0
	#DEBUG_VALUE: bufferIn <- 1
	#DEBUG_VALUE: remnant <- 0
	#DEBUG_VALUE: sofCount <- 0
	#DEBUG_VALUE: mod_from_last_time <- 0
	#DEBUG_VALUE: aud_from_host_buffer <- 0
	#DEBUG_VALUE: midi_from_host_rdptr <- [SP+28]
	#DEBUG_VALUE: midi_from_host_buffer <- [SP+32]
	#DEBUG_VALUE: midi_to_host_buffer_being_sent <- R0
	#DEBUG_VALUE: midi_to_host_buffer_being_collected <- R1
	#DEBUG_VALUE: midi_data_remaining_to_device <- 0
	#DEBUG_VALUE: midi_data_collected_from_device <- 0
	#DEBUG_VALUE: midi_waiting_on_send_to_host <- 0
	#DEBUG_VALUE: buffer:c_midi <- R4
	#DEBUG_VALUE: u_tmp <- R9
	#DEBUG_VALUE: feedbackMul <- 8
	.loc	1 539 0                 # /Users/rkn/Documents/xTIMEcomposer/workspace/module_usb_audio/usb_buffer/usb_buffer.xc:539:0
	{
		add r1, r1, 1
		nop
	}
.Ltmp207:
	#DEBUG_VALUE: sofCount <- R1
	#DEBUG_VALUE: sofCount <- [SP+68]
	{
		mov r0, r6
		stw r1, sp[17]
	}
.Ltmp208:
	{
		mov r1, r5
		mov r2, r7
	}
	bu .LBB0_5
.Ltmp209:
.LBB0_49:                               # %iftrue196
                                        #   in Loop: Header=BB0_5 Depth=1
.Lxtalabel47:
	#DEBUG_VALUE: buffer:c_aud_out <- [SP+108]
	#DEBUG_VALUE: buffer:c_aud_in <- [SP+112]
	#DEBUG_VALUE: buffer:c_midi_from_host <- [SP+116]
	#DEBUG_VALUE: buffer:c_midi_to_host <- R8
	#DEBUG_VALUE: buffer:p_off_mclk <- [SP+56]
	#DEBUG_VALUE: buffer:c_hid <- [SP+104]
	#DEBUG_VALUE: buffer:c_sof <- [SP+120]
	#DEBUG_VALUE: buffer:c_aud_ctl <- R3
	#DEBUG_VALUE: buffer:c_aud_ctl <- [SP+100]
	#DEBUG_VALUE: ep_aud_out <- [SP+52]
	#DEBUG_VALUE: ep_aud_in <- [SP+48]
	#DEBUG_VALUE: ep_midi_from_host <- [SP+80]
	#DEBUG_VALUE: ep_midi_to_host <- [SP+92]
	#DEBUG_VALUE: ep_hid <- [SP+84]
	#DEBUG_VALUE: sampleFreq <- 48000
	#DEBUG_VALUE: masterClockFreq <- 24576000
	#DEBUG_VALUE: lastClock <- 0
	#DEBUG_VALUE: clocks <- 0
	#DEBUG_VALUE: clockcounter <- 0
	#DEBUG_VALUE: bufferIn <- 1
	#DEBUG_VALUE: remnant <- 0
	#DEBUG_VALUE: sofCount <- 0
	#DEBUG_VALUE: freqChange <- 0
	#DEBUG_VALUE: mod_from_last_time <- 0
	#DEBUG_VALUE: aud_from_host_buffer <- 0
	#DEBUG_VALUE: midi_from_host_rdptr <- [SP+28]
	#DEBUG_VALUE: midi_from_host_buffer <- [SP+32]
	#DEBUG_VALUE: midi_to_host_buffer_being_sent <- R0
	#DEBUG_VALUE: midi_to_host_buffer_being_collected <- R1
	#DEBUG_VALUE: midi_data_remaining_to_device <- 0
	#DEBUG_VALUE: midi_data_collected_from_device <- 0
	#DEBUG_VALUE: midi_waiting_on_send_to_host <- 0
	#DEBUG_VALUE: buffer:c_midi <- R4
	#DEBUG_VALUE: is_ack <- 1
	{
		nop
		ldw r0, sp[20]
	}
.Ltmp210:
	.loc	2 432 0                 # /Users/rkn/Documents/xTIMEcomposer/workspace/module_xud/include/xud.h:432:0
	#APP
	ldw r3, r0[9]
	#NO_APP
.Ltmp211:
	#DEBUG_VALUE: reset <- R3
	{
		mov r0, r6
		mov r1, r5
	}
.Ltmp212:
	{
		mov r2, r7
		mov r9, r10
	}
	bt r3, .LBB0_5
.Ltmp213:
# BB#50:                                # %ifdone.i244
                                        #   in Loop: Header=BB0_5 Depth=1
.Lxtalabel48:
	#DEBUG_VALUE: buffer:c_aud_out <- [SP+108]
	#DEBUG_VALUE: buffer:c_aud_in <- [SP+112]
	#DEBUG_VALUE: buffer:c_midi_from_host <- [SP+116]
	#DEBUG_VALUE: buffer:c_midi_to_host <- R8
	#DEBUG_VALUE: buffer:p_off_mclk <- [SP+56]
	#DEBUG_VALUE: buffer:c_hid <- [SP+104]
	#DEBUG_VALUE: buffer:c_sof <- [SP+120]
	#DEBUG_VALUE: buffer:c_aud_ctl <- [SP+100]
	#DEBUG_VALUE: ep_aud_out <- [SP+52]
	#DEBUG_VALUE: ep_aud_in <- [SP+48]
	#DEBUG_VALUE: ep_midi_from_host <- [SP+80]
	#DEBUG_VALUE: ep_midi_to_host <- [SP+92]
	#DEBUG_VALUE: ep_hid <- [SP+84]
	#DEBUG_VALUE: sampleFreq <- 48000
	#DEBUG_VALUE: masterClockFreq <- 24576000
	#DEBUG_VALUE: lastClock <- 0
	#DEBUG_VALUE: clocks <- 0
	#DEBUG_VALUE: clockcounter <- 0
	#DEBUG_VALUE: bufferIn <- 1
	#DEBUG_VALUE: remnant <- 0
	#DEBUG_VALUE: sofCount <- 0
	#DEBUG_VALUE: freqChange <- 0
	#DEBUG_VALUE: mod_from_last_time <- 0
	#DEBUG_VALUE: aud_from_host_buffer <- 0
	#DEBUG_VALUE: midi_from_host_rdptr <- [SP+28]
	#DEBUG_VALUE: midi_from_host_buffer <- [SP+32]
	#DEBUG_VALUE: midi_to_host_buffer_being_sent <- R0
	#DEBUG_VALUE: midi_to_host_buffer_being_collected <- R1
	#DEBUG_VALUE: midi_data_remaining_to_device <- 0
	#DEBUG_VALUE: midi_data_collected_from_device <- 0
	#DEBUG_VALUE: midi_waiting_on_send_to_host <- 0
	#DEBUG_VALUE: buffer:c_midi <- R4
	#DEBUG_VALUE: is_ack <- 1
	{
		nop
		ldw r1, sp[20]
	}
.Ltmp214:
	#DEBUG_VALUE: ep_midi_from_host <- R1
	.loc	2 437 0                 # /Users/rkn/Documents/xTIMEcomposer/workspace/module_xud/include/xud.h:437:0
	#APP
	ldw r0, r1[0]
	#NO_APP
.Ltmp215:
	#DEBUG_VALUE: chan_array_ptr <- R0
	{
		nop
		ldw r2, sp[8]
	}
	.loc	2 438 0                 # /Users/rkn/Documents/xTIMEcomposer/workspace/module_xud/include/xud.h:438:0
	#APP
	stw r2, r1[3]
	#NO_APP
	.loc	2 439 0                 # /Users/rkn/Documents/xTIMEcomposer/workspace/module_xud/include/xud.h:439:0
	#APP
	stw r1, r0[0]
	#NO_APP
	bu .LBB0_51
.Ltmp216:
.LBB0_18:                               # %iftrue22
.Lxtalabel49:
	#DEBUG_VALUE: buffer:c_aud_ctl <- R3
	#DEBUG_VALUE: sampleFreq <- 48000
	#DEBUG_VALUE: masterClockFreq <- 24576000
	#DEBUG_VALUE: lastClock <- 0
	#DEBUG_VALUE: clocks <- 0
	#DEBUG_VALUE: clockcounter <- 0
	#DEBUG_VALUE: bufferIn <- 1
	#DEBUG_VALUE: remnant <- 0
	#DEBUG_VALUE: sofCount <- 0
	#DEBUG_VALUE: freqChange <- 0
	#DEBUG_VALUE: mod_from_last_time <- 0
	#DEBUG_VALUE: aud_from_host_buffer <- 0
	#DEBUG_VALUE: midi_to_host_buffer_being_sent <- R0
	#DEBUG_VALUE: midi_to_host_buffer_being_collected <- R1
	#DEBUG_VALUE: midi_data_remaining_to_device <- 0
	#DEBUG_VALUE: midi_data_collected_from_device <- 0
	#DEBUG_VALUE: midi_waiting_on_send_to_host <- 0
	.loc	1 300 0                 # /Users/rkn/Documents/xTIMEcomposer/workspace/module_usb_audio/usb_buffer/usb_buffer.xc:300:0
.Lxta.endpoint_labels22:
	{
		inct r0, res[r3]
		nop
	}
.Ltmp217:
	.loc	1 301 0                 # /Users/rkn/Documents/xTIMEcomposer/workspace/module_usb_audio/usb_buffer/usb_buffer.xc:301:0
.Lxta.endpoint_labels23:
	{
		outct res[r3], 1
		nop
	}
.Ltmp218:
.LBB0_19:                               # %LoopTest28
                                        # =>This Inner Loop Header: Depth=1
	#DEBUG_VALUE: sampleFreq <- 48000
	#DEBUG_VALUE: masterClockFreq <- 24576000
	#DEBUG_VALUE: lastClock <- 0
	#DEBUG_VALUE: clocks <- 0
	#DEBUG_VALUE: clockcounter <- 0
	#DEBUG_VALUE: bufferIn <- 1
	#DEBUG_VALUE: remnant <- 0
	#DEBUG_VALUE: sofCount <- 0
	#DEBUG_VALUE: freqChange <- 0
	#DEBUG_VALUE: mod_from_last_time <- 0
	#DEBUG_VALUE: aud_from_host_buffer <- 0
	#DEBUG_VALUE: midi_to_host_buffer_being_sent <- R0
	#DEBUG_VALUE: midi_to_host_buffer_being_collected <- R1
	#DEBUG_VALUE: midi_data_remaining_to_device <- 0
	#DEBUG_VALUE: midi_data_collected_from_device <- 0
	#DEBUG_VALUE: midi_waiting_on_send_to_host <- 0
	.loc	1 302 20                # /Users/rkn/Documents/xTIMEcomposer/workspace/module_usb_audio/usb_buffer/usb_buffer.xc:302:20
	bu .LBB0_19
.Ltmp219:
	.cc_bottom buffer.function
	.set	buffer.nstackwords,((XUD_InitEp.nstackwords $M GetADCCounts.nstackwords $M __divdi3.nstackwords $M __moddi3.nstackwords $M XUD_GetData_Select.nstackwords $M XUD_SetData_Select.nstackwords $M UserReadHIDButtons.nstackwords) + 44)
	.globl	buffer.nstackwords
	.set	buffer.maxcores,GetADCCounts.maxcores $M UserReadHIDButtons.maxcores $M XUD_GetData_Select.maxcores $M XUD_InitEp.maxcores $M XUD_SetData_Select.maxcores $M 1
	.globl	buffer.maxcores
	.set	buffer.maxtimers,GetADCCounts.maxtimers $M UserReadHIDButtons.maxtimers $M XUD_GetData_Select.maxtimers $M XUD_InitEp.maxtimers $M XUD_SetData_Select.maxtimers $M 0
	.globl	buffer.maxtimers
	.set	buffer.maxchanends,GetADCCounts.maxchanends $M UserReadHIDButtons.maxchanends $M XUD_GetData_Select.maxchanends $M XUD_InitEp.maxchanends $M XUD_SetData_Select.maxchanends $M 0
	.globl	buffer.maxchanends
.Ltmp220:
	.size	buffer, .Ltmp220-buffer
.Lfunc_end0:
	.cfi_endproc

	.section	.dp.bss,"awd",@nobits
	.cc_top g_hidData.data,g_hidData
	.globl	g_hidData.globound
g_hidData.globound = 1
	.globl	g_hidData
	.align	8
	.type	g_hidData,@object
	.size	g_hidData, 1
g_hidData:
	.space	1
	.space	3
	.cc_bottom g_hidData.data
	.section	.dp.bss.4,"awd",@nobits
	.cc_top g_speed.data,g_speed
	.globl	g_speed
	.align	4
	.type	g_speed,@object
	.size	g_speed, 4
g_speed:
	.long	0                       # 0x0
	.cc_bottom g_speed.data
	.cc_top g_freqChange.data,g_freqChange
	.globl	g_freqChange
	.align	4
	.type	g_freqChange,@object
	.size	g_freqChange, 4
g_freqChange:
	.long	0                       # 0x0
	.cc_bottom g_freqChange.data
	.cc_top g_midi_to_host_buffer_A.data,g_midi_to_host_buffer_A
	.align	4
	.type	g_midi_to_host_buffer_A,@object
	.size	g_midi_to_host_buffer_A, 256
g_midi_to_host_buffer_A:
	.space	256
	.cc_bottom g_midi_to_host_buffer_A.data
	.cc_top g_midi_to_host_buffer_B.data,g_midi_to_host_buffer_B
	.align	4
	.type	g_midi_to_host_buffer_B,@object
	.size	g_midi_to_host_buffer_B, 256
g_midi_to_host_buffer_B:
	.space	256
	.cc_bottom g_midi_to_host_buffer_B.data
	.cc_top g_midi_from_host_buffer.data,g_midi_from_host_buffer
	.align	4
	.type	g_midi_from_host_buffer,@object
	.size	g_midi_from_host_buffer, 1024
g_midi_from_host_buffer:
	.space	1024
	.cc_bottom g_midi_from_host_buffer.data
	.section	.dp.bss,"awd",@nobits
	.cc_top fb_clocks.data,fb_clocks
	.globl	fb_clocks.globound
fb_clocks.globound = 16
	.globl	fb_clocks
	.align	8
	.type	fb_clocks,@object
	.size	fb_clocks, 16
fb_clocks:
	.space	16
	.cc_bottom fb_clocks.data
	.section	.dp.bss.4,"awd",@nobits
.Ldebug_end0:
	.section	.dp.bss,"awd",@nobits
.Ldebug_end1:
	.text
.Ldebug_end2:
	.file	6 "/Applications/XMOS_xTIMEcomposer_Community_14.3.2/target/include/timer.h"
	.section	.xtacalltable,"",@progbits
.Lentries_start0:
	.long	.Lentries_end1-.Lentries_start0
	.long	0
	.ascii	"/Users/rkn/Documents/xTIMEcomposer/workspace/app_usb_aud_xk_216_mc/.build_2i10o10msxxxx"
	.byte	0
.cc_top cc_0,.Lxta.call_labels0
	.ascii	"/Users/rkn/Documents/xTIMEcomposer/workspace/module_usb_audio/usb_buffer/usb_buffer.xc"
	.byte	0
	.long	135
	.long	.Lxta.call_labels0
.cc_bottom cc_0
.cc_top cc_1,.Lxta.call_labels1
	.ascii	"/Users/rkn/Documents/xTIMEcomposer/workspace/module_usb_audio/usb_buffer/usb_buffer.xc"
	.byte	0
	.long	136
	.long	.Lxta.call_labels1
.cc_bottom cc_1
.cc_top cc_2,.Lxta.call_labels2
	.ascii	"/Users/rkn/Documents/xTIMEcomposer/workspace/module_usb_audio/usb_buffer/usb_buffer.xc"
	.byte	0
	.long	141
	.long	.Lxta.call_labels2
.cc_bottom cc_2
.cc_top cc_3,.Lxta.call_labels3
	.ascii	"/Users/rkn/Documents/xTIMEcomposer/workspace/module_usb_audio/usb_buffer/usb_buffer.xc"
	.byte	0
	.long	142
	.long	.Lxta.call_labels3
.cc_bottom cc_3
.cc_top cc_4,.Lxta.call_labels4
	.ascii	"/Users/rkn/Documents/xTIMEcomposer/workspace/module_usb_audio/usb_buffer/usb_buffer.xc"
	.byte	0
	.long	160
	.long	.Lxta.call_labels4
.cc_bottom cc_4
.cc_top cc_5,.Lxta.call_labels11
	.ascii	"/Users/rkn/Documents/xTIMEcomposer/workspace/module_usb_audio/usb_buffer/usb_buffer.xc"
	.byte	0
	.long	329
	.long	.Lxta.call_labels11
.cc_bottom cc_5
.cc_top cc_6,.Lxta.call_labels5
	.ascii	"/Users/rkn/Documents/xTIMEcomposer/workspace/module_usb_audio/usb_buffer/usb_buffer.xc"
	.byte	0
	.long	547
	.long	.Lxta.call_labels5
.cc_bottom cc_6
.cc_top cc_7,.Lxta.call_labels6
	.ascii	"/Users/rkn/Documents/xTIMEcomposer/workspace/module_usb_audio/usb_buffer/usb_buffer.xc"
	.byte	0
	.long	576
	.long	.Lxta.call_labels6
.cc_bottom cc_7
.cc_top cc_8,.Lxta.call_labels7
	.ascii	"/Users/rkn/Documents/xTIMEcomposer/workspace/module_usb_audio/usb_buffer/usb_buffer.xc"
	.byte	0
	.long	589
	.long	.Lxta.call_labels7
.cc_bottom cc_8
.cc_top cc_9,.Lxta.call_labels8
	.ascii	"/Users/rkn/Documents/xTIMEcomposer/workspace/module_usb_audio/usb_buffer/usb_buffer.xc"
	.byte	0
	.long	609
	.long	.Lxta.call_labels8
.cc_bottom cc_9
.cc_top cc_10,.Lxta.call_labels9
	.ascii	"/Users/rkn/Documents/xTIMEcomposer/workspace/module_usb_audio/usb_buffer/usb_buffer.xc"
	.byte	0
	.long	726
	.long	.Lxta.call_labels9
.cc_bottom cc_10
.cc_top cc_11,.Lxta.call_labels10
	.ascii	"/Users/rkn/Documents/xTIMEcomposer/workspace/module_usb_audio/usb_buffer/usb_buffer.xc"
	.byte	0
	.long	729
	.long	.Lxta.call_labels10
.cc_bottom cc_11
.Lentries_end1:
	.section	.xtaendpointtable,"",@progbits
.Lentries_start2:
	.long	.Lentries_end3-.Lentries_start2
	.long	0
	.ascii	"/Users/rkn/Documents/xTIMEcomposer/workspace/app_usb_aud_xk_216_mc/.build_2i10o10msxxxx"
	.byte	0
.cc_top cc_12,.Lxta.endpoint_labels22
	.ascii	"/Users/rkn/Documents/xTIMEcomposer/workspace/module_usb_audio/usb_buffer/usb_buffer.xc"
	.byte	0
	.long	300
	.long	.Lxta.endpoint_labels22
.cc_bottom cc_12
.cc_top cc_13,.Lxta.endpoint_labels23
	.ascii	"/Users/rkn/Documents/xTIMEcomposer/workspace/module_usb_audio/usb_buffer/usb_buffer.xc"
	.byte	0
	.long	301
	.long	.Lxta.endpoint_labels23
.cc_bottom cc_13
.cc_top cc_14,.Lxta.endpoint_labels0
	.ascii	"/Users/rkn/Documents/xTIMEcomposer/workspace/module_usb_audio/usb_buffer/usb_buffer.xc"
	.byte	0
	.long	306
	.long	.Lxta.endpoint_labels0
.cc_bottom cc_14
.cc_top cc_15,.Lxta.endpoint_labels17
	.ascii	"/Users/rkn/Documents/xTIMEcomposer/workspace/module_usb_audio/usb_buffer/usb_buffer.xc"
	.byte	0
	.long	310
	.long	.Lxta.endpoint_labels17
.cc_bottom cc_15
.cc_top cc_16,.Lxta.endpoint_labels18
	.ascii	"/Users/rkn/Documents/xTIMEcomposer/workspace/module_usb_audio/usb_buffer/usb_buffer.xc"
	.byte	0
	.long	348
	.long	.Lxta.endpoint_labels18
.cc_bottom cc_16
.cc_top cc_17,.Lxta.endpoint_labels19
	.ascii	"/Users/rkn/Documents/xTIMEcomposer/workspace/module_usb_audio/usb_buffer/usb_buffer.xc"
	.byte	0
	.long	349
	.long	.Lxta.endpoint_labels19
.cc_bottom cc_17
.cc_top cc_18,.Lxta.endpoint_labels20
	.ascii	"/Users/rkn/Documents/xTIMEcomposer/workspace/module_usb_audio/usb_buffer/usb_buffer.xc"
	.byte	0
	.long	350
	.long	.Lxta.endpoint_labels20
.cc_bottom cc_18
.cc_top cc_19,.Lxta.endpoint_labels21
	.ascii	"/Users/rkn/Documents/xTIMEcomposer/workspace/module_usb_audio/usb_buffer/usb_buffer.xc"
	.byte	0
	.long	351
	.long	.Lxta.endpoint_labels21
.cc_bottom cc_19
.cc_top cc_20,.Lxta.endpoint_labels1
	.ascii	"/Users/rkn/Documents/xTIMEcomposer/workspace/module_usb_audio/usb_buffer/usb_buffer.xc"
	.byte	0
	.long	361
	.long	.Lxta.endpoint_labels1
.cc_bottom cc_20
.cc_top cc_21,.Lxta.endpoint_labels2
	.ascii	"/Users/rkn/Documents/xTIMEcomposer/workspace/module_usb_audio/usb_buffer/usb_buffer.xc"
	.byte	0
	.long	362
	.long	.Lxta.endpoint_labels2
.cc_bottom cc_21
.cc_top cc_22,.Lxta.endpoint_labels3
	.ascii	"/Users/rkn/Documents/xTIMEcomposer/workspace/module_usb_audio/usb_buffer/usb_buffer.xc"
	.byte	0
	.long	363
	.long	.Lxta.endpoint_labels3
.cc_bottom cc_22
.cc_top cc_23,.Lxta.endpoint_labels4
	.ascii	"/Users/rkn/Documents/xTIMEcomposer/workspace/module_usb_audio/usb_buffer/usb_buffer.xc"
	.byte	0
	.long	364
	.long	.Lxta.endpoint_labels4
.cc_bottom cc_23
.cc_top cc_24,.Lxta.endpoint_labels5
	.ascii	"/Users/rkn/Documents/xTIMEcomposer/workspace/module_usb_audio/usb_buffer/usb_buffer.xc"
	.byte	0
	.long	400
	.long	.Lxta.endpoint_labels5
.cc_bottom cc_24
.cc_top cc_25,.Lxta.endpoint_labels6
	.ascii	"/Users/rkn/Documents/xTIMEcomposer/workspace/module_usb_audio/usb_buffer/usb_buffer.xc"
	.byte	0
	.long	601
	.long	.Lxta.endpoint_labels6
.cc_bottom cc_25
.cc_top cc_26,.Lxta.endpoint_labels11
	.ascii	"/Users/rkn/Documents/xTIMEcomposer/workspace/module_usb_audio/usb_buffer/usb_buffer.xc"
	.byte	0
	.long	752
	.long	.Lxta.endpoint_labels11
.cc_bottom cc_26
.cc_top cc_27,.Lxta.endpoint_labels7
	.ascii	"/Users/rkn/Documents/xTIMEcomposer/workspace/module_usb_midi/src/usb_midi.h"
	.byte	0
	.long	52
	.long	.Lxta.endpoint_labels7
.cc_bottom cc_27
.cc_top cc_28,.Lxta.endpoint_labels8
	.ascii	"/Users/rkn/Documents/xTIMEcomposer/workspace/module_usb_midi/src/usb_midi.h"
	.byte	0
	.long	53
	.long	.Lxta.endpoint_labels8
.cc_bottom cc_28
.cc_top cc_29,.Lxta.endpoint_labels9
	.ascii	"/Users/rkn/Documents/xTIMEcomposer/workspace/module_usb_midi/src/usb_midi.h"
	.byte	0
	.long	54
	.long	.Lxta.endpoint_labels9
.cc_bottom cc_29
.cc_top cc_30,.Lxta.endpoint_labels10
	.ascii	"/Users/rkn/Documents/xTIMEcomposer/workspace/module_usb_midi/src/usb_midi.h"
	.byte	0
	.long	55
	.long	.Lxta.endpoint_labels10
.cc_bottom cc_30
.cc_top cc_31,.Lxta.endpoint_labels12
	.ascii	"/Users/rkn/Documents/xTIMEcomposer/workspace/module_usb_midi/src/usb_midi.h"
	.byte	0
	.long	59
	.long	.Lxta.endpoint_labels12
.cc_bottom cc_31
.cc_top cc_32,.Lxta.endpoint_labels13
	.ascii	"/Users/rkn/Documents/xTIMEcomposer/workspace/module_usb_midi/src/usb_midi.h"
	.byte	0
	.long	65
	.long	.Lxta.endpoint_labels13
.cc_bottom cc_32
.cc_top cc_33,.Lxta.endpoint_labels14
	.ascii	"/Users/rkn/Documents/xTIMEcomposer/workspace/module_usb_midi/src/usb_midi.h"
	.byte	0
	.long	66
	.long	.Lxta.endpoint_labels14
.cc_bottom cc_33
.cc_top cc_34,.Lxta.endpoint_labels15
	.ascii	"/Users/rkn/Documents/xTIMEcomposer/workspace/module_usb_midi/src/usb_midi.h"
	.byte	0
	.long	67
	.long	.Lxta.endpoint_labels15
.cc_bottom cc_34
.cc_top cc_35,.Lxta.endpoint_labels16
	.ascii	"/Users/rkn/Documents/xTIMEcomposer/workspace/module_usb_midi/src/usb_midi.h"
	.byte	0
	.long	68
	.long	.Lxta.endpoint_labels16
.cc_bottom cc_35
.Lentries_end3:
	.section	.xtalabeltable,"",@progbits
.Lentries_start4:
	.long	.Lentries_end5-.Lentries_start4
	.long	0
	.ascii	"/Users/rkn/Documents/xTIMEcomposer/workspace/app_usb_aud_xk_216_mc/.build_2i10o10msxxxx"
	.byte	0
.cc_top cc_36,.Lxtalabel6
	.ascii	"/Users/rkn/Documents/xTIMEcomposer/workspace/module_usb_audio/usb_buffer/testct_byref.h"
	.byte	0
	.long	7
	.long	8
	.long	.Lxtalabel6
.cc_bottom cc_36
.cc_top cc_37,.Lxtalabel6
	.ascii	"/Users/rkn/Documents/xTIMEcomposer/workspace/module_usb_audio/usb_buffer/testct_byref.h"
	.byte	0
	.long	16
	.long	16
	.long	.Lxtalabel6
.cc_bottom cc_37
.cc_top cc_38,.Lxtalabel25
	.ascii	"/Users/rkn/Documents/xTIMEcomposer/workspace/module_usb_audio/usb_buffer/usb_buffer.xc"
	.byte	0
	.long	64
	.long	70
	.long	.Lxtalabel25
.cc_bottom cc_38
.cc_top cc_39,.Lxtalabel35
	.ascii	"/Users/rkn/Documents/xTIMEcomposer/workspace/module_usb_audio/usb_buffer/usb_buffer.xc"
	.byte	0
	.long	64
	.long	70
	.long	.Lxtalabel35
.cc_bottom cc_39
.cc_top cc_40,.Lxtalabel0
	.ascii	"/Users/rkn/Documents/xTIMEcomposer/workspace/module_usb_audio/usb_buffer/usb_buffer.xc"
	.byte	0
	.long	134
	.long	136
	.long	.Lxtalabel0
.cc_bottom cc_40
.cc_top cc_41,.Lxtalabel0
	.ascii	"/Users/rkn/Documents/xTIMEcomposer/workspace/module_usb_audio/usb_buffer/usb_buffer.xc"
	.byte	0
	.long	141
	.long	142
	.long	.Lxtalabel0
.cc_bottom cc_41
.cc_top cc_42,.Lxtalabel0
	.ascii	"/Users/rkn/Documents/xTIMEcomposer/workspace/module_usb_audio/usb_buffer/usb_buffer.xc"
	.byte	0
	.long	160
	.long	160
	.long	.Lxtalabel0
.cc_bottom cc_42
.cc_top cc_43,.Lxtalabel0
	.ascii	"/Users/rkn/Documents/xTIMEcomposer/workspace/module_usb_audio/usb_buffer/usb_buffer.xc"
	.byte	0
	.long	162
	.long	165
	.long	.Lxtalabel0
.cc_bottom cc_43
.cc_top cc_44,.Lxtalabel0
	.ascii	"/Users/rkn/Documents/xTIMEcomposer/workspace/module_usb_audio/usb_buffer/usb_buffer.xc"
	.byte	0
	.long	167
	.long	168
	.long	.Lxtalabel0
.cc_bottom cc_44
.cc_top cc_45,.Lxtalabel0
	.ascii	"/Users/rkn/Documents/xTIMEcomposer/workspace/module_usb_audio/usb_buffer/usb_buffer.xc"
	.byte	0
	.long	172
	.long	172
	.long	.Lxtalabel0
.cc_bottom cc_45
.cc_top cc_46,.Lxtalabel0
	.ascii	"/Users/rkn/Documents/xTIMEcomposer/workspace/module_usb_audio/usb_buffer/usb_buffer.xc"
	.byte	0
	.long	174
	.long	176
	.long	.Lxtalabel0
.cc_bottom cc_46
.cc_top cc_47,.Lxtalabel0
	.ascii	"/Users/rkn/Documents/xTIMEcomposer/workspace/module_usb_audio/usb_buffer/usb_buffer.xc"
	.byte	0
	.long	178
	.long	178
	.long	.Lxtalabel0
.cc_bottom cc_47
.cc_top cc_48,.Lxtalabel0
	.ascii	"/Users/rkn/Documents/xTIMEcomposer/workspace/module_usb_audio/usb_buffer/usb_buffer.xc"
	.byte	0
	.long	183
	.long	183
	.long	.Lxtalabel0
.cc_bottom cc_48
.cc_top cc_49,.Lxtalabel0
	.ascii	"/Users/rkn/Documents/xTIMEcomposer/workspace/module_usb_audio/usb_buffer/usb_buffer.xc"
	.byte	0
	.long	186
	.long	186
	.long	.Lxtalabel0
.cc_bottom cc_49
.cc_top cc_50,.Lxtalabel0
	.ascii	"/Users/rkn/Documents/xTIMEcomposer/workspace/module_usb_audio/usb_buffer/usb_buffer.xc"
	.byte	0
	.long	188
	.long	190
	.long	.Lxtalabel0
.cc_bottom cc_50
.cc_top cc_51,.Lxtalabel0
	.ascii	"/Users/rkn/Documents/xTIMEcomposer/workspace/module_usb_audio/usb_buffer/usb_buffer.xc"
	.byte	0
	.long	192
	.long	196
	.long	.Lxtalabel0
.cc_bottom cc_51
.cc_top cc_52,.Lxtalabel0
	.ascii	"/Users/rkn/Documents/xTIMEcomposer/workspace/module_usb_audio/usb_buffer/usb_buffer.xc"
	.byte	0
	.long	226
	.long	228
	.long	.Lxtalabel0
.cc_bottom cc_52
.cc_top cc_53,.Lxtalabel0
	.ascii	"/Users/rkn/Documents/xTIMEcomposer/workspace/module_usb_audio/usb_buffer/usb_buffer.xc"
	.byte	0
	.long	235
	.long	235
	.long	.Lxtalabel0
.cc_bottom cc_53
.cc_top cc_54,.Lxtalabel0
	.ascii	"/Users/rkn/Documents/xTIMEcomposer/workspace/module_usb_audio/usb_buffer/usb_buffer.xc"
	.byte	0
	.long	239
	.long	239
	.long	.Lxtalabel0
.cc_bottom cc_54
.cc_top cc_55,.Lxtalabel0
	.ascii	"/Users/rkn/Documents/xTIMEcomposer/workspace/module_usb_audio/usb_buffer/usb_buffer.xc"
	.byte	0
	.long	242
	.long	242
	.long	.Lxtalabel0
.cc_bottom cc_55
.cc_top cc_56,.Lxtalabel0
	.ascii	"/Users/rkn/Documents/xTIMEcomposer/workspace/module_usb_audio/usb_buffer/usb_buffer.xc"
	.byte	0
	.long	246
	.long	246
	.long	.Lxtalabel0
.cc_bottom cc_56
.cc_top cc_57,.Lxtalabel0
	.ascii	"/Users/rkn/Documents/xTIMEcomposer/workspace/module_usb_audio/usb_buffer/usb_buffer.xc"
	.byte	0
	.long	258
	.long	258
	.long	.Lxtalabel0
.cc_bottom cc_57
.cc_top cc_58,.Lxtalabel0
	.ascii	"/Users/rkn/Documents/xTIMEcomposer/workspace/module_usb_audio/usb_buffer/usb_buffer.xc"
	.byte	0
	.long	261
	.long	261
	.long	.Lxtalabel0
.cc_bottom cc_58
.cc_top cc_59,.Lxtalabel4
	.ascii	"/Users/rkn/Documents/xTIMEcomposer/workspace/module_usb_audio/usb_buffer/usb_buffer.xc"
	.byte	0
	.long	262
	.long	264
	.long	.Lxtalabel4
.cc_bottom cc_59
.cc_top cc_60,.Lxtalabel37
	.ascii	"/Users/rkn/Documents/xTIMEcomposer/workspace/module_usb_audio/usb_buffer/usb_buffer.xc"
	.byte	0
	.long	262
	.long	264
	.long	.Lxtalabel37
.cc_bottom cc_60
.cc_top cc_61,.Lxtalabel5
	.ascii	"/Users/rkn/Documents/xTIMEcomposer/workspace/module_usb_audio/usb_buffer/usb_buffer.xc"
	.byte	0
	.long	262
	.long	264
	.long	.Lxtalabel5
.cc_bottom cc_61
.cc_top cc_62,.Lxtalabel37
	.ascii	"/Users/rkn/Documents/xTIMEcomposer/workspace/module_usb_audio/usb_buffer/usb_buffer.xc"
	.byte	0
	.long	267
	.long	268
	.long	.Lxtalabel37
.cc_bottom cc_62
.cc_top cc_63,.Lxtalabel4
	.ascii	"/Users/rkn/Documents/xTIMEcomposer/workspace/module_usb_audio/usb_buffer/usb_buffer.xc"
	.byte	0
	.long	267
	.long	268
	.long	.Lxtalabel4
.cc_bottom cc_63
.cc_top cc_64,.Lxtalabel5
	.ascii	"/Users/rkn/Documents/xTIMEcomposer/workspace/module_usb_audio/usb_buffer/usb_buffer.xc"
	.byte	0
	.long	267
	.long	268
	.long	.Lxtalabel5
.cc_bottom cc_64
.cc_top cc_65,.Lxtalabel5
	.ascii	"/Users/rkn/Documents/xTIMEcomposer/workspace/module_usb_audio/usb_buffer/usb_buffer.xc"
	.byte	0
	.long	295
	.long	295
	.long	.Lxtalabel5
.cc_bottom cc_65
.cc_top cc_66,.Lxtalabel4
	.ascii	"/Users/rkn/Documents/xTIMEcomposer/workspace/module_usb_audio/usb_buffer/usb_buffer.xc"
	.byte	0
	.long	295
	.long	295
	.long	.Lxtalabel4
.cc_bottom cc_66
.cc_top cc_67,.Lxtalabel37
	.ascii	"/Users/rkn/Documents/xTIMEcomposer/workspace/module_usb_audio/usb_buffer/usb_buffer.xc"
	.byte	0
	.long	295
	.long	295
	.long	.Lxtalabel37
.cc_bottom cc_67
.cc_top cc_68,.Lxtalabel6
	.ascii	"/Users/rkn/Documents/xTIMEcomposer/workspace/module_usb_audio/usb_buffer/usb_buffer.xc"
	.byte	0
	.long	296
	.long	297
	.long	.Lxtalabel6
.cc_bottom cc_68
.cc_top cc_69,.Lxtalabel49
	.ascii	"/Users/rkn/Documents/xTIMEcomposer/workspace/module_usb_audio/usb_buffer/usb_buffer.xc"
	.byte	0
	.long	298
	.long	298
	.long	.Lxtalabel49
.cc_bottom cc_69
.cc_top cc_70,.Lxtalabel49
	.ascii	"/Users/rkn/Documents/xTIMEcomposer/workspace/module_usb_audio/usb_buffer/usb_buffer.xc"
	.byte	0
	.long	300
	.long	300
	.long	.Lxtalabel49
.cc_bottom cc_70
.cc_top cc_71,.Lxtalabel49
	.ascii	"/Users/rkn/Documents/xTIMEcomposer/workspace/module_usb_audio/usb_buffer/usb_buffer.xc"
	.byte	0
	.long	301
	.long	301
	.long	.Lxtalabel49
.cc_bottom cc_71
.cc_top cc_72,.Lxtalabel49
	.ascii	"/Users/rkn/Documents/xTIMEcomposer/workspace/module_usb_audio/usb_buffer/usb_buffer.xc"
	.byte	0
	.long	302
	.long	302
	.long	.Lxtalabel49
.cc_bottom cc_72
.cc_top cc_73,.Lxtalabel43
	.ascii	"/Users/rkn/Documents/xTIMEcomposer/workspace/module_usb_audio/usb_buffer/usb_buffer.xc"
	.byte	0
	.long	304
	.long	306
	.long	.Lxtalabel43
.cc_bottom cc_73
.cc_top cc_74,.Lxtalabel7
	.ascii	"/Users/rkn/Documents/xTIMEcomposer/workspace/module_usb_audio/usb_buffer/usb_buffer.xc"
	.byte	0
	.long	304
	.long	306
	.long	.Lxtalabel7
.cc_bottom cc_74
.cc_top cc_75,.Lxtalabel8
	.ascii	"/Users/rkn/Documents/xTIMEcomposer/workspace/module_usb_audio/usb_buffer/usb_buffer.xc"
	.byte	0
	.long	304
	.long	306
	.long	.Lxtalabel8
.cc_bottom cc_75
.cc_top cc_76,.Lxtalabel43
	.ascii	"/Users/rkn/Documents/xTIMEcomposer/workspace/module_usb_audio/usb_buffer/usb_buffer.xc"
	.byte	0
	.long	308
	.long	308
	.long	.Lxtalabel43
.cc_bottom cc_76
.cc_top cc_77,.Lxtalabel8
	.ascii	"/Users/rkn/Documents/xTIMEcomposer/workspace/module_usb_audio/usb_buffer/usb_buffer.xc"
	.byte	0
	.long	308
	.long	308
	.long	.Lxtalabel8
.cc_bottom cc_77
.cc_top cc_78,.Lxtalabel7
	.ascii	"/Users/rkn/Documents/xTIMEcomposer/workspace/module_usb_audio/usb_buffer/usb_buffer.xc"
	.byte	0
	.long	308
	.long	308
	.long	.Lxtalabel7
.cc_bottom cc_78
.cc_top cc_79,.Lxtalabel38
	.ascii	"/Users/rkn/Documents/xTIMEcomposer/workspace/module_usb_audio/usb_buffer/usb_buffer.xc"
	.byte	0
	.long	309
	.long	310
	.long	.Lxtalabel38
.cc_bottom cc_79
.cc_top cc_80,.Lxtalabel38
	.ascii	"/Users/rkn/Documents/xTIMEcomposer/workspace/module_usb_audio/usb_buffer/usb_buffer.xc"
	.byte	0
	.long	313
	.long	313
	.long	.Lxtalabel38
.cc_bottom cc_80
.cc_top cc_81,.Lxtalabel40
	.ascii	"/Users/rkn/Documents/xTIMEcomposer/workspace/module_usb_audio/usb_buffer/usb_buffer.xc"
	.byte	0
	.long	314
	.long	314
	.long	.Lxtalabel40
.cc_bottom cc_81
.cc_top cc_82,.Lxtalabel41
	.ascii	"/Users/rkn/Documents/xTIMEcomposer/workspace/module_usb_audio/usb_buffer/usb_buffer.xc"
	.byte	0
	.long	314
	.long	314
	.long	.Lxtalabel41
.cc_bottom cc_82
.cc_top cc_83,.Lxtalabel39
	.ascii	"/Users/rkn/Documents/xTIMEcomposer/workspace/module_usb_audio/usb_buffer/usb_buffer.xc"
	.byte	0
	.long	314
	.long	314
	.long	.Lxtalabel39
.cc_bottom cc_83
.cc_top cc_84,.Lxtalabel39
	.ascii	"/Users/rkn/Documents/xTIMEcomposer/workspace/module_usb_audio/usb_buffer/usb_buffer.xc"
	.byte	0
	.long	321
	.long	325
	.long	.Lxtalabel39
.cc_bottom cc_84
.cc_top cc_85,.Lxtalabel41
	.ascii	"/Users/rkn/Documents/xTIMEcomposer/workspace/module_usb_audio/usb_buffer/usb_buffer.xc"
	.byte	0
	.long	321
	.long	325
	.long	.Lxtalabel41
.cc_bottom cc_85
.cc_top cc_86,.Lxtalabel40
	.ascii	"/Users/rkn/Documents/xTIMEcomposer/workspace/module_usb_audio/usb_buffer/usb_buffer.xc"
	.byte	0
	.long	321
	.long	325
	.long	.Lxtalabel40
.cc_bottom cc_86
.cc_top cc_87,.Lxtalabel41
	.ascii	"/Users/rkn/Documents/xTIMEcomposer/workspace/module_usb_audio/usb_buffer/usb_buffer.xc"
	.byte	0
	.long	328
	.long	330
	.long	.Lxtalabel41
.cc_bottom cc_87
.cc_top cc_88,.Lxtalabel39
	.ascii	"/Users/rkn/Documents/xTIMEcomposer/workspace/module_usb_audio/usb_buffer/usb_buffer.xc"
	.byte	0
	.long	328
	.long	330
	.long	.Lxtalabel39
.cc_bottom cc_88
.cc_top cc_89,.Lxtalabel40
	.ascii	"/Users/rkn/Documents/xTIMEcomposer/workspace/module_usb_audio/usb_buffer/usb_buffer.xc"
	.byte	0
	.long	328
	.long	330
	.long	.Lxtalabel40
.cc_bottom cc_89
.cc_top cc_90,.Lxtalabel39
	.ascii	"/Users/rkn/Documents/xTIMEcomposer/workspace/module_usb_audio/usb_buffer/usb_buffer.xc"
	.byte	0
	.long	332
	.long	332
	.long	.Lxtalabel39
.cc_bottom cc_90
.cc_top cc_91,.Lxtalabel40
	.ascii	"/Users/rkn/Documents/xTIMEcomposer/workspace/module_usb_audio/usb_buffer/usb_buffer.xc"
	.byte	0
	.long	332
	.long	332
	.long	.Lxtalabel40
.cc_bottom cc_91
.cc_top cc_92,.Lxtalabel41
	.ascii	"/Users/rkn/Documents/xTIMEcomposer/workspace/module_usb_audio/usb_buffer/usb_buffer.xc"
	.byte	0
	.long	332
	.long	332
	.long	.Lxtalabel41
.cc_bottom cc_92
.cc_top cc_93,.Lxtalabel42
	.ascii	"/Users/rkn/Documents/xTIMEcomposer/workspace/module_usb_audio/usb_buffer/usb_buffer.xc"
	.byte	0
	.long	344
	.long	344
	.long	.Lxtalabel42
.cc_bottom cc_93
.cc_top cc_94,.Lxtalabel42
	.ascii	"/Users/rkn/Documents/xTIMEcomposer/workspace/module_usb_audio/usb_buffer/usb_buffer.xc"
	.byte	0
	.long	345
	.long	345
	.long	.Lxtalabel42
.cc_bottom cc_94
.cc_top cc_95,.Lxtalabel44
	.ascii	"/Users/rkn/Documents/xTIMEcomposer/workspace/module_usb_audio/usb_buffer/usb_buffer.xc"
	.byte	0
	.long	347
	.long	351
	.long	.Lxtalabel44
.cc_bottom cc_95
.cc_top cc_96,.Lxtalabel44
	.ascii	"/Users/rkn/Documents/xTIMEcomposer/workspace/module_usb_audio/usb_buffer/usb_buffer.xc"
	.byte	0
	.long	353
	.long	353
	.long	.Lxtalabel44
.cc_bottom cc_96
.cc_top cc_97,.Lxtalabel44
	.ascii	"/Users/rkn/Documents/xTIMEcomposer/workspace/module_usb_audio/usb_buffer/usb_buffer.xc"
	.byte	0
	.long	354
	.long	354
	.long	.Lxtalabel44
.cc_bottom cc_97
.cc_top cc_98,.Lxtalabel44
	.ascii	"/Users/rkn/Documents/xTIMEcomposer/workspace/module_usb_audio/usb_buffer/usb_buffer.xc"
	.byte	0
	.long	355
	.long	355
	.long	.Lxtalabel44
.cc_bottom cc_98
.cc_top cc_99,.Lxtalabel44
	.ascii	"/Users/rkn/Documents/xTIMEcomposer/workspace/module_usb_audio/usb_buffer/usb_buffer.xc"
	.byte	0
	.long	356
	.long	356
	.long	.Lxtalabel44
.cc_bottom cc_99
.cc_top cc_100,.Lxtalabel44
	.ascii	"/Users/rkn/Documents/xTIMEcomposer/workspace/module_usb_audio/usb_buffer/usb_buffer.xc"
	.byte	0
	.long	357
	.long	357
	.long	.Lxtalabel44
.cc_bottom cc_100
.cc_top cc_101,.Lxtalabel9
	.ascii	"/Users/rkn/Documents/xTIMEcomposer/workspace/module_usb_audio/usb_buffer/usb_buffer.xc"
	.byte	0
	.long	359
	.long	364
	.long	.Lxtalabel9
.cc_bottom cc_101
.cc_top cc_102,.Lxtalabel9
	.ascii	"/Users/rkn/Documents/xTIMEcomposer/workspace/module_usb_audio/usb_buffer/usb_buffer.xc"
	.byte	0
	.long	366
	.long	366
	.long	.Lxtalabel9
.cc_bottom cc_102
.cc_top cc_103,.Lxtalabel9
	.ascii	"/Users/rkn/Documents/xTIMEcomposer/workspace/module_usb_audio/usb_buffer/usb_buffer.xc"
	.byte	0
	.long	367
	.long	367
	.long	.Lxtalabel9
.cc_bottom cc_103
.cc_top cc_104,.Lxtalabel9
	.ascii	"/Users/rkn/Documents/xTIMEcomposer/workspace/module_usb_audio/usb_buffer/usb_buffer.xc"
	.byte	0
	.long	368
	.long	368
	.long	.Lxtalabel9
.cc_bottom cc_104
.cc_top cc_105,.Lxtalabel9
	.ascii	"/Users/rkn/Documents/xTIMEcomposer/workspace/module_usb_audio/usb_buffer/usb_buffer.xc"
	.byte	0
	.long	369
	.long	369
	.long	.Lxtalabel9
.cc_bottom cc_105
.cc_top cc_106,.Lxtalabel9
	.ascii	"/Users/rkn/Documents/xTIMEcomposer/workspace/module_usb_audio/usb_buffer/usb_buffer.xc"
	.byte	0
	.long	386
	.long	386
	.long	.Lxtalabel9
.cc_bottom cc_106
.cc_top cc_107,.Lxtalabel45
	.ascii	"/Users/rkn/Documents/xTIMEcomposer/workspace/module_usb_audio/usb_buffer/usb_buffer.xc"
	.byte	0
	.long	389
	.long	389
	.long	.Lxtalabel45
.cc_bottom cc_107
.cc_top cc_108,.Lxtalabel45
	.ascii	"/Users/rkn/Documents/xTIMEcomposer/workspace/module_usb_audio/usb_buffer/usb_buffer.xc"
	.byte	0
	.long	390
	.long	390
	.long	.Lxtalabel45
.cc_bottom cc_108
.cc_top cc_109,.Lxtalabel45
	.ascii	"/Users/rkn/Documents/xTIMEcomposer/workspace/module_usb_audio/usb_buffer/usb_buffer.xc"
	.byte	0
	.long	391
	.long	391
	.long	.Lxtalabel45
.cc_bottom cc_109
.cc_top cc_110,.Lxtalabel45
	.ascii	"/Users/rkn/Documents/xTIMEcomposer/workspace/module_usb_audio/usb_buffer/usb_buffer.xc"
	.byte	0
	.long	392
	.long	393
	.long	.Lxtalabel45
.cc_bottom cc_110
.cc_top cc_111,.Lxtalabel45
	.ascii	"/Users/rkn/Documents/xTIMEcomposer/workspace/module_usb_audio/usb_buffer/usb_buffer.xc"
	.byte	0
	.long	400
	.long	400
	.long	.Lxtalabel45
.cc_bottom cc_111
.cc_top cc_112,.Lxtalabel10
	.ascii	"/Users/rkn/Documents/xTIMEcomposer/workspace/module_usb_audio/usb_buffer/usb_buffer.xc"
	.byte	0
	.long	406
	.long	406
	.long	.Lxtalabel10
.cc_bottom cc_112
.cc_top cc_113,.Lxtalabel10
	.ascii	"/Users/rkn/Documents/xTIMEcomposer/workspace/module_usb_audio/usb_buffer/usb_buffer.xc"
	.byte	0
	.long	408
	.long	408
	.long	.Lxtalabel10
.cc_bottom cc_113
.cc_top cc_114,.Lxtalabel10
	.ascii	"/Users/rkn/Documents/xTIMEcomposer/workspace/module_usb_audio/usb_buffer/usb_buffer.xc"
	.byte	0
	.long	409
	.long	409
	.long	.Lxtalabel10
.cc_bottom cc_114
.cc_top cc_115,.Lxtalabel10
	.ascii	"/Users/rkn/Documents/xTIMEcomposer/workspace/module_usb_audio/usb_buffer/usb_buffer.xc"
	.byte	0
	.long	410
	.long	410
	.long	.Lxtalabel10
.cc_bottom cc_115
.cc_top cc_116,.Lxtalabel10
	.ascii	"/Users/rkn/Documents/xTIMEcomposer/workspace/module_usb_audio/usb_buffer/usb_buffer.xc"
	.byte	0
	.long	412
	.long	413
	.long	.Lxtalabel10
.cc_bottom cc_116
.cc_top cc_117,.Lxtalabel12
	.ascii	"/Users/rkn/Documents/xTIMEcomposer/workspace/module_usb_audio/usb_buffer/usb_buffer.xc"
	.byte	0
	.long	414
	.long	416
	.long	.Lxtalabel12
.cc_bottom cc_117
.cc_top cc_118,.Lxtalabel11
	.ascii	"/Users/rkn/Documents/xTIMEcomposer/workspace/module_usb_audio/usb_buffer/usb_buffer.xc"
	.byte	0
	.long	414
	.long	416
	.long	.Lxtalabel11
.cc_bottom cc_118
.cc_top cc_119,.Lxtalabel13
	.ascii	"/Users/rkn/Documents/xTIMEcomposer/workspace/module_usb_audio/usb_buffer/usb_buffer.xc"
	.byte	0
	.long	414
	.long	416
	.long	.Lxtalabel13
.cc_bottom cc_119
.cc_top cc_120,.Lxtalabel12
	.ascii	"/Users/rkn/Documents/xTIMEcomposer/workspace/module_usb_audio/usb_buffer/usb_buffer.xc"
	.byte	0
	.long	417
	.long	417
	.long	.Lxtalabel12
.cc_bottom cc_120
.cc_top cc_121,.Lxtalabel11
	.ascii	"/Users/rkn/Documents/xTIMEcomposer/workspace/module_usb_audio/usb_buffer/usb_buffer.xc"
	.byte	0
	.long	417
	.long	417
	.long	.Lxtalabel11
.cc_bottom cc_121
.cc_top cc_122,.Lxtalabel13
	.ascii	"/Users/rkn/Documents/xTIMEcomposer/workspace/module_usb_audio/usb_buffer/usb_buffer.xc"
	.byte	0
	.long	417
	.long	417
	.long	.Lxtalabel13
.cc_bottom cc_122
.cc_top cc_123,.Lxtalabel12
	.ascii	"/Users/rkn/Documents/xTIMEcomposer/workspace/module_usb_audio/usb_buffer/usb_buffer.xc"
	.byte	0
	.long	477
	.long	477
	.long	.Lxtalabel12
.cc_bottom cc_123
.cc_top cc_124,.Lxtalabel13
	.ascii	"/Users/rkn/Documents/xTIMEcomposer/workspace/module_usb_audio/usb_buffer/usb_buffer.xc"
	.byte	0
	.long	477
	.long	477
	.long	.Lxtalabel13
.cc_bottom cc_124
.cc_top cc_125,.Lxtalabel11
	.ascii	"/Users/rkn/Documents/xTIMEcomposer/workspace/module_usb_audio/usb_buffer/usb_buffer.xc"
	.byte	0
	.long	477
	.long	477
	.long	.Lxtalabel11
.cc_bottom cc_125
.cc_top cc_126,.Lxtalabel12
	.ascii	"/Users/rkn/Documents/xTIMEcomposer/workspace/module_usb_audio/usb_buffer/usb_buffer.xc"
	.byte	0
	.long	479
	.long	479
	.long	.Lxtalabel12
.cc_bottom cc_126
.cc_top cc_127,.Lxtalabel11
	.ascii	"/Users/rkn/Documents/xTIMEcomposer/workspace/module_usb_audio/usb_buffer/usb_buffer.xc"
	.byte	0
	.long	479
	.long	479
	.long	.Lxtalabel11
.cc_bottom cc_127
.cc_top cc_128,.Lxtalabel13
	.ascii	"/Users/rkn/Documents/xTIMEcomposer/workspace/module_usb_audio/usb_buffer/usb_buffer.xc"
	.byte	0
	.long	479
	.long	479
	.long	.Lxtalabel13
.cc_bottom cc_128
.cc_top cc_129,.Lxtalabel11
	.ascii	"/Users/rkn/Documents/xTIMEcomposer/workspace/module_usb_audio/usb_buffer/usb_buffer.xc"
	.byte	0
	.long	480
	.long	480
	.long	.Lxtalabel11
.cc_bottom cc_129
.cc_top cc_130,.Lxtalabel13
	.ascii	"/Users/rkn/Documents/xTIMEcomposer/workspace/module_usb_audio/usb_buffer/usb_buffer.xc"
	.byte	0
	.long	480
	.long	480
	.long	.Lxtalabel13
.cc_bottom cc_130
.cc_top cc_131,.Lxtalabel12
	.ascii	"/Users/rkn/Documents/xTIMEcomposer/workspace/module_usb_audio/usb_buffer/usb_buffer.xc"
	.byte	0
	.long	480
	.long	480
	.long	.Lxtalabel12
.cc_bottom cc_131
.cc_top cc_132,.Lxtalabel11
	.ascii	"/Users/rkn/Documents/xTIMEcomposer/workspace/module_usb_audio/usb_buffer/usb_buffer.xc"
	.byte	0
	.long	483
	.long	483
	.long	.Lxtalabel11
.cc_bottom cc_132
.cc_top cc_133,.Lxtalabel12
	.ascii	"/Users/rkn/Documents/xTIMEcomposer/workspace/module_usb_audio/usb_buffer/usb_buffer.xc"
	.byte	0
	.long	483
	.long	483
	.long	.Lxtalabel12
.cc_bottom cc_133
.cc_top cc_134,.Lxtalabel13
	.ascii	"/Users/rkn/Documents/xTIMEcomposer/workspace/module_usb_audio/usb_buffer/usb_buffer.xc"
	.byte	0
	.long	483
	.long	483
	.long	.Lxtalabel13
.cc_bottom cc_134
.cc_top cc_135,.Lxtalabel13
	.ascii	"/Users/rkn/Documents/xTIMEcomposer/workspace/module_usb_audio/usb_buffer/usb_buffer.xc"
	.byte	0
	.long	485
	.long	485
	.long	.Lxtalabel13
.cc_bottom cc_135
.cc_top cc_136,.Lxtalabel12
	.ascii	"/Users/rkn/Documents/xTIMEcomposer/workspace/module_usb_audio/usb_buffer/usb_buffer.xc"
	.byte	0
	.long	485
	.long	485
	.long	.Lxtalabel12
.cc_bottom cc_136
.cc_top cc_137,.Lxtalabel11
	.ascii	"/Users/rkn/Documents/xTIMEcomposer/workspace/module_usb_audio/usb_buffer/usb_buffer.xc"
	.byte	0
	.long	485
	.long	485
	.long	.Lxtalabel11
.cc_bottom cc_137
.cc_top cc_138,.Lxtalabel12
	.ascii	"/Users/rkn/Documents/xTIMEcomposer/workspace/module_usb_audio/usb_buffer/usb_buffer.xc"
	.byte	0
	.long	487
	.long	487
	.long	.Lxtalabel12
.cc_bottom cc_138
.cc_top cc_139,.Lxtalabel13
	.ascii	"/Users/rkn/Documents/xTIMEcomposer/workspace/module_usb_audio/usb_buffer/usb_buffer.xc"
	.byte	0
	.long	487
	.long	487
	.long	.Lxtalabel13
.cc_bottom cc_139
.cc_top cc_140,.Lxtalabel11
	.ascii	"/Users/rkn/Documents/xTIMEcomposer/workspace/module_usb_audio/usb_buffer/usb_buffer.xc"
	.byte	0
	.long	487
	.long	487
	.long	.Lxtalabel11
.cc_bottom cc_140
.cc_top cc_141,.Lxtalabel11
	.ascii	"/Users/rkn/Documents/xTIMEcomposer/workspace/module_usb_audio/usb_buffer/usb_buffer.xc"
	.byte	0
	.long	490
	.long	490
	.long	.Lxtalabel11
.cc_bottom cc_141
.cc_top cc_142,.Lxtalabel13
	.ascii	"/Users/rkn/Documents/xTIMEcomposer/workspace/module_usb_audio/usb_buffer/usb_buffer.xc"
	.byte	0
	.long	490
	.long	490
	.long	.Lxtalabel13
.cc_bottom cc_142
.cc_top cc_143,.Lxtalabel12
	.ascii	"/Users/rkn/Documents/xTIMEcomposer/workspace/module_usb_audio/usb_buffer/usb_buffer.xc"
	.byte	0
	.long	490
	.long	490
	.long	.Lxtalabel12
.cc_bottom cc_143
.cc_top cc_144,.Lxtalabel11
	.ascii	"/Users/rkn/Documents/xTIMEcomposer/workspace/module_usb_audio/usb_buffer/usb_buffer.xc"
	.byte	0
	.long	494
	.long	494
	.long	.Lxtalabel11
.cc_bottom cc_144
.cc_top cc_145,.Lxtalabel12
	.ascii	"/Users/rkn/Documents/xTIMEcomposer/workspace/module_usb_audio/usb_buffer/usb_buffer.xc"
	.byte	0
	.long	494
	.long	494
	.long	.Lxtalabel12
.cc_bottom cc_145
.cc_top cc_146,.Lxtalabel13
	.ascii	"/Users/rkn/Documents/xTIMEcomposer/workspace/module_usb_audio/usb_buffer/usb_buffer.xc"
	.byte	0
	.long	494
	.long	494
	.long	.Lxtalabel13
.cc_bottom cc_146
.cc_top cc_147,.Lxtalabel14
	.ascii	"/Users/rkn/Documents/xTIMEcomposer/workspace/module_usb_audio/usb_buffer/usb_buffer.xc"
	.byte	0
	.long	495
	.long	496
	.long	.Lxtalabel14
.cc_bottom cc_147
.cc_top cc_148,.Lxtalabel18
	.ascii	"/Users/rkn/Documents/xTIMEcomposer/workspace/module_usb_audio/usb_buffer/usb_buffer.xc"
	.byte	0
	.long	495
	.long	496
	.long	.Lxtalabel18
.cc_bottom cc_148
.cc_top cc_149,.Lxtalabel15
	.ascii	"/Users/rkn/Documents/xTIMEcomposer/workspace/module_usb_audio/usb_buffer/usb_buffer.xc"
	.byte	0
	.long	495
	.long	496
	.long	.Lxtalabel15
.cc_bottom cc_149
.cc_top cc_150,.Lxtalabel16
	.ascii	"/Users/rkn/Documents/xTIMEcomposer/workspace/module_usb_audio/usb_buffer/usb_buffer.xc"
	.byte	0
	.long	495
	.long	496
	.long	.Lxtalabel16
.cc_bottom cc_150
.cc_top cc_151,.Lxtalabel17
	.ascii	"/Users/rkn/Documents/xTIMEcomposer/workspace/module_usb_audio/usb_buffer/usb_buffer.xc"
	.byte	0
	.long	495
	.long	496
	.long	.Lxtalabel17
.cc_bottom cc_151
.cc_top cc_152,.Lxtalabel16
	.ascii	"/Users/rkn/Documents/xTIMEcomposer/workspace/module_usb_audio/usb_buffer/usb_buffer.xc"
	.byte	0
	.long	498
	.long	500
	.long	.Lxtalabel16
.cc_bottom cc_152
.cc_top cc_153,.Lxtalabel15
	.ascii	"/Users/rkn/Documents/xTIMEcomposer/workspace/module_usb_audio/usb_buffer/usb_buffer.xc"
	.byte	0
	.long	498
	.long	500
	.long	.Lxtalabel15
.cc_bottom cc_153
.cc_top cc_154,.Lxtalabel17
	.ascii	"/Users/rkn/Documents/xTIMEcomposer/workspace/module_usb_audio/usb_buffer/usb_buffer.xc"
	.byte	0
	.long	498
	.long	500
	.long	.Lxtalabel17
.cc_bottom cc_154
.cc_top cc_155,.Lxtalabel14
	.ascii	"/Users/rkn/Documents/xTIMEcomposer/workspace/module_usb_audio/usb_buffer/usb_buffer.xc"
	.byte	0
	.long	498
	.long	500
	.long	.Lxtalabel14
.cc_bottom cc_155
.cc_top cc_156,.Lxtalabel18
	.ascii	"/Users/rkn/Documents/xTIMEcomposer/workspace/module_usb_audio/usb_buffer/usb_buffer.xc"
	.byte	0
	.long	498
	.long	500
	.long	.Lxtalabel18
.cc_bottom cc_156
.cc_top cc_157,.Lxtalabel17
	.ascii	"/Users/rkn/Documents/xTIMEcomposer/workspace/module_usb_audio/usb_buffer/usb_buffer.xc"
	.byte	0
	.long	502
	.long	502
	.long	.Lxtalabel17
.cc_bottom cc_157
.cc_top cc_158,.Lxtalabel14
	.ascii	"/Users/rkn/Documents/xTIMEcomposer/workspace/module_usb_audio/usb_buffer/usb_buffer.xc"
	.byte	0
	.long	502
	.long	502
	.long	.Lxtalabel14
.cc_bottom cc_158
.cc_top cc_159,.Lxtalabel16
	.ascii	"/Users/rkn/Documents/xTIMEcomposer/workspace/module_usb_audio/usb_buffer/usb_buffer.xc"
	.byte	0
	.long	502
	.long	502
	.long	.Lxtalabel16
.cc_bottom cc_159
.cc_top cc_160,.Lxtalabel18
	.ascii	"/Users/rkn/Documents/xTIMEcomposer/workspace/module_usb_audio/usb_buffer/usb_buffer.xc"
	.byte	0
	.long	502
	.long	502
	.long	.Lxtalabel18
.cc_bottom cc_160
.cc_top cc_161,.Lxtalabel15
	.ascii	"/Users/rkn/Documents/xTIMEcomposer/workspace/module_usb_audio/usb_buffer/usb_buffer.xc"
	.byte	0
	.long	502
	.long	502
	.long	.Lxtalabel15
.cc_bottom cc_161
.cc_top cc_162,.Lxtalabel17
	.ascii	"/Users/rkn/Documents/xTIMEcomposer/workspace/module_usb_audio/usb_buffer/usb_buffer.xc"
	.byte	0
	.long	515
	.long	517
	.long	.Lxtalabel17
.cc_bottom cc_162
.cc_top cc_163,.Lxtalabel18
	.ascii	"/Users/rkn/Documents/xTIMEcomposer/workspace/module_usb_audio/usb_buffer/usb_buffer.xc"
	.byte	0
	.long	515
	.long	517
	.long	.Lxtalabel18
.cc_bottom cc_163
.cc_top cc_164,.Lxtalabel16
	.ascii	"/Users/rkn/Documents/xTIMEcomposer/workspace/module_usb_audio/usb_buffer/usb_buffer.xc"
	.byte	0
	.long	515
	.long	517
	.long	.Lxtalabel16
.cc_bottom cc_164
.cc_top cc_165,.Lxtalabel15
	.ascii	"/Users/rkn/Documents/xTIMEcomposer/workspace/module_usb_audio/usb_buffer/usb_buffer.xc"
	.byte	0
	.long	515
	.long	517
	.long	.Lxtalabel15
.cc_bottom cc_165
.cc_top cc_166,.Lxtalabel14
	.ascii	"/Users/rkn/Documents/xTIMEcomposer/workspace/module_usb_audio/usb_buffer/usb_buffer.xc"
	.byte	0
	.long	515
	.long	517
	.long	.Lxtalabel14
.cc_bottom cc_166
.cc_top cc_167,.Lxtalabel14
	.ascii	"/Users/rkn/Documents/xTIMEcomposer/workspace/module_usb_audio/usb_buffer/usb_buffer.xc"
	.byte	0
	.long	519
	.long	519
	.long	.Lxtalabel14
.cc_bottom cc_167
.cc_top cc_168,.Lxtalabel17
	.ascii	"/Users/rkn/Documents/xTIMEcomposer/workspace/module_usb_audio/usb_buffer/usb_buffer.xc"
	.byte	0
	.long	519
	.long	519
	.long	.Lxtalabel17
.cc_bottom cc_168
.cc_top cc_169,.Lxtalabel15
	.ascii	"/Users/rkn/Documents/xTIMEcomposer/workspace/module_usb_audio/usb_buffer/usb_buffer.xc"
	.byte	0
	.long	519
	.long	519
	.long	.Lxtalabel15
.cc_bottom cc_169
.cc_top cc_170,.Lxtalabel16
	.ascii	"/Users/rkn/Documents/xTIMEcomposer/workspace/module_usb_audio/usb_buffer/usb_buffer.xc"
	.byte	0
	.long	519
	.long	519
	.long	.Lxtalabel16
.cc_bottom cc_170
.cc_top cc_171,.Lxtalabel18
	.ascii	"/Users/rkn/Documents/xTIMEcomposer/workspace/module_usb_audio/usb_buffer/usb_buffer.xc"
	.byte	0
	.long	519
	.long	519
	.long	.Lxtalabel18
.cc_bottom cc_171
.cc_top cc_172,.Lxtalabel18
	.ascii	"/Users/rkn/Documents/xTIMEcomposer/workspace/module_usb_audio/usb_buffer/usb_buffer.xc"
	.byte	0
	.long	521
	.long	521
	.long	.Lxtalabel18
.cc_bottom cc_172
.cc_top cc_173,.Lxtalabel14
	.ascii	"/Users/rkn/Documents/xTIMEcomposer/workspace/module_usb_audio/usb_buffer/usb_buffer.xc"
	.byte	0
	.long	521
	.long	521
	.long	.Lxtalabel14
.cc_bottom cc_173
.cc_top cc_174,.Lxtalabel17
	.ascii	"/Users/rkn/Documents/xTIMEcomposer/workspace/module_usb_audio/usb_buffer/usb_buffer.xc"
	.byte	0
	.long	521
	.long	521
	.long	.Lxtalabel17
.cc_bottom cc_174
.cc_top cc_175,.Lxtalabel16
	.ascii	"/Users/rkn/Documents/xTIMEcomposer/workspace/module_usb_audio/usb_buffer/usb_buffer.xc"
	.byte	0
	.long	521
	.long	521
	.long	.Lxtalabel16
.cc_bottom cc_175
.cc_top cc_176,.Lxtalabel15
	.ascii	"/Users/rkn/Documents/xTIMEcomposer/workspace/module_usb_audio/usb_buffer/usb_buffer.xc"
	.byte	0
	.long	521
	.long	521
	.long	.Lxtalabel15
.cc_bottom cc_176
.cc_top cc_177,.Lxtalabel15
	.ascii	"/Users/rkn/Documents/xTIMEcomposer/workspace/module_usb_audio/usb_buffer/usb_buffer.xc"
	.byte	0
	.long	529
	.long	529
	.long	.Lxtalabel15
.cc_bottom cc_177
.cc_top cc_178,.Lxtalabel18
	.ascii	"/Users/rkn/Documents/xTIMEcomposer/workspace/module_usb_audio/usb_buffer/usb_buffer.xc"
	.byte	0
	.long	529
	.long	529
	.long	.Lxtalabel18
.cc_bottom cc_178
.cc_top cc_179,.Lxtalabel16
	.ascii	"/Users/rkn/Documents/xTIMEcomposer/workspace/module_usb_audio/usb_buffer/usb_buffer.xc"
	.byte	0
	.long	529
	.long	529
	.long	.Lxtalabel16
.cc_bottom cc_179
.cc_top cc_180,.Lxtalabel17
	.ascii	"/Users/rkn/Documents/xTIMEcomposer/workspace/module_usb_audio/usb_buffer/usb_buffer.xc"
	.byte	0
	.long	529
	.long	529
	.long	.Lxtalabel17
.cc_bottom cc_180
.cc_top cc_181,.Lxtalabel14
	.ascii	"/Users/rkn/Documents/xTIMEcomposer/workspace/module_usb_audio/usb_buffer/usb_buffer.xc"
	.byte	0
	.long	529
	.long	529
	.long	.Lxtalabel14
.cc_bottom cc_181
.cc_top cc_182,.Lxtalabel14
	.ascii	"/Users/rkn/Documents/xTIMEcomposer/workspace/module_usb_audio/usb_buffer/usb_buffer.xc"
	.byte	0
	.long	535
	.long	536
	.long	.Lxtalabel14
.cc_bottom cc_182
.cc_top cc_183,.Lxtalabel17
	.ascii	"/Users/rkn/Documents/xTIMEcomposer/workspace/module_usb_audio/usb_buffer/usb_buffer.xc"
	.byte	0
	.long	535
	.long	536
	.long	.Lxtalabel17
.cc_bottom cc_183
.cc_top cc_184,.Lxtalabel16
	.ascii	"/Users/rkn/Documents/xTIMEcomposer/workspace/module_usb_audio/usb_buffer/usb_buffer.xc"
	.byte	0
	.long	535
	.long	536
	.long	.Lxtalabel16
.cc_bottom cc_184
.cc_top cc_185,.Lxtalabel18
	.ascii	"/Users/rkn/Documents/xTIMEcomposer/workspace/module_usb_audio/usb_buffer/usb_buffer.xc"
	.byte	0
	.long	535
	.long	536
	.long	.Lxtalabel18
.cc_bottom cc_185
.cc_top cc_186,.Lxtalabel15
	.ascii	"/Users/rkn/Documents/xTIMEcomposer/workspace/module_usb_audio/usb_buffer/usb_buffer.xc"
	.byte	0
	.long	535
	.long	536
	.long	.Lxtalabel15
.cc_bottom cc_186
.cc_top cc_187,.Lxtalabel46
	.ascii	"/Users/rkn/Documents/xTIMEcomposer/workspace/module_usb_audio/usb_buffer/usb_buffer.xc"
	.byte	0
	.long	539
	.long	540
	.long	.Lxtalabel46
.cc_bottom cc_187
.cc_top cc_188,.Lxtalabel19
	.ascii	"/Users/rkn/Documents/xTIMEcomposer/workspace/module_usb_audio/usb_buffer/usb_buffer.xc"
	.byte	0
	.long	548
	.long	548
	.long	.Lxtalabel19
.cc_bottom cc_188
.cc_top cc_189,.Lxtalabel19
	.ascii	"/Users/rkn/Documents/xTIMEcomposer/workspace/module_usb_audio/usb_buffer/usb_buffer.xc"
	.byte	0
	.long	550
	.long	550
	.long	.Lxtalabel19
.cc_bottom cc_189
.cc_top cc_190,.Lxtalabel19
	.ascii	"/Users/rkn/Documents/xTIMEcomposer/workspace/module_usb_audio/usb_buffer/usb_buffer.xc"
	.byte	0
	.long	551
	.long	552
	.long	.Lxtalabel19
.cc_bottom cc_190
.cc_top cc_191,.Lxtalabel19
	.ascii	"/Users/rkn/Documents/xTIMEcomposer/workspace/module_usb_audio/usb_buffer/usb_buffer.xc"
	.byte	0
	.long	576
	.long	576
	.long	.Lxtalabel19
.cc_bottom cc_191
.cc_top cc_192,.Lxtalabel20
	.ascii	"/Users/rkn/Documents/xTIMEcomposer/workspace/module_usb_audio/usb_buffer/usb_buffer.xc"
	.byte	0
	.long	577
	.long	577
	.long	.Lxtalabel20
.cc_bottom cc_192
.cc_top cc_193,.Lxtalabel20
	.ascii	"/Users/rkn/Documents/xTIMEcomposer/workspace/module_usb_audio/usb_buffer/usb_buffer.xc"
	.byte	0
	.long	578
	.long	578
	.long	.Lxtalabel20
.cc_bottom cc_193
.cc_top cc_194,.Lxtalabel20
	.ascii	"/Users/rkn/Documents/xTIMEcomposer/workspace/module_usb_audio/usb_buffer/usb_buffer.xc"
	.byte	0
	.long	580
	.long	580
	.long	.Lxtalabel20
.cc_bottom cc_194
.cc_top cc_195,.Lxtalabel20
	.ascii	"/Users/rkn/Documents/xTIMEcomposer/workspace/module_usb_audio/usb_buffer/usb_buffer.xc"
	.byte	0
	.long	583
	.long	583
	.long	.Lxtalabel20
.cc_bottom cc_195
.cc_top cc_196,.Lxtalabel20
	.ascii	"/Users/rkn/Documents/xTIMEcomposer/workspace/module_usb_audio/usb_buffer/usb_buffer.xc"
	.byte	0
	.long	584
	.long	585
	.long	.Lxtalabel20
.cc_bottom cc_196
.cc_top cc_197,.Lxtalabel20
	.ascii	"/Users/rkn/Documents/xTIMEcomposer/workspace/module_usb_audio/usb_buffer/usb_buffer.xc"
	.byte	0
	.long	589
	.long	589
	.long	.Lxtalabel20
.cc_bottom cc_197
.cc_top cc_198,.Lxtalabel22
	.ascii	"/Users/rkn/Documents/xTIMEcomposer/workspace/module_usb_audio/usb_buffer/usb_buffer.xc"
	.byte	0
	.long	591
	.long	591
	.long	.Lxtalabel22
.cc_bottom cc_198
.cc_top cc_199,.Lxtalabel21
	.ascii	"/Users/rkn/Documents/xTIMEcomposer/workspace/module_usb_audio/usb_buffer/usb_buffer.xc"
	.byte	0
	.long	591
	.long	591
	.long	.Lxtalabel21
.cc_bottom cc_199
.cc_top cc_200,.Lxtalabel23
	.ascii	"/Users/rkn/Documents/xTIMEcomposer/workspace/module_usb_audio/usb_buffer/usb_buffer.xc"
	.byte	0
	.long	592
	.long	592
	.long	.Lxtalabel23
.cc_bottom cc_200
.cc_top cc_201,.Lxtalabel23
	.ascii	"/Users/rkn/Documents/xTIMEcomposer/workspace/module_usb_audio/usb_buffer/usb_buffer.xc"
	.byte	0
	.long	594
	.long	594
	.long	.Lxtalabel23
.cc_bottom cc_201
.cc_top cc_202,.Lxtalabel23
	.ascii	"/Users/rkn/Documents/xTIMEcomposer/workspace/module_usb_audio/usb_buffer/usb_buffer.xc"
	.byte	0
	.long	596
	.long	596
	.long	.Lxtalabel23
.cc_bottom cc_202
.cc_top cc_203,.Lxtalabel23
	.ascii	"/Users/rkn/Documents/xTIMEcomposer/workspace/module_usb_audio/usb_buffer/usb_buffer.xc"
	.byte	0
	.long	598
	.long	598
	.long	.Lxtalabel23
.cc_bottom cc_203
.cc_top cc_204,.Lxtalabel23
	.ascii	"/Users/rkn/Documents/xTIMEcomposer/workspace/module_usb_audio/usb_buffer/usb_buffer.xc"
	.byte	0
	.long	599
	.long	599
	.long	.Lxtalabel23
.cc_bottom cc_204
.cc_top cc_205,.Lxtalabel23
	.ascii	"/Users/rkn/Documents/xTIMEcomposer/workspace/module_usb_audio/usb_buffer/usb_buffer.xc"
	.byte	0
	.long	600
	.long	600
	.long	.Lxtalabel23
.cc_bottom cc_205
.cc_top cc_206,.Lxtalabel23
	.ascii	"/Users/rkn/Documents/xTIMEcomposer/workspace/module_usb_audio/usb_buffer/usb_buffer.xc"
	.byte	0
	.long	601
	.long	601
	.long	.Lxtalabel23
.cc_bottom cc_206
.cc_top cc_207,.Lxtalabel23
	.ascii	"/Users/rkn/Documents/xTIMEcomposer/workspace/module_usb_audio/usb_buffer/usb_buffer.xc"
	.byte	0
	.long	602
	.long	604
	.long	.Lxtalabel23
.cc_bottom cc_207
.cc_top cc_208,.Lxtalabel24
	.ascii	"/Users/rkn/Documents/xTIMEcomposer/workspace/module_usb_audio/usb_buffer/usb_buffer.xc"
	.byte	0
	.long	612
	.long	612
	.long	.Lxtalabel24
.cc_bottom cc_208
.cc_top cc_209,.Lxtalabel25
	.ascii	"/Users/rkn/Documents/xTIMEcomposer/workspace/module_usb_audio/usb_buffer/usb_buffer.xc"
	.byte	0
	.long	613
	.long	613
	.long	.Lxtalabel25
.cc_bottom cc_209
.cc_top cc_210,.Lxtalabel25
	.ascii	"/Users/rkn/Documents/xTIMEcomposer/workspace/module_usb_audio/usb_buffer/usb_buffer.xc"
	.byte	0
	.long	615
	.long	615
	.long	.Lxtalabel25
.cc_bottom cc_210
.cc_top cc_211,.Lxtalabel25
	.ascii	"/Users/rkn/Documents/xTIMEcomposer/workspace/module_usb_audio/usb_buffer/usb_buffer.xc"
	.byte	0
	.long	618
	.long	618
	.long	.Lxtalabel25
.cc_bottom cc_211
.cc_top cc_212,.Lxtalabel25
	.ascii	"/Users/rkn/Documents/xTIMEcomposer/workspace/module_usb_audio/usb_buffer/usb_buffer.xc"
	.byte	0
	.long	621
	.long	621
	.long	.Lxtalabel25
.cc_bottom cc_212
.cc_top cc_213,.Lxtalabel25
	.ascii	"/Users/rkn/Documents/xTIMEcomposer/workspace/module_usb_audio/usb_buffer/usb_buffer.xc"
	.byte	0
	.long	623
	.long	624
	.long	.Lxtalabel25
.cc_bottom cc_213
.cc_top cc_214,.Lxtalabel24
	.ascii	"/Users/rkn/Documents/xTIMEcomposer/workspace/module_usb_audio/usb_buffer/usb_buffer.xc"
	.byte	0
	.long	625
	.long	628
	.long	.Lxtalabel24
.cc_bottom cc_214
.cc_top cc_215,.Lxtalabel27
	.ascii	"/Users/rkn/Documents/xTIMEcomposer/workspace/module_usb_audio/usb_buffer/usb_buffer.xc"
	.byte	0
	.long	727
	.long	732
	.long	.Lxtalabel27
.cc_bottom cc_215
.cc_top cc_216,.Lxtalabel27
	.ascii	"/Users/rkn/Documents/xTIMEcomposer/workspace/module_usb_audio/usb_buffer/usb_buffer.xc"
	.byte	0
	.long	737
	.long	737
	.long	.Lxtalabel27
.cc_bottom cc_216
.cc_top cc_217,.Lxtalabel29
	.ascii	"/Users/rkn/Documents/xTIMEcomposer/workspace/module_usb_audio/usb_buffer/usb_buffer.xc"
	.byte	0
	.long	738
	.long	738
	.long	.Lxtalabel29
.cc_bottom cc_217
.cc_top cc_218,.Lxtalabel30
	.ascii	"/Users/rkn/Documents/xTIMEcomposer/workspace/module_usb_audio/usb_buffer/usb_buffer.xc"
	.byte	0
	.long	739
	.long	739
	.long	.Lxtalabel30
.cc_bottom cc_218
.cc_top cc_219,.Lxtalabel30
	.ascii	"/Users/rkn/Documents/xTIMEcomposer/workspace/module_usb_audio/usb_buffer/usb_buffer.xc"
	.byte	0
	.long	742
	.long	742
	.long	.Lxtalabel30
.cc_bottom cc_219
.cc_top cc_220,.Lxtalabel47
	.ascii	"/Users/rkn/Documents/xTIMEcomposer/workspace/module_usb_audio/usb_buffer/usb_buffer.xc"
	.byte	0
	.long	743
	.long	743
	.long	.Lxtalabel47
.cc_bottom cc_220
.cc_top cc_221,.Lxtalabel47
	.ascii	"/Users/rkn/Documents/xTIMEcomposer/workspace/module_usb_audio/usb_buffer/usb_buffer.xc"
	.byte	0
	.long	745
	.long	745
	.long	.Lxtalabel47
.cc_bottom cc_221
.cc_top cc_222,.Lxtalabel47
	.ascii	"/Users/rkn/Documents/xTIMEcomposer/workspace/module_usb_audio/usb_buffer/usb_buffer.xc"
	.byte	0
	.long	747
	.long	747
	.long	.Lxtalabel47
.cc_bottom cc_222
.cc_top cc_223,.Lxtalabel31
	.ascii	"/Users/rkn/Documents/xTIMEcomposer/workspace/module_usb_audio/usb_buffer/usb_buffer.xc"
	.byte	0
	.long	748
	.long	749
	.long	.Lxtalabel31
.cc_bottom cc_223
.cc_top cc_224,.Lxtalabel31
	.ascii	"/Users/rkn/Documents/xTIMEcomposer/workspace/module_usb_audio/usb_buffer/usb_buffer.xc"
	.byte	0
	.long	751
	.long	751
	.long	.Lxtalabel31
.cc_bottom cc_224
.cc_top cc_225,.Lxtalabel31
	.ascii	"/Users/rkn/Documents/xTIMEcomposer/workspace/module_usb_audio/usb_buffer/usb_buffer.xc"
	.byte	0
	.long	752
	.long	752
	.long	.Lxtalabel31
.cc_bottom cc_225
.cc_top cc_226,.Lxtalabel31
	.ascii	"/Users/rkn/Documents/xTIMEcomposer/workspace/module_usb_audio/usb_buffer/usb_buffer.xc"
	.byte	0
	.long	753
	.long	755
	.long	.Lxtalabel31
.cc_bottom cc_226
.cc_top cc_227,.Lxtalabel32
	.ascii	"/Users/rkn/Documents/xTIMEcomposer/workspace/module_usb_audio/usb_buffer/usb_buffer.xc"
	.byte	0
	.long	757
	.long	758
	.long	.Lxtalabel32
.cc_bottom cc_227
.cc_top cc_228,.Lxtalabel32
	.ascii	"/Users/rkn/Documents/xTIMEcomposer/workspace/module_usb_audio/usb_buffer/usb_buffer.xc"
	.byte	0
	.long	760
	.long	761
	.long	.Lxtalabel32
.cc_bottom cc_228
.cc_top cc_229,.Lxtalabel33
	.ascii	"/Users/rkn/Documents/xTIMEcomposer/workspace/module_usb_audio/usb_buffer/usb_buffer.xc"
	.byte	0
	.long	762
	.long	762
	.long	.Lxtalabel33
.cc_bottom cc_229
.cc_top cc_230,.Lxtalabel33
	.ascii	"/Users/rkn/Documents/xTIMEcomposer/workspace/module_usb_audio/usb_buffer/usb_buffer.xc"
	.byte	0
	.long	764
	.long	764
	.long	.Lxtalabel33
.cc_bottom cc_230
.cc_top cc_231,.Lxtalabel33
	.ascii	"/Users/rkn/Documents/xTIMEcomposer/workspace/module_usb_audio/usb_buffer/usb_buffer.xc"
	.byte	0
	.long	766
	.long	766
	.long	.Lxtalabel33
.cc_bottom cc_231
.cc_top cc_232,.Lxtalabel33
	.ascii	"/Users/rkn/Documents/xTIMEcomposer/workspace/module_usb_audio/usb_buffer/usb_buffer.xc"
	.byte	0
	.long	767
	.long	768
	.long	.Lxtalabel33
.cc_bottom cc_232
.cc_top cc_233,.Lxtalabel32
	.ascii	"/Users/rkn/Documents/xTIMEcomposer/workspace/module_usb_audio/usb_buffer/usb_buffer.xc"
	.byte	0
	.long	769
	.long	770
	.long	.Lxtalabel32
.cc_bottom cc_233
.cc_top cc_234,.Lxtalabel32
	.ascii	"/Users/rkn/Documents/xTIMEcomposer/workspace/module_usb_audio/usb_buffer/usb_buffer.xc"
	.byte	0
	.long	772
	.long	772
	.long	.Lxtalabel32
.cc_bottom cc_234
.cc_top cc_235,.Lxtalabel34
	.ascii	"/Users/rkn/Documents/xTIMEcomposer/workspace/module_usb_audio/usb_buffer/usb_buffer.xc"
	.byte	0
	.long	775
	.long	775
	.long	.Lxtalabel34
.cc_bottom cc_235
.cc_top cc_236,.Lxtalabel35
	.ascii	"/Users/rkn/Documents/xTIMEcomposer/workspace/module_usb_audio/usb_buffer/usb_buffer.xc"
	.byte	0
	.long	776
	.long	777
	.long	.Lxtalabel35
.cc_bottom cc_236
.cc_top cc_237,.Lxtalabel35
	.ascii	"/Users/rkn/Documents/xTIMEcomposer/workspace/module_usb_audio/usb_buffer/usb_buffer.xc"
	.byte	0
	.long	780
	.long	783
	.long	.Lxtalabel35
.cc_bottom cc_237
.cc_top cc_238,.Lxtalabel0
	.ascii	"/Users/rkn/Documents/xTIMEcomposer/workspace/module_usb_audio/usb_buffer/xc_ptr.h"
	.byte	0
	.long	11
	.long	15
	.long	.Lxtalabel0
.cc_bottom cc_238
.cc_top cc_239,.Lxtalabel0
	.ascii	"/Users/rkn/Documents/xTIMEcomposer/workspace/module_usb_audio/usb_buffer/xc_ptr.h"
	.byte	0
	.long	11
	.long	15
	.long	.Lxtalabel0
.cc_bottom cc_239
.cc_top cc_240,.Lxtalabel0
	.ascii	"/Users/rkn/Documents/xTIMEcomposer/workspace/module_usb_audio/usb_buffer/xc_ptr.h"
	.byte	0
	.long	11
	.long	15
	.long	.Lxtalabel0
.cc_bottom cc_240
.cc_top cc_241,.Lxtalabel29
	.ascii	"/Users/rkn/Documents/xTIMEcomposer/workspace/module_usb_midi/src/usb_midi.h"
	.byte	0
	.long	50
	.long	50
	.long	.Lxtalabel29
.cc_bottom cc_241
.cc_top cc_242,.Lxtalabel30
	.ascii	"/Users/rkn/Documents/xTIMEcomposer/workspace/module_usb_midi/src/usb_midi.h"
	.byte	0
	.long	51
	.long	56
	.long	.Lxtalabel30
.cc_bottom cc_242
.cc_top cc_243,.Lxtalabel32
	.ascii	"/Users/rkn/Documents/xTIMEcomposer/workspace/module_usb_midi/src/usb_midi.h"
	.byte	0
	.long	57
	.long	60
	.long	.Lxtalabel32
.cc_bottom cc_243
.cc_top cc_244,.Lxtalabel32
	.ascii	"/Users/rkn/Documents/xTIMEcomposer/workspace/module_usb_midi/src/usb_midi.h"
	.byte	0
	.long	61
	.long	61
	.long	.Lxtalabel32
.cc_bottom cc_244
.cc_top cc_245,.Lxtalabel30
	.ascii	"/Users/rkn/Documents/xTIMEcomposer/workspace/module_usb_midi/src/usb_midi.h"
	.byte	0
	.long	61
	.long	61
	.long	.Lxtalabel30
.cc_bottom cc_245
.cc_top cc_246,.Lxtalabel32
	.ascii	"/Users/rkn/Documents/xTIMEcomposer/workspace/module_usb_midi/src/usb_midi.h"
	.byte	0
	.long	65
	.long	65
	.long	.Lxtalabel32
.cc_bottom cc_246
.cc_top cc_247,.Lxtalabel32
	.ascii	"/Users/rkn/Documents/xTIMEcomposer/workspace/module_usb_midi/src/usb_midi.h"
	.byte	0
	.long	66
	.long	66
	.long	.Lxtalabel32
.cc_bottom cc_247
.cc_top cc_248,.Lxtalabel32
	.ascii	"/Users/rkn/Documents/xTIMEcomposer/workspace/module_usb_midi/src/usb_midi.h"
	.byte	0
	.long	67
	.long	67
	.long	.Lxtalabel32
.cc_bottom cc_248
.cc_top cc_249,.Lxtalabel32
	.ascii	"/Users/rkn/Documents/xTIMEcomposer/workspace/module_usb_midi/src/usb_midi.h"
	.byte	0
	.long	68
	.long	68
	.long	.Lxtalabel32
.cc_bottom cc_249
.cc_top cc_250,.Lxtalabel32
	.ascii	"/Users/rkn/Documents/xTIMEcomposer/workspace/module_usb_midi/src/usb_midi.h"
	.byte	0
	.long	69
	.long	69
	.long	.Lxtalabel32
.cc_bottom cc_250
.cc_top cc_251,.Lxtalabel0
	.ascii	"/Users/rkn/Documents/xTIMEcomposer/workspace/module_xud/include/xud.h"
	.byte	0
	.long	427
	.long	429
	.long	.Lxtalabel0
.cc_bottom cc_251
.cc_top cc_252,.Lxtalabel47
	.ascii	"/Users/rkn/Documents/xTIMEcomposer/workspace/module_xud/include/xud.h"
	.byte	0
	.long	427
	.long	429
	.long	.Lxtalabel47
.cc_bottom cc_252
.cc_top cc_253,.Lxtalabel0
	.ascii	"/Users/rkn/Documents/xTIMEcomposer/workspace/module_xud/include/xud.h"
	.byte	0
	.long	432
	.long	433
	.long	.Lxtalabel0
.cc_bottom cc_253
.cc_top cc_254,.Lxtalabel47
	.ascii	"/Users/rkn/Documents/xTIMEcomposer/workspace/module_xud/include/xud.h"
	.byte	0
	.long	432
	.long	433
	.long	.Lxtalabel47
.cc_bottom cc_254
.cc_top cc_255,.Lxtalabel0
	.ascii	"/Users/rkn/Documents/xTIMEcomposer/workspace/module_xud/include/xud.h"
	.byte	0
	.long	434
	.long	436
	.long	.Lxtalabel0
.cc_bottom cc_255
.cc_top cc_256,.Lxtalabel47
	.ascii	"/Users/rkn/Documents/xTIMEcomposer/workspace/module_xud/include/xud.h"
	.byte	0
	.long	434
	.long	436
	.long	.Lxtalabel47
.cc_bottom cc_256
.cc_top cc_257,.Lxtalabel1
	.ascii	"/Users/rkn/Documents/xTIMEcomposer/workspace/module_xud/include/xud.h"
	.byte	0
	.long	437
	.long	439
	.long	.Lxtalabel1
.cc_bottom cc_257
.cc_top cc_258,.Lxtalabel48
	.ascii	"/Users/rkn/Documents/xTIMEcomposer/workspace/module_xud/include/xud.h"
	.byte	0
	.long	437
	.long	439
	.long	.Lxtalabel48
.cc_bottom cc_258
.cc_top cc_259,.Lxtalabel1
	.ascii	"/Users/rkn/Documents/xTIMEcomposer/workspace/module_xud/include/xud.h"
	.byte	0
	.long	441
	.long	442
	.long	.Lxtalabel1
.cc_bottom cc_259
.cc_top cc_260,.Lxtalabel48
	.ascii	"/Users/rkn/Documents/xTIMEcomposer/workspace/module_xud/include/xud.h"
	.byte	0
	.long	441
	.long	442
	.long	.Lxtalabel48
.cc_bottom cc_260
.cc_top cc_261,.Lxtalabel35
	.ascii	"/Users/rkn/Documents/xTIMEcomposer/workspace/module_xud/include/xud.h"
	.byte	0
	.long	454
	.long	458
	.long	.Lxtalabel35
.cc_bottom cc_261
.cc_top cc_262,.Lxtalabel2
	.ascii	"/Users/rkn/Documents/xTIMEcomposer/workspace/module_xud/include/xud.h"
	.byte	0
	.long	454
	.long	458
	.long	.Lxtalabel2
.cc_bottom cc_262
.cc_top cc_263,.Lxtalabel25
	.ascii	"/Users/rkn/Documents/xTIMEcomposer/workspace/module_xud/include/xud.h"
	.byte	0
	.long	454
	.long	458
	.long	.Lxtalabel25
.cc_bottom cc_263
.cc_top cc_264,.Lxtalabel27
	.ascii	"/Users/rkn/Documents/xTIMEcomposer/workspace/module_xud/include/xud.h"
	.byte	0
	.long	454
	.long	458
	.long	.Lxtalabel27
.cc_bottom cc_264
.cc_top cc_265,.Lxtalabel25
	.ascii	"/Users/rkn/Documents/xTIMEcomposer/workspace/module_xud/include/xud.h"
	.byte	0
	.long	460
	.long	460
	.long	.Lxtalabel25
.cc_bottom cc_265
.cc_top cc_266,.Lxtalabel35
	.ascii	"/Users/rkn/Documents/xTIMEcomposer/workspace/module_xud/include/xud.h"
	.byte	0
	.long	460
	.long	460
	.long	.Lxtalabel35
.cc_bottom cc_266
.cc_top cc_267,.Lxtalabel27
	.ascii	"/Users/rkn/Documents/xTIMEcomposer/workspace/module_xud/include/xud.h"
	.byte	0
	.long	460
	.long	460
	.long	.Lxtalabel27
.cc_bottom cc_267
.cc_top cc_268,.Lxtalabel2
	.ascii	"/Users/rkn/Documents/xTIMEcomposer/workspace/module_xud/include/xud.h"
	.byte	0
	.long	460
	.long	460
	.long	.Lxtalabel2
.cc_bottom cc_268
.cc_top cc_269,.Lxtalabel2
	.ascii	"/Users/rkn/Documents/xTIMEcomposer/workspace/module_xud/include/xud.h"
	.byte	0
	.long	463
	.long	464
	.long	.Lxtalabel2
.cc_bottom cc_269
.cc_top cc_270,.Lxtalabel35
	.ascii	"/Users/rkn/Documents/xTIMEcomposer/workspace/module_xud/include/xud.h"
	.byte	0
	.long	463
	.long	464
	.long	.Lxtalabel35
.cc_bottom cc_270
.cc_top cc_271,.Lxtalabel25
	.ascii	"/Users/rkn/Documents/xTIMEcomposer/workspace/module_xud/include/xud.h"
	.byte	0
	.long	463
	.long	464
	.long	.Lxtalabel25
.cc_bottom cc_271
.cc_top cc_272,.Lxtalabel27
	.ascii	"/Users/rkn/Documents/xTIMEcomposer/workspace/module_xud/include/xud.h"
	.byte	0
	.long	463
	.long	464
	.long	.Lxtalabel27
.cc_bottom cc_272
.cc_top cc_273,.Lxtalabel25
	.ascii	"/Users/rkn/Documents/xTIMEcomposer/workspace/module_xud/include/xud.h"
	.byte	0
	.long	465
	.long	467
	.long	.Lxtalabel25
.cc_bottom cc_273
.cc_top cc_274,.Lxtalabel2
	.ascii	"/Users/rkn/Documents/xTIMEcomposer/workspace/module_xud/include/xud.h"
	.byte	0
	.long	465
	.long	467
	.long	.Lxtalabel2
.cc_bottom cc_274
.cc_top cc_275,.Lxtalabel35
	.ascii	"/Users/rkn/Documents/xTIMEcomposer/workspace/module_xud/include/xud.h"
	.byte	0
	.long	465
	.long	467
	.long	.Lxtalabel35
.cc_bottom cc_275
.cc_top cc_276,.Lxtalabel27
	.ascii	"/Users/rkn/Documents/xTIMEcomposer/workspace/module_xud/include/xud.h"
	.byte	0
	.long	465
	.long	467
	.long	.Lxtalabel27
.cc_bottom cc_276
.cc_top cc_277,.Lxtalabel36
	.ascii	"/Users/rkn/Documents/xTIMEcomposer/workspace/module_xud/include/xud.h"
	.byte	0
	.long	470
	.long	471
	.long	.Lxtalabel36
.cc_bottom cc_277
.cc_top cc_278,.Lxtalabel26
	.ascii	"/Users/rkn/Documents/xTIMEcomposer/workspace/module_xud/include/xud.h"
	.byte	0
	.long	470
	.long	471
	.long	.Lxtalabel26
.cc_bottom cc_278
.cc_top cc_279,.Lxtalabel28
	.ascii	"/Users/rkn/Documents/xTIMEcomposer/workspace/module_xud/include/xud.h"
	.byte	0
	.long	470
	.long	471
	.long	.Lxtalabel28
.cc_bottom cc_279
.cc_top cc_280,.Lxtalabel3
	.ascii	"/Users/rkn/Documents/xTIMEcomposer/workspace/module_xud/include/xud.h"
	.byte	0
	.long	470
	.long	471
	.long	.Lxtalabel3
.cc_bottom cc_280
.cc_top cc_281,.Lxtalabel36
	.ascii	"/Users/rkn/Documents/xTIMEcomposer/workspace/module_xud/include/xud.h"
	.byte	0
	.long	473
	.long	473
	.long	.Lxtalabel36
.cc_bottom cc_281
.cc_top cc_282,.Lxtalabel26
	.ascii	"/Users/rkn/Documents/xTIMEcomposer/workspace/module_xud/include/xud.h"
	.byte	0
	.long	473
	.long	473
	.long	.Lxtalabel26
.cc_bottom cc_282
.cc_top cc_283,.Lxtalabel3
	.ascii	"/Users/rkn/Documents/xTIMEcomposer/workspace/module_xud/include/xud.h"
	.byte	0
	.long	473
	.long	473
	.long	.Lxtalabel3
.cc_bottom cc_283
.cc_top cc_284,.Lxtalabel28
	.ascii	"/Users/rkn/Documents/xTIMEcomposer/workspace/module_xud/include/xud.h"
	.byte	0
	.long	473
	.long	473
	.long	.Lxtalabel28
.cc_bottom cc_284
.cc_top cc_285,.Lxtalabel28
	.ascii	"/Users/rkn/Documents/xTIMEcomposer/workspace/module_xud/include/xud.h"
	.byte	0
	.long	475
	.long	475
	.long	.Lxtalabel28
.cc_bottom cc_285
.cc_top cc_286,.Lxtalabel26
	.ascii	"/Users/rkn/Documents/xTIMEcomposer/workspace/module_xud/include/xud.h"
	.byte	0
	.long	475
	.long	475
	.long	.Lxtalabel26
.cc_bottom cc_286
.cc_top cc_287,.Lxtalabel3
	.ascii	"/Users/rkn/Documents/xTIMEcomposer/workspace/module_xud/include/xud.h"
	.byte	0
	.long	475
	.long	475
	.long	.Lxtalabel3
.cc_bottom cc_287
.cc_top cc_288,.Lxtalabel36
	.ascii	"/Users/rkn/Documents/xTIMEcomposer/workspace/module_xud/include/xud.h"
	.byte	0
	.long	475
	.long	475
	.long	.Lxtalabel36
.cc_bottom cc_288
.cc_top cc_289,.Lxtalabel28
	.ascii	"/Users/rkn/Documents/xTIMEcomposer/workspace/module_xud/include/xud.h"
	.byte	0
	.long	478
	.long	478
	.long	.Lxtalabel28
.cc_bottom cc_289
.cc_top cc_290,.Lxtalabel3
	.ascii	"/Users/rkn/Documents/xTIMEcomposer/workspace/module_xud/include/xud.h"
	.byte	0
	.long	478
	.long	478
	.long	.Lxtalabel3
.cc_bottom cc_290
.cc_top cc_291,.Lxtalabel36
	.ascii	"/Users/rkn/Documents/xTIMEcomposer/workspace/module_xud/include/xud.h"
	.byte	0
	.long	478
	.long	478
	.long	.Lxtalabel36
.cc_bottom cc_291
.cc_top cc_292,.Lxtalabel26
	.ascii	"/Users/rkn/Documents/xTIMEcomposer/workspace/module_xud/include/xud.h"
	.byte	0
	.long	478
	.long	478
	.long	.Lxtalabel26
.cc_bottom cc_292
.cc_top cc_293,.Lxtalabel26
	.ascii	"/Users/rkn/Documents/xTIMEcomposer/workspace/module_xud/include/xud.h"
	.byte	0
	.long	480
	.long	480
	.long	.Lxtalabel26
.cc_bottom cc_293
.cc_top cc_294,.Lxtalabel36
	.ascii	"/Users/rkn/Documents/xTIMEcomposer/workspace/module_xud/include/xud.h"
	.byte	0
	.long	480
	.long	480
	.long	.Lxtalabel36
.cc_bottom cc_294
.cc_top cc_295,.Lxtalabel3
	.ascii	"/Users/rkn/Documents/xTIMEcomposer/workspace/module_xud/include/xud.h"
	.byte	0
	.long	480
	.long	480
	.long	.Lxtalabel3
.cc_bottom cc_295
.cc_top cc_296,.Lxtalabel28
	.ascii	"/Users/rkn/Documents/xTIMEcomposer/workspace/module_xud/include/xud.h"
	.byte	0
	.long	480
	.long	480
	.long	.Lxtalabel28
.cc_bottom cc_296
.cc_top cc_297,.Lxtalabel36
	.ascii	"/Users/rkn/Documents/xTIMEcomposer/workspace/module_xud/include/xud.h"
	.byte	0
	.long	483
	.long	483
	.long	.Lxtalabel36
.cc_bottom cc_297
.cc_top cc_298,.Lxtalabel28
	.ascii	"/Users/rkn/Documents/xTIMEcomposer/workspace/module_xud/include/xud.h"
	.byte	0
	.long	483
	.long	483
	.long	.Lxtalabel28
.cc_bottom cc_298
.cc_top cc_299,.Lxtalabel3
	.ascii	"/Users/rkn/Documents/xTIMEcomposer/workspace/module_xud/include/xud.h"
	.byte	0
	.long	483
	.long	483
	.long	.Lxtalabel3
.cc_bottom cc_299
.cc_top cc_300,.Lxtalabel26
	.ascii	"/Users/rkn/Documents/xTIMEcomposer/workspace/module_xud/include/xud.h"
	.byte	0
	.long	483
	.long	483
	.long	.Lxtalabel26
.cc_bottom cc_300
.cc_top cc_301,.Lxtalabel36
	.ascii	"/Users/rkn/Documents/xTIMEcomposer/workspace/module_xud/include/xud.h"
	.byte	0
	.long	486
	.long	486
	.long	.Lxtalabel36
.cc_bottom cc_301
.cc_top cc_302,.Lxtalabel26
	.ascii	"/Users/rkn/Documents/xTIMEcomposer/workspace/module_xud/include/xud.h"
	.byte	0
	.long	486
	.long	486
	.long	.Lxtalabel26
.cc_bottom cc_302
.cc_top cc_303,.Lxtalabel3
	.ascii	"/Users/rkn/Documents/xTIMEcomposer/workspace/module_xud/include/xud.h"
	.byte	0
	.long	486
	.long	486
	.long	.Lxtalabel3
.cc_bottom cc_303
.cc_top cc_304,.Lxtalabel28
	.ascii	"/Users/rkn/Documents/xTIMEcomposer/workspace/module_xud/include/xud.h"
	.byte	0
	.long	486
	.long	486
	.long	.Lxtalabel28
.cc_bottom cc_304
.cc_top cc_305,.Lxtalabel28
	.ascii	"/Users/rkn/Documents/xTIMEcomposer/workspace/module_xud/include/xud.h"
	.byte	0
	.long	489
	.long	489
	.long	.Lxtalabel28
.cc_bottom cc_305
.cc_top cc_306,.Lxtalabel3
	.ascii	"/Users/rkn/Documents/xTIMEcomposer/workspace/module_xud/include/xud.h"
	.byte	0
	.long	489
	.long	489
	.long	.Lxtalabel3
.cc_bottom cc_306
.cc_top cc_307,.Lxtalabel26
	.ascii	"/Users/rkn/Documents/xTIMEcomposer/workspace/module_xud/include/xud.h"
	.byte	0
	.long	489
	.long	489
	.long	.Lxtalabel26
.cc_bottom cc_307
.cc_top cc_308,.Lxtalabel36
	.ascii	"/Users/rkn/Documents/xTIMEcomposer/workspace/module_xud/include/xud.h"
	.byte	0
	.long	489
	.long	489
	.long	.Lxtalabel36
.cc_bottom cc_308
.cc_top cc_309,.Lxtalabel3
	.ascii	"/Users/rkn/Documents/xTIMEcomposer/workspace/module_xud/include/xud.h"
	.byte	0
	.long	491
	.long	491
	.long	.Lxtalabel3
.cc_bottom cc_309
.cc_top cc_310,.Lxtalabel28
	.ascii	"/Users/rkn/Documents/xTIMEcomposer/workspace/module_xud/include/xud.h"
	.byte	0
	.long	491
	.long	491
	.long	.Lxtalabel28
.cc_bottom cc_310
.cc_top cc_311,.Lxtalabel26
	.ascii	"/Users/rkn/Documents/xTIMEcomposer/workspace/module_xud/include/xud.h"
	.byte	0
	.long	491
	.long	491
	.long	.Lxtalabel26
.cc_bottom cc_311
.cc_top cc_312,.Lxtalabel36
	.ascii	"/Users/rkn/Documents/xTIMEcomposer/workspace/module_xud/include/xud.h"
	.byte	0
	.long	491
	.long	491
	.long	.Lxtalabel36
.cc_bottom cc_312
.cc_top cc_313,.Lxtalabel26
	.ascii	"/Users/rkn/Documents/xTIMEcomposer/workspace/module_xud/include/xud.h"
	.byte	0
	.long	493
	.long	494
	.long	.Lxtalabel26
.cc_bottom cc_313
.cc_top cc_314,.Lxtalabel3
	.ascii	"/Users/rkn/Documents/xTIMEcomposer/workspace/module_xud/include/xud.h"
	.byte	0
	.long	493
	.long	494
	.long	.Lxtalabel3
.cc_bottom cc_314
.cc_top cc_315,.Lxtalabel28
	.ascii	"/Users/rkn/Documents/xTIMEcomposer/workspace/module_xud/include/xud.h"
	.byte	0
	.long	493
	.long	494
	.long	.Lxtalabel28
.cc_bottom cc_315
.cc_top cc_316,.Lxtalabel36
	.ascii	"/Users/rkn/Documents/xTIMEcomposer/workspace/module_xud/include/xud.h"
	.byte	0
	.long	493
	.long	494
	.long	.Lxtalabel36
.cc_bottom cc_316
.cc_top cc_317,.Lxtalabel2
	.ascii	"/Users/rkn/Documents/xTIMEcomposer/workspace/module_xud/include/xud.h"
	.byte	0
	.long	505
	.long	506
	.long	.Lxtalabel2
.cc_bottom cc_317
.cc_top cc_318,.Lxtalabel27
	.ascii	"/Users/rkn/Documents/xTIMEcomposer/workspace/module_xud/include/xud.h"
	.byte	0
	.long	505
	.long	506
	.long	.Lxtalabel27
.cc_bottom cc_318
.cc_top cc_319,.Lxtalabel2
	.ascii	"/Users/rkn/Documents/xTIMEcomposer/workspace/module_xud/include/xud.h"
	.byte	0
	.long	508
	.long	508
	.long	.Lxtalabel2
.cc_bottom cc_319
.cc_top cc_320,.Lxtalabel27
	.ascii	"/Users/rkn/Documents/xTIMEcomposer/workspace/module_xud/include/xud.h"
	.byte	0
	.long	508
	.long	508
	.long	.Lxtalabel27
.cc_bottom cc_320
.cc_top cc_321,.Lxtalabel27
	.ascii	"/Users/rkn/Documents/xTIMEcomposer/workspace/module_xud/include/xud.h"
	.byte	0
	.long	510
	.long	511
	.long	.Lxtalabel27
.cc_bottom cc_321
.cc_top cc_322,.Lxtalabel2
	.ascii	"/Users/rkn/Documents/xTIMEcomposer/workspace/module_xud/include/xud.h"
	.byte	0
	.long	510
	.long	511
	.long	.Lxtalabel2
.cc_bottom cc_322
.Lentries_end5:
	.section	.trap_info,"",@progbits
.Ltrap_info_entries_start0:
	.long	.Ltrap_info_entries_end0-.Ltrap_info_entries_start0
	.long	1
.Ltrap_info_entries_end0: