	.text
	.file	"/Users/rkn/Documents/xTIMEcomposer/workspace/module_xud/src/XUD_EpFunctions.xc"
                                        # Start of file scope inline assembly
	.inline_definition delay_seconds
	.inline_definition delay_milliseconds
	.inline_definition delay_microseconds
	.inline_definition XUD_SetReady_Out
	.inline_definition XUD_SetReady_OutPtr
	.inline_definition XUD_SetReady_InPtr
	.inline_definition XUD_SetReady_In
	.set usage.anon.0,0
	.set usage.anon.1,0
	.set usage.anon.2,0
	.set usage.anon.3,0
	.set usage.anon.4,0
	.set usage.anon.5,0
	.set usage.anon.6,0
	.set usage.anon.7,0
	.call XUD_SetControlBuffer,usage.anon.6
	.call XUD_SetControlBuffer,usage.anon.3
	.call XUD_SetControlBuffer,XUD_SetData_Select
	.call XUD_SetControlBuffer,XUD_GetData_Select
	.call XUD_ClearStall,XUD_ClearStallByAddr
	.call XUD_SetStall,XUD_SetStallByAddr
	.call XUD_DoSetRequestStatus,XUD_SetData
	.call XUD_DoGetRequest,usage.anon.7
	.call XUD_DoGetRequest,XUD_SetBuffer_EpMax
	.call XUD_DoGetRequest,XUD_SetBuffer
	.call XUD_DoGetRequest,XUD_GetData
	.call XUD_SetBuffer_EpMax,XUD_SetData
	.call XUD_SetBuffer,XUD_SetData
	.call XUD_GetSetupBuffer,XUD_GetSetupData
	.call XUD_GetBuffer,XUD_GetData
	.call usage.anon.6,usage.anon.5
	.call usage.anon.2,delay_ticks_longlong
	.call usage.anon.1,delay_ticks_longlong
	.call usage.anon.0,delay_ticks_longlong
	.set usage.anon.3.locnoside, 0
	.set usage.anon.6.locnoside, 0
	.set XUD_GetBuffer.locnoside, 0
	.set XUD_GetSetupBuffer.locnoside, 0
	.set XUD_SetBuffer.locnoside, 0
	.set XUD_SetBuffer_EpMax.locnoside, 0
	.set XUD_DoGetRequest.locnoside, 0
	.set XUD_InitEp.locnoside, 0
	.set XUD_SetControlBuffer.locnoside, 0

                                        # End of file scope inline assembly
	.text
	.globl	XUD_GetBuffer
	.align	4
	.type	XUD_GetBuffer,@function
	.cc_top XUD_GetBuffer.function,XUD_GetBuffer
XUD_GetBuffer:                          # @XUD_GetBuffer
.Lfunc_begin0:
	.loc	2 18 0                  # /Users/rkn/Documents/xTIMEcomposer/workspace/module_xud/src/XUD_EpFunctions.xc:18:0
	.cfi_startproc
	.issue_mode dual
# BB#0:                                 # %allocas
.Lxtalabel0:
	{
		nop
		dualentsp 2
	}
.Ltmp0:
	.cfi_def_cfa_offset 8
.Ltmp1:
	.cfi_offset 15, 0
	#DEBUG_VALUE: XUD_GetBuffer:c <- R0
	#DEBUG_VALUE: XUD_GetBuffer:buffer <- R1
	#DEBUG_VALUE: XUD_GetBuffer:length <- R2
	.loc	2 19 5 prologue_end     # /Users/rkn/Documents/xTIMEcomposer/workspace/module_xud/src/XUD_EpFunctions.xc:19:5
.Ltmp2:
.Lxta.call_labels0:
	bl XUD_GetData
.Ltmp3:
	{
		nop
		retsp 2
	}
	# RETURN_REG_HOLDER
.Ltmp4:
	.cc_bottom XUD_GetBuffer.function
	.set	XUD_GetBuffer.nstackwords,(XUD_GetData.nstackwords + 2)
	.globl	XUD_GetBuffer.nstackwords
	.set	XUD_GetBuffer.maxcores,XUD_GetData.maxcores $M 1
	.globl	XUD_GetBuffer.maxcores
	.set	XUD_GetBuffer.maxtimers,XUD_GetData.maxtimers $M 0
	.globl	XUD_GetBuffer.maxtimers
	.set	XUD_GetBuffer.maxchanends,XUD_GetData.maxchanends $M 0
	.globl	XUD_GetBuffer.maxchanends
.Ltmp5:
	.size	XUD_GetBuffer, .Ltmp5-XUD_GetBuffer
.Lfunc_end0:
	.cfi_endproc

	.globl	XUD_GetSetupBuffer
	.align	4
	.type	XUD_GetSetupBuffer,@function
	.cc_top XUD_GetSetupBuffer.function,XUD_GetSetupBuffer
XUD_GetSetupBuffer:                     # @XUD_GetSetupBuffer
.Lfunc_begin1:
	.loc	2 23 0                  # /Users/rkn/Documents/xTIMEcomposer/workspace/module_xud/src/XUD_EpFunctions.xc:23:0
	.cfi_startproc
	.issue_mode dual
# BB#0:                                 # %allocas
.Lxtalabel1:
	{
		nop
		dualentsp 2
	}
.Ltmp6:
	.cfi_def_cfa_offset 8
.Ltmp7:
	.cfi_offset 15, 0
	#DEBUG_VALUE: XUD_GetSetupBuffer:ep_out <- R0
	#DEBUG_VALUE: XUD_GetSetupBuffer:buffer <- R1
	#DEBUG_VALUE: XUD_GetSetupBuffer:length <- R2
	.loc	2 24 5 prologue_end     # /Users/rkn/Documents/xTIMEcomposer/workspace/module_xud/src/XUD_EpFunctions.xc:24:5
.Ltmp8:
.Lxta.call_labels1:
	bl XUD_GetSetupData
.Ltmp9:
	{
		nop
		retsp 2
	}
	# RETURN_REG_HOLDER
.Ltmp10:
	.cc_bottom XUD_GetSetupBuffer.function
	.set	XUD_GetSetupBuffer.nstackwords,(XUD_GetSetupData.nstackwords + 2)
	.globl	XUD_GetSetupBuffer.nstackwords
	.set	XUD_GetSetupBuffer.maxcores,XUD_GetSetupData.maxcores $M 1
	.globl	XUD_GetSetupBuffer.maxcores
	.set	XUD_GetSetupBuffer.maxtimers,XUD_GetSetupData.maxtimers $M 0
	.globl	XUD_GetSetupBuffer.maxtimers
	.set	XUD_GetSetupBuffer.maxchanends,XUD_GetSetupData.maxchanends $M 0
	.globl	XUD_GetSetupBuffer.maxchanends
.Ltmp11:
	.size	XUD_GetSetupBuffer, .Ltmp11-XUD_GetSetupBuffer
.Lfunc_end1:
	.cfi_endproc

	.globl	XUD_SetBuffer
	.align	4
	.type	XUD_SetBuffer,@function
	.cc_top XUD_SetBuffer.function,XUD_SetBuffer
XUD_SetBuffer:                          # @XUD_SetBuffer
.Lfunc_begin2:
	.loc	2 28 0                  # /Users/rkn/Documents/xTIMEcomposer/workspace/module_xud/src/XUD_EpFunctions.xc:28:0
	.cfi_startproc
	.issue_mode dual
# BB#0:                                 # %allocas
.Lxtalabel2:
	{
		nop
		dualentsp 4
	}
.Ltmp12:
	.cfi_def_cfa_offset 16
.Ltmp13:
	.cfi_offset 15, 0
	#DEBUG_VALUE: XUD_SetBuffer:c <- R0
	#DEBUG_VALUE: XUD_SetBuffer:buffer <- R1
	#DEBUG_VALUE: XUD_SetBuffer:datalength <- R2
	.loc	2 30 5 prologue_end     # /Users/rkn/Documents/xTIMEcomposer/workspace/module_xud/src/XUD_EpFunctions.xc:30:5
.Ltmp14:
	{
		ldc r3, 0
		stw r3, sp[2]
	}
	{
		nop
		stw r3, sp[1]
	}
.Lxta.call_labels2:
	bl XUD_SetData
.Ltmp15:
	{
		nop
		retsp 4
	}
	# RETURN_REG_HOLDER
.Ltmp16:
	.cc_bottom XUD_SetBuffer.function
	.set	XUD_SetBuffer.nstackwords,(XUD_SetData.nstackwords + 4)
	.globl	XUD_SetBuffer.nstackwords
	.set	XUD_SetBuffer.maxcores,XUD_SetData.maxcores $M 1
	.globl	XUD_SetBuffer.maxcores
	.set	XUD_SetBuffer.maxtimers,XUD_SetData.maxtimers $M 0
	.globl	XUD_SetBuffer.maxtimers
	.set	XUD_SetBuffer.maxchanends,XUD_SetData.maxchanends $M 0
	.globl	XUD_SetBuffer.maxchanends
.Ltmp17:
	.size	XUD_SetBuffer, .Ltmp17-XUD_SetBuffer
.Lfunc_end2:
	.cfi_endproc

	.globl	_SXUD_SetBuffer_0
	.align	4
	.type	_SXUD_SetBuffer_0,@function
	.cc_top _SXUD_SetBuffer_0.function,_SXUD_SetBuffer_0
_SXUD_SetBuffer_0:                      # @_SXUD_SetBuffer_0
.Lfunc_begin3:
	.loc	2 28 0                  # /Users/rkn/Documents/xTIMEcomposer/workspace/module_xud/src/XUD_EpFunctions.xc:28:0
	.cfi_startproc
	.issue_mode dual
# BB#0:                                 # %allocas
.Lxtalabel3:
	{
		nop
		dualentsp 4
	}
.Ltmp18:
	.cfi_def_cfa_offset 16
.Ltmp19:
	.cfi_offset 15, 0
	#DEBUG_VALUE: XUD_SetBuffer:c <- R0
	#DEBUG_VALUE: XUD_SetBuffer:buffer <- R1
.Ltmp20:
	#DEBUG_VALUE: datalength <- 0
	.loc	2 30 5 prologue_end     # /Users/rkn/Documents/xTIMEcomposer/workspace/module_xud/src/XUD_EpFunctions.xc:30:5
	{
		ldc r2, 0
		stw r2, sp[2]
	}
	{
		mov r3, r2
		stw r2, sp[1]
	}
.Lxta.call_labels3:
	bl XUD_SetData
.Ltmp21:
	{
		nop
		retsp 4
	}
	# RETURN_REG_HOLDER
.Ltmp22:
	.cc_bottom _SXUD_SetBuffer_0.function
	.set	_SXUD_SetBuffer_0.nstackwords,(XUD_SetData.nstackwords + 4)
	.globl	_SXUD_SetBuffer_0.nstackwords
	.set	_SXUD_SetBuffer_0.maxcores,XUD_SetData.maxcores $M 1
	.globl	_SXUD_SetBuffer_0.maxcores
	.set	_SXUD_SetBuffer_0.maxtimers,XUD_SetData.maxtimers $M 0
	.globl	_SXUD_SetBuffer_0.maxtimers
	.set	_SXUD_SetBuffer_0.maxchanends,XUD_SetData.maxchanends $M 0
	.globl	_SXUD_SetBuffer_0.maxchanends
.Ltmp23:
	.size	_SXUD_SetBuffer_0, .Ltmp23-_SXUD_SetBuffer_0
.Lfunc_end3:
	.cfi_endproc

	.globl	XUD_SetBuffer_EpMax
	.align	4
	.type	XUD_SetBuffer_EpMax,@function
	.cc_top XUD_SetBuffer_EpMax.function,XUD_SetBuffer_EpMax
XUD_SetBuffer_EpMax:                    # @XUD_SetBuffer_EpMax
.Lfunc_begin4:
	.loc	2 34 0                  # /Users/rkn/Documents/xTIMEcomposer/workspace/module_xud/src/XUD_EpFunctions.xc:34:0
	.cfi_startproc
	.issue_mode dual
# BB#0:                                 # %allocas
.Lxtalabel4:
	{
		nop
		dualentsp 12
	}
.Ltmp24:
	.cfi_def_cfa_offset 48
.Ltmp25:
	.cfi_offset 15, 0
	std r5, r4, sp[2]               # 4-byte Folded Spill
.Ltmp26:
	.cfi_offset 4, -32
.Ltmp27:
	.cfi_offset 5, -28
	std r7, r6, sp[3]               # 4-byte Folded Spill
.Ltmp28:
	.cfi_offset 6, -24
.Ltmp29:
	.cfi_offset 7, -20
	std r9, r8, sp[4]               # 4-byte Folded Spill
.Ltmp30:
	.cfi_offset 8, -16
.Ltmp31:
	.cfi_offset 9, -12
.Ltmp32:
	.cfi_offset 10, -8
	#DEBUG_VALUE: XUD_SetBuffer_EpMax:ep_in <- R0
	#DEBUG_VALUE: XUD_SetBuffer_EpMax:buffer <- R1
	#DEBUG_VALUE: XUD_SetBuffer_EpMax:datalength <- R2
	#DEBUG_VALUE: XUD_SetBuffer_EpMax:epMax <- R3
.Ltmp33:
	#DEBUG_VALUE: XUD_SetBuffer_EpMax:epMax <- R6
	{
		mov r6, r3
		stw r10, sp[10]
	}
.Ltmp34:
	#DEBUG_VALUE: XUD_SetBuffer_EpMax:datalength <- R8
	#DEBUG_VALUE: XUD_SetBuffer_EpMax:buffer <- R4
	{
		mov r8, r2
		mov r4, r1
	}
.Ltmp35:
	#DEBUG_VALUE: i <- 0
	#DEBUG_VALUE: XUD_SetBuffer_EpMax:ep_in <- R5
	{
		mov r5, r0
		ldw r10, sp[13]
	}
.Ltmp36:
	.loc	2 39 5 prologue_end     # /Users/rkn/Documents/xTIMEcomposer/workspace/module_xud/src/XUD_EpFunctions.xc:39:5
	{
		lsu r0, r6, r8
		nop
	}
	.loc	2 39 5                  # /Users/rkn/Documents/xTIMEcomposer/workspace/module_xud/src/XUD_EpFunctions.xc:39:5
	bf r0, .LBB4_1
# BB#2:                                 # %iffalse
.Lxtalabel5:
.Ltmp37:
	#DEBUG_VALUE: XUD_SetBuffer_EpMax:ep_in <- R5
	#DEBUG_VALUE: XUD_SetBuffer_EpMax:buffer <- R4
	#DEBUG_VALUE: XUD_SetBuffer_EpMax:datalength <- R8
	#DEBUG_VALUE: XUD_SetBuffer_EpMax:epMax <- R6
	#DEBUG_VALUE: i <- 0
	.loc	2 48 9                  # /Users/rkn/Documents/xTIMEcomposer/workspace/module_xud/src/XUD_EpFunctions.xc:48:9
	{
		ldc r7, 0
		stw r10, sp[2]
	}
	{
		mov r0, r5
		stw r7, sp[1]
	}
	{
		mov r1, r4
		mov r2, r6
	}
	{
		mov r3, r7
		nop
	}
.Lxta.call_labels4:
	bl XUD_SetData
.Ltmp38:
	#DEBUG_VALUE: result <- R0
	bt r0, .LBB4_10
.Ltmp39:
# BB#3:                                 # %LoopBody.preheader
	#DEBUG_VALUE: XUD_SetBuffer_EpMax:ep_in <- R5
	#DEBUG_VALUE: XUD_SetBuffer_EpMax:buffer <- R4
	#DEBUG_VALUE: XUD_SetBuffer_EpMax:datalength <- R8
	#DEBUG_VALUE: XUD_SetBuffer_EpMax:epMax <- R6
	#DEBUG_VALUE: i <- 0
	.loc	2 53 0                  # /Users/rkn/Documents/xTIMEcomposer/workspace/module_xud/src/XUD_EpFunctions.xc:53:0
	{
		sub r8, r8, r6
		nop
	}
.Ltmp40:
	.loc	2 57 13                 # /Users/rkn/Documents/xTIMEcomposer/workspace/module_xud/src/XUD_EpFunctions.xc:57:13
	{
		lsu r0, r6, r8
		nop
	}
	.loc	2 57 13                 # /Users/rkn/Documents/xTIMEcomposer/workspace/module_xud/src/XUD_EpFunctions.xc:57:13
	bf r0, .LBB4_4
.Ltmp41:
# BB#7:
	#DEBUG_VALUE: XUD_SetBuffer_EpMax:ep_in <- R5
	#DEBUG_VALUE: XUD_SetBuffer_EpMax:buffer <- R4
	#DEBUG_VALUE: XUD_SetBuffer_EpMax:epMax <- R6
	{
		mov r9, r6
		nop
	}
.Ltmp42:
.LBB4_9:                                # %iftrue18
                                        # =>This Inner Loop Header: Depth=1
.Lxtalabel6:
	#DEBUG_VALUE: XUD_SetBuffer_EpMax:ep_in <- R5
	#DEBUG_VALUE: XUD_SetBuffer_EpMax:buffer <- R4
	#DEBUG_VALUE: XUD_SetBuffer_EpMax:epMax <- R6
	{
		nop
		stw r10, sp[2]
	}
	.loc	2 60 17                 # /Users/rkn/Documents/xTIMEcomposer/workspace/module_xud/src/XUD_EpFunctions.xc:60:17
	{
		mov r0, r5
		stw r7, sp[1]
	}
	{
		mov r1, r4
		mov r2, r6
	}
	{
		mov r3, r9
		nop
	}
.Lxta.call_labels5:
	bl XUD_SetData
	bt r0, .LBB4_10
.Ltmp43:
# BB#8:                                 # %LoopBody
                                        #   in Loop: Header=BB4_9 Depth=1
.Lxtalabel7:
	#DEBUG_VALUE: XUD_SetBuffer_EpMax:ep_in <- R5
	#DEBUG_VALUE: XUD_SetBuffer_EpMax:buffer <- R4
	#DEBUG_VALUE: XUD_SetBuffer_EpMax:epMax <- R6
	.loc	2 64 0                  # /Users/rkn/Documents/xTIMEcomposer/workspace/module_xud/src/XUD_EpFunctions.xc:64:0
	{
		add r9, r9, r6
		sub r8, r8, r6
	}
	.loc	2 57 13                 # /Users/rkn/Documents/xTIMEcomposer/workspace/module_xud/src/XUD_EpFunctions.xc:57:13
	{
		lsu r0, r6, r8
		nop
	}
	bt r0, .LBB4_9
	bu .LBB4_5
.Ltmp44:
.LBB4_1:                                # %iftrue
.Lxtalabel8:
	#DEBUG_VALUE: XUD_SetBuffer_EpMax:ep_in <- R5
	#DEBUG_VALUE: XUD_SetBuffer_EpMax:buffer <- R4
	#DEBUG_VALUE: XUD_SetBuffer_EpMax:datalength <- R8
	#DEBUG_VALUE: i <- 0
	.loc	2 42 0                  # /Users/rkn/Documents/xTIMEcomposer/workspace/module_xud/src/XUD_EpFunctions.xc:42:0
	{
		ldc r3, 0
		stw r10, sp[2]
	}
	{
		mov r0, r5
		stw r3, sp[1]
	}
	{
		mov r1, r4
		mov r2, r8
	}
	.loc	2 69 17                 # /Users/rkn/Documents/xTIMEcomposer/workspace/module_xud/src/XUD_EpFunctions.xc:69:17
.Lxta.call_labels6:
	bl XUD_SetData
.Ltmp45:
	#DEBUG_VALUE: result <- R0
	bu .LBB4_10
.Ltmp46:
.LBB4_4:
	#DEBUG_VALUE: XUD_SetBuffer_EpMax:ep_in <- R5
	#DEBUG_VALUE: XUD_SetBuffer_EpMax:buffer <- R4
	#DEBUG_VALUE: XUD_SetBuffer_EpMax:epMax <- R6
	{
		mov r9, r6
		nop
	}
.Ltmp47:
	#DEBUG_VALUE: XUD_SetBuffer_EpMax:epMax <- R9
.LBB4_5:                                # %iffalse25
.Lxtalabel9:
	#DEBUG_VALUE: XUD_SetBuffer_EpMax:ep_in <- R5
	#DEBUG_VALUE: XUD_SetBuffer_EpMax:buffer <- R4
	#DEBUG_VALUE: i <- 0
	{
		nop
		stw r10, sp[2]
	}
	{
		mov r0, r5
		stw r7, sp[1]
	}
	{
		mov r1, r4
		mov r2, r8
	}
	{
		mov r3, r9
		nop
	}
.Lxta.call_labels7:
	bl XUD_SetData
.Ltmp48:
	#DEBUG_VALUE: result <- R0
.LBB4_10:                               # %return
	{
		nop
		ldw r10, sp[10]
	}
	ldd r9, r8, sp[4]               # 4-byte Folded Reload
	ldd r7, r6, sp[3]               # 4-byte Folded Reload
	ldd r5, r4, sp[2]               # 4-byte Folded Reload
	{
		nop
		retsp 12
	}
	# RETURN_REG_HOLDER
	.cc_bottom XUD_SetBuffer_EpMax.function
	.set	XUD_SetBuffer_EpMax.nstackwords,(XUD_SetData.nstackwords + 12)
	.globl	XUD_SetBuffer_EpMax.nstackwords
	.set	XUD_SetBuffer_EpMax.maxcores,XUD_SetData.maxcores $M 1
	.globl	XUD_SetBuffer_EpMax.maxcores
	.set	XUD_SetBuffer_EpMax.maxtimers,XUD_SetData.maxtimers $M 0
	.globl	XUD_SetBuffer_EpMax.maxtimers
	.set	XUD_SetBuffer_EpMax.maxchanends,XUD_SetData.maxchanends $M 0
	.globl	XUD_SetBuffer_EpMax.maxchanends
.Ltmp49:
	.size	XUD_SetBuffer_EpMax, .Ltmp49-XUD_SetBuffer_EpMax
.Lfunc_end4:
	.cfi_endproc

	.section	.cp.rodata.cst4,"aMc",@progbits,4
	.cc_top .LCPI5_0.data,.LCPI5_0
	.align	4
	.type	.LCPI5_0,@object
	.size	.LCPI5_0, 4
.LCPI5_0:
	.long	4294967232              # 0xffffffc0
	.cc_bottom .LCPI5_0.data
	.text
	.globl	_SXUD_SetBuffer_EpMax_0
	.align	4
	.type	_SXUD_SetBuffer_EpMax_0,@function
	.cc_top _SXUD_SetBuffer_EpMax_0.function,_SXUD_SetBuffer_EpMax_0
_SXUD_SetBuffer_EpMax_0:                # @_SXUD_SetBuffer_EpMax_0
.Lfunc_begin5:
	.loc	2 34 0                  # /Users/rkn/Documents/xTIMEcomposer/workspace/module_xud/src/XUD_EpFunctions.xc:34:0
	.cfi_startproc
	.issue_mode dual
# BB#0:                                 # %allocas
.Lxtalabel10:
	{
		nop
		dualentsp 12
	}
.Ltmp50:
	.cfi_def_cfa_offset 48
.Ltmp51:
	.cfi_offset 15, 0
	std r5, r4, sp[2]               # 4-byte Folded Spill
.Ltmp52:
	.cfi_offset 4, -32
.Ltmp53:
	.cfi_offset 5, -28
	std r7, r6, sp[3]               # 4-byte Folded Spill
.Ltmp54:
	.cfi_offset 6, -24
.Ltmp55:
	.cfi_offset 7, -20
	std r9, r8, sp[4]               # 4-byte Folded Spill
.Ltmp56:
	.cfi_offset 8, -16
.Ltmp57:
	.cfi_offset 9, -12
.Ltmp58:
	.cfi_offset 10, -8
	#DEBUG_VALUE: XUD_SetBuffer_EpMax:ep_in <- R0
	#DEBUG_VALUE: XUD_SetBuffer_EpMax:buffer <- R1
	#DEBUG_VALUE: XUD_SetBuffer_EpMax:datalength <- R2
	{
		mov r6, r3
		stw r10, sp[10]
	}
.Ltmp59:
	#DEBUG_VALUE: XUD_SetBuffer_EpMax:datalength <- R9
	#DEBUG_VALUE: XUD_SetBuffer_EpMax:buffer <- R4
	{
		mov r9, r2
		mov r4, r1
	}
.Ltmp60:
	{
		mov r5, r0
		nop
	}
.Ltmp61:
	#DEBUG_VALUE: i <- 0
	#DEBUG_VALUE: epMax <- 64
	#DEBUG_VALUE: XUD_SetBuffer_EpMax:ep_in <- R5
	ldc r0, 64
	.loc	2 39 5 prologue_end     # /Users/rkn/Documents/xTIMEcomposer/workspace/module_xud/src/XUD_EpFunctions.xc:39:5
.Ltmp62:
	{
		lsu r0, r0, r9
		nop
	}
	bt r0, .LBB5_2
.Ltmp63:
# BB#1:                                 # %iftrue
.Lxtalabel11:
	#DEBUG_VALUE: XUD_SetBuffer_EpMax:ep_in <- R5
	#DEBUG_VALUE: XUD_SetBuffer_EpMax:buffer <- R4
	#DEBUG_VALUE: XUD_SetBuffer_EpMax:datalength <- R9
	#DEBUG_VALUE: epMax <- 64
	#DEBUG_VALUE: i <- 0
	.loc	2 42 0                  # /Users/rkn/Documents/xTIMEcomposer/workspace/module_xud/src/XUD_EpFunctions.xc:42:0
	{
		ldc r3, 0
		stw r6, sp[2]
	}
	{
		mov r0, r5
		stw r3, sp[1]
	}
	{
		mov r1, r4
		mov r2, r9
	}
	bu .LBB5_8
.Ltmp64:
.LBB5_2:                                # %iffalse
.Lxtalabel12:
	#DEBUG_VALUE: XUD_SetBuffer_EpMax:ep_in <- R5
	#DEBUG_VALUE: XUD_SetBuffer_EpMax:buffer <- R4
	#DEBUG_VALUE: XUD_SetBuffer_EpMax:datalength <- R9
	#DEBUG_VALUE: epMax <- 64
	#DEBUG_VALUE: i <- 0
	.loc	2 48 9                  # /Users/rkn/Documents/xTIMEcomposer/workspace/module_xud/src/XUD_EpFunctions.xc:48:9
	{
		ldc r3, 0
		stw r6, sp[2]
	}
	{
		nop
		stw r3, sp[1]
	}
	ldc r7, 64
	{
		mov r0, r5
		mov r1, r4
	}
	{
		mov r2, r7
		nop
	}
.Lxta.call_labels8:
	bl XUD_SetData
.Ltmp65:
	#DEBUG_VALUE: result <- R0
	bt r0, .LBB5_9
.Ltmp66:
# BB#3:                                 # %LoopBody.preheader
	#DEBUG_VALUE: XUD_SetBuffer_EpMax:ep_in <- R5
	#DEBUG_VALUE: XUD_SetBuffer_EpMax:buffer <- R4
	#DEBUG_VALUE: XUD_SetBuffer_EpMax:datalength <- R9
	#DEBUG_VALUE: epMax <- 64
	#DEBUG_VALUE: i <- 0
	ldw r8, cp[.LCPI5_0]
	.loc	2 53 0                  # /Users/rkn/Documents/xTIMEcomposer/workspace/module_xud/src/XUD_EpFunctions.xc:53:0
	{
		add r9, r9, r8
		nop
	}
.Ltmp67:
	.loc	2 57 13                 # /Users/rkn/Documents/xTIMEcomposer/workspace/module_xud/src/XUD_EpFunctions.xc:57:13
	{
		lsu r0, r7, r9
		nop
	}
	bf r0, .LBB5_7
.Ltmp68:
# BB#4:
	#DEBUG_VALUE: XUD_SetBuffer_EpMax:ep_in <- R5
	#DEBUG_VALUE: XUD_SetBuffer_EpMax:buffer <- R4
	ldc r10, 64
.Ltmp69:
.LBB5_6:                                # %iftrue18
                                        # =>This Inner Loop Header: Depth=1
.Lxtalabel13:
	#DEBUG_VALUE: XUD_SetBuffer_EpMax:ep_in <- R5
	#DEBUG_VALUE: XUD_SetBuffer_EpMax:buffer <- R4
	.loc	2 60 17                 # /Users/rkn/Documents/xTIMEcomposer/workspace/module_xud/src/XUD_EpFunctions.xc:60:17
	{
		ldc r0, 0
		stw r6, sp[2]
	}
	{
		mov r0, r5
		stw r0, sp[1]
	}
	{
		mov r1, r4
		mov r2, r10
	}
	{
		mov r3, r7
		nop
	}
.Lxta.call_labels9:
	bl XUD_SetData
	bt r0, .LBB5_9
.Ltmp70:
# BB#5:                                 # %LoopBody
                                        #   in Loop: Header=BB5_6 Depth=1
.Lxtalabel14:
	#DEBUG_VALUE: XUD_SetBuffer_EpMax:ep_in <- R5
	#DEBUG_VALUE: XUD_SetBuffer_EpMax:buffer <- R4
	.loc	2 64 0                  # /Users/rkn/Documents/xTIMEcomposer/workspace/module_xud/src/XUD_EpFunctions.xc:64:0
	{
		add r7, r7, r10
		add r9, r9, r8
	}
	ldc r0, 65
	.loc	2 57 13                 # /Users/rkn/Documents/xTIMEcomposer/workspace/module_xud/src/XUD_EpFunctions.xc:57:13
	{
		lsu r0, r9, r0
		nop
	}
	bf r0, .LBB5_6
.Ltmp71:
.LBB5_7:                                # %iffalse25
.Lxtalabel15:
	#DEBUG_VALUE: XUD_SetBuffer_EpMax:ep_in <- R5
	#DEBUG_VALUE: XUD_SetBuffer_EpMax:buffer <- R4
	#DEBUG_VALUE: epMax <- 64
	#DEBUG_VALUE: i <- 0
	.loc	2 69 17                 # /Users/rkn/Documents/xTIMEcomposer/workspace/module_xud/src/XUD_EpFunctions.xc:69:17
	{
		ldc r0, 0
		stw r6, sp[2]
	}
	{
		mov r0, r5
		stw r0, sp[1]
	}
	{
		mov r1, r4
		mov r2, r9
	}
	{
		mov r3, r7
		nop
	}
.Ltmp72:
.LBB5_8:                                # %return
.Lxta.call_labels10:
	bl XUD_SetData
.Ltmp73:
	#DEBUG_VALUE: result <- R0
.LBB5_9:                                # %return
	{
		nop
		ldw r10, sp[10]
	}
	ldd r9, r8, sp[4]               # 4-byte Folded Reload
	ldd r7, r6, sp[3]               # 4-byte Folded Reload
	ldd r5, r4, sp[2]               # 4-byte Folded Reload
	{
		nop
		retsp 12
	}
	# RETURN_REG_HOLDER
	.cc_bottom _SXUD_SetBuffer_EpMax_0.function
	.set	_SXUD_SetBuffer_EpMax_0.nstackwords,(XUD_SetData.nstackwords + 12)
	.globl	_SXUD_SetBuffer_EpMax_0.nstackwords
	.set	_SXUD_SetBuffer_EpMax_0.maxcores,XUD_SetData.maxcores $M 1
	.globl	_SXUD_SetBuffer_EpMax_0.maxcores
	.set	_SXUD_SetBuffer_EpMax_0.maxtimers,XUD_SetData.maxtimers $M 0
	.globl	_SXUD_SetBuffer_EpMax_0.maxtimers
	.set	_SXUD_SetBuffer_EpMax_0.maxchanends,XUD_SetData.maxchanends $M 0
	.globl	_SXUD_SetBuffer_EpMax_0.maxchanends
.Ltmp74:
	.size	_SXUD_SetBuffer_EpMax_0, .Ltmp74-_SXUD_SetBuffer_EpMax_0
.Lfunc_end5:
	.cfi_endproc

	.globl	XUD_DoGetRequest
	.align	4
	.type	XUD_DoGetRequest,@function
	.cc_top XUD_DoGetRequest.function,XUD_DoGetRequest
XUD_DoGetRequest:                       # @XUD_DoGetRequest
.Lfunc_begin6:
	.loc	2 82 0                  # /Users/rkn/Documents/xTIMEcomposer/workspace/module_xud/src/XUD_EpFunctions.xc:82:0
	.cfi_startproc
	.issue_mode dual
# BB#0:                                 # %allocas
.Lxtalabel16:
	DUALENTSP_lu6 264
.Ltmp75:
	.cfi_def_cfa_offset 1056
.Ltmp76:
	.cfi_offset 15, 0
	stw r4, sp[260]                 # 4-byte Folded Spill
	stw r5, sp[261]                 # 4-byte Folded Spill
.Ltmp77:
	.cfi_offset 4, -16
.Ltmp78:
	.cfi_offset 5, -12
	stw r6, sp[262]                 # 4-byte Folded Spill
	stw r7, sp[263]                 # 4-byte Folded Spill
.Ltmp79:
	.cfi_offset 6, -8
.Ltmp80:
	.cfi_offset 7, -4
	#DEBUG_VALUE: XUD_DoGetRequest:ep_out <- R0
	#DEBUG_VALUE: XUD_DoGetRequest:ep_in <- R1
	#DEBUG_VALUE: XUD_DoGetRequest:buffer <- R2
	#DEBUG_VALUE: XUD_DoGetRequest:length <- R3
.Ltmp81:
	#DEBUG_VALUE: XUD_DoGetRequest:length <- R6
	#DEBUG_VALUE: XUD_DoGetRequest:ep_in <- R5
	{
		mov r6, r3
		mov r5, r1
	}
.Ltmp82:
	{
		mov r4, r0
		nop
	}
.Ltmp83:
	#DEBUG_VALUE: XUD_DoGetRequest:ep_out <- R4
	ldw r7, sp[265]
.Ltmp84:
	#DEBUG_VALUE: min:y <- R7
	#DEBUG_VALUE: XUD_DoGetRequest:requested <- R7
	ldw r3, sp[266]
.Ltmp85:
	#DEBUG_VALUE: min:x <- R6
	.loc	2 12 5 prologue_end     # /Users/rkn/Documents/xTIMEcomposer/workspace/module_xud/src/XUD_EpFunctions.xc:12:5
	{
		lss r0, r6, r7
		mov r11, r6
	}
	bt r0, .LBB6_2
.Ltmp86:
# BB#1:                                 # %allocas
.Lxtalabel17:
	#DEBUG_VALUE: XUD_DoGetRequest:ep_out <- R4
	#DEBUG_VALUE: XUD_DoGetRequest:ep_in <- R5
	#DEBUG_VALUE: XUD_DoGetRequest:buffer <- R2
	#DEBUG_VALUE: XUD_DoGetRequest:length <- R6
	#DEBUG_VALUE: XUD_DoGetRequest:requested <- R7
	#DEBUG_VALUE: min:y <- R7
	#DEBUG_VALUE: min:x <- R6
	.loc	2 13 9                  # /Users/rkn/Documents/xTIMEcomposer/workspace/module_xud/src/XUD_EpFunctions.xc:13:9
	{
		mov r11, r7
		nop
	}
.Ltmp87:
.LBB6_2:                                # %allocas
.Lxtalabel18:
	#DEBUG_VALUE: XUD_DoGetRequest:ep_out <- R4
	#DEBUG_VALUE: XUD_DoGetRequest:ep_in <- R5
	#DEBUG_VALUE: XUD_DoGetRequest:buffer <- R2
	#DEBUG_VALUE: XUD_DoGetRequest:length <- R6
	#DEBUG_VALUE: XUD_DoGetRequest:requested <- R7
	#DEBUG_VALUE: sendLength <- R11
	#DEBUG_VALUE: XUD_DoGetRequest:buffer <- R1
	.loc	2 88 5                  # /Users/rkn/Documents/xTIMEcomposer/workspace/module_xud/src/XUD_EpFunctions.xc:88:5
	{
		mov r0, r5
		mov r1, r2
	}
.Ltmp88:
	{
		mov r2, r11
		nop
	}
.Lxta.call_labels11:
	bl _SXUD_SetBuffer_EpMax_0
.Ltmp89:
	#DEBUG_VALUE: result <- R0
	bt r0, .LBB6_7
.Ltmp90:
# BB#3:                                 # %ifdone
.Lxtalabel19:
	#DEBUG_VALUE: XUD_DoGetRequest:ep_out <- R4
	#DEBUG_VALUE: XUD_DoGetRequest:ep_in <- R5
	#DEBUG_VALUE: XUD_DoGetRequest:length <- R6
	#DEBUG_VALUE: XUD_DoGetRequest:requested <- R7
	.loc	2 95 5                  # /Users/rkn/Documents/xTIMEcomposer/workspace/module_xud/src/XUD_EpFunctions.xc:95:5
	{
		lsu r0, r6, r7
		nop
	}
	bf r0, .LBB6_6
.Ltmp91:
# BB#4:                                 # %ifdone
.Lxtalabel20:
	#DEBUG_VALUE: XUD_DoGetRequest:ep_out <- R4
	#DEBUG_VALUE: XUD_DoGetRequest:ep_in <- R5
	#DEBUG_VALUE: XUD_DoGetRequest:length <- R6
	{
		zext r6, 6
		nop
	}
.Ltmp92:
	bt r6, .LBB6_6
.Ltmp93:
# BB#5:                                 # %iftrue1
.Lxtalabel21:
	#DEBUG_VALUE: XUD_DoGetRequest:ep_out <- R4
	#DEBUG_VALUE: XUD_DoGetRequest:ep_in <- R5
	#DEBUG_VALUE: datalength <- 0
	ldc r0, 1024
	.loc	2 30 5                  # /Users/rkn/Documents/xTIMEcomposer/workspace/module_xud/src/XUD_EpFunctions.xc:30:5
.Ltmp94:
	{
		ldc r2, 0
		stw r0, sp[2]
	}
.Ltmp95:
	#DEBUG_VALUE: XUD_SetBuffer:c <- R5
	{
		ldaw r1, sp[4]
		stw r2, sp[1]
	}
	{
		mov r0, r5
		mov r3, r2
	}
.Lxta.call_labels12:
	bl XUD_SetData
.Ltmp96:
.LBB6_6:                                # %ifdone2
.Lxtalabel22:
	#DEBUG_VALUE: XUD_DoGetRequest:ep_out <- R4
	#DEBUG_VALUE: rxlength <- [R2+0]
	{
		ldaw r1, sp[4]
		ldaw r2, sp[3]
	}
.Ltmp97:
	ldc r3, 1024
	.loc	2 101 5                 # /Users/rkn/Documents/xTIMEcomposer/workspace/module_xud/src/XUD_EpFunctions.xc:101:5
	{
		mov r0, r4
		nop
	}
.Lxta.call_labels13:
	bl XUD_GetData
.Ltmp98:
.LBB6_7:                                # %return
	ldw r6, sp[262]                 # 4-byte Folded Reload
	ldw r7, sp[263]                 # 4-byte Folded Reload
	ldw r4, sp[260]                 # 4-byte Folded Reload
	ldw r5, sp[261]                 # 4-byte Folded Reload
	retsp 264
	# RETURN_REG_HOLDER
	.cc_bottom XUD_DoGetRequest.function
	.set	XUD_DoGetRequest.nstackwords,((_SXUD_SetBuffer_EpMax_0.nstackwords $M XUD_SetData.nstackwords $M XUD_GetData.nstackwords) + 264)
	.globl	XUD_DoGetRequest.nstackwords
	.set	XUD_DoGetRequest.maxcores,XUD_GetData.maxcores $M XUD_SetData.maxcores $M _SXUD_SetBuffer_EpMax_0.maxcores $M 1
	.globl	XUD_DoGetRequest.maxcores
	.set	XUD_DoGetRequest.maxtimers,XUD_GetData.maxtimers $M XUD_SetData.maxtimers $M _SXUD_SetBuffer_EpMax_0.maxtimers $M 0
	.globl	XUD_DoGetRequest.maxtimers
	.set	XUD_DoGetRequest.maxchanends,XUD_GetData.maxchanends $M XUD_SetData.maxchanends $M _SXUD_SetBuffer_EpMax_0.maxchanends $M 0
	.globl	XUD_DoGetRequest.maxchanends
.Ltmp99:
	.size	XUD_DoGetRequest, .Ltmp99-XUD_DoGetRequest
.Lfunc_end6:
	.cfi_endproc

	.globl	XUD_DoSetRequestStatus
	.align	4
	.type	XUD_DoSetRequestStatus,@function
	.cc_top XUD_DoSetRequestStatus.function,XUD_DoSetRequestStatus
XUD_DoSetRequestStatus:                 # @XUD_DoSetRequestStatus
.Lfunc_begin7:
	.loc	2 105 0                 # /Users/rkn/Documents/xTIMEcomposer/workspace/module_xud/src/XUD_EpFunctions.xc:105:0
	.cfi_startproc
	.issue_mode dual
# BB#0:                                 # %allocas
.Lxtalabel23:
.Ltmp100:
	.cfi_def_cfa_offset 24
.Ltmp101:
	.cfi_offset 15, 0
	#DEBUG_VALUE: XUD_DoSetRequestStatus:ep_in <- R0
	{
		ldc r1, 8
		dualentsp 6
	}
	.loc	2 109 5 prologue_end    # /Users/rkn/Documents/xTIMEcomposer/workspace/module_xud/src/XUD_EpFunctions.xc:109:5
.Ltmp102:
	{
		ldc r2, 0
		stw r1, sp[2]
	}
	{
		ldaw r1, sp[4]
		stw r2, sp[1]
	}
	{
		mov r3, r2
		nop
	}
.Lxta.call_labels14:
	bl XUD_SetData
.Ltmp103:
	{
		nop
		retsp 6
	}
	# RETURN_REG_HOLDER
.Ltmp104:
	.cc_bottom XUD_DoSetRequestStatus.function
	.set	XUD_DoSetRequestStatus.nstackwords,(XUD_SetData.nstackwords + 6)
	.globl	XUD_DoSetRequestStatus.nstackwords
	.set	XUD_DoSetRequestStatus.maxcores,XUD_SetData.maxcores $M 1
	.globl	XUD_DoSetRequestStatus.maxcores
	.set	XUD_DoSetRequestStatus.maxtimers,XUD_SetData.maxtimers $M 0
	.globl	XUD_DoSetRequestStatus.maxtimers
	.set	XUD_DoSetRequestStatus.maxchanends,XUD_SetData.maxchanends $M 0
	.globl	XUD_DoSetRequestStatus.maxchanends
.Ltmp105:
	.size	XUD_DoSetRequestStatus, .Ltmp105-XUD_DoSetRequestStatus
.Lfunc_end7:
	.cfi_endproc

	.globl	XUD_ResetEndpoint
	.align	4
	.type	XUD_ResetEndpoint,@function
	.cc_top XUD_ResetEndpoint.function,XUD_ResetEndpoint
XUD_ResetEndpoint:                      # @XUD_ResetEndpoint
.Lfunc_begin8:
	.loc	2 133 0                 # /Users/rkn/Documents/xTIMEcomposer/workspace/module_xud/src/XUD_EpFunctions.xc:133:0
	.cfi_startproc
	.issue_mode dual
# BB#0:                                 # %allocas
.Lxtalabel24:
	{
		nop
		dualentsp 0
	}
	{
		extsp 2
		nop
	}
.Ltmp106:
	.cfi_def_cfa_offset 8
	{
		nop
		stw r4, sp[0]
	}
.Ltmp107:
	.cfi_offset 4, -8
	#DEBUG_VALUE: XUD_ResetEndpoint:one <- R0
	#DEBUG_VALUE: XUD_ResetEndpoint:two <- R1
	.loc	2 140 0 prologue_end    # /Users/rkn/Documents/xTIMEcomposer/workspace/module_xud/src/XUD_EpFunctions.xc:140:0
.Ltmp108:
	#APP
	ldw r2, r0[2]
	#NO_APP
.Ltmp109:
	#DEBUG_VALUE: c1 <- R2
	.loc	2 141 0                 # /Users/rkn/Documents/xTIMEcomposer/workspace/module_xud/src/XUD_EpFunctions.xc:141:0
	#APP
	inct r3, res[r2]
	#NO_APP
.Ltmp110:
	#DEBUG_VALUE: busStateCt <- R3
                                        # implicit-def: R3
.Ltmp111:
	bf r1, .LBB8_2
.Ltmp112:
# BB#1:                                 # %iftrue
.Lxtalabel25:
	#DEBUG_VALUE: XUD_ResetEndpoint:one <- R0
	#DEBUG_VALUE: XUD_ResetEndpoint:two <- R1
	#DEBUG_VALUE: c1 <- R2
	{
		nop
		ldw r3, r1[0]
	}
	.loc	2 145 0                 # /Users/rkn/Documents/xTIMEcomposer/workspace/module_xud/src/XUD_EpFunctions.xc:145:0
	#APP
	ldw r3, r3[2]
	#NO_APP
.Ltmp113:
	#DEBUG_VALUE: c2 <- R3
	.loc	2 146 0                 # /Users/rkn/Documents/xTIMEcomposer/workspace/module_xud/src/XUD_EpFunctions.xc:146:0
	#APP
	inct r11, res[r3]
	#NO_APP
.Ltmp114:
	#DEBUG_VALUE: busStateCt <- R11
.LBB8_2:                                # %ifdone
.Lxtalabel26:
	#DEBUG_VALUE: XUD_ResetEndpoint:one <- R0
	#DEBUG_VALUE: XUD_ResetEndpoint:two <- R1
	#DEBUG_VALUE: c1 <- R2
	.loc	2 150 0                 # /Users/rkn/Documents/xTIMEcomposer/workspace/module_xud/src/XUD_EpFunctions.xc:150:0
	#APP
	ldw r4, r0[0]
	#NO_APP
.Ltmp115:
	#DEBUG_VALUE: tmp <- R4
	{
		ldc r11, 0
		nop
	}
	.loc	2 151 0                 # /Users/rkn/Documents/xTIMEcomposer/workspace/module_xud/src/XUD_EpFunctions.xc:151:0
	#APP
	stw r11, r4[0]
	#NO_APP
	.loc	2 154 0                 # /Users/rkn/Documents/xTIMEcomposer/workspace/module_xud/src/XUD_EpFunctions.xc:154:0
	#APP
	stw r11, r0[9]
	#NO_APP
	.loc	2 156 5                 # /Users/rkn/Documents/xTIMEcomposer/workspace/module_xud/src/XUD_EpFunctions.xc:156:5
	bf r1, .LBB8_3
.Ltmp116:
# BB#4:                                 # %iftrue18
.Lxtalabel27:
	#DEBUG_VALUE: XUD_ResetEndpoint:two <- R1
	#DEBUG_VALUE: c1 <- R2
	{
		nop
		ldw r0, r1[0]
	}
	.loc	2 158 0                 # /Users/rkn/Documents/xTIMEcomposer/workspace/module_xud/src/XUD_EpFunctions.xc:158:0
	#APP
	ldw r1, r0[0]
	#NO_APP
.Ltmp117:
	#DEBUG_VALUE: tmp <- R1
	.loc	2 159 0                 # /Users/rkn/Documents/xTIMEcomposer/workspace/module_xud/src/XUD_EpFunctions.xc:159:0
	#APP
	stw r11, r1[0]
	#NO_APP
	.loc	2 162 0                 # /Users/rkn/Documents/xTIMEcomposer/workspace/module_xud/src/XUD_EpFunctions.xc:162:0
	#APP
	stw r11, r0[9]
	#NO_APP
	.loc	2 166 0                 # /Users/rkn/Documents/xTIMEcomposer/workspace/module_xud/src/XUD_EpFunctions.xc:166:0
	#APP
	in r0, res[r2]
	#NO_APP
.Ltmp118:
	#DEBUG_VALUE: busSpeed <- R0
	.loc	2 170 0                 # /Users/rkn/Documents/xTIMEcomposer/workspace/module_xud/src/XUD_EpFunctions.xc:170:0
	#APP
	in r0, res[r3]
	#NO_APP
.Ltmp119:
	#DEBUG_VALUE: busSpeed <- R0
	bu .LBB8_5
.Ltmp120:
.LBB8_3:                                # %ifdone7.thread
.Lxtalabel28:
	#DEBUG_VALUE: c1 <- R2
	.loc	2 166 0                 # /Users/rkn/Documents/xTIMEcomposer/workspace/module_xud/src/XUD_EpFunctions.xc:166:0
	#APP
	in r0, res[r2]
	#NO_APP
.Ltmp121:
.LBB8_5:                                # %ifdone19
.Lxtalabel29:
	{
		ldaw sp, sp[2]
		ldw r4, sp[0]
	}
	{
		nop
		retsp 0
	}
	# RETURN_REG_HOLDER
	.cc_bottom XUD_ResetEndpoint.function
	.set	XUD_ResetEndpoint.nstackwords,2
	.globl	XUD_ResetEndpoint.nstackwords
	.set	XUD_ResetEndpoint.maxcores,1
	.globl	XUD_ResetEndpoint.maxcores
	.set	XUD_ResetEndpoint.maxtimers,0
	.globl	XUD_ResetEndpoint.maxtimers
	.set	XUD_ResetEndpoint.maxchanends,0
	.globl	XUD_ResetEndpoint.maxchanends
.Ltmp122:
	.size	XUD_ResetEndpoint, .Ltmp122-XUD_ResetEndpoint
.Lfunc_end8:
	.cfi_endproc

	.globl	XUD_InitEp
	.align	4
	.type	XUD_InitEp,@function
	.cc_top XUD_InitEp.function,XUD_InitEp
XUD_InitEp:                             # @XUD_InitEp
	.cfi_startproc
	.issue_mode dual
# BB#0:                                 # %allocas
.Lxtalabel30:
	#DEBUG_VALUE: XUD_InitEp:c <- R0
	#DEBUG_VALUE: ep <- R0
.Lxta.endpoint_labels0:
	{
		in r0, res[r0]
		dualentsp 0
	}
	{
		nop
		retsp 0
	}
	# RETURN_REG_HOLDER
	.cc_bottom XUD_InitEp.function
	.set	XUD_InitEp.nstackwords,0
	.globl	XUD_InitEp.nstackwords
	.set	XUD_InitEp.maxcores,1
	.globl	XUD_InitEp.maxcores
	.set	XUD_InitEp.maxtimers,0
	.globl	XUD_InitEp.maxtimers
	.set	XUD_InitEp.maxchanends,0
	.globl	XUD_InitEp.maxchanends
.Ltmp123:
	.size	XUD_InitEp, .Ltmp123-XUD_InitEp
	.cfi_endproc

	.globl	XUD_SetStall
	.align	4
	.type	XUD_SetStall,@function
	.cc_top XUD_SetStall.function,XUD_SetStall
XUD_SetStall:                           # @XUD_SetStall
.Lfunc_begin10:
	.loc	2 113 0                 # /Users/rkn/Documents/xTIMEcomposer/workspace/module_xud/src/XUD_EpFunctions.xc:113:0
	.cfi_startproc
	.issue_mode dual
# BB#0:                                 # %allocas
.Lxtalabel31:
	{
		nop
		dualentsp 2
	}
.Ltmp124:
	.cfi_def_cfa_offset 8
.Ltmp125:
	.cfi_offset 15, 0
	#DEBUG_VALUE: XUD_SetStall:ep <- R0
	.loc	2 117 0 prologue_end    # /Users/rkn/Documents/xTIMEcomposer/workspace/module_xud/src/XUD_EpFunctions.xc:117:0
.Ltmp126:
	#APP
	ldw r0, r0[8]
	#NO_APP
.Ltmp127:
	#DEBUG_VALUE: epAddress <- R0
	.loc	2 119 0                 # /Users/rkn/Documents/xTIMEcomposer/workspace/module_xud/src/XUD_EpFunctions.xc:119:0
.Lxta.call_labels15:
	bl XUD_SetStallByAddr
.Ltmp128:
	{
		nop
		retsp 2
	}
	# RETURN_REG_HOLDER
.Ltmp129:
	.cc_bottom XUD_SetStall.function
	.set	XUD_SetStall.nstackwords,(XUD_SetStallByAddr.nstackwords + 2)
	.globl	XUD_SetStall.nstackwords
	.set	XUD_SetStall.maxcores,XUD_SetStallByAddr.maxcores $M 1
	.globl	XUD_SetStall.maxcores
	.set	XUD_SetStall.maxtimers,XUD_SetStallByAddr.maxtimers $M 0
	.globl	XUD_SetStall.maxtimers
	.set	XUD_SetStall.maxchanends,XUD_SetStallByAddr.maxchanends $M 0
	.globl	XUD_SetStall.maxchanends
.Ltmp130:
	.size	XUD_SetStall, .Ltmp130-XUD_SetStall
.Lfunc_end10:
	.cfi_endproc

	.globl	XUD_ClearStall
	.align	4
	.type	XUD_ClearStall,@function
	.cc_top XUD_ClearStall.function,XUD_ClearStall
XUD_ClearStall:                         # @XUD_ClearStall
.Lfunc_begin11:
	.loc	2 123 0                 # /Users/rkn/Documents/xTIMEcomposer/workspace/module_xud/src/XUD_EpFunctions.xc:123:0
	.cfi_startproc
	.issue_mode dual
# BB#0:                                 # %allocas
.Lxtalabel32:
	{
		nop
		dualentsp 2
	}
.Ltmp131:
	.cfi_def_cfa_offset 8
.Ltmp132:
	.cfi_offset 15, 0
	#DEBUG_VALUE: XUD_ClearStall:ep <- R0
	.loc	2 127 0 prologue_end    # /Users/rkn/Documents/xTIMEcomposer/workspace/module_xud/src/XUD_EpFunctions.xc:127:0
.Ltmp133:
	#APP
	ldw r0, r0[8]
	#NO_APP
.Ltmp134:
	#DEBUG_VALUE: epAddress <- R0
	.loc	2 129 0                 # /Users/rkn/Documents/xTIMEcomposer/workspace/module_xud/src/XUD_EpFunctions.xc:129:0
.Lxta.call_labels16:
	bl XUD_ClearStallByAddr
.Ltmp135:
	{
		nop
		retsp 2
	}
	# RETURN_REG_HOLDER
.Ltmp136:
	.cc_bottom XUD_ClearStall.function
	.set	XUD_ClearStall.nstackwords,(XUD_ClearStallByAddr.nstackwords + 2)
	.globl	XUD_ClearStall.nstackwords
	.set	XUD_ClearStall.maxcores,XUD_ClearStallByAddr.maxcores $M 1
	.globl	XUD_ClearStall.maxcores
	.set	XUD_ClearStall.maxtimers,XUD_ClearStallByAddr.maxtimers $M 0
	.globl	XUD_ClearStall.maxtimers
	.set	XUD_ClearStall.maxchanends,XUD_ClearStallByAddr.maxchanends $M 0
	.globl	XUD_ClearStall.maxchanends
.Ltmp137:
	.size	XUD_ClearStall, .Ltmp137-XUD_ClearStall
.Lfunc_end11:
	.cfi_endproc

	.section	.cp.rodata.cst4,"aMc",@progbits,4
	.cc_top .LCPI12_0.data,.LCPI12_0
	.align	4
	.type	.LCPI12_0,@object
	.size	.LCPI12_0, 4
.LCPI12_0:
	.long	4294967292              # 0xfffffffc
	.cc_bottom .LCPI12_0.data
	.text
	.globl	XUD_SetControlBuffer
	.align	4
	.type	XUD_SetControlBuffer,@function
	.cc_top XUD_SetControlBuffer.function,XUD_SetControlBuffer
XUD_SetControlBuffer:                   # @XUD_SetControlBuffer
.Lfunc_begin12:
	.loc	2 190 0                 # /Users/rkn/Documents/xTIMEcomposer/workspace/module_xud/src/XUD_EpFunctions.xc:190:0
	.cfi_startproc
	.issue_mode dual
# BB#0:                                 # %allocas
.Lxtalabel33:
	{
		nop
		dualentsp 8
	}
.Ltmp138:
	.cfi_def_cfa_offset 32
.Ltmp139:
	.cfi_offset 15, 0
	std r5, r4, sp[2]               # 4-byte Folded Spill
.Ltmp140:
	.cfi_offset 4, -16
.Ltmp141:
	.cfi_offset 5, -12
	std r7, r6, sp[3]               # 4-byte Folded Spill
.Ltmp142:
	.cfi_offset 6, -8
.Ltmp143:
	.cfi_offset 7, -4
	#DEBUG_VALUE: XUD_SetControlBuffer:c_out <- R0
	#DEBUG_VALUE: XUD_SetControlBuffer:c_in <- R1
	#DEBUG_VALUE: XUD_SetControlBuffer:ep_out <- R2
	#DEBUG_VALUE: XUD_SetControlBuffer:ep_in <- R3
	ldd r11, r4, sp[5]
.Ltmp144:
	#DEBUG_VALUE: XUD_SetReady_Out:ep <- R2
	#DEBUG_VALUE: XUD_SetControlBuffer:datalength <- R11
	#DEBUG_VALUE: XUD_SetControlBuffer:buffer_in <- R4
	.loc	1 406 0 prologue_end    # /Users/rkn/Documents/xTIMEcomposer/workspace/module_xud/include/xud.h:406:0
	#APP
	ldw r5, r2[9]
	#NO_APP
.Ltmp145:
	#DEBUG_VALUE: reset <- R5
	bt r5, .LBB12_2
.Ltmp146:
# BB#1:                                 # %ifdone.i
.Lxtalabel34:
	#DEBUG_VALUE: XUD_SetControlBuffer:c_out <- R0
	#DEBUG_VALUE: XUD_SetControlBuffer:c_in <- R1
	#DEBUG_VALUE: XUD_SetControlBuffer:ep_out <- R2
	#DEBUG_VALUE: XUD_SetControlBuffer:ep_in <- R3
	#DEBUG_VALUE: XUD_SetControlBuffer:buffer_in <- R4
	#DEBUG_VALUE: XUD_SetControlBuffer:datalength <- R11
	#DEBUG_VALUE: XUD_SetReady_Out:ep <- R2
	{
		nop
		ldw r5, sp[9]
	}
.Ltmp147:
	#DEBUG_VALUE: XUD_SetReady_Out:buffer <- R5
	#DEBUG_VALUE: XUD_SetControlBuffer:buffer_out <- R5
	.loc	1 412 0                 # /Users/rkn/Documents/xTIMEcomposer/workspace/module_xud/include/xud.h:412:0
	#APP
	ldw r6, r2[0]
	#NO_APP
.Ltmp148:
	#DEBUG_VALUE: chan_array_ptr <- R6
	.loc	1 413 0                 # /Users/rkn/Documents/xTIMEcomposer/workspace/module_xud/include/xud.h:413:0
	#APP
	stw r5, r2[3]
	#NO_APP
	.loc	1 414 0                 # /Users/rkn/Documents/xTIMEcomposer/workspace/module_xud/include/xud.h:414:0
	#APP
	stw r2, r6[0]
	#NO_APP
.Ltmp149:
.LBB12_2:                               # %XUD_SetReady_Out.exit
.Lxtalabel35:
	#DEBUG_VALUE: XUD_SetControlBuffer:c_out <- R0
	#DEBUG_VALUE: XUD_SetControlBuffer:c_in <- R1
	#DEBUG_VALUE: XUD_SetControlBuffer:ep_out <- R2
	#DEBUG_VALUE: XUD_SetControlBuffer:ep_in <- R3
	#DEBUG_VALUE: XUD_SetControlBuffer:buffer_in <- R4
	#DEBUG_VALUE: XUD_SetControlBuffer:datalength <- R11
	#DEBUG_VALUE: XUD_SetReady_In:buffer <- R4
	#DEBUG_VALUE: addr <- R4
	#DEBUG_VALUE: XUD_SetReady_InPtr:addr <- R4
	.loc	1 463 0                 # /Users/rkn/Documents/xTIMEcomposer/workspace/module_xud/include/xud.h:463:0
	#APP
	ldw r5, r3[9]
	#NO_APP
.Ltmp150:
	#DEBUG_VALUE: XUD_SetReady_InPtr:ep <- R3
	#DEBUG_VALUE: reset <- R5
	bt r5, .LBB12_4
.Ltmp151:
# BB#3:                                 # %ifdone.i.i
.Lxtalabel36:
	#DEBUG_VALUE: XUD_SetControlBuffer:c_out <- R0
	#DEBUG_VALUE: XUD_SetControlBuffer:c_in <- R1
	#DEBUG_VALUE: XUD_SetControlBuffer:ep_out <- R2
	#DEBUG_VALUE: XUD_SetControlBuffer:ep_in <- R3
	#DEBUG_VALUE: XUD_SetControlBuffer:buffer_in <- R4
	#DEBUG_VALUE: XUD_SetControlBuffer:datalength <- R11
	#DEBUG_VALUE: XUD_SetReady_In:buffer <- R4
	#DEBUG_VALUE: addr <- R4
	#DEBUG_VALUE: XUD_SetReady_InPtr:addr <- R4
	#DEBUG_VALUE: XUD_SetReady_InPtr:ep <- R3
	.loc	1 508 0                 # /Users/rkn/Documents/xTIMEcomposer/workspace/module_xud/include/xud.h:508:0
	#APP
	mov r4, r4
	#NO_APP
.Ltmp152:
	.loc	1 470 0                 # /Users/rkn/Documents/xTIMEcomposer/workspace/module_xud/include/xud.h:470:0
	ashr r5, r11, 2
.Ltmp153:
	#DEBUG_VALUE: wordlength <- R5
	ldw r6, cp[.LCPI12_0]
.Ltmp154:
	#DEBUG_VALUE: wordlength <- R6
	.loc	1 471 0                 # /Users/rkn/Documents/xTIMEcomposer/workspace/module_xud/include/xud.h:471:0
	{
		and r6, r11, r6
		shl r11, r11, 5
	}
.Ltmp155:
	.loc	1 473 0                 # /Users/rkn/Documents/xTIMEcomposer/workspace/module_xud/include/xud.h:473:0
	{
		zext r11, 7
		nop
	}
.Ltmp156:
	#DEBUG_VALUE: taillength <- R11
	.loc	1 475 0                 # /Users/rkn/Documents/xTIMEcomposer/workspace/module_xud/include/xud.h:475:0
	#APP
	ldw r7, r3[0]
	#NO_APP
.Ltmp157:
	#DEBUG_VALUE: chan_array_ptr <- R7
	#DEBUG_VALUE: XUD_SetReady_InPtr:len <- R11
	.loc	1 478 0                 # /Users/rkn/Documents/xTIMEcomposer/workspace/module_xud/include/xud.h:478:0
	#APP
	add r4, r4, r6
	#NO_APP
.Ltmp158:
	#DEBUG_VALUE: tmp <- R4
	.loc	1 480 0                 # /Users/rkn/Documents/xTIMEcomposer/workspace/module_xud/include/xud.h:480:0
	#APP
	neg r5, r5
	#NO_APP
.Ltmp159:
	#DEBUG_VALUE: tmp2 <- R5
	.loc	1 483 0                 # /Users/rkn/Documents/xTIMEcomposer/workspace/module_xud/include/xud.h:483:0
	#APP
	stw r5, r3[6]
	#NO_APP
	.loc	1 486 0                 # /Users/rkn/Documents/xTIMEcomposer/workspace/module_xud/include/xud.h:486:0
	#APP
	stw r4, r3[3]
	#NO_APP
	.loc	1 489 0                 # /Users/rkn/Documents/xTIMEcomposer/workspace/module_xud/include/xud.h:489:0
	#APP
	stw r11, r3[7]
	#NO_APP
	.loc	1 491 0                 # /Users/rkn/Documents/xTIMEcomposer/workspace/module_xud/include/xud.h:491:0
	#APP
	stw r3, r7[0]
	#NO_APP
.Ltmp160:
.LBB12_4:                               # %XUD_SetReady_In.exit
	#DEBUG_VALUE: XUD_SetControlBuffer:c_out <- R0
	#DEBUG_VALUE: XUD_SetControlBuffer:c_in <- R1
	#DEBUG_VALUE: XUD_SetControlBuffer:ep_out <- R2
	#DEBUG_VALUE: XUD_SetControlBuffer:ep_in <- R3
	.loc	2 198 5                 # /Users/rkn/Documents/xTIMEcomposer/workspace/module_xud/src/XUD_EpFunctions.xc:198:5
	{
		clre
		nop
	}
	ldap r11, .Ltmp161
	.loc	2 198 5                 # /Users/rkn/Documents/xTIMEcomposer/workspace/module_xud/src/XUD_EpFunctions.xc:198:5
	{
		setv res[r0], r11
		nop
	}
	.loc	2 198 5                 # /Users/rkn/Documents/xTIMEcomposer/workspace/module_xud/src/XUD_EpFunctions.xc:198:5
	{
		eeu res[r0]
		nop
	}
	ldap r11, .Ltmp162
	.loc	2 198 5                 # /Users/rkn/Documents/xTIMEcomposer/workspace/module_xud/src/XUD_EpFunctions.xc:198:5
	{
		setv res[r1], r11
		nop
	}
	.loc	2 198 5                 # /Users/rkn/Documents/xTIMEcomposer/workspace/module_xud/src/XUD_EpFunctions.xc:198:5
	{
		eeu res[r1]
		nop
	}
	.loc	2 220 0                 # /Users/rkn/Documents/xTIMEcomposer/workspace/module_xud/src/XUD_EpFunctions.xc:220:0

	.xtabranch .LBB12_5, .LBB12_7
	{
		waiteu
		nop
	}
.Ltmp163:
.Ltmp161:                               # Block address taken
.LBB12_5:                               # %selectcase
.Lxtalabel37:
	#DEBUG_VALUE: XUD_SetControlBuffer:c_out <- R0
	#DEBUG_VALUE: XUD_SetControlBuffer:ep_out <- R2
	#DEBUG_VALUE: length <- [R11+0]
	#DEBUG_VALUE: result <- [R3+0]
	{
		ldaw r11, sp[3]
		ldaw r3, sp[2]
	}
.Ltmp164:
	.loc	2 200 0                 # /Users/rkn/Documents/xTIMEcomposer/workspace/module_xud/src/XUD_EpFunctions.xc:200:0
	{
		mov r1, r2
		mov r2, r11
	}
.Ltmp165:
.Lxta.call_labels17:
	bl XUD_GetData_Select
.Ltmp166:
	.loc	2 202 17                # /Users/rkn/Documents/xTIMEcomposer/workspace/module_xud/src/XUD_EpFunctions.xc:202:17
	{
		mkmsk r0, 32
		ldw r1, sp[2]
	}
	.loc	2 202 17                # /Users/rkn/Documents/xTIMEcomposer/workspace/module_xud/src/XUD_EpFunctions.xc:202:17
	{
		eq r1, r1, r0
		nop
	}
	bt r1, .LBB12_8
# BB#6:                                 # %selectcase
.Lxtalabel38:
	{
		ldc r0, 2
		nop
	}
	bu .LBB12_8
.Ltmp162:                               # Block address taken
.LBB12_7:                               # %selectcase1
.Lxtalabel39:
.Ltmp167:
	#DEBUG_VALUE: XUD_SetControlBuffer:c_in <- R1
	#DEBUG_VALUE: XUD_SetControlBuffer:ep_in <- R3
	#DEBUG_VALUE: result <- [R2+0]
	{
		ldaw r2, sp[2]
		mov r0, r1
	}
.Ltmp168:
	.loc	2 215 0                 # /Users/rkn/Documents/xTIMEcomposer/workspace/module_xud/src/XUD_EpFunctions.xc:215:0
	{
		mov r1, r3
		nop
	}
.Ltmp169:
.Lxta.call_labels18:
	bl XUD_SetData_Select
.Ltmp170:
	{
		ldc r0, 0
		nop
	}
.Ltmp171:
.LBB12_8:                               # %return
	ldd r7, r6, sp[3]               # 4-byte Folded Reload
	ldd r5, r4, sp[2]               # 4-byte Folded Reload
	{
		nop
		retsp 8
	}
	# RETURN_REG_HOLDER
	.cc_bottom XUD_SetControlBuffer.function
	.set	XUD_SetControlBuffer.nstackwords,((XUD_GetData_Select.nstackwords $M XUD_SetData_Select.nstackwords) + 8)
	.globl	XUD_SetControlBuffer.nstackwords
	.set	XUD_SetControlBuffer.maxcores,XUD_GetData_Select.maxcores $M XUD_SetData_Select.maxcores $M 1
	.globl	XUD_SetControlBuffer.maxcores
	.set	XUD_SetControlBuffer.maxtimers,XUD_GetData_Select.maxtimers $M XUD_SetData_Select.maxtimers $M 0
	.globl	XUD_SetControlBuffer.maxtimers
	.set	XUD_SetControlBuffer.maxchanends,XUD_GetData_Select.maxchanends $M XUD_SetData_Select.maxchanends $M 0
	.globl	XUD_SetControlBuffer.maxchanends
.Ltmp172:
	.size	XUD_SetControlBuffer, .Ltmp172-XUD_SetControlBuffer
.Lfunc_end12:
	.cfi_endproc

.Ldebug_end0:
	.file	3 "/Applications/XMOS_xTIMEcomposer_Community_14.3.2/target/include/timer.h"
	.section	.xtacalltable,"",@progbits
.Lentries_start0:
	.long	.Lentries_end1-.Lentries_start0
	.long	0
	.ascii	"/Users/rkn/Documents/xTIMEcomposer/workspace/app_usb_aud_xk_216_mc/.build_2i10o10msxxxx"
	.byte	0
.cc_top cc_0,.Lxta.call_labels0
	.ascii	"/Users/rkn/Documents/xTIMEcomposer/workspace/module_xud/src/XUD_EpFunctions.xc"
	.byte	0
	.long	19
	.long	.Lxta.call_labels0
.cc_bottom cc_0
.cc_top cc_1,.Lxta.call_labels1
	.ascii	"/Users/rkn/Documents/xTIMEcomposer/workspace/module_xud/src/XUD_EpFunctions.xc"
	.byte	0
	.long	24
	.long	.Lxta.call_labels1
.cc_bottom cc_1
.cc_top cc_2,.Lxta.call_labels2
	.ascii	"/Users/rkn/Documents/xTIMEcomposer/workspace/module_xud/src/XUD_EpFunctions.xc"
	.byte	0
	.long	30
	.long	.Lxta.call_labels2
.cc_bottom cc_2
.cc_top cc_3,.Lxta.call_labels3
	.ascii	"/Users/rkn/Documents/xTIMEcomposer/workspace/module_xud/src/XUD_EpFunctions.xc"
	.byte	0
	.long	30
	.long	.Lxta.call_labels3
.cc_bottom cc_3
.cc_top cc_4,.Lxta.call_labels12
	.ascii	"/Users/rkn/Documents/xTIMEcomposer/workspace/module_xud/src/XUD_EpFunctions.xc"
	.byte	0
	.long	30
	.long	.Lxta.call_labels12
.cc_bottom cc_4
.cc_top cc_5,.Lxta.call_labels4
	.ascii	"/Users/rkn/Documents/xTIMEcomposer/workspace/module_xud/src/XUD_EpFunctions.xc"
	.byte	0
	.long	48
	.long	.Lxta.call_labels4
.cc_bottom cc_5
.cc_top cc_6,.Lxta.call_labels8
	.ascii	"/Users/rkn/Documents/xTIMEcomposer/workspace/module_xud/src/XUD_EpFunctions.xc"
	.byte	0
	.long	48
	.long	.Lxta.call_labels8
.cc_bottom cc_6
.cc_top cc_7,.Lxta.call_labels9
	.ascii	"/Users/rkn/Documents/xTIMEcomposer/workspace/module_xud/src/XUD_EpFunctions.xc"
	.byte	0
	.long	60
	.long	.Lxta.call_labels9
.cc_bottom cc_7
.cc_top cc_8,.Lxta.call_labels5
	.ascii	"/Users/rkn/Documents/xTIMEcomposer/workspace/module_xud/src/XUD_EpFunctions.xc"
	.byte	0
	.long	60
	.long	.Lxta.call_labels5
.cc_bottom cc_8
.cc_top cc_9,.Lxta.call_labels6
	.ascii	"/Users/rkn/Documents/xTIMEcomposer/workspace/module_xud/src/XUD_EpFunctions.xc"
	.byte	0
	.long	69
	.long	.Lxta.call_labels6
.cc_bottom cc_9
.cc_top cc_10,.Lxta.call_labels7
	.ascii	"/Users/rkn/Documents/xTIMEcomposer/workspace/module_xud/src/XUD_EpFunctions.xc"
	.byte	0
	.long	69
	.long	.Lxta.call_labels7
.cc_bottom cc_10
.cc_top cc_11,.Lxta.call_labels10
	.ascii	"/Users/rkn/Documents/xTIMEcomposer/workspace/module_xud/src/XUD_EpFunctions.xc"
	.byte	0
	.long	69
	.long	.Lxta.call_labels10
.cc_bottom cc_11
.cc_top cc_12,.Lxta.call_labels11
	.ascii	"/Users/rkn/Documents/xTIMEcomposer/workspace/module_xud/src/XUD_EpFunctions.xc"
	.byte	0
	.long	88
	.long	.Lxta.call_labels11
.cc_bottom cc_12
.cc_top cc_13,.Lxta.call_labels13
	.ascii	"/Users/rkn/Documents/xTIMEcomposer/workspace/module_xud/src/XUD_EpFunctions.xc"
	.byte	0
	.long	101
	.long	.Lxta.call_labels13
.cc_bottom cc_13
.cc_top cc_14,.Lxta.call_labels14
	.ascii	"/Users/rkn/Documents/xTIMEcomposer/workspace/module_xud/src/XUD_EpFunctions.xc"
	.byte	0
	.long	109
	.long	.Lxta.call_labels14
.cc_bottom cc_14
.cc_top cc_15,.Lxta.call_labels15
	.ascii	"/Users/rkn/Documents/xTIMEcomposer/workspace/module_xud/src/XUD_EpFunctions.xc"
	.byte	0
	.long	119
	.long	.Lxta.call_labels15
.cc_bottom cc_15
.cc_top cc_16,.Lxta.call_labels16
	.ascii	"/Users/rkn/Documents/xTIMEcomposer/workspace/module_xud/src/XUD_EpFunctions.xc"
	.byte	0
	.long	129
	.long	.Lxta.call_labels16
.cc_bottom cc_16
.cc_top cc_17,.Lxta.call_labels17
	.ascii	"/Users/rkn/Documents/xTIMEcomposer/workspace/module_xud/src/XUD_EpFunctions.xc"
	.byte	0
	.long	200
	.long	.Lxta.call_labels17
.cc_bottom cc_17
.cc_top cc_18,.Lxta.call_labels18
	.ascii	"/Users/rkn/Documents/xTIMEcomposer/workspace/module_xud/src/XUD_EpFunctions.xc"
	.byte	0
	.long	215
	.long	.Lxta.call_labels18
.cc_bottom cc_18
.Lentries_end1:
	.section	.xtaendpointtable,"",@progbits
.Lentries_start2:
	.long	.Lentries_end3-.Lentries_start2
	.long	0
	.ascii	"/Users/rkn/Documents/xTIMEcomposer/workspace/app_usb_aud_xk_216_mc/.build_2i10o10msxxxx"
	.byte	0
.cc_top cc_19,.Lxta.endpoint_labels0
	.ascii	"/Users/rkn/Documents/xTIMEcomposer/workspace/module_xud/src/XUD_EpFunctions.xc"
	.byte	0
	.long	177
	.long	.Lxta.endpoint_labels0
.cc_bottom cc_19
.Lentries_end3:
	.section	.xtalabeltable,"",@progbits
.Lentries_start4:
	.long	.Lentries_end5-.Lentries_start4
	.long	0
	.ascii	"/Users/rkn/Documents/xTIMEcomposer/workspace/app_usb_aud_xk_216_mc/.build_2i10o10msxxxx"
	.byte	0
.cc_top cc_20,.Lxtalabel33
	.ascii	"/Users/rkn/Documents/xTIMEcomposer/workspace/module_xud/include/xud.h"
	.byte	0
	.long	401
	.long	403
	.long	.Lxtalabel33
.cc_bottom cc_20
.cc_top cc_21,.Lxtalabel33
	.ascii	"/Users/rkn/Documents/xTIMEcomposer/workspace/module_xud/include/xud.h"
	.byte	0
	.long	406
	.long	407
	.long	.Lxtalabel33
.cc_bottom cc_21
.cc_top cc_22,.Lxtalabel33
	.ascii	"/Users/rkn/Documents/xTIMEcomposer/workspace/module_xud/include/xud.h"
	.byte	0
	.long	408
	.long	410
	.long	.Lxtalabel33
.cc_bottom cc_22
.cc_top cc_23,.Lxtalabel34
	.ascii	"/Users/rkn/Documents/xTIMEcomposer/workspace/module_xud/include/xud.h"
	.byte	0
	.long	412
	.long	414
	.long	.Lxtalabel34
.cc_bottom cc_23
.cc_top cc_24,.Lxtalabel34
	.ascii	"/Users/rkn/Documents/xTIMEcomposer/workspace/module_xud/include/xud.h"
	.byte	0
	.long	416
	.long	417
	.long	.Lxtalabel34
.cc_bottom cc_24
.cc_top cc_25,.Lxtalabel35
	.ascii	"/Users/rkn/Documents/xTIMEcomposer/workspace/module_xud/include/xud.h"
	.byte	0
	.long	454
	.long	458
	.long	.Lxtalabel35
.cc_bottom cc_25
.cc_top cc_26,.Lxtalabel35
	.ascii	"/Users/rkn/Documents/xTIMEcomposer/workspace/module_xud/include/xud.h"
	.byte	0
	.long	460
	.long	460
	.long	.Lxtalabel35
.cc_bottom cc_26
.cc_top cc_27,.Lxtalabel35
	.ascii	"/Users/rkn/Documents/xTIMEcomposer/workspace/module_xud/include/xud.h"
	.byte	0
	.long	463
	.long	464
	.long	.Lxtalabel35
.cc_bottom cc_27
.cc_top cc_28,.Lxtalabel35
	.ascii	"/Users/rkn/Documents/xTIMEcomposer/workspace/module_xud/include/xud.h"
	.byte	0
	.long	465
	.long	467
	.long	.Lxtalabel35
.cc_bottom cc_28
.cc_top cc_29,.Lxtalabel36
	.ascii	"/Users/rkn/Documents/xTIMEcomposer/workspace/module_xud/include/xud.h"
	.byte	0
	.long	470
	.long	471
	.long	.Lxtalabel36
.cc_bottom cc_29
.cc_top cc_30,.Lxtalabel36
	.ascii	"/Users/rkn/Documents/xTIMEcomposer/workspace/module_xud/include/xud.h"
	.byte	0
	.long	473
	.long	473
	.long	.Lxtalabel36
.cc_bottom cc_30
.cc_top cc_31,.Lxtalabel36
	.ascii	"/Users/rkn/Documents/xTIMEcomposer/workspace/module_xud/include/xud.h"
	.byte	0
	.long	475
	.long	475
	.long	.Lxtalabel36
.cc_bottom cc_31
.cc_top cc_32,.Lxtalabel36
	.ascii	"/Users/rkn/Documents/xTIMEcomposer/workspace/module_xud/include/xud.h"
	.byte	0
	.long	478
	.long	478
	.long	.Lxtalabel36
.cc_bottom cc_32
.cc_top cc_33,.Lxtalabel36
	.ascii	"/Users/rkn/Documents/xTIMEcomposer/workspace/module_xud/include/xud.h"
	.byte	0
	.long	480
	.long	480
	.long	.Lxtalabel36
.cc_bottom cc_33
.cc_top cc_34,.Lxtalabel36
	.ascii	"/Users/rkn/Documents/xTIMEcomposer/workspace/module_xud/include/xud.h"
	.byte	0
	.long	483
	.long	483
	.long	.Lxtalabel36
.cc_bottom cc_34
.cc_top cc_35,.Lxtalabel36
	.ascii	"/Users/rkn/Documents/xTIMEcomposer/workspace/module_xud/include/xud.h"
	.byte	0
	.long	486
	.long	486
	.long	.Lxtalabel36
.cc_bottom cc_35
.cc_top cc_36,.Lxtalabel36
	.ascii	"/Users/rkn/Documents/xTIMEcomposer/workspace/module_xud/include/xud.h"
	.byte	0
	.long	489
	.long	489
	.long	.Lxtalabel36
.cc_bottom cc_36
.cc_top cc_37,.Lxtalabel36
	.ascii	"/Users/rkn/Documents/xTIMEcomposer/workspace/module_xud/include/xud.h"
	.byte	0
	.long	491
	.long	491
	.long	.Lxtalabel36
.cc_bottom cc_37
.cc_top cc_38,.Lxtalabel36
	.ascii	"/Users/rkn/Documents/xTIMEcomposer/workspace/module_xud/include/xud.h"
	.byte	0
	.long	493
	.long	494
	.long	.Lxtalabel36
.cc_bottom cc_38
.cc_top cc_39,.Lxtalabel35
	.ascii	"/Users/rkn/Documents/xTIMEcomposer/workspace/module_xud/include/xud.h"
	.byte	0
	.long	505
	.long	506
	.long	.Lxtalabel35
.cc_bottom cc_39
.cc_top cc_40,.Lxtalabel35
	.ascii	"/Users/rkn/Documents/xTIMEcomposer/workspace/module_xud/include/xud.h"
	.byte	0
	.long	508
	.long	508
	.long	.Lxtalabel35
.cc_bottom cc_40
.cc_top cc_41,.Lxtalabel35
	.ascii	"/Users/rkn/Documents/xTIMEcomposer/workspace/module_xud/include/xud.h"
	.byte	0
	.long	510
	.long	511
	.long	.Lxtalabel35
.cc_bottom cc_41
.cc_top cc_42,.Lxtalabel18
	.ascii	"/Users/rkn/Documents/xTIMEcomposer/workspace/module_xud/src/XUD_EpFunctions.xc"
	.byte	0
	.long	11
	.long	12
	.long	.Lxtalabel18
.cc_bottom cc_42
.cc_top cc_43,.Lxtalabel17
	.ascii	"/Users/rkn/Documents/xTIMEcomposer/workspace/module_xud/src/XUD_EpFunctions.xc"
	.byte	0
	.long	11
	.long	12
	.long	.Lxtalabel17
.cc_bottom cc_43
.cc_top cc_44,.Lxtalabel16
	.ascii	"/Users/rkn/Documents/xTIMEcomposer/workspace/module_xud/src/XUD_EpFunctions.xc"
	.byte	0
	.long	11
	.long	12
	.long	.Lxtalabel16
.cc_bottom cc_44
.cc_top cc_45,.Lxtalabel0
	.ascii	"/Users/rkn/Documents/xTIMEcomposer/workspace/module_xud/src/XUD_EpFunctions.xc"
	.byte	0
	.long	18
	.long	20
	.long	.Lxtalabel0
.cc_bottom cc_45
.cc_top cc_46,.Lxtalabel1
	.ascii	"/Users/rkn/Documents/xTIMEcomposer/workspace/module_xud/src/XUD_EpFunctions.xc"
	.byte	0
	.long	23
	.long	25
	.long	.Lxtalabel1
.cc_bottom cc_46
.cc_top cc_47,.Lxtalabel21
	.ascii	"/Users/rkn/Documents/xTIMEcomposer/workspace/module_xud/src/XUD_EpFunctions.xc"
	.byte	0
	.long	28
	.long	28
	.long	.Lxtalabel21
.cc_bottom cc_47
.cc_top cc_48,.Lxtalabel3
	.ascii	"/Users/rkn/Documents/xTIMEcomposer/workspace/module_xud/src/XUD_EpFunctions.xc"
	.byte	0
	.long	28
	.long	28
	.long	.Lxtalabel3
.cc_bottom cc_48
.cc_top cc_49,.Lxtalabel2
	.ascii	"/Users/rkn/Documents/xTIMEcomposer/workspace/module_xud/src/XUD_EpFunctions.xc"
	.byte	0
	.long	28
	.long	28
	.long	.Lxtalabel2
.cc_bottom cc_49
.cc_top cc_50,.Lxtalabel21
	.ascii	"/Users/rkn/Documents/xTIMEcomposer/workspace/module_xud/src/XUD_EpFunctions.xc"
	.byte	0
	.long	30
	.long	31
	.long	.Lxtalabel21
.cc_bottom cc_50
.cc_top cc_51,.Lxtalabel2
	.ascii	"/Users/rkn/Documents/xTIMEcomposer/workspace/module_xud/src/XUD_EpFunctions.xc"
	.byte	0
	.long	30
	.long	31
	.long	.Lxtalabel2
.cc_bottom cc_51
.cc_top cc_52,.Lxtalabel3
	.ascii	"/Users/rkn/Documents/xTIMEcomposer/workspace/module_xud/src/XUD_EpFunctions.xc"
	.byte	0
	.long	30
	.long	31
	.long	.Lxtalabel3
.cc_bottom cc_52
.cc_top cc_53,.Lxtalabel10
	.ascii	"/Users/rkn/Documents/xTIMEcomposer/workspace/module_xud/src/XUD_EpFunctions.xc"
	.byte	0
	.long	34
	.long	36
	.long	.Lxtalabel10
.cc_bottom cc_53
.cc_top cc_54,.Lxtalabel4
	.ascii	"/Users/rkn/Documents/xTIMEcomposer/workspace/module_xud/src/XUD_EpFunctions.xc"
	.byte	0
	.long	34
	.long	36
	.long	.Lxtalabel4
.cc_bottom cc_54
.cc_top cc_55,.Lxtalabel4
	.ascii	"/Users/rkn/Documents/xTIMEcomposer/workspace/module_xud/src/XUD_EpFunctions.xc"
	.byte	0
	.long	39
	.long	39
	.long	.Lxtalabel4
.cc_bottom cc_55
.cc_top cc_56,.Lxtalabel10
	.ascii	"/Users/rkn/Documents/xTIMEcomposer/workspace/module_xud/src/XUD_EpFunctions.xc"
	.byte	0
	.long	39
	.long	39
	.long	.Lxtalabel10
.cc_bottom cc_56
.cc_top cc_57,.Lxtalabel11
	.ascii	"/Users/rkn/Documents/xTIMEcomposer/workspace/module_xud/src/XUD_EpFunctions.xc"
	.byte	0
	.long	40
	.long	40
	.long	.Lxtalabel11
.cc_bottom cc_57
.cc_top cc_58,.Lxtalabel8
	.ascii	"/Users/rkn/Documents/xTIMEcomposer/workspace/module_xud/src/XUD_EpFunctions.xc"
	.byte	0
	.long	40
	.long	40
	.long	.Lxtalabel8
.cc_bottom cc_58
.cc_top cc_59,.Lxtalabel8
	.ascii	"/Users/rkn/Documents/xTIMEcomposer/workspace/module_xud/src/XUD_EpFunctions.xc"
	.byte	0
	.long	42
	.long	44
	.long	.Lxtalabel8
.cc_bottom cc_59
.cc_top cc_60,.Lxtalabel11
	.ascii	"/Users/rkn/Documents/xTIMEcomposer/workspace/module_xud/src/XUD_EpFunctions.xc"
	.byte	0
	.long	42
	.long	44
	.long	.Lxtalabel11
.cc_bottom cc_60
.cc_top cc_61,.Lxtalabel12
	.ascii	"/Users/rkn/Documents/xTIMEcomposer/workspace/module_xud/src/XUD_EpFunctions.xc"
	.byte	0
	.long	45
	.long	46
	.long	.Lxtalabel12
.cc_bottom cc_61
.cc_top cc_62,.Lxtalabel5
	.ascii	"/Users/rkn/Documents/xTIMEcomposer/workspace/module_xud/src/XUD_EpFunctions.xc"
	.byte	0
	.long	45
	.long	46
	.long	.Lxtalabel5
.cc_bottom cc_62
.cc_top cc_63,.Lxtalabel5
	.ascii	"/Users/rkn/Documents/xTIMEcomposer/workspace/module_xud/src/XUD_EpFunctions.xc"
	.byte	0
	.long	48
	.long	48
	.long	.Lxtalabel5
.cc_bottom cc_63
.cc_top cc_64,.Lxtalabel12
	.ascii	"/Users/rkn/Documents/xTIMEcomposer/workspace/module_xud/src/XUD_EpFunctions.xc"
	.byte	0
	.long	48
	.long	48
	.long	.Lxtalabel12
.cc_bottom cc_64
.cc_top cc_65,.Lxtalabel5
	.ascii	"/Users/rkn/Documents/xTIMEcomposer/workspace/module_xud/src/XUD_EpFunctions.xc"
	.byte	0
	.long	49
	.long	51
	.long	.Lxtalabel5
.cc_bottom cc_65
.cc_top cc_66,.Lxtalabel12
	.ascii	"/Users/rkn/Documents/xTIMEcomposer/workspace/module_xud/src/XUD_EpFunctions.xc"
	.byte	0
	.long	49
	.long	51
	.long	.Lxtalabel12
.cc_bottom cc_66
.cc_top cc_67,.Lxtalabel5
	.ascii	"/Users/rkn/Documents/xTIMEcomposer/workspace/module_xud/src/XUD_EpFunctions.xc"
	.byte	0
	.long	52
	.long	53
	.long	.Lxtalabel5
.cc_bottom cc_67
.cc_top cc_68,.Lxtalabel12
	.ascii	"/Users/rkn/Documents/xTIMEcomposer/workspace/module_xud/src/XUD_EpFunctions.xc"
	.byte	0
	.long	52
	.long	53
	.long	.Lxtalabel12
.cc_bottom cc_68
.cc_top cc_69,.Lxtalabel12
	.ascii	"/Users/rkn/Documents/xTIMEcomposer/workspace/module_xud/src/XUD_EpFunctions.xc"
	.byte	0
	.long	55
	.long	55
	.long	.Lxtalabel12
.cc_bottom cc_69
.cc_top cc_70,.Lxtalabel5
	.ascii	"/Users/rkn/Documents/xTIMEcomposer/workspace/module_xud/src/XUD_EpFunctions.xc"
	.byte	0
	.long	55
	.long	55
	.long	.Lxtalabel5
.cc_bottom cc_70
.cc_top cc_71,.Lxtalabel14
	.ascii	"/Users/rkn/Documents/xTIMEcomposer/workspace/module_xud/src/XUD_EpFunctions.xc"
	.byte	0
	.long	56
	.long	57
	.long	.Lxtalabel14
.cc_bottom cc_71
.cc_top cc_72,.Lxtalabel7
	.ascii	"/Users/rkn/Documents/xTIMEcomposer/workspace/module_xud/src/XUD_EpFunctions.xc"
	.byte	0
	.long	56
	.long	57
	.long	.Lxtalabel7
.cc_bottom cc_72
.cc_top cc_73,.Lxtalabel13
	.ascii	"/Users/rkn/Documents/xTIMEcomposer/workspace/module_xud/src/XUD_EpFunctions.xc"
	.byte	0
	.long	58
	.long	58
	.long	.Lxtalabel13
.cc_bottom cc_73
.cc_top cc_74,.Lxtalabel6
	.ascii	"/Users/rkn/Documents/xTIMEcomposer/workspace/module_xud/src/XUD_EpFunctions.xc"
	.byte	0
	.long	58
	.long	58
	.long	.Lxtalabel6
.cc_bottom cc_74
.cc_top cc_75,.Lxtalabel13
	.ascii	"/Users/rkn/Documents/xTIMEcomposer/workspace/module_xud/src/XUD_EpFunctions.xc"
	.byte	0
	.long	60
	.long	60
	.long	.Lxtalabel13
.cc_bottom cc_75
.cc_top cc_76,.Lxtalabel6
	.ascii	"/Users/rkn/Documents/xTIMEcomposer/workspace/module_xud/src/XUD_EpFunctions.xc"
	.byte	0
	.long	60
	.long	60
	.long	.Lxtalabel6
.cc_bottom cc_76
.cc_top cc_77,.Lxtalabel13
	.ascii	"/Users/rkn/Documents/xTIMEcomposer/workspace/module_xud/src/XUD_EpFunctions.xc"
	.byte	0
	.long	61
	.long	61
	.long	.Lxtalabel13
.cc_bottom cc_77
.cc_top cc_78,.Lxtalabel6
	.ascii	"/Users/rkn/Documents/xTIMEcomposer/workspace/module_xud/src/XUD_EpFunctions.xc"
	.byte	0
	.long	61
	.long	61
	.long	.Lxtalabel6
.cc_bottom cc_78
.cc_top cc_79,.Lxtalabel15
	.ascii	"/Users/rkn/Documents/xTIMEcomposer/workspace/module_xud/src/XUD_EpFunctions.xc"
	.byte	0
	.long	66
	.long	67
	.long	.Lxtalabel15
.cc_bottom cc_79
.cc_top cc_80,.Lxtalabel9
	.ascii	"/Users/rkn/Documents/xTIMEcomposer/workspace/module_xud/src/XUD_EpFunctions.xc"
	.byte	0
	.long	66
	.long	67
	.long	.Lxtalabel9
.cc_bottom cc_80
.cc_top cc_81,.Lxtalabel9
	.ascii	"/Users/rkn/Documents/xTIMEcomposer/workspace/module_xud/src/XUD_EpFunctions.xc"
	.byte	0
	.long	69
	.long	69
	.long	.Lxtalabel9
.cc_bottom cc_81
.cc_top cc_82,.Lxtalabel15
	.ascii	"/Users/rkn/Documents/xTIMEcomposer/workspace/module_xud/src/XUD_EpFunctions.xc"
	.byte	0
	.long	69
	.long	69
	.long	.Lxtalabel15
.cc_bottom cc_82
.cc_top cc_83,.Lxtalabel18
	.ascii	"/Users/rkn/Documents/xTIMEcomposer/workspace/module_xud/src/XUD_EpFunctions.xc"
	.byte	0
	.long	82
	.long	86
	.long	.Lxtalabel18
.cc_bottom cc_83
.cc_top cc_84,.Lxtalabel17
	.ascii	"/Users/rkn/Documents/xTIMEcomposer/workspace/module_xud/src/XUD_EpFunctions.xc"
	.byte	0
	.long	82
	.long	86
	.long	.Lxtalabel17
.cc_bottom cc_84
.cc_top cc_85,.Lxtalabel16
	.ascii	"/Users/rkn/Documents/xTIMEcomposer/workspace/module_xud/src/XUD_EpFunctions.xc"
	.byte	0
	.long	82
	.long	86
	.long	.Lxtalabel16
.cc_bottom cc_85
.cc_top cc_86,.Lxtalabel17
	.ascii	"/Users/rkn/Documents/xTIMEcomposer/workspace/module_xud/src/XUD_EpFunctions.xc"
	.byte	0
	.long	88
	.long	88
	.long	.Lxtalabel17
.cc_bottom cc_86
.cc_top cc_87,.Lxtalabel16
	.ascii	"/Users/rkn/Documents/xTIMEcomposer/workspace/module_xud/src/XUD_EpFunctions.xc"
	.byte	0
	.long	88
	.long	88
	.long	.Lxtalabel16
.cc_bottom cc_87
.cc_top cc_88,.Lxtalabel18
	.ascii	"/Users/rkn/Documents/xTIMEcomposer/workspace/module_xud/src/XUD_EpFunctions.xc"
	.byte	0
	.long	88
	.long	88
	.long	.Lxtalabel18
.cc_bottom cc_88
.cc_top cc_89,.Lxtalabel17
	.ascii	"/Users/rkn/Documents/xTIMEcomposer/workspace/module_xud/src/XUD_EpFunctions.xc"
	.byte	0
	.long	89
	.long	91
	.long	.Lxtalabel17
.cc_bottom cc_89
.cc_top cc_90,.Lxtalabel18
	.ascii	"/Users/rkn/Documents/xTIMEcomposer/workspace/module_xud/src/XUD_EpFunctions.xc"
	.byte	0
	.long	89
	.long	91
	.long	.Lxtalabel18
.cc_bottom cc_90
.cc_top cc_91,.Lxtalabel16
	.ascii	"/Users/rkn/Documents/xTIMEcomposer/workspace/module_xud/src/XUD_EpFunctions.xc"
	.byte	0
	.long	89
	.long	91
	.long	.Lxtalabel16
.cc_bottom cc_91
.cc_top cc_92,.Lxtalabel19
	.ascii	"/Users/rkn/Documents/xTIMEcomposer/workspace/module_xud/src/XUD_EpFunctions.xc"
	.byte	0
	.long	95
	.long	95
	.long	.Lxtalabel19
.cc_bottom cc_92
.cc_top cc_93,.Lxtalabel20
	.ascii	"/Users/rkn/Documents/xTIMEcomposer/workspace/module_xud/src/XUD_EpFunctions.xc"
	.byte	0
	.long	95
	.long	95
	.long	.Lxtalabel20
.cc_bottom cc_93
.cc_top cc_94,.Lxtalabel21
	.ascii	"/Users/rkn/Documents/xTIMEcomposer/workspace/module_xud/src/XUD_EpFunctions.xc"
	.byte	0
	.long	96
	.long	98
	.long	.Lxtalabel21
.cc_bottom cc_94
.cc_top cc_95,.Lxtalabel22
	.ascii	"/Users/rkn/Documents/xTIMEcomposer/workspace/module_xud/src/XUD_EpFunctions.xc"
	.byte	0
	.long	101
	.long	102
	.long	.Lxtalabel22
.cc_bottom cc_95
.cc_top cc_96,.Lxtalabel23
	.ascii	"/Users/rkn/Documents/xTIMEcomposer/workspace/module_xud/src/XUD_EpFunctions.xc"
	.byte	0
	.long	105
	.long	106
	.long	.Lxtalabel23
.cc_bottom cc_96
.cc_top cc_97,.Lxtalabel23
	.ascii	"/Users/rkn/Documents/xTIMEcomposer/workspace/module_xud/src/XUD_EpFunctions.xc"
	.byte	0
	.long	109
	.long	110
	.long	.Lxtalabel23
.cc_bottom cc_97
.cc_top cc_98,.Lxtalabel31
	.ascii	"/Users/rkn/Documents/xTIMEcomposer/workspace/module_xud/src/XUD_EpFunctions.xc"
	.byte	0
	.long	113
	.long	113
	.long	.Lxtalabel31
.cc_bottom cc_98
.cc_top cc_99,.Lxtalabel31
	.ascii	"/Users/rkn/Documents/xTIMEcomposer/workspace/module_xud/src/XUD_EpFunctions.xc"
	.byte	0
	.long	115
	.long	115
	.long	.Lxtalabel31
.cc_bottom cc_99
.cc_top cc_100,.Lxtalabel31
	.ascii	"/Users/rkn/Documents/xTIMEcomposer/workspace/module_xud/src/XUD_EpFunctions.xc"
	.byte	0
	.long	117
	.long	117
	.long	.Lxtalabel31
.cc_bottom cc_100
.cc_top cc_101,.Lxtalabel31
	.ascii	"/Users/rkn/Documents/xTIMEcomposer/workspace/module_xud/src/XUD_EpFunctions.xc"
	.byte	0
	.long	119
	.long	120
	.long	.Lxtalabel31
.cc_bottom cc_101
.cc_top cc_102,.Lxtalabel32
	.ascii	"/Users/rkn/Documents/xTIMEcomposer/workspace/module_xud/src/XUD_EpFunctions.xc"
	.byte	0
	.long	123
	.long	123
	.long	.Lxtalabel32
.cc_bottom cc_102
.cc_top cc_103,.Lxtalabel32
	.ascii	"/Users/rkn/Documents/xTIMEcomposer/workspace/module_xud/src/XUD_EpFunctions.xc"
	.byte	0
	.long	125
	.long	125
	.long	.Lxtalabel32
.cc_bottom cc_103
.cc_top cc_104,.Lxtalabel32
	.ascii	"/Users/rkn/Documents/xTIMEcomposer/workspace/module_xud/src/XUD_EpFunctions.xc"
	.byte	0
	.long	127
	.long	127
	.long	.Lxtalabel32
.cc_bottom cc_104
.cc_top cc_105,.Lxtalabel32
	.ascii	"/Users/rkn/Documents/xTIMEcomposer/workspace/module_xud/src/XUD_EpFunctions.xc"
	.byte	0
	.long	129
	.long	130
	.long	.Lxtalabel32
.cc_bottom cc_105
.cc_top cc_106,.Lxtalabel24
	.ascii	"/Users/rkn/Documents/xTIMEcomposer/workspace/module_xud/src/XUD_EpFunctions.xc"
	.byte	0
	.long	133
	.long	135
	.long	.Lxtalabel24
.cc_bottom cc_106
.cc_top cc_107,.Lxtalabel24
	.ascii	"/Users/rkn/Documents/xTIMEcomposer/workspace/module_xud/src/XUD_EpFunctions.xc"
	.byte	0
	.long	137
	.long	137
	.long	.Lxtalabel24
.cc_bottom cc_107
.cc_top cc_108,.Lxtalabel24
	.ascii	"/Users/rkn/Documents/xTIMEcomposer/workspace/module_xud/src/XUD_EpFunctions.xc"
	.byte	0
	.long	140
	.long	141
	.long	.Lxtalabel24
.cc_bottom cc_108
.cc_top cc_109,.Lxtalabel24
	.ascii	"/Users/rkn/Documents/xTIMEcomposer/workspace/module_xud/src/XUD_EpFunctions.xc"
	.byte	0
	.long	143
	.long	143
	.long	.Lxtalabel24
.cc_bottom cc_109
.cc_top cc_110,.Lxtalabel25
	.ascii	"/Users/rkn/Documents/xTIMEcomposer/workspace/module_xud/src/XUD_EpFunctions.xc"
	.byte	0
	.long	144
	.long	147
	.long	.Lxtalabel25
.cc_bottom cc_110
.cc_top cc_111,.Lxtalabel26
	.ascii	"/Users/rkn/Documents/xTIMEcomposer/workspace/module_xud/src/XUD_EpFunctions.xc"
	.byte	0
	.long	150
	.long	151
	.long	.Lxtalabel26
.cc_bottom cc_111
.cc_top cc_112,.Lxtalabel26
	.ascii	"/Users/rkn/Documents/xTIMEcomposer/workspace/module_xud/src/XUD_EpFunctions.xc"
	.byte	0
	.long	154
	.long	154
	.long	.Lxtalabel26
.cc_bottom cc_112
.cc_top cc_113,.Lxtalabel26
	.ascii	"/Users/rkn/Documents/xTIMEcomposer/workspace/module_xud/src/XUD_EpFunctions.xc"
	.byte	0
	.long	156
	.long	156
	.long	.Lxtalabel26
.cc_bottom cc_113
.cc_top cc_114,.Lxtalabel27
	.ascii	"/Users/rkn/Documents/xTIMEcomposer/workspace/module_xud/src/XUD_EpFunctions.xc"
	.byte	0
	.long	157
	.long	159
	.long	.Lxtalabel27
.cc_bottom cc_114
.cc_top cc_115,.Lxtalabel27
	.ascii	"/Users/rkn/Documents/xTIMEcomposer/workspace/module_xud/src/XUD_EpFunctions.xc"
	.byte	0
	.long	162
	.long	163
	.long	.Lxtalabel27
.cc_bottom cc_115
.cc_top cc_116,.Lxtalabel27
	.ascii	"/Users/rkn/Documents/xTIMEcomposer/workspace/module_xud/src/XUD_EpFunctions.xc"
	.byte	0
	.long	166
	.long	166
	.long	.Lxtalabel27
.cc_bottom cc_116
.cc_top cc_117,.Lxtalabel28
	.ascii	"/Users/rkn/Documents/xTIMEcomposer/workspace/module_xud/src/XUD_EpFunctions.xc"
	.byte	0
	.long	166
	.long	166
	.long	.Lxtalabel28
.cc_bottom cc_117
.cc_top cc_118,.Lxtalabel27
	.ascii	"/Users/rkn/Documents/xTIMEcomposer/workspace/module_xud/src/XUD_EpFunctions.xc"
	.byte	0
	.long	168
	.long	168
	.long	.Lxtalabel27
.cc_bottom cc_118
.cc_top cc_119,.Lxtalabel28
	.ascii	"/Users/rkn/Documents/xTIMEcomposer/workspace/module_xud/src/XUD_EpFunctions.xc"
	.byte	0
	.long	168
	.long	168
	.long	.Lxtalabel28
.cc_bottom cc_119
.cc_top cc_120,.Lxtalabel27
	.ascii	"/Users/rkn/Documents/xTIMEcomposer/workspace/module_xud/src/XUD_EpFunctions.xc"
	.byte	0
	.long	169
	.long	171
	.long	.Lxtalabel27
.cc_bottom cc_120
.cc_top cc_121,.Lxtalabel29
	.ascii	"/Users/rkn/Documents/xTIMEcomposer/workspace/module_xud/src/XUD_EpFunctions.xc"
	.byte	0
	.long	172
	.long	173
	.long	.Lxtalabel29
.cc_bottom cc_121
.cc_top cc_122,.Lxtalabel30
	.ascii	"/Users/rkn/Documents/xTIMEcomposer/workspace/module_xud/src/XUD_EpFunctions.xc"
	.byte	0
	.long	176
	.long	179
	.long	.Lxtalabel30
.cc_bottom cc_122
.cc_top cc_123,.Lxtalabel33
	.ascii	"/Users/rkn/Documents/xTIMEcomposer/workspace/module_xud/src/XUD_EpFunctions.xc"
	.byte	0
	.long	190
	.long	192
	.long	.Lxtalabel33
.cc_bottom cc_123
.cc_top cc_124,.Lxtalabel33
	.ascii	"/Users/rkn/Documents/xTIMEcomposer/workspace/module_xud/src/XUD_EpFunctions.xc"
	.byte	0
	.long	195
	.long	196
	.long	.Lxtalabel33
.cc_bottom cc_124
.cc_top cc_125,.Lxtalabel33
	.ascii	"/Users/rkn/Documents/xTIMEcomposer/workspace/module_xud/src/XUD_EpFunctions.xc"
	.byte	0
	.long	198
	.long	200
	.long	.Lxtalabel33
.cc_bottom cc_125
.cc_top cc_126,.Lxtalabel37
	.ascii	"/Users/rkn/Documents/xTIMEcomposer/workspace/module_xud/src/XUD_EpFunctions.xc"
	.byte	0
	.long	202
	.long	202
	.long	.Lxtalabel37
.cc_bottom cc_126
.cc_top cc_127,.Lxtalabel38
	.ascii	"/Users/rkn/Documents/xTIMEcomposer/workspace/module_xud/src/XUD_EpFunctions.xc"
	.byte	0
	.long	202
	.long	202
	.long	.Lxtalabel38
.cc_bottom cc_127
.cc_top cc_128,.Lxtalabel39
	.ascii	"/Users/rkn/Documents/xTIMEcomposer/workspace/module_xud/src/XUD_EpFunctions.xc"
	.byte	0
	.long	219
	.long	221
	.long	.Lxtalabel39
.cc_bottom cc_128
.Lentries_end5:
	.section	.trap_info,"",@progbits
.Ltrap_info_entries_start0:
	.long	.Ltrap_info_entries_end0-.Ltrap_info_entries_start0
	.long	1
.Ltrap_info_entries_end0: